Component: ARM Compiler 6.16 Tool: armlink [5dfeaa00]

==============================================================================

Section Cross References

    amcbldc-main.o(.text.__cxx_global_var_init) refers to amcbldc-main.o(.rodata._ZL5cmcfg) for cmcfg
    amcbldc-main.o(.text.__cxx_global_var_init) refers to amcbldc-main.o(.rodata._ZL5tmcfg) for tmcfg
    amcbldc-main.o(.text.__cxx_global_var_init) refers to amcbldc-main.o(.bss._ZL6syscfg) for syscfg
    amcbldc-main.o(.text.__cxx_global_var_init) refers to amcbldc-main.o(.text._ZN5embot3app8skeleton2os5basic9sysConfigC2EtPvtS5_S5_RKNS_2os15theTimerManager6ConfigERKNS6_18theCallbackManager6ConfigEj) for embot::app::skeleton::os::basic::sysConfig::sysConfig__sub_object(unsigned short, void*, unsigned short, void*, void*, embot::os::theTimerManager::Config const&, embot::os::theCallbackManager::Config const&, unsigned int)
    amcbldc-main.o(.ARM.exidx.text.__cxx_global_var_init) refers to amcbldc-main.o(.text.__cxx_global_var_init) for [Anonymous Symbol]
    amcbldc-main.o(.text.__cxx_global_var_init.1) refers to amcbldc-main.o(.bss._ZL6evtcfg) for evtcfg
    amcbldc-main.o(.text.__cxx_global_var_init.1) refers to amcbldc-main.o(.text._ZN5embot3app8skeleton2os11evthreadcan9evtConfigC2EtPvj) for embot::app::skeleton::os::evthreadcan::evtConfig::evtConfig__sub_object(unsigned short, void*, unsigned int)
    amcbldc-main.o(.ARM.exidx.text.__cxx_global_var_init.1) refers to amcbldc-main.o(.text.__cxx_global_var_init.1) for [Anonymous Symbol]
    amcbldc-main.o(.text.__cxx_global_var_init.2) refers to amcbldc-main.o(.bss._ZL5mysys) for mysys
    amcbldc-main.o(.text.__cxx_global_var_init.2) refers to amcbldc-main.o(.bss._ZL6syscfg) for syscfg
    amcbldc-main.o(.text.__cxx_global_var_init.2) refers to amcbldc-main.o(.text._ZN5mySYSC2ERKN5embot3app8skeleton2os5basic9sysConfigE) for mySYS::mySYS__sub_object(embot::app::skeleton::os::basic::sysConfig const&)
    amcbldc-main.o(.ARM.exidx.text.__cxx_global_var_init.2) refers to amcbldc-main.o(.text.__cxx_global_var_init.2) for [Anonymous Symbol]
    amcbldc-main.o(.text.__cxx_global_var_init.3) refers to amcbldc-main.o(.bss._ZL5myevt) for myevt
    amcbldc-main.o(.text.__cxx_global_var_init.3) refers to amcbldc-main.o(.bss._ZL6evtcfg) for evtcfg
    amcbldc-main.o(.text.__cxx_global_var_init.3) refers to amcbldc-main.o(.rodata._ZL6cancfg) for cancfg
    amcbldc-main.o(.text.__cxx_global_var_init.3) refers to amcbldc-main.o(.rodata._ZL8applInfo) for applInfo
    amcbldc-main.o(.text.__cxx_global_var_init.3) refers to amcbldc-main.o(.text._ZN5myEVTC2ERKN5embot3app8skeleton2os11evthreadcan9evtConfigERKNS4_9canConfigERKNS1_15theCANboardInfo15applicationInfoE) for myEVT::myEVT__sub_object(embot::app::skeleton::os::evthreadcan::evtConfig const&, embot::app::skeleton::os::evthreadcan::canConfig const&, embot::app::theCANboardInfo::applicationInfo const&)
    amcbldc-main.o(.ARM.exidx.text.__cxx_global_var_init.3) refers to amcbldc-main.o(.text.__cxx_global_var_init.3) for [Anonymous Symbol]
    amcbldc-main.o(.text.main) refers to amcbldc-main.o(.rodata._ZL3cfg) for cfg
    amcbldc-main.o(.text.main) refers to embot_app_skeleton_os_evthreadcan.o(.text._ZN5embot3app8skeleton2os11evthreadcan3runERKNS3_3CFGE) for embot::app::skeleton::os::evthreadcan::run(embot::app::skeleton::os::evthreadcan::CFG const&)
    amcbldc-main.o(.ARM.exidx.text.main) refers to amcbldc-main.o(.text.main) for [Anonymous Symbol]
    amcbldc-main.o(.text._Z14s_shared_startv) refers to embot_os_rtos.o(.text._Znwj) for operator new(unsigned int)
    amcbldc-main.o(.text._Z14s_shared_startv) refers to amcbldc-main.o(.text._ZN8shared_tC2Ev) for shared_t::shared_t__sub_object()
    amcbldc-main.o(.text._Z14s_shared_startv) refers to amcbldc-main.o(.bss.shared) for shared
    amcbldc-main.o(.ARM.exidx.text._Z14s_shared_startv) refers to amcbldc-main.o(.text._Z14s_shared_startv) for [Anonymous Symbol]
    amcbldc-main.o(.text._ZNK5mySYS13userdefOnIdleEPN5embot2os6ThreadEPv) refers to amcbldc-main.o(.bss._ZZNK5mySYS13userdefOnIdleEPN5embot2os6ThreadEPvE1a) for mySYS::userdefOnIdle(embot::os::Thread*, void*) const::a
    amcbldc-main.o(.ARM.exidx.text._ZNK5mySYS13userdefOnIdleEPN5embot2os6ThreadEPv) refers to amcbldc-main.o(.text._ZNK5mySYS13userdefOnIdleEPN5embot2os6ThreadEPv) for [Anonymous Symbol]
    amcbldc-main.o(.text._ZNK5mySYS16userdefonOSerrorEPv) refers to embot_os_thescheduler.o(.text._ZN5embot2os12theScheduler11getInstanceEv) for embot::os::theScheduler::getInstance()
    amcbldc-main.o(.text._ZNK5mySYS16userdefonOSerrorEPv) refers to amcbldc-main.o(.bss._ZZNK5mySYS16userdefonOSerrorEPvE4code) for mySYS::userdefonOSerror(void*) const::code
    amcbldc-main.o(.text._ZNK5mySYS16userdefonOSerrorEPv) refers to embot_os_thescheduler.o(.text._ZNK5embot2os12theScheduler10getOSerrorERi) for embot::os::theScheduler::getOSerror(int&) const
    amcbldc-main.o(.ARM.exidx.text._ZNK5mySYS16userdefonOSerrorEPv) refers to amcbldc-main.o(.text._ZNK5mySYS16userdefonOSerrorEPv) for [Anonymous Symbol]
    amcbldc-main.o(.text._ZNK5mySYS17userdefInit_ExtraEPN5embot2os11EventThreadEPv) refers to embot_app_theledmanager.o(.text._ZN5embot3app13theLEDmanager11getInstanceEv) for embot::app::theLEDmanager::getInstance()
    amcbldc-main.o(.text._ZNK5mySYS17userdefInit_ExtraEPN5embot2os11EventThreadEPv) refers to amcbldc-main.o(.rodata._ZZNK5mySYS17userdefInit_ExtraEPN5embot2os11EventThreadEPvE10alltheleds) for mySYS::userdefInit_Extra(embot::os::EventThread*, void*) const::alltheleds
    amcbldc-main.o(.text._ZNK5mySYS17userdefInit_ExtraEPN5embot2os11EventThreadEPv) refers to embot_app_theledmanager.o(.text._ZN5embot3app13theLEDmanager4initERKSt16initializer_listINS_2hw3LEDEE) for embot::app::theLEDmanager::init(std::initializer_list<embot::hw::LED> const&)
    amcbldc-main.o(.text._ZNK5mySYS17userdefInit_ExtraEPN5embot2os11EventThreadEPv) refers to embot_app_theledmanager.o(.text._ZNK5embot3app13theLEDmanager3getENS_2hw3LEDE) for embot::app::theLEDmanager::get(embot::hw::LED) const
    amcbldc-main.o(.text._ZNK5mySYS17userdefInit_ExtraEPN5embot2os11EventThreadEPv) refers to amcbldc-main.o(.text._ZN5embot3app8LEDwaveTILt64EEC2EjtNSt3__26bitsetILj64EEEt) for embot::app::LEDwaveT<(unsigned short)64>::LEDwaveT__sub_object(unsigned int, unsigned short, std::__2::bitset<64u>, unsigned short)
    amcbldc-main.o(.text._ZNK5mySYS17userdefInit_ExtraEPN5embot2os11EventThreadEPv) refers to embot_app_application_thecanparserbasic.o(.text._ZN5embot3app11application17theCANparserBasic11getInstanceEv) for embot::app::application::theCANparserBasic::getInstance()
    amcbldc-main.o(.text._ZNK5mySYS17userdefInit_ExtraEPN5embot2os11EventThreadEPv) refers to embot_app_application_thecanparserbasic.o(.text._ZN5embot3app11application17theCANparserBasic10initialiseERKNS2_6ConfigE) for embot::app::application::theCANparserBasic::initialise(embot::app::application::theCANparserBasic::Config const&)
    amcbldc-main.o(.text._ZNK5mySYS17userdefInit_ExtraEPN5embot2os11EventThreadEPv) refers to amcbldc-main.o(.bss.t_COMM) for t_COMM
    amcbldc-main.o(.text._ZNK5mySYS17userdefInit_ExtraEPN5embot2os11EventThreadEPv) refers to amcbldc-main.o(.text._Z19s_start_CTRL_threadv) for s_start_CTRL_thread()
    amcbldc-main.o(.text._ZNK5mySYS17userdefInit_ExtraEPN5embot2os11EventThreadEPv) refers to amcbldc-main.o(.text._Z14s_shared_startv) for s_shared_start()
    amcbldc-main.o(.text._ZNK5mySYS17userdefInit_ExtraEPN5embot2os11EventThreadEPv) refers to amcbldc-main.o(.rodata.str1.1) for .L.str
    amcbldc-main.o(.text._ZNK5mySYS17userdefInit_ExtraEPN5embot2os11EventThreadEPv) refers to amcbldc-main.o(.text._ZNSt3__211char_traitsIcE6lengthEPKc) for std::__2::char_traits<char>::length(char const*)
    amcbldc-main.o(.text._ZNK5mySYS17userdefInit_ExtraEPN5embot2os11EventThreadEPv) refers to string.cpp.o(.text._ZNSt3__212basic_stringIcNS_11char_traitsIcEENS_9allocatorIcEEE6__initEPKcj) for std::__2::basic_string<char, std::__2::char_traits<char>, std::__2::allocator<char> >::__init(char const*, unsigned int)
    amcbldc-main.o(.text._ZNK5mySYS17userdefInit_ExtraEPN5embot2os11EventThreadEPv) refers to embot_core.o(.text._ZN5embot4core5printERKNSt3__212basic_stringIcNS1_11char_traitsIcEENS1_9allocatorIcEEEE) for embot::core::print(std::__2::basic_string<char, std::__2::char_traits<char>, std::__2::allocator<char> > const&)
    amcbldc-main.o(.text._ZNK5mySYS17userdefInit_ExtraEPN5embot2os11EventThreadEPv) refers to string.cpp.o(.text._ZNSt3__212basic_stringIcNS_11char_traitsIcEENS_9allocatorIcEEED2Ev) for std::__2::basic_string<char, std::__2::char_traits<char>, std::__2::allocator<char> >::~basic_string__sub_object()
    amcbldc-main.o(.text._ZNK5mySYS17userdefInit_ExtraEPN5embot2os11EventThreadEPv) refers to amcbldc-main.o(.text._ZN5embot3app8LEDwaveTILt64EED2Ev) for embot::app::LEDwaveT<(unsigned short)64>::~LEDwaveT__sub_object()
    amcbldc-main.o(.ARM.exidx.text._ZNK5mySYS17userdefInit_ExtraEPN5embot2os11EventThreadEPv) refers to amcbldc-main.o(.text._ZNK5mySYS17userdefInit_ExtraEPN5embot2os11EventThreadEPv) for [Anonymous Symbol]
    amcbldc-main.o(.text._Z19s_start_CTRL_threadv) refers to embot_os_rtos.o(.text._Znwj) for operator new(unsigned int)
    amcbldc-main.o(.text._Z19s_start_CTRL_threadv) refers to embot_os_thread.o(.text._ZN5embot2os11EventThreadC2Ev) for embot::os::EventThread::EventThread()
    amcbldc-main.o(.text._Z19s_start_CTRL_threadv) refers to amcbldc-main.o(.bss.t_CTRL) for t_CTRL
    amcbldc-main.o(.text._Z19s_start_CTRL_threadv) refers to amcbldc-main.o(.text._Z13tCTRL_oneventPN5embot2os6ThreadEjPv) for tCTRL_onevent(embot::os::Thread*, unsigned int, void*)
    amcbldc-main.o(.text._Z19s_start_CTRL_threadv) refers to amcbldc-main.o(.text._Z13tCTRL_startupPN5embot2os6ThreadEPv) for tCTRL_startup(embot::os::Thread*, void*)
    amcbldc-main.o(.text._Z19s_start_CTRL_threadv) refers to amcbldc-main.o(.text._ZN5embot2os11EventThread6ConfigC2EtNS0_8PriorityEPFvPNS0_6ThreadEPvES6_jPFvS5_jS6_EPKc) for embot::os::EventThread::Config::Config__sub_object(unsigned short, embot::os::Priority, void (*)(embot::os::Thread*, void*), void*, unsigned int, void (*)(embot::os::Thread*, unsigned int, void*), char const*)
    amcbldc-main.o(.text._Z19s_start_CTRL_threadv) refers to amcbldc-main.o(.text._Z7thrCTRLPv) for thrCTRL(void*)
    amcbldc-main.o(.text._Z19s_start_CTRL_threadv) refers to embot_os_thread.o(.text._ZN5embot2os11EventThread5startERKNS1_6ConfigEPFvPvE) for embot::os::EventThread::start(embot::os::EventThread::Config const&, void (*)(void*))
    amcbldc-main.o(.ARM.exidx.text._Z19s_start_CTRL_threadv) refers to amcbldc-main.o(.text._Z19s_start_CTRL_threadv) for [Anonymous Symbol]
    amcbldc-main.o(.text._ZNK5myEVT14userdefStartupEPN5embot2os6ThreadEPv) refers to embot_os_rtos.o(.text._Znwj) for operator new(unsigned int)
    amcbldc-main.o(.text._ZNK5myEVT14userdefStartupEPN5embot2os6ThreadEPv) refers to embot_os_timer.o(.text._ZN5embot2os5TimerC2Ev) for embot::os::Timer::Timer()
    amcbldc-main.o(.text._ZNK5myEVT14userdefStartupEPN5embot2os6ThreadEPv) refers to amcbldc-main.o(.text._ZN5embot2os13EventToThreadC2EjPNS0_6ThreadE) for embot::os::EventToThread::EventToThread__sub_object(unsigned int, embot::os::Thread*)
    amcbldc-main.o(.text._ZNK5myEVT14userdefStartupEPN5embot2os6ThreadEPv) refers to amcbldc-main.o(.text._ZN5embot2os6ActionC2ERKNS0_13EventToThreadE) for embot::os::Action::Action__sub_object(embot::os::EventToThread const&)
    amcbldc-main.o(.text._ZNK5myEVT14userdefStartupEPN5embot2os6ThreadEPv) refers to amcbldc-main.o(.text._ZN5embot2os5Timer6ConfigC2EjRKNS0_6ActionENS1_4ModeEj) for embot::os::Timer::Config::Config__sub_object(unsigned int, embot::os::Action const&, embot::os::Timer::Mode, unsigned int)
    amcbldc-main.o(.text._ZNK5myEVT14userdefStartupEPN5embot2os6ThreadEPv) refers to embot_os_timer.o(.text._ZN5embot2os5Timer5startERKNS1_6ConfigEb) for embot::os::Timer::start(embot::os::Timer::Config const&, bool)
    amcbldc-main.o(.ARM.exidx.text._ZNK5myEVT14userdefStartupEPN5embot2os6ThreadEPv) refers to amcbldc-main.o(.text._ZNK5myEVT14userdefStartupEPN5embot2os6ThreadEPv) for [Anonymous Symbol]
    amcbldc-main.o(.text._ZNK5myEVT16userdefOnTimeoutEPN5embot2os6ThreadEjPv) refers to amcbldc-main.o(.bss._ZZNK5myEVT16userdefOnTimeoutEPN5embot2os6ThreadEjPvE3cnt) for myEVT::userdefOnTimeout(embot::os::Thread*, unsigned int, void*) const::cnt
    amcbldc-main.o(.ARM.exidx.text._ZNK5myEVT16userdefOnTimeoutEPN5embot2os6ThreadEjPv) refers to amcbldc-main.o(.text._ZNK5myEVT16userdefOnTimeoutEPN5embot2os6ThreadEjPv) for [Anonymous Symbol]
    amcbldc-main.o(.text._ZNK5myEVT24userdefOnEventRXcanframeEPN5embot2os6ThreadEjPvRKNS0_4prot3can5FrameERNSt3__26vectorIS7_NSA_9allocatorIS7_EEEE) refers to embot_app_application_thecanparserbasic.o(.text._ZN5embot3app11application17theCANparserBasic11getInstanceEv) for embot::app::application::theCANparserBasic::getInstance()
    amcbldc-main.o(.text._ZNK5myEVT24userdefOnEventRXcanframeEPN5embot2os6ThreadEjPvRKNS0_4prot3can5FrameERNSt3__26vectorIS7_NSA_9allocatorIS7_EEEE) refers to embot_app_application_thecanparserbasic.o(.text._ZN5embot3app11application17theCANparserBasic7processERKNS_4prot3can5FrameERNSt3__26vectorIS5_NS8_9allocatorIS5_EEEE) for embot::app::application::theCANparserBasic::process(embot::prot::can::Frame const&, std::__2::vector<embot::prot::can::Frame, std::__2::allocator<embot::prot::can::Frame> >&)
    amcbldc-main.o(.text._ZNK5myEVT24userdefOnEventRXcanframeEPN5embot2os6ThreadEjPvRKNS0_4prot3can5FrameERNSt3__26vectorIS7_NSA_9allocatorIS7_EEEE) refers to amcbldc-main.o(.bss.shared) for shared
    amcbldc-main.o(.text._ZNK5myEVT24userdefOnEventRXcanframeEPN5embot2os6ThreadEjPvRKNS0_4prot3can5FrameERNSt3__26vectorIS7_NSA_9allocatorIS7_EEEE) refers to amcbldc-main.o(.text._ZN8shared_t5addrxERKN5embot4prot3can5FrameE) for shared_t::addrx(embot::prot::can::Frame const&)
    amcbldc-main.o(.text._ZNK5myEVT24userdefOnEventRXcanframeEPN5embot2os6ThreadEjPvRKNS0_4prot3can5FrameERNSt3__26vectorIS7_NSA_9allocatorIS7_EEEE) refers to amcbldc-main.o(.bss.t_CTRL) for t_CTRL
    amcbldc-main.o(.ARM.exidx.text._ZNK5myEVT24userdefOnEventRXcanframeEPN5embot2os6ThreadEjPvRKNS0_4prot3can5FrameERNSt3__26vectorIS7_NSA_9allocatorIS7_EEEE) refers to amcbldc-main.o(.text._ZNK5myEVT24userdefOnEventRXcanframeEPN5embot2os6ThreadEjPvRKNS0_4prot3can5FrameERNSt3__26vectorIS7_NSA_9allocatorIS7_EEEE) for [Anonymous Symbol]
    amcbldc-main.o(.text._ZNK5myEVT22userdefOnEventANYotherEPN5embot2os6ThreadEjPvRNSt3__26vectorINS0_4prot3can5FrameENS5_9allocatorIS9_EEEE) refers to amcbldc-main.o(.text._ZN5embot4core6binary4mask5checkIjEEbT_S4_h) for bool embot::core::binary::mask::check<unsigned int>(unsigned int, unsigned int, unsigned char)
    amcbldc-main.o(.text._ZNK5myEVT22userdefOnEventANYotherEPN5embot2os6ThreadEjPvRNSt3__26vectorINS0_4prot3can5FrameENS5_9allocatorIS9_EEEE) refers to amcbldc-main.o(.text._ZN5embot4prot3can5FrameC2Ev) for embot::prot::can::Frame::Frame__sub_object()
    amcbldc-main.o(.text._ZNK5myEVT22userdefOnEventANYotherEPN5embot2os6ThreadEjPvRNSt3__26vectorINS0_4prot3can5FrameENS5_9allocatorIS9_EEEE) refers to amcbldc-main.o(.bss.shared) for shared
    amcbldc-main.o(.text._ZNK5myEVT22userdefOnEventANYotherEPN5embot2os6ThreadEjPvRNSt3__26vectorINS0_4prot3can5FrameENS5_9allocatorIS9_EEEE) refers to amcbldc-main.o(.text._ZN8shared_t5gettxERN5embot4prot3can5FrameERj) for shared_t::gettx(embot::prot::can::Frame&, unsigned int&)
    amcbldc-main.o(.text._ZNK5myEVT22userdefOnEventANYotherEPN5embot2os6ThreadEjPvRNSt3__26vectorINS0_4prot3can5FrameENS5_9allocatorIS9_EEEE) refers to amcbldc-main.o(.text._ZNSt3__26vectorIN5embot4prot3can5FrameENS_9allocatorIS4_EEE21_ConstructTransactionC2ERS7_j) for std::__2::vector<embot::prot::can::Frame, std::__2::allocator<embot::prot::can::Frame> >::_ConstructTransaction::_ConstructTransaction__sub_object(std::__2::vector<embot::prot::can::Frame, std::__2::allocator<embot::prot::can::Frame> >&, unsigned int)
    amcbldc-main.o(.text._ZNK5myEVT22userdefOnEventANYotherEPN5embot2os6ThreadEjPvRNSt3__26vectorINS0_4prot3can5FrameENS5_9allocatorIS9_EEEE) refers to amcbldc-main.o(.text._ZNSt3__26vectorIN5embot4prot3can5FrameENS_9allocatorIS4_EEE21_ConstructTransactionD2Ev) for std::__2::vector<embot::prot::can::Frame, std::__2::allocator<embot::prot::can::Frame> >::_ConstructTransaction::~_ConstructTransaction__sub_object()
    amcbldc-main.o(.text._ZNK5myEVT22userdefOnEventANYotherEPN5embot2os6ThreadEjPvRNSt3__26vectorINS0_4prot3can5FrameENS5_9allocatorIS9_EEEE) refers to amcbldc-main.o(.text._ZNKSt3__26vectorIN5embot4prot3can5FrameENS_9allocatorIS4_EEE8max_sizeEv) for std::__2::vector<embot::prot::can::Frame, std::__2::allocator<embot::prot::can::Frame> >::max_size() const
    amcbldc-main.o(.text._ZNK5myEVT22userdefOnEventANYotherEPN5embot2os6ThreadEjPvRNSt3__26vectorINS0_4prot3can5FrameENS5_9allocatorIS9_EEEE) refers to amcbldc-main.o(.text._ZNSt3__214__split_bufferIN5embot4prot3can5FrameERNS_9allocatorIS4_EEEC2EjjS7_) for std::__2::__split_buffer<embot::prot::can::Frame, std::__2::allocator<embot::prot::can::Frame>&>::__split_buffer__sub_object(unsigned int, unsigned int, std::__2::allocator<embot::prot::can::Frame>&)
    amcbldc-main.o(.text._ZNK5myEVT22userdefOnEventANYotherEPN5embot2os6ThreadEjPvRNSt3__26vectorINS0_4prot3can5FrameENS5_9allocatorIS9_EEEE) refers to amcbldc-main.o(.text._ZNSt3__26vectorIN5embot4prot3can5FrameENS_9allocatorIS4_EEE26__swap_out_circular_bufferERNS_14__split_bufferIS4_RS6_EE) for std::__2::vector<embot::prot::can::Frame, std::__2::allocator<embot::prot::can::Frame> >::__swap_out_circular_buffer(std::__2::__split_buffer<embot::prot::can::Frame, std::__2::allocator<embot::prot::can::Frame>&>&)
    amcbldc-main.o(.text._ZNK5myEVT22userdefOnEventANYotherEPN5embot2os6ThreadEjPvRNSt3__26vectorINS0_4prot3can5FrameENS5_9allocatorIS9_EEEE) refers to amcbldc-main.o(.text._ZNSt3__214__split_bufferIN5embot4prot3can5FrameERNS_9allocatorIS4_EEED2Ev) for std::__2::__split_buffer<embot::prot::can::Frame, std::__2::allocator<embot::prot::can::Frame>&>::~__split_buffer__sub_object()
    amcbldc-main.o(.text._ZNK5myEVT22userdefOnEventANYotherEPN5embot2os6ThreadEjPvRNSt3__26vectorINS0_4prot3can5FrameENS5_9allocatorIS9_EEEE) refers to vector.cpp.o(.text._ZNKSt3__220__vector_base_commonILb1EE20__throw_length_errorEv) for std::__2::__vector_base_common<true>::__throw_length_error() const
    amcbldc-main.o(.ARM.exidx.text._ZNK5myEVT22userdefOnEventANYotherEPN5embot2os6ThreadEjPvRNSt3__26vectorINS0_4prot3can5FrameENS5_9allocatorIS9_EEEE) refers to amcbldc-main.o(.text._ZNK5myEVT22userdefOnEventANYotherEPN5embot2os6ThreadEjPvRNSt3__26vectorINS0_4prot3can5FrameENS5_9allocatorIS9_EEEE) for [Anonymous Symbol]
    amcbldc-main.o(.ARM.exidx.text._Z7thrCTRLPv) refers to amcbldc-main.o(.text._Z7thrCTRLPv) for [Anonymous Symbol]
    amcbldc-main.o(.text._Z13tCTRL_startupPN5embot2os6ThreadEPv) refers to amcbldc-main.o(.bss.outctrlframes) for outctrlframes
    amcbldc-main.o(.text._Z13tCTRL_startupPN5embot2os6ThreadEPv) refers to amcbldc-main.o(.text._ZNSt3__26vectorIN5embot4prot3can5FrameENS_9allocatorIS4_EEE7reserveEj) for std::__2::vector<embot::prot::can::Frame, std::__2::allocator<embot::prot::can::Frame> >::reserve(unsigned int)
    amcbldc-main.o(.text._Z13tCTRL_startupPN5embot2os6ThreadEPv) refers to embot_app_application_thembdagent.o(.text._ZN5embot3app11application11theMBDagent11getInstanceEv) for embot::app::application::theMBDagent::getInstance()
    amcbldc-main.o(.text._Z13tCTRL_startupPN5embot2os6ThreadEPv) refers to embot_app_application_thembdagent.o(.text._ZN5embot3app11application11theMBDagent10initialiseERKNS2_6ConfigE) for embot::app::application::theMBDagent::initialise(embot::app::application::theMBDagent::Config const&)
    amcbldc-main.o(.text._Z13tCTRL_startupPN5embot2os6ThreadEPv) refers to embot_app_application_thecanparsermbd.o(.text._ZN5embot3app11application15theCANparserMBD11getInstanceEv) for embot::app::application::theCANparserMBD::getInstance()
    amcbldc-main.o(.text._Z13tCTRL_startupPN5embot2os6ThreadEPv) refers to amcbldc-main.o(.text._ZN5embot3app11application15theCANparserMBD6ConfigC2EPNS1_11CANagentMBDE) for embot::app::application::theCANparserMBD::Config::Config__sub_object(embot::app::application::CANagentMBD*)
    amcbldc-main.o(.text._Z13tCTRL_startupPN5embot2os6ThreadEPv) refers to embot_app_application_thecanparsermbd.o(.text._ZN5embot3app11application15theCANparserMBD10initialiseERKNS2_6ConfigE) for embot::app::application::theCANparserMBD::initialise(embot::app::application::theCANparserMBD::Config const&)
    amcbldc-main.o(.text._Z13tCTRL_startupPN5embot2os6ThreadEPv) refers to embot_os_rtos.o(.text._Znwj) for operator new(unsigned int)
    amcbldc-main.o(.text._Z13tCTRL_startupPN5embot2os6ThreadEPv) refers to embot_os_timer.o(.text._ZN5embot2os5TimerC2Ev) for embot::os::Timer::Timer()
    amcbldc-main.o(.text._Z13tCTRL_startupPN5embot2os6ThreadEPv) refers to amcbldc-main.o(.bss.tCTRL_tickTimer) for tCTRL_tickTimer
    amcbldc-main.o(.text._Z13tCTRL_startupPN5embot2os6ThreadEPv) refers to amcbldc-main.o(.text._ZN5embot2os13EventToThreadC2EjPNS0_6ThreadE) for embot::os::EventToThread::EventToThread__sub_object(unsigned int, embot::os::Thread*)
    amcbldc-main.o(.text._Z13tCTRL_startupPN5embot2os6ThreadEPv) refers to amcbldc-main.o(.text._ZN5embot2os6ActionC2ERKNS0_13EventToThreadE) for embot::os::Action::Action__sub_object(embot::os::EventToThread const&)
    amcbldc-main.o(.text._Z13tCTRL_startupPN5embot2os6ThreadEPv) refers to amcbldc-main.o(.text._ZN5embot2os5Timer6ConfigC2EjRKNS0_6ActionENS1_4ModeEj) for embot::os::Timer::Config::Config__sub_object(unsigned int, embot::os::Action const&, embot::os::Timer::Mode, unsigned int)
    amcbldc-main.o(.text._Z13tCTRL_startupPN5embot2os6ThreadEPv) refers to embot_os_timer.o(.text._ZN5embot2os5Timer5startERKNS1_6ConfigEb) for embot::os::Timer::start(embot::os::Timer::Config const&, bool)
    amcbldc-main.o(.text._Z13tCTRL_startupPN5embot2os6ThreadEPv) refers to amcbldc-main.o(.text._Z11mbd_mc_initv) for mbd_mc_init()
    amcbldc-main.o(.ARM.exidx.text._Z13tCTRL_startupPN5embot2os6ThreadEPv) refers to amcbldc-main.o(.text._Z13tCTRL_startupPN5embot2os6ThreadEPv) for [Anonymous Symbol]
    amcbldc-main.o(.text._Z13tCTRL_oneventPN5embot2os6ThreadEjPv) refers to amcbldc-main.o(.bss.outctrlframes) for outctrlframes
    amcbldc-main.o(.text._Z13tCTRL_oneventPN5embot2os6ThreadEjPv) refers to amcbldc-main.o(.text._ZN5embot4core6binary4mask5checkIjEEbT_S4_h) for bool embot::core::binary::mask::check<unsigned int>(unsigned int, unsigned int, unsigned char)
    amcbldc-main.o(.text._Z13tCTRL_oneventPN5embot2os6ThreadEjPv) refers to amcbldc-main.o(.bss.shared) for shared
    amcbldc-main.o(.text._Z13tCTRL_oneventPN5embot2os6ThreadEjPv) refers to amcbldc-main.o(.text._ZN5embot4prot3can5FrameC2Ev) for embot::prot::can::Frame::Frame__sub_object()
    amcbldc-main.o(.text._Z13tCTRL_oneventPN5embot2os6ThreadEjPv) refers to amcbldc-main.o(.text._ZN8shared_t5getrxERN5embot4prot3can5FrameERj) for shared_t::getrx(embot::prot::can::Frame&, unsigned int&)
    amcbldc-main.o(.text._Z13tCTRL_oneventPN5embot2os6ThreadEjPv) refers to amcbldc-main.o(.text._Z15mbd_mc_canparseRKN5embot4prot3can5FrameERNSt3__26vectorIS2_NS5_9allocatorIS2_EEEE) for mbd_mc_canparse(embot::prot::can::Frame const&, std::__2::vector<embot::prot::can::Frame, std::__2::allocator<embot::prot::can::Frame> >&)
    amcbldc-main.o(.text._Z13tCTRL_oneventPN5embot2os6ThreadEjPv) refers to amcbldc-main.o(.text._Z11mbd_mc_tickRNSt3__26vectorIN5embot4prot3can5FrameENS_9allocatorIS4_EEEE) for mbd_mc_tick(std::__2::vector<embot::prot::can::Frame, std::__2::allocator<embot::prot::can::Frame> >&)
    amcbldc-main.o(.text._Z13tCTRL_oneventPN5embot2os6ThreadEjPv) refers to amcbldc-main.o(.text._ZN8shared_t5addtxERKN5embot4prot3can5FrameE) for shared_t::addtx(embot::prot::can::Frame const&)
    amcbldc-main.o(.text._Z13tCTRL_oneventPN5embot2os6ThreadEjPv) refers to amcbldc-main.o(.text._ZN8shared_t8sizeoftxEv) for shared_t::sizeoftx()
    amcbldc-main.o(.text._Z13tCTRL_oneventPN5embot2os6ThreadEjPv) refers to amcbldc-main.o(.bss.t_COMM) for t_COMM
    amcbldc-main.o(.ARM.exidx.text._Z13tCTRL_oneventPN5embot2os6ThreadEjPv) refers to amcbldc-main.o(.text._Z13tCTRL_oneventPN5embot2os6ThreadEjPv) for [Anonymous Symbol]
    amcbldc-main.o(.text.__cxx_global_var_init.6) refers to amcbldc-main.o(.bss.outctrlframes) for outctrlframes
    amcbldc-main.o(.text.__cxx_global_var_init.6) refers to amcbldc-main.o(.text._ZNSt3__26vectorIN5embot4prot3can5FrameENS_9allocatorIS4_EEED2Ev) for std::__2::vector<embot::prot::can::Frame, std::__2::allocator<embot::prot::can::Frame> >::~vector__sub_object()
    amcbldc-main.o(.text.__cxx_global_var_init.6) refers to cxa_atexit.o(.text) for __cxa_atexit
    amcbldc-main.o(.ARM.exidx.text.__cxx_global_var_init.6) refers to amcbldc-main.o(.text.__cxx_global_var_init.6) for [Anonymous Symbol]
    amcbldc-main.o(.text._Z11mbd_mc_initv) refers to embot_app_application_thembdagent.o(.text._ZN5embot3app11application11theMBDagent11getInstanceEv) for embot::app::application::theMBDagent::getInstance()
    amcbldc-main.o(.text._Z11mbd_mc_initv) refers to embot_app_application_thembdagent.o(.text._ZN5embot3app11application11theMBDagent10initialiseERKNS2_6ConfigE) for embot::app::application::theMBDagent::initialise(embot::app::application::theMBDagent::Config const&)
    amcbldc-main.o(.ARM.exidx.text._Z11mbd_mc_initv) refers to amcbldc-main.o(.text._Z11mbd_mc_initv) for [Anonymous Symbol]
    amcbldc-main.o(.text._Z15mbd_mc_canparseRKN5embot4prot3can5FrameERNSt3__26vectorIS2_NS5_9allocatorIS2_EEEE) refers to embot_app_application_thecanparsermbd.o(.text._ZN5embot3app11application15theCANparserMBD11getInstanceEv) for embot::app::application::theCANparserMBD::getInstance()
    amcbldc-main.o(.text._Z15mbd_mc_canparseRKN5embot4prot3can5FrameERNSt3__26vectorIS2_NS5_9allocatorIS2_EEEE) refers to embot_app_application_thecanparsermbd.o(.text._ZN5embot3app11application15theCANparserMBD7processERKNS_4prot3can5FrameERNSt3__26vectorIS5_NS8_9allocatorIS5_EEEE) for embot::app::application::theCANparserMBD::process(embot::prot::can::Frame const&, std::__2::vector<embot::prot::can::Frame, std::__2::allocator<embot::prot::can::Frame> >&)
    amcbldc-main.o(.ARM.exidx.text._Z15mbd_mc_canparseRKN5embot4prot3can5FrameERNSt3__26vectorIS2_NS5_9allocatorIS2_EEEE) refers to amcbldc-main.o(.text._Z15mbd_mc_canparseRKN5embot4prot3can5FrameERNSt3__26vectorIS2_NS5_9allocatorIS2_EEEE) for [Anonymous Symbol]
    amcbldc-main.o(.text._Z11mbd_mc_tickRNSt3__26vectorIN5embot4prot3can5FrameENS_9allocatorIS4_EEEE) refers to embot_app_application_thembdagent.o(.text._ZN5embot3app11application11theMBDagent11getInstanceEv) for embot::app::application::theMBDagent::getInstance()
    amcbldc-main.o(.text._Z11mbd_mc_tickRNSt3__26vectorIN5embot4prot3can5FrameENS_9allocatorIS4_EEEE) refers to embot_app_application_thembdagent.o(.text._ZN5embot3app11application11theMBDagent4tickERNSt3__26vectorINS_4prot3can5FrameENS3_9allocatorIS7_EEEE) for embot::app::application::theMBDagent::tick(std::__2::vector<embot::prot::can::Frame, std::__2::allocator<embot::prot::can::Frame> >&)
    amcbldc-main.o(.ARM.exidx.text._Z11mbd_mc_tickRNSt3__26vectorIN5embot4prot3can5FrameENS_9allocatorIS4_EEEE) refers to amcbldc-main.o(.text._Z11mbd_mc_tickRNSt3__26vectorIN5embot4prot3can5FrameENS_9allocatorIS4_EEEE) for [Anonymous Symbol]
    amcbldc-main.o(.text._GLOBAL__sub_I_amcbldc_main.cpp) refers to amcbldc-main.o(.text.__cxx_global_var_init) for __cxx_global_var_init
    amcbldc-main.o(.text._GLOBAL__sub_I_amcbldc_main.cpp) refers to amcbldc-main.o(.text.__cxx_global_var_init.1) for __cxx_global_var_init.1
    amcbldc-main.o(.text._GLOBAL__sub_I_amcbldc_main.cpp) refers to amcbldc-main.o(.text.__cxx_global_var_init.2) for __cxx_global_var_init.2
    amcbldc-main.o(.text._GLOBAL__sub_I_amcbldc_main.cpp) refers to amcbldc-main.o(.text.__cxx_global_var_init.3) for __cxx_global_var_init.3
    amcbldc-main.o(.text._GLOBAL__sub_I_amcbldc_main.cpp) refers to amcbldc-main.o(.text.__cxx_global_var_init.6) for __cxx_global_var_init.6
    amcbldc-main.o(.ARM.exidx.text._GLOBAL__sub_I_amcbldc_main.cpp) refers to amcbldc-main.o(.text._GLOBAL__sub_I_amcbldc_main.cpp) for [Anonymous Symbol]
    amcbldc-main.o(.rodata._ZL3cfg) refers to amcbldc-main.o(.bss._ZL5mysys) for [Anonymous Symbol]
    amcbldc-main.o(.rodata._ZL3cfg) refers to amcbldc-main.o(.bss._ZL5myevt) for [Anonymous Symbol]
    amcbldc-main.o(.rodata._ZZNK5mySYS17userdefInit_ExtraEPN5embot2os11EventThreadEPvE10alltheleds) refers to amcbldc-main.o(.rodata._ZGRZNK5mySYS17userdefInit_ExtraEPN5embot2os11EventThreadEPvE10alltheleds_) for [Anonymous Symbol]
    amcbldc-main.o(.rodata._ZTV5mySYS) refers to amcbldc-main.o(.text._ZN5embot3app8skeleton2os5basic6SYSTEMD2Ev) for embot::app::skeleton::os::basic::SYSTEM::~SYSTEM__sub_object()
    amcbldc-main.o(.rodata._ZTV5mySYS) refers to amcbldc-main.o(.text._ZN5mySYSD0Ev) for mySYS::~mySYS__deallocating()
    amcbldc-main.o(.rodata._ZTV5mySYS) refers to embot_app_skeleton_os_evthreadcan.o(.text._ZNK5embot3app8skeleton2os11evthreadcan12SYSTEMevtcan11userdefInitEPv) for embot::app::skeleton::os::evthreadcan::SYSTEMevtcan::userdefInit(void*) const
    amcbldc-main.o(.rodata._ZTV5mySYS) refers to amcbldc-main.o(.text._ZNK5mySYS13userdefOnIdleEPN5embot2os6ThreadEPv) for mySYS::userdefOnIdle(embot::os::Thread*, void*) const
    amcbldc-main.o(.rodata._ZTV5mySYS) refers to amcbldc-main.o(.text._ZNK5mySYS16userdefonOSerrorEPv) for mySYS::userdefonOSerror(void*) const
    amcbldc-main.o(.rodata._ZTV5mySYS) refers to amcbldc-main.o(.text._ZNK5mySYS17userdefInit_ExtraEPN5embot2os11EventThreadEPv) for mySYS::userdefInit_Extra(embot::os::EventThread*, void*) const
    amcbldc-main.o(.rodata._ZTV5myEVT) refers to amcbldc-main.o(.text._ZN5embot3app8skeleton2os11evthreadcan11evThreadCAND2Ev) for embot::app::skeleton::os::evthreadcan::evThreadCAN::~evThreadCAN__sub_object()
    amcbldc-main.o(.rodata._ZTV5myEVT) refers to amcbldc-main.o(.text._ZN5myEVTD0Ev) for myEVT::~myEVT__deallocating()
    amcbldc-main.o(.rodata._ZTV5myEVT) refers to amcbldc-main.o(.text._ZNK5myEVT14userdefStartupEPN5embot2os6ThreadEPv) for myEVT::userdefStartup(embot::os::Thread*, void*) const
    amcbldc-main.o(.rodata._ZTV5myEVT) refers to amcbldc-main.o(.text._ZNK5myEVT16userdefOnTimeoutEPN5embot2os6ThreadEjPv) for myEVT::userdefOnTimeout(embot::os::Thread*, unsigned int, void*) const
    amcbldc-main.o(.rodata._ZTV5myEVT) refers to amcbldc-main.o(.text._ZNK5myEVT24userdefOnEventRXcanframeEPN5embot2os6ThreadEjPvRKNS0_4prot3can5FrameERNSt3__26vectorIS7_NSA_9allocatorIS7_EEEE) for myEVT::userdefOnEventRXcanframe(embot::os::Thread*, unsigned int, void*, embot::prot::can::Frame const&, std::__2::vector<embot::prot::can::Frame, std::__2::allocator<embot::prot::can::Frame> >&) const
    amcbldc-main.o(.rodata._ZTV5myEVT) refers to amcbldc-main.o(.text._ZNK5myEVT22userdefOnEventANYotherEPN5embot2os6ThreadEjPvRNSt3__26vectorINS0_4prot3can5FrameENS5_9allocatorIS9_EEEE) for myEVT::userdefOnEventANYother(embot::os::Thread*, unsigned int, void*, std::__2::vector<embot::prot::can::Frame, std::__2::allocator<embot::prot::can::Frame> >&) const
    amcbldc-main.o(.init_array) refers to amcbldc-main.o(.text._GLOBAL__sub_I_amcbldc_main.cpp) for _GLOBAL__sub_I_amcbldc_main.cpp
    stm32hal.startup.amcbldc.o(STACK) refers (Special) to heapauxi.o(.text) for __use_two_region_memory
    stm32hal.startup.amcbldc.o(HEAP) refers (Special) to heapauxi.o(.text) for __use_two_region_memory
    stm32hal.startup.amcbldc.o(RESET) refers (Special) to heapauxi.o(.text) for __use_two_region_memory
    stm32hal.startup.amcbldc.o(RESET) refers to stm32hal.startup.amcbldc.o(STACK) for __initial_sp
    stm32hal.startup.amcbldc.o(RESET) refers to stm32hal.startup.amcbldc.o(.text) for Reset_Handler
    stm32hal.startup.amcbldc.o(RESET) refers to hal_cm4.o(.emb_text) for SVC_Handler
    stm32hal.startup.amcbldc.o(RESET) refers to motorhal_config.o(.text.DMA1_Channel1_IRQHandler) for DMA1_Channel1_IRQHandler
    stm32hal.startup.amcbldc.o(RESET) refers to motorhal_config.o(.text.DMA1_Channel2_IRQHandler) for DMA1_Channel2_IRQHandler
    stm32hal.startup.amcbldc.o(RESET) refers to motorhal_config.o(.text.ADC1_2_IRQHandler) for ADC1_2_IRQHandler
    stm32hal.startup.amcbldc.o(RESET) refers to motorhal_config.o(.text.TIM1_BRK_TIM15_IRQHandler) for TIM1_BRK_TIM15_IRQHandler
    stm32hal.startup.amcbldc.o(RESET) refers to motorhal_config.o(.text.TIM1_UP_TIM16_IRQHandler) for TIM1_UP_TIM16_IRQHandler
    stm32hal.startup.amcbldc.o(RESET) refers to motorhal_config.o(.text.TIM1_TRG_COM_TIM17_IRQHandler) for TIM1_TRG_COM_TIM17_IRQHandler
    stm32hal.startup.amcbldc.o(RESET) refers to motorhal_config.o(.text.TIM1_CC_IRQHandler) for TIM1_CC_IRQHandler
    stm32hal.startup.amcbldc.o(RESET) refers to motorhal_config.o(.text.TIM2_IRQHandler) for TIM2_IRQHandler
    stm32hal.startup.amcbldc.o(RESET) refers to motorhal_config.o(.text.TIM3_IRQHandler) for TIM3_IRQHandler
    stm32hal.startup.amcbldc.o(RESET) refers to motorhal_config.o(.text.EXTI15_10_IRQHandler) for EXTI15_10_IRQHandler
    stm32hal.startup.amcbldc.o(RESET) refers to embot_hw_bsp_amcbldc.o(.text.FDCAN2_IT0_IRQHandler) for FDCAN2_IT0_IRQHandler
    stm32hal.startup.amcbldc.o(RESET) refers to embot_hw_bsp_amcbldc.o(.text.FDCAN2_IT1_IRQHandler) for FDCAN2_IT1_IRQHandler
    stm32hal.startup.amcbldc.o(.text) refers (Special) to heapauxi.o(.text) for __use_two_region_memory
    stm32hal.startup.amcbldc.o(.text) refers to system_stm32g4xx_1.o(.text.SystemInit) for SystemInit
    stm32hal.startup.amcbldc.o(.text) refers to __main.o(!!!main) for __main
    stm32hal.startup.amcbldc.o(.text) refers to stm32hal.startup.amcbldc.o(HEAP) for Heap_Mem
    stm32hal.startup.amcbldc.o(.text) refers to stm32hal.startup.amcbldc.o(STACK) for Stack_Mem
    eventviewer.o(.text.eventviewer_init) refers to eventviewer.o(.bss.s_eventviewer_initted) for s_eventviewer_initted
    eventviewer.o(.text.eventviewer_init) refers to eventviewer.o(.text.evIDLE) for evIDLE
    eventviewer.o(.text.eventviewer_init) refers to eventviewer.o(.text.eventviewer_load) for eventviewer_load
    eventviewer.o(.text.eventviewer_init) refers to eventviewer.o(.text.eventviewer_switch_to) for eventviewer_switch_to
    eventviewer.o(.text.eventviewer_init) refers to eventviewer.o(.data.s_eventviewer_currentid) for s_eventviewer_currentid
    eventviewer.o(.ARM.exidx.text.eventviewer_init) refers to eventviewer.o(.text.eventviewer_init) for [Anonymous Symbol]
    eventviewer.o(.text.eventviewer_load) refers to eventviewer.o(.bss.s_eventviewer_initted) for s_eventviewer_initted
    eventviewer.o(.text.eventviewer_load) refers to eventviewer.o(.text.eventviewer_init) for eventviewer_init
    eventviewer.o(.ARM.exidx.text.eventviewer_load) refers to eventviewer.o(.text.eventviewer_load) for [Anonymous Symbol]
    eventviewer.o(.ARM.exidx.text.evIDLE) refers to eventviewer.o(.text.evIDLE) for [Anonymous Symbol]
    eventviewer.o(.text.eventviewer_switch_to) refers to eventviewer.o(.bss.s_eventviewer_initted) for s_eventviewer_initted
    eventviewer.o(.text.eventviewer_switch_to) refers to eventviewer.o(.data.s_eventviewer_currentid) for s_eventviewer_currentid
    eventviewer.o(.ARM.exidx.text.eventviewer_switch_to) refers to eventviewer.o(.text.eventviewer_switch_to) for [Anonymous Symbol]
    eventviewer.o(.text.eventviewer_unload) refers to eventviewer.o(.bss.s_eventviewer_initted) for s_eventviewer_initted
    eventviewer.o(.text.eventviewer_unload) refers to eventviewer.o(.text.eventviewer_init) for eventviewer_init
    eventviewer.o(.ARM.exidx.text.eventviewer_unload) refers to eventviewer.o(.text.eventviewer_unload) for [Anonymous Symbol]
    embot_core.o(.text._ZN5embot4core11initialisedEv) refers to embot_core.o(.bss._ZN5embot4coreL9s_inittedE) for embot::core::s_initted
    embot_core.o(.ARM.exidx.text._ZN5embot4core11initialisedEv) refers to embot_core.o(.text._ZN5embot4core11initialisedEv) for [Anonymous Symbol]
    embot_core.o(.text._ZN5embot4core4initERKNS0_6ConfigE) refers to embot_core.o(.text._ZN5embot4core11initialisedEv) for embot::core::initialised()
    embot_core.o(.text._ZN5embot4core4initERKNS0_6ConfigE) refers to embot_core.o(.text._ZNK5embot4core6Config7isvalidEv) for embot::core::Config::isvalid() const
    embot_core.o(.text._ZN5embot4core4initERKNS0_6ConfigE) refers to embot_core.o(.data._ZN5embot4coreL9s_timenowE) for embot::core::s_timenow
    embot_core.o(.text._ZN5embot4core4initERKNS0_6ConfigE) refers to embot_core.o(.bss._ZN5embot4coreL7s_printE) for embot::core::s_print
    embot_core.o(.text._ZN5embot4core4initERKNS0_6ConfigE) refers to embot_core.o(.bss._ZN5embot4coreL9s_inittedE) for embot::core::s_initted
    embot_core.o(.ARM.exidx.text._ZN5embot4core4initERKNS0_6ConfigE) refers to embot_core.o(.text._ZN5embot4core4initERKNS0_6ConfigE) for [Anonymous Symbol]
    embot_core.o(.text._ZN5embot4core3nowEv) refers to embot_core.o(.data._ZN5embot4coreL9s_timenowE) for embot::core::s_timenow
    embot_core.o(.ARM.exidx.text._ZN5embot4core3nowEv) refers to embot_core.o(.text._ZN5embot4core3nowEv) for [Anonymous Symbol]
    embot_core.o(.text._ZN5embot4core4waitEj) refers to embot_core.o(.text._ZN5embot4core3nowEv) for embot::core::now()
    embot_core.o(.ARM.exidx.text._ZN5embot4core4waitEj) refers to embot_core.o(.text._ZN5embot4core4waitEj) for [Anonymous Symbol]
    embot_core.o(.text._ZN5embot4core5printERKNSt3__212basic_stringIcNS1_11char_traitsIcEENS1_9allocatorIcEEEE) refers to embot_core.o(.bss._ZN5embot4coreL7s_printE) for embot::core::s_print
    embot_core.o(.ARM.exidx.text._ZN5embot4core5printERKNSt3__212basic_stringIcNS1_11char_traitsIcEENS1_9allocatorIcEEEE) refers to embot_core.o(.text._ZN5embot4core5printERKNSt3__212basic_stringIcNS1_11char_traitsIcEENS1_9allocatorIcEEEE) for [Anonymous Symbol]
    embot_core.o(.text._ZN5embot4coreL13s_faketimenowEv) refers to embot_core.o(.bss._ZZN5embot4coreL13s_faketimenowEvE2tt) for embot::core::s_faketimenow()::tt
    embot_core.o(.ARM.exidx.text._ZN5embot4coreL13s_faketimenowEv) refers to embot_core.o(.text._ZN5embot4coreL13s_faketimenowEv) for [Anonymous Symbol]
    embot_core.o(.data._ZN5embot4coreL9s_timenowE) refers to embot_core.o(.text._ZN5embot4coreL13s_faketimenowEv) for embot::core::s_faketimenow()
    embot_core_binary.o(.text._ZN5embot4core6binary3bit10countUsizeEyh) refers to embot_core_binary.o(.text._ZN5embot4core6binary3bit8countU08Eh) for embot::core::binary::bit::countU08(unsigned char)
    embot_core_binary.o(.text._ZN5embot4core6binary3bit10countUsizeEyh) refers to embot_core_binary.o(.text._ZN5embot4core6binary3bit8countU16Et) for embot::core::binary::bit::countU16(unsigned short)
    embot_core_binary.o(.text._ZN5embot4core6binary3bit10countUsizeEyh) refers to embot_core_binary.o(.text._ZN5embot4core6binary3bit8countU32Ej) for embot::core::binary::bit::countU32(unsigned int)
    embot_core_binary.o(.text._ZN5embot4core6binary3bit10countUsizeEyh) refers to embot_core_binary.o(.text._ZN5embot4core6binary3bit8countU64Ey) for embot::core::binary::bit::countU64(unsigned long long)
    embot_core_binary.o(.ARM.exidx.text._ZN5embot4core6binary3bit10countUsizeEyh) refers to embot_core_binary.o(.text._ZN5embot4core6binary3bit10countUsizeEyh) for [Anonymous Symbol]
    embot_hw.o(.text._ZN5embot2hw11initialisedEv) refers to embot_hw.o(.bss._ZN5embot2hwL7inittedE) for embot::hw::initted
    embot_hw.o(.ARM.exidx.text._ZN5embot2hw11initialisedEv) refers to embot_hw.o(.text._ZN5embot2hw11initialisedEv) for [Anonymous Symbol]
    embot_hw.o(.text._ZN5embot2hw4initERKNS0_6ConfigE) refers to embot_hw.o(.text._ZN5embot2hw11initialisedEv) for embot::hw::initialised()
    embot_hw.o(.text._ZN5embot2hw4initERKNS0_6ConfigE) refers to embot_hw.o(.text._ZN5embot4core10TimeConfigC2EPFvvEPFyvE) for embot::core::TimeConfig::TimeConfig__sub_object(void (*)(), unsigned long long (*)())
    embot_hw.o(.text._ZN5embot2hw4initERKNS0_6ConfigE) refers to embot_hw_bsp.o(.text._ZN5embot2hw3bsp5printERKNSt3__212basic_stringIcNS2_11char_traitsIcEENS2_9allocatorIcEEEE) for embot::hw::bsp::print(std::__2::basic_string<char, std::__2::char_traits<char>, std::__2::allocator<char> > const&)
    embot_hw.o(.text._ZN5embot2hw4initERKNS0_6ConfigE) refers to embot_hw.o(.text._ZN5embot4core11PrintConfigC2EPFiRKNSt3__212basic_stringIcNS2_11char_traitsIcEENS2_9allocatorIcEEEEE) for embot::core::PrintConfig::PrintConfig__sub_object(int (*)(std::__2::basic_string<char, std::__2::char_traits<char>, std::__2::allocator<char> > const&))
    embot_hw.o(.text._ZN5embot2hw4initERKNS0_6ConfigE) refers to embot_hw.o(.text._ZN5embot4core6ConfigC2ERKNS0_10TimeConfigERKNS0_11PrintConfigE) for embot::core::Config::Config__sub_object(embot::core::TimeConfig const&, embot::core::PrintConfig const&)
    embot_hw.o(.text._ZN5embot2hw4initERKNS0_6ConfigE) refers to embot_core.o(.text._ZN5embot4core4initERKNS0_6ConfigE) for embot::core::init(embot::core::Config const&)
    embot_hw.o(.text._ZN5embot2hw4initERKNS0_6ConfigE) refers to embot_hw_bsp.o(.text._ZN5embot2hw3bsp4initERKNS0_6ConfigE) for embot::hw::bsp::init(embot::hw::Config const&)
    embot_hw.o(.text._ZN5embot2hw4initERKNS0_6ConfigE) refers to embot_hw.o(.bss._ZN5embot2hwL7inittedE) for embot::hw::initted
    embot_hw.o(.ARM.exidx.text._ZN5embot2hw4initERKNS0_6ConfigE) refers to embot_hw.o(.text._ZN5embot2hw4initERKNS0_6ConfigE) for [Anonymous Symbol]
    embot_hw_bsp.o(.text._ZN5embot2hw3bsp4initERKNS0_6ConfigE) refers to embot_hw_bsp.o(.text._ZN5embot2hw3bspL14_get1millitickEv) for embot::hw::bsp::_get1millitick()
    embot_hw_bsp.o(.text._ZN5embot2hw3bsp4initERKNS0_6ConfigE) refers to stm32hal.o(.text.stm32hal_init) for stm32hal_init
    embot_hw_bsp.o(.text._ZN5embot2hw3bsp4initERKNS0_6ConfigE) refers to embot_hw_bsp_amcbldc.o(.text._ZN5embot2hw3bsp10specializeEv) for embot::hw::bsp::specialize()
    embot_hw_bsp.o(.ARM.exidx.text._ZN5embot2hw3bsp4initERKNS0_6ConfigE) refers to embot_hw_bsp.o(.text._ZN5embot2hw3bsp4initERKNS0_6ConfigE) for [Anonymous Symbol]
    embot_hw_bsp.o(.text._ZN5embot2hw3bspL14_get1millitickEv) refers to embot_core.o(.text._ZN5embot4core3nowEv) for embot::core::now()
    embot_hw_bsp.o(.text._ZN5embot2hw3bspL14_get1millitickEv) refers to lludivv7m.o(.text) for __aeabi_uldivmod
    embot_hw_bsp.o(.ARM.exidx.text._ZN5embot2hw3bspL14_get1millitickEv) refers to embot_hw_bsp.o(.text._ZN5embot2hw3bspL14_get1millitickEv) for [Anonymous Symbol]
    embot_hw_bsp.o(.text._ZN5embot2hw3bsp4putsEPKc) refers to embot_hw_bsp.o(.text._ZL12ITM_SendCharj) for ITM_SendChar(unsigned int)
    embot_hw_bsp.o(.ARM.exidx.text._ZN5embot2hw3bsp4putsEPKc) refers to embot_hw_bsp.o(.text._ZN5embot2hw3bsp4putsEPKc) for [Anonymous Symbol]
    embot_hw_bsp.o(.ARM.exidx.text._ZL12ITM_SendCharj) refers to embot_hw_bsp.o(.text._ZL12ITM_SendCharj) for [Anonymous Symbol]
    embot_hw_bsp.o(.text._ZN5embot2hw3bsp5printERKNSt3__212basic_stringIcNS2_11char_traitsIcEENS2_9allocatorIcEEEE) refers to embot_hw_bsp.o(.text._ZN5embot2hw3bsp4putsEPKc) for embot::hw::bsp::puts(char const*)
    embot_hw_bsp.o(.ARM.exidx.text._ZN5embot2hw3bsp5printERKNSt3__212basic_stringIcNS2_11char_traitsIcEENS2_9allocatorIcEEEE) refers to embot_hw_bsp.o(.text._ZN5embot2hw3bsp5printERKNSt3__212basic_stringIcNS2_11char_traitsIcEENS2_9allocatorIcEEEE) for [Anonymous Symbol]
    embot_hw_sys.o(.text._ZN5embot2hw3sys5clockENS0_5CLOCKE) refers to stm32g4xx_hal_rcc_1.o(.text.HAL_RCC_GetPCLK1Freq) for HAL_RCC_GetPCLK1Freq
    embot_hw_sys.o(.text._ZN5embot2hw3sys5clockENS0_5CLOCKE) refers to stm32g4xx_hal_rcc_1.o(.text.HAL_RCC_GetPCLK2Freq) for HAL_RCC_GetPCLK2Freq
    embot_hw_sys.o(.text._ZN5embot2hw3sys5clockENS0_5CLOCKE) refers to system_stm32g4xx_1.o(.data.SystemCoreClock) for SystemCoreClock
    embot_hw_sys.o(.ARM.exidx.text._ZN5embot2hw3sys5clockENS0_5CLOCKE) refers to embot_hw_sys.o(.text._ZN5embot2hw3sys5clockENS0_5CLOCKE) for [Anonymous Symbol]
    embot_hw_sys.o(.text._ZN5embot2hw3sys5resetEv) refers to embot_hw_sys.o(.text._ZL18__NVIC_SystemResetv) for __NVIC_SystemReset()
    embot_hw_sys.o(.ARM.exidx.text._ZN5embot2hw3sys5resetEv) refers to embot_hw_sys.o(.text._ZN5embot2hw3sys5resetEv) for [Anonymous Symbol]
    embot_hw_sys.o(.ARM.exidx.text._ZL18__NVIC_SystemResetv) refers to embot_hw_sys.o(.text._ZL18__NVIC_SystemResetv) for [Anonymous Symbol]
    embot_hw_sys.o(.ARM.exidx.text._ZN5embot2hw3sys15canjump2addressEj) refers to embot_hw_sys.o(.text._ZN5embot2hw3sys15canjump2addressEj) for [Anonymous Symbol]
    embot_hw_sys.o(.text._ZN5embot2hw3sys12jump2addressEj) refers to embot_hw_sys.o(.text._ZN5embot2hw3sys15canjump2addressEj) for embot::hw::sys::canjump2address(unsigned int)
    embot_hw_sys.o(.ARM.exidx.text._ZN5embot2hw3sys12jump2addressEj) refers to embot_hw_sys.o(.text._ZN5embot2hw3sys12jump2addressEj) for [Anonymous Symbol]
    embot_hw_sys.o(.ARM.exidx.text._ZN5embot2hw3sys19relocatevectortableEj) refers to embot_hw_sys.o(.text._ZN5embot2hw3sys19relocatevectortableEj) for [Anonymous Symbol]
    embot_hw_sys.o(.text._ZN5embot2hw3sys5delayEj) refers to embot_hw_sys.o(.text._ZN5embot2hw3sysL8ss_delayEy) for embot::hw::sys::ss_delay(unsigned long long)
    embot_hw_sys.o(.ARM.exidx.text._ZN5embot2hw3sys5delayEj) refers to embot_hw_sys.o(.text._ZN5embot2hw3sys5delayEj) for [Anonymous Symbol]
    embot_hw_sys.o(.text._ZN5embot2hw3sysL8ss_delayEy) refers to embot_hw_sys.o(.bss._ZZN5embot2hw3sysL8ss_delayEyE29s_hl_sys_used_systemcoreclock) for embot::hw::sys::ss_delay(unsigned long long)::s_hl_sys_used_systemcoreclock
    embot_hw_sys.o(.text._ZN5embot2hw3sysL8ss_delayEy) refers to system_stm32g4xx_1.o(.data.SystemCoreClock) for SystemCoreClock
    embot_hw_sys.o(.text._ZN5embot2hw3sysL8ss_delayEy) refers to embot_hw_sys.o(.bss._ZZN5embot2hw3sysL8ss_delayEyE21s_hl_sys_numofops1sec) for embot::hw::sys::ss_delay(unsigned long long)::s_hl_sys_numofops1sec
    embot_hw_sys.o(.text._ZN5embot2hw3sysL8ss_delayEy) refers to lludivv7m.o(.text) for __aeabi_uldivmod
    embot_hw_sys.o(.text._ZN5embot2hw3sysL8ss_delayEy) refers to embot_hw_lowlevel.o(.text._ZN5embot2hw8lowlevel13asmEXECcyclesEj) for embot::hw::lowlevel::asmEXECcycles(unsigned int)
    embot_hw_sys.o(.ARM.exidx.text._ZN5embot2hw3sysL8ss_delayEy) refers to embot_hw_sys.o(.text._ZN5embot2hw3sysL8ss_delayEy) for [Anonymous Symbol]
    embot_hw_sys.o(.text._ZN5embot2hw3sys6randomEv) refers to rng_4.o(.bss.hrng) for hrng
    embot_hw_sys.o(.text._ZN5embot2hw3sys6randomEv) refers to stm32g4xx_hal_rng_1.o(.text.HAL_RNG_GenerateRandomNumber) for HAL_RNG_GenerateRandomNumber
    embot_hw_sys.o(.ARM.exidx.text._ZN5embot2hw3sys6randomEv) refers to embot_hw_sys.o(.text._ZN5embot2hw3sys6randomEv) for [Anonymous Symbol]
    embot_hw_sys.o(.ARM.exidx.text._ZN5embot2hw3sys9minrandomEv) refers to embot_hw_sys.o(.text._ZN5embot2hw3sys9minrandomEv) for [Anonymous Symbol]
    embot_hw_sys.o(.ARM.exidx.text._ZN5embot2hw3sys9maxrandomEv) refers to embot_hw_sys.o(.text._ZN5embot2hw3sys9maxrandomEv) for [Anonymous Symbol]
    embot_hw_sys.o(.text._ZN5embot2hw3sys4putsERKNSt3__212basic_stringIcNS2_11char_traitsIcEENS2_9allocatorIcEEEE) refers to embot_hw_sys.o(.text._ZN5embot2hw3sys4putsEPKc) for embot::hw::sys::puts(char const*)
    embot_hw_sys.o(.ARM.exidx.text._ZN5embot2hw3sys4putsERKNSt3__212basic_stringIcNS2_11char_traitsIcEENS2_9allocatorIcEEEE) refers to embot_hw_sys.o(.text._ZN5embot2hw3sys4putsERKNSt3__212basic_stringIcNS2_11char_traitsIcEENS2_9allocatorIcEEEE) for [Anonymous Symbol]
    embot_hw_sys.o(.text._ZN5embot2hw3sys4putsEPKc) refers to embot_hw_sys.o(.text._ZL12ITM_SendCharj) for ITM_SendChar(unsigned int)
    embot_hw_sys.o(.ARM.exidx.text._ZN5embot2hw3sys4putsEPKc) refers to embot_hw_sys.o(.text._ZN5embot2hw3sys4putsEPKc) for [Anonymous Symbol]
    embot_hw_sys.o(.ARM.exidx.text._ZL12ITM_SendCharj) refers to embot_hw_sys.o(.text._ZL12ITM_SendCharj) for [Anonymous Symbol]
    embot_hw_flashstorage.o(.text._ZN5embot2hw12FlashStorageC2EjjPy) refers to embot_hw_flashstorage.o(.text._ZN5embot4core5utils7StorageC2Ev) for embot::core::utils::Storage::Storage__sub_object()
    embot_hw_flashstorage.o(.text._ZN5embot2hw12FlashStorageC2EjjPy) refers to embot_hw_flashstorage.o(.rodata._ZTVN5embot2hw12FlashStorageE) for vtable for embot::hw::FlashStorage
    embot_hw_flashstorage.o(.text._ZN5embot2hw12FlashStorageC2EjjPy) refers to embot_os_rtos.o(.text._Znwj) for operator new(unsigned int)
    embot_hw_flashstorage.o(.text._ZN5embot2hw12FlashStorageC2EjjPy) refers to embot_hw_flashstorage.o(.text._ZN5embot2hw12FlashStorage4ImplC2EjjPy) for embot::hw::FlashStorage::Impl::Impl__sub_object(unsigned int, unsigned int, unsigned long long*)
    embot_hw_flashstorage.o(.ARM.exidx.text._ZN5embot2hw12FlashStorageC2EjjPy) refers to embot_hw_flashstorage.o(.text._ZN5embot2hw12FlashStorageC2EjjPy) for [Anonymous Symbol]
    embot_hw_flashstorage.o(.text._ZN5embot2hw12FlashStorageD2Ev) refers to embot_hw_flashstorage.o(.rodata._ZTVN5embot2hw12FlashStorageE) for vtable for embot::hw::FlashStorage
    embot_hw_flashstorage.o(.text._ZN5embot2hw12FlashStorageD2Ev) refers to embot_hw_flashstorage.o(.text._ZN5embot2hw12FlashStorage4ImplD2Ev) for embot::hw::FlashStorage::Impl::~Impl__sub_object()
    embot_hw_flashstorage.o(.text._ZN5embot2hw12FlashStorageD2Ev) refers to embot_os_rtos.o(.text._ZdlPv) for operator delete(void*)
    embot_hw_flashstorage.o(.text._ZN5embot2hw12FlashStorageD2Ev) refers to embot_hw_flashstorage.o(.text._ZN5embot4core5utils7StorageD2Ev) for embot::core::utils::Storage::~Storage__sub_object()
    embot_hw_flashstorage.o(.ARM.exidx.text._ZN5embot2hw12FlashStorageD2Ev) refers to embot_hw_flashstorage.o(.text._ZN5embot2hw12FlashStorageD2Ev) for [Anonymous Symbol]
    embot_hw_flashstorage.o(.text._ZN5embot2hw12FlashStorageD0Ev) refers to embot_hw_flashstorage.o(.text._ZN5embot2hw12FlashStorageD2Ev) for embot::hw::FlashStorage::~FlashStorage__sub_object()
    embot_hw_flashstorage.o(.text._ZN5embot2hw12FlashStorageD0Ev) refers to embot_os_rtos.o(.text._ZdlPv) for operator delete(void*)
    embot_hw_flashstorage.o(.ARM.exidx.text._ZN5embot2hw12FlashStorageD0Ev) refers to embot_hw_flashstorage.o(.text._ZN5embot2hw12FlashStorageD0Ev) for [Anonymous Symbol]
    embot_hw_flashstorage.o(.ARM.exidx.text._ZN5embot2hw12FlashStorage9isInittedEv) refers to embot_hw_flashstorage.o(.text._ZN5embot2hw12FlashStorage9isInittedEv) for [Anonymous Symbol]
    embot_hw_flashstorage.o(.ARM.exidx.text._ZN5embot2hw12FlashStorage14isAddressValidEj) refers to embot_hw_flashstorage.o(.text._ZN5embot2hw12FlashStorage14isAddressValidEj) for [Anonymous Symbol]
    embot_hw_flashstorage.o(.ARM.exidx.text._ZN5embot2hw12FlashStorage14getBaseAddressEv) refers to embot_hw_flashstorage.o(.text._ZN5embot2hw12FlashStorage14getBaseAddressEv) for [Anonymous Symbol]
    embot_hw_flashstorage.o(.ARM.exidx.text._ZN5embot2hw12FlashStorage7getSizeEv) refers to embot_hw_flashstorage.o(.text._ZN5embot2hw12FlashStorage7getSizeEv) for [Anonymous Symbol]
    embot_hw_flashstorage.o(.text._ZN5embot2hw12FlashStorage9fulleraseEv) refers to stm32g4xx_hal_flash_1.o(.text.HAL_FLASH_Unlock) for HAL_FLASH_Unlock
    embot_hw_flashstorage.o(.text._ZN5embot2hw12FlashStorage9fulleraseEv) refers to stm32g4xx_hal_flash_ex_1.o(.text.HAL_FLASHEx_Erase) for HAL_FLASHEx_Erase
    embot_hw_flashstorage.o(.text._ZN5embot2hw12FlashStorage9fulleraseEv) refers to stm32g4xx_hal_flash_1.o(.text.HAL_FLASH_Lock) for HAL_FLASH_Lock
    embot_hw_flashstorage.o(.ARM.exidx.text._ZN5embot2hw12FlashStorage9fulleraseEv) refers to embot_hw_flashstorage.o(.text._ZN5embot2hw12FlashStorage9fulleraseEv) for [Anonymous Symbol]
    embot_hw_flashstorage.o(.ARM.exidx.text._ZN5embot2hw12FlashStorage5eraseEjj) refers to embot_hw_flashstorage.o(.text._ZN5embot2hw12FlashStorage5eraseEjj) for [Anonymous Symbol]
    embot_hw_flashstorage.o(.text._ZN5embot2hw12FlashStorage4readEjjPv) refers to rt_memmove_v6.o(.text) for __aeabi_memmove
    embot_hw_flashstorage.o(.ARM.exidx.text._ZN5embot2hw12FlashStorage4readEjjPv) refers to embot_hw_flashstorage.o(.text._ZN5embot2hw12FlashStorage4readEjjPv) for [Anonymous Symbol]
    embot_hw_flashstorage.o(.text._ZN5embot2hw12FlashStorage5writeEjjPKv) refers to rt_memmove_v6.o(.text) for __aeabi_memmove
    embot_hw_flashstorage.o(.text._ZN5embot2hw12FlashStorage5writeEjjPKv) refers to stm32g4xx_hal_flash_1.o(.text.HAL_FLASH_Unlock) for HAL_FLASH_Unlock
    embot_hw_flashstorage.o(.text._ZN5embot2hw12FlashStorage5writeEjjPKv) refers to stm32g4xx_hal_flash_1.o(.text.HAL_FLASH_Program) for HAL_FLASH_Program
    embot_hw_flashstorage.o(.text._ZN5embot2hw12FlashStorage5writeEjjPKv) refers to stm32g4xx_hal_flash_1.o(.text.HAL_FLASH_GetError) for HAL_FLASH_GetError
    embot_hw_flashstorage.o(.text._ZN5embot2hw12FlashStorage5writeEjjPKv) refers to stm32g4xx_hal_flash_1.o(.text.HAL_FLASH_Lock) for HAL_FLASH_Lock
    embot_hw_flashstorage.o(.ARM.exidx.text._ZN5embot2hw12FlashStorage5writeEjjPKv) refers to embot_hw_flashstorage.o(.text._ZN5embot2hw12FlashStorage5writeEjjPKv) for [Anonymous Symbol]
    embot_hw_flashstorage.o(.rodata._ZTVN5embot2hw12FlashStorageE) refers to embot_hw_flashstorage.o(.text._ZN5embot2hw12FlashStorage9isInittedEv) for embot::hw::FlashStorage::isInitted()
    embot_hw_flashstorage.o(.rodata._ZTVN5embot2hw12FlashStorageE) refers to embot_hw_flashstorage.o(.text._ZN5embot2hw12FlashStorage14isAddressValidEj) for embot::hw::FlashStorage::isAddressValid(unsigned int)
    embot_hw_flashstorage.o(.rodata._ZTVN5embot2hw12FlashStorageE) refers to embot_hw_flashstorage.o(.text._ZN5embot2hw12FlashStorage14getBaseAddressEv) for embot::hw::FlashStorage::getBaseAddress()
    embot_hw_flashstorage.o(.rodata._ZTVN5embot2hw12FlashStorageE) refers to embot_hw_flashstorage.o(.text._ZN5embot2hw12FlashStorage7getSizeEv) for embot::hw::FlashStorage::getSize()
    embot_hw_flashstorage.o(.rodata._ZTVN5embot2hw12FlashStorageE) refers to embot_hw_flashstorage.o(.text._ZN5embot2hw12FlashStorage9fulleraseEv) for embot::hw::FlashStorage::fullerase()
    embot_hw_flashstorage.o(.rodata._ZTVN5embot2hw12FlashStorageE) refers to embot_hw_flashstorage.o(.text._ZN5embot2hw12FlashStorage5eraseEjj) for embot::hw::FlashStorage::erase(unsigned int, unsigned int)
    embot_hw_flashstorage.o(.rodata._ZTVN5embot2hw12FlashStorageE) refers to embot_hw_flashstorage.o(.text._ZN5embot2hw12FlashStorage4readEjjPv) for embot::hw::FlashStorage::read(unsigned int, unsigned int, void*)
    embot_hw_flashstorage.o(.rodata._ZTVN5embot2hw12FlashStorageE) refers to embot_hw_flashstorage.o(.text._ZN5embot2hw12FlashStorage5writeEjjPKv) for embot::hw::FlashStorage::write(unsigned int, unsigned int, void const*)
    embot_hw_flashstorage.o(.rodata._ZTVN5embot2hw12FlashStorageE) refers to embot_hw_flashstorage.o(.text._ZN5embot2hw12FlashStorageD2Ev) for embot::hw::FlashStorage::~FlashStorage__sub_object()
    embot_hw_flashstorage.o(.rodata._ZTVN5embot2hw12FlashStorageE) refers to embot_hw_flashstorage.o(.text._ZN5embot2hw12FlashStorageD0Ev) for embot::hw::FlashStorage::~FlashStorage__deallocating()
    embot_hw_flashburner.o(.text._ZN5embot2hw11FlashBurnerC2EjjjPy) refers to embot_os_rtos.o(.text._Znwj) for operator new(unsigned int)
    embot_hw_flashburner.o(.text._ZN5embot2hw11FlashBurnerC2EjjjPy) refers to embot_hw_flashburner.o(.text._ZN5embot2hw11FlashBurner4ImplC2EjjjPy) for embot::hw::FlashBurner::Impl::Impl__sub_object(unsigned int, unsigned int, unsigned int, unsigned long long*)
    embot_hw_flashburner.o(.ARM.exidx.text._ZN5embot2hw11FlashBurnerC2EjjjPy) refers to embot_hw_flashburner.o(.text._ZN5embot2hw11FlashBurnerC2EjjjPy) for [Anonymous Symbol]
    embot_hw_flashburner.o(.text._ZN5embot2hw11FlashBurnerD2Ev) refers to embot_hw_flashburner.o(.text._ZN5embot2hw11FlashBurner4ImplD2Ev) for embot::hw::FlashBurner::Impl::~Impl__sub_object()
    embot_hw_flashburner.o(.text._ZN5embot2hw11FlashBurnerD2Ev) refers to embot_os_rtos.o(.text._ZdlPv) for operator delete(void*)
    embot_hw_flashburner.o(.ARM.exidx.text._ZN5embot2hw11FlashBurnerD2Ev) refers to embot_hw_flashburner.o(.text._ZN5embot2hw11FlashBurnerD2Ev) for [Anonymous Symbol]
    embot_hw_flashburner.o(.ARM.exidx.text._ZN5embot2hw11FlashBurner14isAddressValidEj) refers to embot_hw_flashburner.o(.text._ZN5embot2hw11FlashBurner14isAddressValidEj) for [Anonymous Symbol]
    embot_hw_flashburner.o(.text._ZN5embot2hw11FlashBurner3addEjjPKv) refers to embot_hw_flashburner.o(.text._ZN5embot2hw11FlashBurner14isAddressValidEj) for embot::hw::FlashBurner::isAddressValid(unsigned int)
    embot_hw_flashburner.o(.text._ZN5embot2hw11FlashBurner3addEjjPKv) refers to embot_hw_flash.o(.text._ZN5embot2hw5flash12address2pageEj) for embot::hw::flash::address2page(unsigned int)
    embot_hw_flashburner.o(.text._ZN5embot2hw11FlashBurner3addEjjPKv) refers to embot_hw_flash.o(.text._ZN5embot2hw5flash14address2offsetEj) for embot::hw::flash::address2offset(unsigned int)
    embot_hw_flashburner.o(.text._ZN5embot2hw11FlashBurner3addEjjPKv) refers to embot_hw_flashburner.o(.text._ZN5embot2hw11FlashBurner4Impl11writebufferEv) for embot::hw::FlashBurner::Impl::writebuffer()
    embot_hw_flashburner.o(.text._ZN5embot2hw11FlashBurner3addEjjPKv) refers to embot_hw_flashburner.o(.text._ZN5embot2hw11FlashBurner4Impl8eraseallEv) for embot::hw::FlashBurner::Impl::eraseall()
    embot_hw_flashburner.o(.text._ZN5embot2hw11FlashBurner3addEjjPKv) refers to aeabi_memset4.o(.text) for __aeabi_memset8
    embot_hw_flashburner.o(.text._ZN5embot2hw11FlashBurner3addEjjPKv) refers to rt_memmove_v6.o(.text) for __aeabi_memmove
    embot_hw_flashburner.o(.ARM.exidx.text._ZN5embot2hw11FlashBurner3addEjjPKv) refers to embot_hw_flashburner.o(.text._ZN5embot2hw11FlashBurner3addEjjPKv) for [Anonymous Symbol]
    embot_hw_flashburner.o(.text._ZN5embot2hw11FlashBurner5flushEv) refers to embot_hw_flashburner.o(.text._ZN5embot2hw11FlashBurner4Impl11writebufferEv) for embot::hw::FlashBurner::Impl::writebuffer()
    embot_hw_flashburner.o(.ARM.exidx.text._ZN5embot2hw11FlashBurner5flushEv) refers to embot_hw_flashburner.o(.text._ZN5embot2hw11FlashBurner5flushEv) for [Anonymous Symbol]
    embot_hw_can.o(.text._ZN5embot2hw3can9supportedENS0_3CANE) refers to embot_hw_bsp_amcbldc.o(.text._ZN5embot2hw3can6getBSPEv) for embot::hw::can::getBSP()
    embot_hw_can.o(.text._ZN5embot2hw3can9supportedENS0_3CANE) refers to embot_hw_can.o(.text._ZNK5embot2hw3bsp4SUPP9supportedINS0_3CANEEEbT_) for bool embot::hw::bsp::SUPP::supported<embot::hw::CAN>(embot::hw::CAN) const
    embot_hw_can.o(.ARM.exidx.text._ZN5embot2hw3can9supportedENS0_3CANE) refers to embot_hw_can.o(.text._ZN5embot2hw3can9supportedENS0_3CANE) for [Anonymous Symbol]
    embot_hw_can.o(.text._ZN5embot2hw3can11initialisedENS0_3CANE) refers to embot_hw_can.o(.bss._ZN5embot2hw3canL15initialisedmaskE) for embot::hw::can::initialisedmask
    embot_hw_can.o(.text._ZN5embot2hw3can11initialisedENS0_3CANE) refers to embot_hw_can.o(.text._ZN5embot4core10tointegralINS_2hw3CANEEEDaT_) for auto embot::core::tointegral<embot::hw::CAN>(embot::hw::CAN)
    embot_hw_can.o(.text._ZN5embot2hw3can11initialisedENS0_3CANE) refers to embot_hw_flashburner.o(.text._ZN5embot4core6binary3bit5checkIjEEbT_h) for bool embot::core::binary::bit::check<unsigned int>(unsigned int, unsigned char)
    embot_hw_can.o(.ARM.exidx.text._ZN5embot2hw3can11initialisedENS0_3CANE) refers to embot_hw_can.o(.text._ZN5embot2hw3can11initialisedENS0_3CANE) for [Anonymous Symbol]
    embot_hw_can.o(.text._ZN5embot2hw3can4initENS0_3CANERKNS1_6ConfigE) refers to embot_hw_can.o(.text._ZN5embot2hw3can9supportedENS0_3CANE) for embot::hw::can::supported(embot::hw::CAN)
    embot_hw_can.o(.text._ZN5embot2hw3can4initENS0_3CANERKNS1_6ConfigE) refers to embot_hw_can.o(.text._ZN5embot2hw3can11initialisedENS0_3CANE) for embot::hw::can::initialised(embot::hw::CAN)
    embot_hw_can.o(.text._ZN5embot2hw3can4initENS0_3CANERKNS1_6ConfigE) refers to embot_hw_bsp_amcbldc.o(.text._ZN5embot2hw3can6getBSPEv) for embot::hw::can::getBSP()
    embot_hw_can.o(.text._ZN5embot2hw3can4initENS0_3CANERKNS1_6ConfigE) refers to embot_hw_bsp_amcbldc.o(.text._ZNK5embot2hw3can3BSP4initENS0_3CANE) for embot::hw::can::BSP::init(embot::hw::CAN) const
    embot_hw_can.o(.text._ZN5embot2hw3can4initENS0_3CANERKNS1_6ConfigE) refers to embot_hw_can.o(.text._ZN5embot4core10tointegralINS_2hw3CANEEEDaT_) for auto embot::core::tointegral<embot::hw::CAN>(embot::hw::CAN)
    embot_hw_can.o(.text._ZN5embot2hw3can4initENS0_3CANERKNS1_6ConfigE) refers to embot_hw_can.o(.data._ZN5embot2hw3can14_candata_arrayE) for embot::hw::can::_candata_array
    embot_hw_can.o(.text._ZN5embot2hw3can4initENS0_3CANERKNS1_6ConfigE) refers to embot_hw_can.o(.text._ZNK5embot2hw3can3BSP7getPROPENS0_3CANE) for embot::hw::can::BSP::getPROP(embot::hw::CAN) const
    embot_hw_can.o(.text._ZN5embot2hw3can4initENS0_3CANERKNS1_6ConfigE) refers to embot_os_rtos.o(.text._Znwj) for operator new(unsigned int)
    embot_hw_can.o(.text._ZN5embot2hw3can4initENS0_3CANERKNS1_6ConfigE) refers to embot_hw_can.o(.text._ZNSt3__26vectorIN5embot2hw3can5FrameENS_9allocatorIS4_EEE7reserveEj) for std::__2::vector<embot::hw::can::Frame, std::__2::allocator<embot::hw::can::Frame> >::reserve(unsigned int)
    embot_hw_can.o(.text._ZN5embot2hw3can4initENS0_3CANERKNS1_6ConfigE) refers to embot_hw_can.o(.text._ZN5embot2hw3canL14s_filters_initEP21__FDCAN_HandleTypeDef) for embot::hw::can::s_filters_init(__FDCAN_HandleTypeDef*)
    embot_hw_can.o(.text._ZN5embot2hw3can4initENS0_3CANERKNS1_6ConfigE) refers to embot_hw_can.o(.text._ZN5embot2hw3canL19s_registercallbacksEP21__FDCAN_HandleTypeDef) for embot::hw::can::s_registercallbacks(__FDCAN_HandleTypeDef*)
    embot_hw_can.o(.text._ZN5embot2hw3can4initENS0_3CANERKNS1_6ConfigE) refers to embot_hw_can.o(.text._ZN5embot2hw3canL13s_startdriverEP21__FDCAN_HandleTypeDef) for embot::hw::can::s_startdriver(__FDCAN_HandleTypeDef*)
    embot_hw_can.o(.text._ZN5embot2hw3can4initENS0_3CANERKNS1_6ConfigE) refers to embot_hw_can.o(.bss._ZN5embot2hw3canL15initialisedmaskE) for embot::hw::can::initialisedmask
    embot_hw_can.o(.text._ZN5embot2hw3can4initENS0_3CANERKNS1_6ConfigE) refers to embot_hw_can.o(.text._ZN5embot4core6binary3bit3setIjEEvRT_h) for void embot::core::binary::bit::set<unsigned int>(unsigned int&, unsigned char)
    embot_hw_can.o(.ARM.exidx.text._ZN5embot2hw3can4initENS0_3CANERKNS1_6ConfigE) refers to embot_hw_can.o(.text._ZN5embot2hw3can4initENS0_3CANERKNS1_6ConfigE) for [Anonymous Symbol]
    embot_hw_can.o(.text._ZN5embot2hw3canL14s_filters_initEP21__FDCAN_HandleTypeDef) refers to stm32g4xx_hal_fdcan_1.o(.text.HAL_FDCAN_ConfigFilter) for HAL_FDCAN_ConfigFilter
    embot_hw_can.o(.ARM.exidx.text._ZN5embot2hw3canL14s_filters_initEP21__FDCAN_HandleTypeDef) refers to embot_hw_can.o(.text._ZN5embot2hw3canL14s_filters_initEP21__FDCAN_HandleTypeDef) for [Anonymous Symbol]
    embot_hw_can.o(.text._ZN5embot2hw3canL19s_registercallbacksEP21__FDCAN_HandleTypeDef) refers to embot_hw_can.o(.text._ZN5embot2hw3can22callbackOnTXcompletionEP21__FDCAN_HandleTypeDef) for embot::hw::can::callbackOnTXcompletion(__FDCAN_HandleTypeDef*)
    embot_hw_can.o(.text._ZN5embot2hw3canL19s_registercallbacksEP21__FDCAN_HandleTypeDef) refers to stm32g4xx_hal_fdcan_1.o(.text.HAL_FDCAN_RegisterCallback) for HAL_FDCAN_RegisterCallback
    embot_hw_can.o(.text._ZN5embot2hw3canL19s_registercallbacksEP21__FDCAN_HandleTypeDef) refers to embot_hw_can.o(.text._ZN5embot2hw3can22callbackOnRXcompletionEP21__FDCAN_HandleTypeDefj) for embot::hw::can::callbackOnRXcompletion(__FDCAN_HandleTypeDef*, unsigned int)
    embot_hw_can.o(.text._ZN5embot2hw3canL19s_registercallbacksEP21__FDCAN_HandleTypeDef) refers to stm32g4xx_hal_fdcan_1.o(.text.HAL_FDCAN_RegisterRxFifo0Callback) for HAL_FDCAN_RegisterRxFifo0Callback
    embot_hw_can.o(.ARM.exidx.text._ZN5embot2hw3canL19s_registercallbacksEP21__FDCAN_HandleTypeDef) refers to embot_hw_can.o(.text._ZN5embot2hw3canL19s_registercallbacksEP21__FDCAN_HandleTypeDef) for [Anonymous Symbol]
    embot_hw_can.o(.text._ZN5embot2hw3canL13s_startdriverEP21__FDCAN_HandleTypeDef) refers to stm32g4xx_hal_fdcan_1.o(.text.HAL_FDCAN_Start) for HAL_FDCAN_Start
    embot_hw_can.o(.ARM.exidx.text._ZN5embot2hw3canL13s_startdriverEP21__FDCAN_HandleTypeDef) refers to embot_hw_can.o(.text._ZN5embot2hw3canL13s_startdriverEP21__FDCAN_HandleTypeDef) for [Anonymous Symbol]
    embot_hw_can.o(.text._ZN5embot2hw3can6enableENS0_3CANE) refers to embot_hw_can.o(.text._ZN5embot2hw3can11initialisedENS0_3CANE) for embot::hw::can::initialised(embot::hw::CAN)
    embot_hw_can.o(.text._ZN5embot2hw3can6enableENS0_3CANE) refers to embot_hw_can.o(.text._ZN5embot2hw3canL13tx_IRQdisableENS0_3CANE) for embot::hw::can::tx_IRQdisable(embot::hw::CAN)
    embot_hw_can.o(.text._ZN5embot2hw3can6enableENS0_3CANE) refers to embot_hw_can.o(.text._ZN5embot2hw3canL12RX_IRQenableENS0_3CANE) for embot::hw::can::RX_IRQenable(embot::hw::CAN)
    embot_hw_can.o(.ARM.exidx.text._ZN5embot2hw3can6enableENS0_3CANE) refers to embot_hw_can.o(.text._ZN5embot2hw3can6enableENS0_3CANE) for [Anonymous Symbol]
    embot_hw_can.o(.text._ZN5embot2hw3canL13tx_IRQdisableENS0_3CANE) refers to embot_hw_can.o(.text._ZN5embot4core10tointegralINS_2hw3CANEEEDaT_) for auto embot::core::tointegral<embot::hw::CAN>(embot::hw::CAN)
    embot_hw_can.o(.text._ZN5embot2hw3canL13tx_IRQdisableENS0_3CANE) refers to embot_hw_can.o(.data._ZN5embot2hw3can14_candata_arrayE) for embot::hw::can::_candata_array
    embot_hw_can.o(.text._ZN5embot2hw3canL13tx_IRQdisableENS0_3CANE) refers to stm32g4xx_hal_fdcan_1.o(.text.HAL_FDCAN_DeactivateNotification) for HAL_FDCAN_DeactivateNotification
    embot_hw_can.o(.ARM.exidx.text._ZN5embot2hw3canL13tx_IRQdisableENS0_3CANE) refers to embot_hw_can.o(.text._ZN5embot2hw3canL13tx_IRQdisableENS0_3CANE) for [Anonymous Symbol]
    embot_hw_can.o(.text._ZN5embot2hw3canL12RX_IRQenableENS0_3CANE) refers to embot_hw_can.o(.text._ZN5embot4core10tointegralINS_2hw3CANEEEDaT_) for auto embot::core::tointegral<embot::hw::CAN>(embot::hw::CAN)
    embot_hw_can.o(.text._ZN5embot2hw3canL12RX_IRQenableENS0_3CANE) refers to embot_hw_can.o(.data._ZN5embot2hw3can14_candata_arrayE) for embot::hw::can::_candata_array
    embot_hw_can.o(.text._ZN5embot2hw3canL12RX_IRQenableENS0_3CANE) refers to stm32g4xx_hal_fdcan_1.o(.text.HAL_FDCAN_ActivateNotification) for HAL_FDCAN_ActivateNotification
    embot_hw_can.o(.ARM.exidx.text._ZN5embot2hw3canL12RX_IRQenableENS0_3CANE) refers to embot_hw_can.o(.text._ZN5embot2hw3canL12RX_IRQenableENS0_3CANE) for [Anonymous Symbol]
    embot_hw_can.o(.text._ZN5embot2hw3can7disableENS0_3CANE) refers to embot_hw_can.o(.text._ZN5embot2hw3can11initialisedENS0_3CANE) for embot::hw::can::initialised(embot::hw::CAN)
    embot_hw_can.o(.text._ZN5embot2hw3can7disableENS0_3CANE) refers to embot_hw_can.o(.text._ZN5embot2hw3canL13RX_IRQdisableENS0_3CANE) for embot::hw::can::RX_IRQdisable(embot::hw::CAN)
    embot_hw_can.o(.text._ZN5embot2hw3can7disableENS0_3CANE) refers to embot_hw_can.o(.text._ZN5embot2hw3canL13tx_IRQdisableENS0_3CANE) for embot::hw::can::tx_IRQdisable(embot::hw::CAN)
    embot_hw_can.o(.ARM.exidx.text._ZN5embot2hw3can7disableENS0_3CANE) refers to embot_hw_can.o(.text._ZN5embot2hw3can7disableENS0_3CANE) for [Anonymous Symbol]
    embot_hw_can.o(.text._ZN5embot2hw3canL13RX_IRQdisableENS0_3CANE) refers to embot_hw_can.o(.text._ZN5embot4core10tointegralINS_2hw3CANEEEDaT_) for auto embot::core::tointegral<embot::hw::CAN>(embot::hw::CAN)
    embot_hw_can.o(.text._ZN5embot2hw3canL13RX_IRQdisableENS0_3CANE) refers to embot_hw_can.o(.data._ZN5embot2hw3can14_candata_arrayE) for embot::hw::can::_candata_array
    embot_hw_can.o(.text._ZN5embot2hw3canL13RX_IRQdisableENS0_3CANE) refers to stm32g4xx_hal_fdcan_1.o(.text.HAL_FDCAN_DeactivateNotification) for HAL_FDCAN_DeactivateNotification
    embot_hw_can.o(.ARM.exidx.text._ZN5embot2hw3canL13RX_IRQdisableENS0_3CANE) refers to embot_hw_can.o(.text._ZN5embot2hw3canL13RX_IRQdisableENS0_3CANE) for [Anonymous Symbol]
    embot_hw_can.o(.text._ZN5embot2hw3can3putENS0_3CANERKNS1_5FrameE) refers to embot_hw_can.o(.text._ZN5embot2hw3can11initialisedENS0_3CANE) for embot::hw::can::initialised(embot::hw::CAN)
    embot_hw_can.o(.text._ZN5embot2hw3can3putENS0_3CANERKNS1_5FrameE) refers to embot_hw_can.o(.text._ZN5embot4core10tointegralINS_2hw3CANEEEDaT_) for auto embot::core::tointegral<embot::hw::CAN>(embot::hw::CAN)
    embot_hw_can.o(.text._ZN5embot2hw3can3putENS0_3CANERKNS1_5FrameE) refers to embot_hw_can.o(.text._ZN5embot2hw3canL13tx_IRQdisableENS0_3CANE) for embot::hw::can::tx_IRQdisable(embot::hw::CAN)
    embot_hw_can.o(.text._ZN5embot2hw3can3putENS0_3CANERKNS1_5FrameE) refers to embot_hw_can.o(.data._ZN5embot2hw3can14_candata_arrayE) for embot::hw::can::_candata_array
    embot_hw_can.o(.text._ZN5embot2hw3can3putENS0_3CANERKNS1_5FrameE) refers to rt_memmove_w.o(.text) for __aeabi_memmove4
    embot_hw_can.o(.text._ZN5embot2hw3can3putENS0_3CANERKNS1_5FrameE) refers to embot_hw_can.o(.text._ZNSt3__26vectorIN5embot2hw3can5FrameENS_9allocatorIS4_EEE21_ConstructTransactionC2ERS7_j) for std::__2::vector<embot::hw::can::Frame, std::__2::allocator<embot::hw::can::Frame> >::_ConstructTransaction::_ConstructTransaction__sub_object(std::__2::vector<embot::hw::can::Frame, std::__2::allocator<embot::hw::can::Frame> >&, unsigned int)
    embot_hw_can.o(.text._ZN5embot2hw3can3putENS0_3CANERKNS1_5FrameE) refers to embot_hw_can.o(.text._ZNSt3__26vectorIN5embot2hw3can5FrameENS_9allocatorIS4_EEE21_ConstructTransactionD2Ev) for std::__2::vector<embot::hw::can::Frame, std::__2::allocator<embot::hw::can::Frame> >::_ConstructTransaction::~_ConstructTransaction__sub_object()
    embot_hw_can.o(.text._ZN5embot2hw3can3putENS0_3CANERKNS1_5FrameE) refers to embot_hw_can.o(.text._ZNKSt3__26vectorIN5embot2hw3can5FrameENS_9allocatorIS4_EEE8max_sizeEv) for std::__2::vector<embot::hw::can::Frame, std::__2::allocator<embot::hw::can::Frame> >::max_size() const
    embot_hw_can.o(.text._ZN5embot2hw3can3putENS0_3CANERKNS1_5FrameE) refers to embot_hw_can.o(.text._ZNSt3__214__split_bufferIN5embot2hw3can5FrameERNS_9allocatorIS4_EEEC2EjjS7_) for std::__2::__split_buffer<embot::hw::can::Frame, std::__2::allocator<embot::hw::can::Frame>&>::__split_buffer__sub_object(unsigned int, unsigned int, std::__2::allocator<embot::hw::can::Frame>&)
    embot_hw_can.o(.text._ZN5embot2hw3can3putENS0_3CANERKNS1_5FrameE) refers to embot_hw_can.o(.text._ZNSt3__26vectorIN5embot2hw3can5FrameENS_9allocatorIS4_EEE26__swap_out_circular_bufferERNS_14__split_bufferIS4_RS6_EE) for std::__2::vector<embot::hw::can::Frame, std::__2::allocator<embot::hw::can::Frame> >::__swap_out_circular_buffer(std::__2::__split_buffer<embot::hw::can::Frame, std::__2::allocator<embot::hw::can::Frame>&>&)
    embot_hw_can.o(.text._ZN5embot2hw3can3putENS0_3CANERKNS1_5FrameE) refers to embot_hw_can.o(.text._ZNSt3__214__split_bufferIN5embot2hw3can5FrameERNS_9allocatorIS4_EEED2Ev) for std::__2::__split_buffer<embot::hw::can::Frame, std::__2::allocator<embot::hw::can::Frame>&>::~__split_buffer__sub_object()
    embot_hw_can.o(.text._ZN5embot2hw3can3putENS0_3CANERKNS1_5FrameE) refers to embot_hw_can.o(.text._ZN5embot2hw3canL12tx_IRQresumeENS0_3CANEb) for embot::hw::can::tx_IRQresume(embot::hw::CAN, bool)
    embot_hw_can.o(.text._ZN5embot2hw3can3putENS0_3CANERKNS1_5FrameE) refers to vector.cpp.o(.text._ZNKSt3__220__vector_base_commonILb1EE20__throw_length_errorEv) for std::__2::__vector_base_common<true>::__throw_length_error() const
    embot_hw_can.o(.ARM.exidx.text._ZN5embot2hw3can3putENS0_3CANERKNS1_5FrameE) refers to embot_hw_can.o(.text._ZN5embot2hw3can3putENS0_3CANERKNS1_5FrameE) for [Anonymous Symbol]
    embot_hw_can.o(.text._ZN5embot2hw3canL12tx_IRQresumeENS0_3CANEb) refers to embot_hw_can.o(.text._ZN5embot4core10tointegralINS_2hw3CANEEEDaT_) for auto embot::core::tointegral<embot::hw::CAN>(embot::hw::CAN)
    embot_hw_can.o(.text._ZN5embot2hw3canL12tx_IRQresumeENS0_3CANEb) refers to embot_hw_can.o(.data._ZN5embot2hw3can14_candata_arrayE) for embot::hw::can::_candata_array
    embot_hw_can.o(.text._ZN5embot2hw3canL12tx_IRQresumeENS0_3CANEb) refers to stm32g4xx_hal_fdcan_1.o(.text.HAL_FDCAN_ActivateNotification) for HAL_FDCAN_ActivateNotification
    embot_hw_can.o(.ARM.exidx.text._ZN5embot2hw3canL12tx_IRQresumeENS0_3CANEb) refers to embot_hw_can.o(.text._ZN5embot2hw3canL12tx_IRQresumeENS0_3CANEb) for [Anonymous Symbol]
    embot_hw_can.o(.text._ZN5embot2hw3can15outputqueuesizeENS0_3CANE) refers to embot_hw_can.o(.text._ZN5embot2hw3can11initialisedENS0_3CANE) for embot::hw::can::initialised(embot::hw::CAN)
    embot_hw_can.o(.text._ZN5embot2hw3can15outputqueuesizeENS0_3CANE) refers to embot_hw_can.o(.text._ZN5embot4core10tointegralINS_2hw3CANEEEDaT_) for auto embot::core::tointegral<embot::hw::CAN>(embot::hw::CAN)
    embot_hw_can.o(.text._ZN5embot2hw3can15outputqueuesizeENS0_3CANE) refers to embot_hw_can.o(.text._ZN5embot2hw3canL13tx_IRQdisableENS0_3CANE) for embot::hw::can::tx_IRQdisable(embot::hw::CAN)
    embot_hw_can.o(.text._ZN5embot2hw3can15outputqueuesizeENS0_3CANE) refers to embot_hw_can.o(.data._ZN5embot2hw3can14_candata_arrayE) for embot::hw::can::_candata_array
    embot_hw_can.o(.text._ZN5embot2hw3can15outputqueuesizeENS0_3CANE) refers to embot_hw_can.o(.text._ZN5embot2hw3canL12tx_IRQresumeENS0_3CANEb) for embot::hw::can::tx_IRQresume(embot::hw::CAN, bool)
    embot_hw_can.o(.ARM.exidx.text._ZN5embot2hw3can15outputqueuesizeENS0_3CANE) refers to embot_hw_can.o(.text._ZN5embot2hw3can15outputqueuesizeENS0_3CANE) for [Anonymous Symbol]
    embot_hw_can.o(.text._ZN5embot2hw3can14inputqueuesizeENS0_3CANE) refers to embot_hw_can.o(.text._ZN5embot2hw3can11initialisedENS0_3CANE) for embot::hw::can::initialised(embot::hw::CAN)
    embot_hw_can.o(.text._ZN5embot2hw3can14inputqueuesizeENS0_3CANE) refers to embot_hw_can.o(.text._ZN5embot4core10tointegralINS_2hw3CANEEEDaT_) for auto embot::core::tointegral<embot::hw::CAN>(embot::hw::CAN)
    embot_hw_can.o(.text._ZN5embot2hw3can14inputqueuesizeENS0_3CANE) refers to embot_hw_can.o(.text._ZN5embot2hw3canL13RX_IRQdisableENS0_3CANE) for embot::hw::can::RX_IRQdisable(embot::hw::CAN)
    embot_hw_can.o(.text._ZN5embot2hw3can14inputqueuesizeENS0_3CANE) refers to embot_hw_can.o(.data._ZN5embot2hw3can14_candata_arrayE) for embot::hw::can::_candata_array
    embot_hw_can.o(.text._ZN5embot2hw3can14inputqueuesizeENS0_3CANE) refers to embot_hw_can.o(.text._ZN5embot2hw3canL12RX_IRQenableENS0_3CANE) for embot::hw::can::RX_IRQenable(embot::hw::CAN)
    embot_hw_can.o(.ARM.exidx.text._ZN5embot2hw3can14inputqueuesizeENS0_3CANE) refers to embot_hw_can.o(.text._ZN5embot2hw3can14inputqueuesizeENS0_3CANE) for [Anonymous Symbol]
    embot_hw_can.o(.text._ZN5embot2hw3can8transmitENS0_3CANE) refers to embot_hw_can.o(.text._ZN5embot2hw3can11initialisedENS0_3CANE) for embot::hw::can::initialised(embot::hw::CAN)
    embot_hw_can.o(.text._ZN5embot2hw3can8transmitENS0_3CANE) refers to embot_hw_can.o(.text._ZN5embot2hw3canL10s_tx_startENS0_3CANE) for embot::hw::can::s_tx_start(embot::hw::CAN)
    embot_hw_can.o(.ARM.exidx.text._ZN5embot2hw3can8transmitENS0_3CANE) refers to embot_hw_can.o(.text._ZN5embot2hw3can8transmitENS0_3CANE) for [Anonymous Symbol]
    embot_hw_can.o(.text._ZN5embot2hw3canL10s_tx_startENS0_3CANE) refers to embot_hw_can.o(.text._ZN5embot4core10tointegralINS_2hw3CANEEEDaT_) for auto embot::core::tointegral<embot::hw::CAN>(embot::hw::CAN)
    embot_hw_can.o(.text._ZN5embot2hw3canL10s_tx_startENS0_3CANE) refers to embot_hw_can.o(.data._ZN5embot2hw3can14_candata_arrayE) for embot::hw::can::_candata_array
    embot_hw_can.o(.text._ZN5embot2hw3canL10s_tx_startENS0_3CANE) refers to embot_hw_can.o(.text._ZN5embot2hw3canL13tx_IRQdisableENS0_3CANE) for embot::hw::can::tx_IRQdisable(embot::hw::CAN)
    embot_hw_can.o(.text._ZN5embot2hw3canL10s_tx_startENS0_3CANE) refers to rt_memmove_w.o(.text) for __aeabi_memmove4
    embot_hw_can.o(.text._ZN5embot2hw3canL10s_tx_startENS0_3CANE) refers to embot_hw_can.o(.text._ZN5embot2hw3can21s_addtxmessagetoqueueEP21__FDCAN_HandleTypeDefRNS1_5FrameE) for embot::hw::can::s_addtxmessagetoqueue(__FDCAN_HandleTypeDef*, embot::hw::can::Frame&)
    embot_hw_can.o(.text._ZN5embot2hw3canL10s_tx_startENS0_3CANE) refers to embot_hw_can.o(.text._ZN5embot2hw3canL12tx_IRQenableENS0_3CANE) for embot::hw::can::tx_IRQenable(embot::hw::CAN)
    embot_hw_can.o(.text._ZN5embot2hw3canL10s_tx_startENS0_3CANE) refers to embot_hw_can.o(.text._ZN5embot2hw3canL12tx_IRQresumeENS0_3CANEb) for embot::hw::can::tx_IRQresume(embot::hw::CAN, bool)
    embot_hw_can.o(.ARM.exidx.text._ZN5embot2hw3canL10s_tx_startENS0_3CANE) refers to embot_hw_can.o(.text._ZN5embot2hw3canL10s_tx_startENS0_3CANE) for [Anonymous Symbol]
    embot_hw_can.o(.text._ZN5embot2hw3can3getENS0_3CANERNS1_5FrameERh) refers to embot_hw_can.o(.text._ZN5embot2hw3can11initialisedENS0_3CANE) for embot::hw::can::initialised(embot::hw::CAN)
    embot_hw_can.o(.text._ZN5embot2hw3can3getENS0_3CANERNS1_5FrameERh) refers to embot_hw_can.o(.text._ZN5embot2hw3can5FrameC2Ev) for embot::hw::can::Frame::Frame__sub_object()
    embot_hw_can.o(.text._ZN5embot2hw3can3getENS0_3CANERNS1_5FrameERh) refers to embot_hw_can.o(.text._ZN5embot4core10tointegralINS_2hw3CANEEEDaT_) for auto embot::core::tointegral<embot::hw::CAN>(embot::hw::CAN)
    embot_hw_can.o(.text._ZN5embot2hw3can3getENS0_3CANERNS1_5FrameERh) refers to embot_hw_can.o(.text._ZN5embot2hw3canL13RX_IRQdisableENS0_3CANE) for embot::hw::can::RX_IRQdisable(embot::hw::CAN)
    embot_hw_can.o(.text._ZN5embot2hw3can3getENS0_3CANERNS1_5FrameERh) refers to embot_hw_can.o(.data._ZN5embot2hw3can14_candata_arrayE) for embot::hw::can::_candata_array
    embot_hw_can.o(.text._ZN5embot2hw3can3getENS0_3CANERNS1_5FrameERh) refers to rt_memmove_w.o(.text) for __aeabi_memmove4
    embot_hw_can.o(.text._ZN5embot2hw3can3getENS0_3CANERNS1_5FrameERh) refers to embot_hw_can.o(.text._ZN5embot2hw3canL12RX_IRQenableENS0_3CANE) for embot::hw::can::RX_IRQenable(embot::hw::CAN)
    embot_hw_can.o(.ARM.exidx.text._ZN5embot2hw3can3getENS0_3CANERNS1_5FrameERh) refers to embot_hw_can.o(.text._ZN5embot2hw3can3getENS0_3CANERNS1_5FrameERh) for [Anonymous Symbol]
    embot_hw_can.o(.text._ZN5embot2hw3can10setfiltersENS0_3CANEh) refers to embot_hw_can.o(.text._ZN5embot2hw3can9supportedENS0_3CANE) for embot::hw::can::supported(embot::hw::CAN)
    embot_hw_can.o(.text._ZN5embot2hw3can10setfiltersENS0_3CANEh) refers to embot_hw_can.o(.text._ZN5embot4core10tointegralINS_2hw3CANEEEDaT_) for auto embot::core::tointegral<embot::hw::CAN>(embot::hw::CAN)
    embot_hw_can.o(.text._ZN5embot2hw3can10setfiltersENS0_3CANEh) refers to embot_hw_can.o(.data._ZN5embot2hw3can14_candata_arrayE) for embot::hw::can::_candata_array
    embot_hw_can.o(.text._ZN5embot2hw3can10setfiltersENS0_3CANEh) refers to embot_hw_can.o(.text._ZN5embot2hw3canL13s_filters_setEP21__FDCAN_HandleTypeDefh) for embot::hw::can::s_filters_set(__FDCAN_HandleTypeDef*, unsigned char)
    embot_hw_can.o(.ARM.exidx.text._ZN5embot2hw3can10setfiltersENS0_3CANEh) refers to embot_hw_can.o(.text._ZN5embot2hw3can10setfiltersENS0_3CANEh) for [Anonymous Symbol]
    embot_hw_can.o(.text._ZN5embot2hw3canL13s_filters_setEP21__FDCAN_HandleTypeDefh) refers to embot_hw_can.o(.text._ZN5embot2hw3can22s_filters_set_by_classEP21__FDCAN_HandleTypeDefhhhh) for embot::hw::can::s_filters_set_by_class(__FDCAN_HandleTypeDef*, unsigned char, unsigned char, unsigned char, unsigned char)
    embot_hw_can.o(.ARM.exidx.text._ZN5embot2hw3canL13s_filters_setEP21__FDCAN_HandleTypeDefh) refers to embot_hw_can.o(.text._ZN5embot2hw3canL13s_filters_setEP21__FDCAN_HandleTypeDefh) for [Anonymous Symbol]
    embot_hw_can.o(.text._ZN5embot2hw3can22callbackOnTXcompletionEP21__FDCAN_HandleTypeDef) refers to embot_hw_can.o(.text._ZN5embot2hw3canL5toCANEP21__FDCAN_HandleTypeDef) for embot::hw::can::toCAN(__FDCAN_HandleTypeDef*)
    embot_hw_can.o(.text._ZN5embot2hw3can22callbackOnTXcompletionEP21__FDCAN_HandleTypeDef) refers to embot_hw_can.o(.text._ZN5embot2hw3can11initialisedENS0_3CANE) for embot::hw::can::initialised(embot::hw::CAN)
    embot_hw_can.o(.text._ZN5embot2hw3can22callbackOnTXcompletionEP21__FDCAN_HandleTypeDef) refers to embot_hw_can.o(.text._ZN5embot2hw3canL20s_tx_oneframehasgoneENS0_3CANEP21__FDCAN_HandleTypeDef) for embot::hw::can::s_tx_oneframehasgone(embot::hw::CAN, __FDCAN_HandleTypeDef*)
    embot_hw_can.o(.ARM.exidx.text._ZN5embot2hw3can22callbackOnTXcompletionEP21__FDCAN_HandleTypeDef) refers to embot_hw_can.o(.text._ZN5embot2hw3can22callbackOnTXcompletionEP21__FDCAN_HandleTypeDef) for [Anonymous Symbol]
    embot_hw_can.o(.text._ZN5embot2hw3canL5toCANEP21__FDCAN_HandleTypeDef) refers to embot_hw_can.o(.data._ZN5embot2hw3can14_candata_arrayE) for embot::hw::can::_candata_array
    embot_hw_can.o(.ARM.exidx.text._ZN5embot2hw3canL5toCANEP21__FDCAN_HandleTypeDef) refers to embot_hw_can.o(.text._ZN5embot2hw3canL5toCANEP21__FDCAN_HandleTypeDef) for [Anonymous Symbol]
    embot_hw_can.o(.text._ZN5embot2hw3canL20s_tx_oneframehasgoneENS0_3CANEP21__FDCAN_HandleTypeDef) refers to embot_hw_can.o(.text._ZN5embot4core10tointegralINS_2hw3CANEEEDaT_) for auto embot::core::tointegral<embot::hw::CAN>(embot::hw::CAN)
    embot_hw_can.o(.text._ZN5embot2hw3canL20s_tx_oneframehasgoneENS0_3CANEP21__FDCAN_HandleTypeDef) refers to embot_hw_can.o(.data._ZN5embot2hw3can14_candata_arrayE) for embot::hw::can::_candata_array
    embot_hw_can.o(.text._ZN5embot2hw3canL20s_tx_oneframehasgoneENS0_3CANEP21__FDCAN_HandleTypeDef) refers to embot_hw_can.o(.text._ZNK5embot4core8Callback7executeEv) for embot::core::Callback::execute() const
    embot_hw_can.o(.text._ZN5embot2hw3canL20s_tx_oneframehasgoneENS0_3CANEP21__FDCAN_HandleTypeDef) refers to rt_memmove_w.o(.text) for __aeabi_memmove4
    embot_hw_can.o(.text._ZN5embot2hw3canL20s_tx_oneframehasgoneENS0_3CANEP21__FDCAN_HandleTypeDef) refers to embot_hw_can.o(.text._ZN5embot2hw3canL12tx_IRQenableENS0_3CANE) for embot::hw::can::tx_IRQenable(embot::hw::CAN)
    embot_hw_can.o(.text._ZN5embot2hw3canL20s_tx_oneframehasgoneENS0_3CANEP21__FDCAN_HandleTypeDef) refers to embot_hw_can.o(.text._ZN5embot2hw3can21s_addtxmessagetoqueueEP21__FDCAN_HandleTypeDefRNS1_5FrameE) for embot::hw::can::s_addtxmessagetoqueue(__FDCAN_HandleTypeDef*, embot::hw::can::Frame&)
    embot_hw_can.o(.text._ZN5embot2hw3canL20s_tx_oneframehasgoneENS0_3CANEP21__FDCAN_HandleTypeDef) refers to embot_hw_can.o(.text._ZN5embot2hw3canL13tx_IRQdisableENS0_3CANE) for embot::hw::can::tx_IRQdisable(embot::hw::CAN)
    embot_hw_can.o(.ARM.exidx.text._ZN5embot2hw3canL20s_tx_oneframehasgoneENS0_3CANEP21__FDCAN_HandleTypeDef) refers to embot_hw_can.o(.text._ZN5embot2hw3canL20s_tx_oneframehasgoneENS0_3CANEP21__FDCAN_HandleTypeDef) for [Anonymous Symbol]
    embot_hw_can.o(.text._ZN5embot2hw3can22callbackOnRXcompletionEP21__FDCAN_HandleTypeDefj) refers to embot_hw_can.o(.text._ZN5embot2hw3canL5toCANEP21__FDCAN_HandleTypeDef) for embot::hw::can::toCAN(__FDCAN_HandleTypeDef*)
    embot_hw_can.o(.text._ZN5embot2hw3can22callbackOnRXcompletionEP21__FDCAN_HandleTypeDefj) refers to embot_hw_can.o(.text._ZN5embot2hw3can11initialisedENS0_3CANE) for embot::hw::can::initialised(embot::hw::CAN)
    embot_hw_can.o(.text._ZN5embot2hw3can22callbackOnRXcompletionEP21__FDCAN_HandleTypeDefj) refers to embot_hw_can.o(.text._ZN5embot2hw3canL20s_rx_oneframehascomeENS0_3CANEP21__FDCAN_HandleTypeDef) for embot::hw::can::s_rx_oneframehascome(embot::hw::CAN, __FDCAN_HandleTypeDef*)
    embot_hw_can.o(.ARM.exidx.text._ZN5embot2hw3can22callbackOnRXcompletionEP21__FDCAN_HandleTypeDefj) refers to embot_hw_can.o(.text._ZN5embot2hw3can22callbackOnRXcompletionEP21__FDCAN_HandleTypeDefj) for [Anonymous Symbol]
    embot_hw_can.o(.text._ZN5embot2hw3canL20s_rx_oneframehascomeENS0_3CANEP21__FDCAN_HandleTypeDef) refers to embot_hw_can.o(.text._ZN5embot4core10tointegralINS_2hw3CANEEEDaT_) for auto embot::core::tointegral<embot::hw::CAN>(embot::hw::CAN)
    embot_hw_can.o(.text._ZN5embot2hw3canL20s_rx_oneframehascomeENS0_3CANEP21__FDCAN_HandleTypeDef) refers to embot_hw_can.o(.text._ZN5embot2hw3can5FrameC2Ev) for embot::hw::can::Frame::Frame__sub_object()
    embot_hw_can.o(.text._ZN5embot2hw3canL20s_rx_oneframehascomeENS0_3CANEP21__FDCAN_HandleTypeDef) refers to embot_hw_can.o(.text._ZN5embot2hw3can23s_getrxmessagefromqueueEP21__FDCAN_HandleTypeDefRNS1_5FrameE) for embot::hw::can::s_getrxmessagefromqueue(__FDCAN_HandleTypeDef*, embot::hw::can::Frame&)
    embot_hw_can.o(.text._ZN5embot2hw3canL20s_rx_oneframehascomeENS0_3CANEP21__FDCAN_HandleTypeDef) refers to embot_hw_can.o(.data._ZN5embot2hw3can14_candata_arrayE) for embot::hw::can::_candata_array
    embot_hw_can.o(.text._ZN5embot2hw3canL20s_rx_oneframehascomeENS0_3CANEP21__FDCAN_HandleTypeDef) refers to rt_memmove_w.o(.text) for __aeabi_memmove4
    embot_hw_can.o(.text._ZN5embot2hw3canL20s_rx_oneframehascomeENS0_3CANEP21__FDCAN_HandleTypeDef) refers to embot_hw_can.o(.text._ZNSt3__26vectorIN5embot2hw3can5FrameENS_9allocatorIS4_EEE21_ConstructTransactionC2ERS7_j) for std::__2::vector<embot::hw::can::Frame, std::__2::allocator<embot::hw::can::Frame> >::_ConstructTransaction::_ConstructTransaction__sub_object(std::__2::vector<embot::hw::can::Frame, std::__2::allocator<embot::hw::can::Frame> >&, unsigned int)
    embot_hw_can.o(.text._ZN5embot2hw3canL20s_rx_oneframehascomeENS0_3CANEP21__FDCAN_HandleTypeDef) refers to embot_hw_can.o(.text._ZNSt3__26vectorIN5embot2hw3can5FrameENS_9allocatorIS4_EEE21_ConstructTransactionD2Ev) for std::__2::vector<embot::hw::can::Frame, std::__2::allocator<embot::hw::can::Frame> >::_ConstructTransaction::~_ConstructTransaction__sub_object()
    embot_hw_can.o(.text._ZN5embot2hw3canL20s_rx_oneframehascomeENS0_3CANEP21__FDCAN_HandleTypeDef) refers to embot_hw_can.o(.text._ZNKSt3__26vectorIN5embot2hw3can5FrameENS_9allocatorIS4_EEE8max_sizeEv) for std::__2::vector<embot::hw::can::Frame, std::__2::allocator<embot::hw::can::Frame> >::max_size() const
    embot_hw_can.o(.text._ZN5embot2hw3canL20s_rx_oneframehascomeENS0_3CANEP21__FDCAN_HandleTypeDef) refers to embot_hw_can.o(.text._ZNSt3__214__split_bufferIN5embot2hw3can5FrameERNS_9allocatorIS4_EEEC2EjjS7_) for std::__2::__split_buffer<embot::hw::can::Frame, std::__2::allocator<embot::hw::can::Frame>&>::__split_buffer__sub_object(unsigned int, unsigned int, std::__2::allocator<embot::hw::can::Frame>&)
    embot_hw_can.o(.text._ZN5embot2hw3canL20s_rx_oneframehascomeENS0_3CANEP21__FDCAN_HandleTypeDef) refers to embot_hw_can.o(.text._ZNSt3__26vectorIN5embot2hw3can5FrameENS_9allocatorIS4_EEE26__swap_out_circular_bufferERNS_14__split_bufferIS4_RS6_EE) for std::__2::vector<embot::hw::can::Frame, std::__2::allocator<embot::hw::can::Frame> >::__swap_out_circular_buffer(std::__2::__split_buffer<embot::hw::can::Frame, std::__2::allocator<embot::hw::can::Frame>&>&)
    embot_hw_can.o(.text._ZN5embot2hw3canL20s_rx_oneframehascomeENS0_3CANEP21__FDCAN_HandleTypeDef) refers to embot_hw_can.o(.text._ZNSt3__214__split_bufferIN5embot2hw3can5FrameERNS_9allocatorIS4_EEED2Ev) for std::__2::__split_buffer<embot::hw::can::Frame, std::__2::allocator<embot::hw::can::Frame>&>::~__split_buffer__sub_object()
    embot_hw_can.o(.text._ZN5embot2hw3canL20s_rx_oneframehascomeENS0_3CANEP21__FDCAN_HandleTypeDef) refers to embot_hw_can.o(.text._ZNK5embot4core8Callback7executeEv) for embot::core::Callback::execute() const
    embot_hw_can.o(.text._ZN5embot2hw3canL20s_rx_oneframehascomeENS0_3CANEP21__FDCAN_HandleTypeDef) refers to vector.cpp.o(.text._ZNKSt3__220__vector_base_commonILb1EE20__throw_length_errorEv) for std::__2::__vector_base_common<true>::__throw_length_error() const
    embot_hw_can.o(.ARM.exidx.text._ZN5embot2hw3canL20s_rx_oneframehascomeENS0_3CANEP21__FDCAN_HandleTypeDef) refers to embot_hw_can.o(.text._ZN5embot2hw3canL20s_rx_oneframehascomeENS0_3CANEP21__FDCAN_HandleTypeDef) for [Anonymous Symbol]
    embot_hw_can.o(.text._ZN5embot2hw3can22s_filters_set_by_classEP21__FDCAN_HandleTypeDefhhhh) refers to stm32g4xx_hal_fdcan_1.o(.text.HAL_FDCAN_ConfigFilter) for HAL_FDCAN_ConfigFilter
    embot_hw_can.o(.ARM.exidx.text._ZN5embot2hw3can22s_filters_set_by_classEP21__FDCAN_HandleTypeDefhhhh) refers to embot_hw_can.o(.text._ZN5embot2hw3can22s_filters_set_by_classEP21__FDCAN_HandleTypeDefhhhh) for [Anonymous Symbol]
    embot_hw_can.o(.text._ZN5embot2hw3can21s_addtxmessagetoqueueEP21__FDCAN_HandleTypeDefRNS1_5FrameE) refers to rt_memclr_w.o(.text) for __aeabi_memclr4
    embot_hw_can.o(.text._ZN5embot2hw3can21s_addtxmessagetoqueueEP21__FDCAN_HandleTypeDefRNS1_5FrameE) refers to stm32g4xx_hal_fdcan_1.o(.text.HAL_FDCAN_AddMessageToTxFifoQ) for HAL_FDCAN_AddMessageToTxFifoQ
    embot_hw_can.o(.ARM.exidx.text._ZN5embot2hw3can21s_addtxmessagetoqueueEP21__FDCAN_HandleTypeDefRNS1_5FrameE) refers to embot_hw_can.o(.text._ZN5embot2hw3can21s_addtxmessagetoqueueEP21__FDCAN_HandleTypeDefRNS1_5FrameE) for [Anonymous Symbol]
    embot_hw_can.o(.text._ZN5embot2hw3can23s_getrxmessagefromqueueEP21__FDCAN_HandleTypeDefRNS1_5FrameE) refers to rt_memclr_w.o(.text) for __aeabi_memclr4
    embot_hw_can.o(.text._ZN5embot2hw3can23s_getrxmessagefromqueueEP21__FDCAN_HandleTypeDefRNS1_5FrameE) refers to stm32g4xx_hal_fdcan_1.o(.text.HAL_FDCAN_GetRxMessage) for HAL_FDCAN_GetRxMessage
    embot_hw_can.o(.ARM.exidx.text._ZN5embot2hw3can23s_getrxmessagefromqueueEP21__FDCAN_HandleTypeDefRNS1_5FrameE) refers to embot_hw_can.o(.text._ZN5embot2hw3can23s_getrxmessagefromqueueEP21__FDCAN_HandleTypeDefRNS1_5FrameE) for [Anonymous Symbol]
    embot_hw_can.o(.text._ZN5embot2hw3canL12tx_IRQenableENS0_3CANE) refers to embot_hw_can.o(.text._ZN5embot4core10tointegralINS_2hw3CANEEEDaT_) for auto embot::core::tointegral<embot::hw::CAN>(embot::hw::CAN)
    embot_hw_can.o(.text._ZN5embot2hw3canL12tx_IRQenableENS0_3CANE) refers to embot_hw_can.o(.data._ZN5embot2hw3can14_candata_arrayE) for embot::hw::can::_candata_array
    embot_hw_can.o(.text._ZN5embot2hw3canL12tx_IRQenableENS0_3CANE) refers to stm32g4xx_hal_fdcan_1.o(.text.HAL_FDCAN_ActivateNotification) for HAL_FDCAN_ActivateNotification
    embot_hw_can.o(.ARM.exidx.text._ZN5embot2hw3canL12tx_IRQenableENS0_3CANE) refers to embot_hw_can.o(.text._ZN5embot2hw3canL12tx_IRQenableENS0_3CANE) for [Anonymous Symbol]
    embot_hw_flash.o(.text._ZN5embot2hw5flash12getpartitionENS0_5FLASHE) refers to embot_hw_bsp_amcbldc.o(.text._ZN5embot2hw5flash6getBSPEv) for embot::hw::flash::getBSP()
    embot_hw_flash.o(.text._ZN5embot2hw5flash12getpartitionENS0_5FLASHE) refers to embot_hw_flashburner.o(.text._ZNK5embot2hw5flash3BSP7getPROPENS0_5FLASHE) for embot::hw::flash::BSP::getPROP(embot::hw::FLASH) const
    embot_hw_flash.o(.ARM.exidx.text._ZN5embot2hw5flash12getpartitionENS0_5FLASHE) refers to embot_hw_flash.o(.text._ZN5embot2hw5flash12getpartitionENS0_5FLASHE) for [Anonymous Symbol]
    embot_hw_flash.o(.text._ZN5embot2hw5flash14isaddressvalidEj) refers to embot_hw_flash.o(.text._ZN5embot2hw5flash12getpartitionENS0_5FLASHE) for embot::hw::flash::getpartition(embot::hw::FLASH)
    embot_hw_flash.o(.ARM.exidx.text._ZN5embot2hw5flash14isaddressvalidEj) refers to embot_hw_flash.o(.text._ZN5embot2hw5flash14isaddressvalidEj) for [Anonymous Symbol]
    embot_hw_flash.o(.text._ZN5embot2hw5flash12address2pageEj) refers to embot_hw_flash.o(.text._ZN5embot2hw5flash12getpartitionENS0_5FLASHE) for embot::hw::flash::getpartition(embot::hw::FLASH)
    embot_hw_flash.o(.text._ZN5embot2hw5flash12address2pageEj) refers to embot_hw_flash.o(.text._ZN5embot2hw5flash14isaddressvalidEj) for embot::hw::flash::isaddressvalid(unsigned int)
    embot_hw_flash.o(.ARM.exidx.text._ZN5embot2hw5flash12address2pageEj) refers to embot_hw_flash.o(.text._ZN5embot2hw5flash12address2pageEj) for [Anonymous Symbol]
    embot_hw_flash.o(.text._ZN5embot2hw5flash12page2addressEj) refers to embot_hw_flash.o(.text._ZN5embot2hw5flash12getpartitionENS0_5FLASHE) for embot::hw::flash::getpartition(embot::hw::FLASH)
    embot_hw_flash.o(.text._ZN5embot2hw5flash12page2addressEj) refers to embot_hw_flash.o(.text._ZN5embot2hw5flash14isaddressvalidEj) for embot::hw::flash::isaddressvalid(unsigned int)
    embot_hw_flash.o(.ARM.exidx.text._ZN5embot2hw5flash12page2addressEj) refers to embot_hw_flash.o(.text._ZN5embot2hw5flash12page2addressEj) for [Anonymous Symbol]
    embot_hw_flash.o(.text._ZN5embot2hw5flash14address2offsetEj) refers to embot_hw_flash.o(.text._ZN5embot2hw5flash12getpartitionENS0_5FLASHE) for embot::hw::flash::getpartition(embot::hw::FLASH)
    embot_hw_flash.o(.ARM.exidx.text._ZN5embot2hw5flash14address2offsetEj) refers to embot_hw_flash.o(.text._ZN5embot2hw5flash14address2offsetEj) for [Anonymous Symbol]
    embot_hw_flash.o(.text._ZN5embot2hw5flash5eraseEj) refers to embot_hw_flash.o(.text._ZN5embot2hw5flash12getpartitionENS0_5FLASHE) for embot::hw::flash::getpartition(embot::hw::FLASH)
    embot_hw_flash.o(.text._ZN5embot2hw5flash5eraseEj) refers to stm32g4xx_hal_flash_1.o(.text.HAL_FLASH_Unlock) for HAL_FLASH_Unlock
    embot_hw_flash.o(.text._ZN5embot2hw5flash5eraseEj) refers to stm32g4xx_hal_flash_ex_1.o(.text.HAL_FLASHEx_Erase) for HAL_FLASHEx_Erase
    embot_hw_flash.o(.text._ZN5embot2hw5flash5eraseEj) refers to stm32g4xx_hal_flash_1.o(.text.HAL_FLASH_Lock) for HAL_FLASH_Lock
    embot_hw_flash.o(.ARM.exidx.text._ZN5embot2hw5flash5eraseEj) refers to embot_hw_flash.o(.text._ZN5embot2hw5flash5eraseEj) for [Anonymous Symbol]
    embot_hw_flash.o(.text._ZN5embot2hw5flash5eraseEjj) refers to embot_hw_flash.o(.text._ZN5embot2hw5flash14isaddressvalidEj) for embot::hw::flash::isaddressvalid(unsigned int)
    embot_hw_flash.o(.text._ZN5embot2hw5flash5eraseEjj) refers to embot_hw_flash.o(.text._ZN5embot2hw5flash12address2pageEj) for embot::hw::flash::address2page(unsigned int)
    embot_hw_flash.o(.text._ZN5embot2hw5flash5eraseEjj) refers to embot_hw_flash.o(.text._ZN5embot2hw5flash5eraseEj) for embot::hw::flash::erase(unsigned int)
    embot_hw_flash.o(.ARM.exidx.text._ZN5embot2hw5flash5eraseEjj) refers to embot_hw_flash.o(.text._ZN5embot2hw5flash5eraseEjj) for [Anonymous Symbol]
    embot_hw_flash.o(.text._ZN5embot2hw5flash4readEjjPv) refers to embot_hw_flash.o(.text._ZN5embot2hw5flash14isaddressvalidEj) for embot::hw::flash::isaddressvalid(unsigned int)
    embot_hw_flash.o(.text._ZN5embot2hw5flash4readEjjPv) refers to rt_memmove_v6.o(.text) for __aeabi_memmove
    embot_hw_flash.o(.ARM.exidx.text._ZN5embot2hw5flash4readEjjPv) refers to embot_hw_flash.o(.text._ZN5embot2hw5flash4readEjjPv) for [Anonymous Symbol]
    embot_hw_flash.o(.text._ZN5embot2hw5flash5writeEjjPKv) refers to embot_hw_flash.o(.text._ZN5embot2hw5flash14isaddressvalidEj) for embot::hw::flash::isaddressvalid(unsigned int)
    embot_hw_flash.o(.text._ZN5embot2hw5flash5writeEjjPKv) refers to embot_hw_flash.o(.text._ZN5embot2hw5flash12getpartitionENS0_5FLASHE) for embot::hw::flash::getpartition(embot::hw::FLASH)
    embot_hw_flash.o(.text._ZN5embot2hw5flash5writeEjjPKv) refers to stm32g4xx_hal_flash_1.o(.text.HAL_FLASH_Unlock) for HAL_FLASH_Unlock
    embot_hw_flash.o(.text._ZN5embot2hw5flash5writeEjjPKv) refers to stm32g4xx_hal_flash_1.o(.text.HAL_FLASH_Program) for HAL_FLASH_Program
    embot_hw_flash.o(.text._ZN5embot2hw5flash5writeEjjPKv) refers to stm32g4xx_hal_flash_1.o(.text.HAL_FLASH_GetError) for HAL_FLASH_GetError
    embot_hw_flash.o(.text._ZN5embot2hw5flash5writeEjjPKv) refers to stm32g4xx_hal_flash_1.o(.text.HAL_FLASH_Lock) for HAL_FLASH_Lock
    embot_hw_flash.o(.ARM.exidx.text._ZN5embot2hw5flash5writeEjjPKv) refers to embot_hw_flash.o(.text._ZN5embot2hw5flash5writeEjjPKv) for [Anonymous Symbol]
    embot_hw_timer.o(.ARM.exidx.text._ZN5embot2hw5timer9supportedENS0_5TIMERE) refers to embot_hw_timer.o(.text._ZN5embot2hw5timer9supportedENS0_5TIMERE) for [Anonymous Symbol]
    embot_hw_timer.o(.ARM.exidx.text._ZN5embot2hw5timer11initialisedENS0_5TIMERE) refers to embot_hw_timer.o(.text._ZN5embot2hw5timer11initialisedENS0_5TIMERE) for [Anonymous Symbol]
    embot_hw_timer.o(.ARM.exidx.text._ZN5embot2hw5timer4initENS0_5TIMERERKNS1_6ConfigE) refers to embot_hw_timer.o(.text._ZN5embot2hw5timer4initENS0_5TIMERERKNS1_6ConfigE) for [Anonymous Symbol]
    embot_hw_timer.o(.ARM.exidx.text._ZN5embot2hw5timer9isrunningENS0_5TIMERE) refers to embot_hw_timer.o(.text._ZN5embot2hw5timer9isrunningENS0_5TIMERE) for [Anonymous Symbol]
    embot_hw_timer.o(.ARM.exidx.text._ZN5embot2hw5timer5startENS0_5TIMERERKNS1_4ModeE) refers to embot_hw_timer.o(.text._ZN5embot2hw5timer5startENS0_5TIMERERKNS1_4ModeE) for [Anonymous Symbol]
    embot_hw_timer.o(.ARM.exidx.text._ZN5embot2hw5timer4stopENS0_5TIMERE) refers to embot_hw_timer.o(.text._ZN5embot2hw5timer4stopENS0_5TIMERE) for [Anonymous Symbol]
    embot_hw_gpio.o(.text._ZN5embot2hw4gpio9supportedERNS0_4GPIOE) refers to embot_hw_bsp_amcbldc.o(.text._ZN5embot2hw4gpio6getBSPEv) for embot::hw::gpio::getBSP()
    embot_hw_gpio.o(.text._ZN5embot2hw4gpio9supportedERNS0_4GPIOE) refers to embot_hw_gpio.o(.text._ZNK5embot2hw4gpio3BSP9supportedENS0_4GPIOE) for embot::hw::gpio::BSP::supported(embot::hw::GPIO) const
    embot_hw_gpio.o(.ARM.exidx.text._ZN5embot2hw4gpio9supportedERNS0_4GPIOE) refers to embot_hw_gpio.o(.text._ZN5embot2hw4gpio9supportedERNS0_4GPIOE) for [Anonymous Symbol]
    embot_hw_gpio.o(.ARM.exidx.text._ZN5embot2hw4gpio11initialisedERNS0_4GPIOE) refers to embot_hw_gpio.o(.text._ZN5embot2hw4gpio11initialisedERNS0_4GPIOE) for [Anonymous Symbol]
    embot_hw_gpio.o(.text._ZN5embot2hw4gpio4initERKNS0_4GPIOERKNS1_6ConfigE) refers to embot_hw_gpio.o(.text._ZN5embot2hw4gpio9configureERKNS0_4GPIOENS1_4ModeENS1_4PullENS1_5SpeedE) for embot::hw::gpio::configure(embot::hw::GPIO const&, embot::hw::gpio::Mode, embot::hw::gpio::Pull, embot::hw::gpio::Speed)
    embot_hw_gpio.o(.ARM.exidx.text._ZN5embot2hw4gpio4initERKNS0_4GPIOERKNS1_6ConfigE) refers to embot_hw_gpio.o(.text._ZN5embot2hw4gpio4initERKNS0_4GPIOERKNS1_6ConfigE) for [Anonymous Symbol]
    embot_hw_gpio.o(.text._ZN5embot2hw4gpio9configureERKNS0_4GPIOENS1_4ModeENS1_4PullENS1_5SpeedE) refers to embot_hw_bsp_amcbldc.o(.text._ZN5embot2hw4gpio6getBSPEv) for embot::hw::gpio::getBSP()
    embot_hw_gpio.o(.text._ZN5embot2hw4gpio9configureERKNS0_4GPIOENS1_4ModeENS1_4PullENS1_5SpeedE) refers to embot_hw_gpio.o(.text._ZNK5embot2hw4gpio3BSP7getPROPENS0_4GPIOE) for embot::hw::gpio::BSP::getPROP(embot::hw::GPIO) const
    embot_hw_gpio.o(.text._ZN5embot2hw4gpio9configureERKNS0_4GPIOENS1_4ModeENS1_4PullENS1_5SpeedE) refers to embot_hw_gpio.o(.text._ZNK5embot2hw4gpio4PROP7isvalidEv) for embot::hw::gpio::PROP::isvalid() const
    embot_hw_gpio.o(.text._ZN5embot2hw4gpio9configureERKNS0_4GPIOENS1_4ModeENS1_4PullENS1_5SpeedE) refers to embot_hw_gpio.o(.text._ZN5embot2hw4gpio10_configureERKNS1_4PROPENS1_4ModeENS1_4PullENS1_5SpeedE) for embot::hw::gpio::_configure(embot::hw::gpio::PROP const&, embot::hw::gpio::Mode, embot::hw::gpio::Pull, embot::hw::gpio::Speed)
    embot_hw_gpio.o(.ARM.exidx.text._ZN5embot2hw4gpio9configureERKNS0_4GPIOENS1_4ModeENS1_4PullENS1_5SpeedE) refers to embot_hw_gpio.o(.text._ZN5embot2hw4gpio9configureERKNS0_4GPIOENS1_4ModeENS1_4PullENS1_5SpeedE) for [Anonymous Symbol]
    embot_hw_gpio.o(.text._ZN5embot2hw4gpio10_configureERKNS1_4PROPENS1_4ModeENS1_4PullENS1_5SpeedE) refers to embot_hw_gpio.o(.text._ZNK5embot2hw4gpio4PROP11clockenableEv) for embot::hw::gpio::PROP::clockenable() const
    embot_hw_gpio.o(.text._ZN5embot2hw4gpio10_configureERKNS1_4PROPENS1_4ModeENS1_4PullENS1_5SpeedE) refers to embot_hw_gpio.o(.text._ZN5embot2hw4gpio21_convert_to_stm32modeENS1_4ModeE) for embot::hw::gpio::_convert_to_stm32mode(embot::hw::gpio::Mode)
    embot_hw_gpio.o(.text._ZN5embot2hw4gpio10_configureERKNS1_4PROPENS1_4ModeENS1_4PullENS1_5SpeedE) refers to embot_hw_gpio.o(.text._ZN5embot2hw4gpio21_convert_to_stm32pullENS1_4PullE) for embot::hw::gpio::_convert_to_stm32pull(embot::hw::gpio::Pull)
    embot_hw_gpio.o(.text._ZN5embot2hw4gpio10_configureERKNS1_4PROPENS1_4ModeENS1_4PullENS1_5SpeedE) refers to stm32g4xx_hal_gpio_1.o(.text.HAL_GPIO_Init) for HAL_GPIO_Init
    embot_hw_gpio.o(.text._ZN5embot2hw4gpio10_configureERKNS1_4PROPENS1_4ModeENS1_4PullENS1_5SpeedE) refers to embot_hw_gpio.o(.text._ZN5embot2hw4gpio22_convert_to_stm32speedENS1_5SpeedE) for embot::hw::gpio::_convert_to_stm32speed(embot::hw::gpio::Speed)
    embot_hw_gpio.o(.text._ZN5embot2hw4gpio10_configureERKNS1_4PROPENS1_4ModeENS1_4PullENS1_5SpeedE) refers to embot_hw_gpio.o(.text._ZL18LL_GPIO_SetPinModeP12GPIO_TypeDefjj) for LL_GPIO_SetPinMode(GPIO_TypeDef*, unsigned int, unsigned int)
    embot_hw_gpio.o(.text._ZN5embot2hw4gpio10_configureERKNS1_4PROPENS1_4ModeENS1_4PullENS1_5SpeedE) refers to embot_hw_gpio.o(.text._ZL24LL_GPIO_SetPinOutputTypeP12GPIO_TypeDefjj) for LL_GPIO_SetPinOutputType(GPIO_TypeDef*, unsigned int, unsigned int)
    embot_hw_gpio.o(.ARM.exidx.text._ZN5embot2hw4gpio10_configureERKNS1_4PROPENS1_4ModeENS1_4PullENS1_5SpeedE) refers to embot_hw_gpio.o(.text._ZN5embot2hw4gpio10_configureERKNS1_4PROPENS1_4ModeENS1_4PullENS1_5SpeedE) for [Anonymous Symbol]
    embot_hw_gpio.o(.text._ZN5embot2hw4gpio3setERKNS0_4GPIOENS1_5StateE) refers to embot_hw_bsp_amcbldc.o(.text._ZN5embot2hw4gpio6getBSPEv) for embot::hw::gpio::getBSP()
    embot_hw_gpio.o(.text._ZN5embot2hw4gpio3setERKNS0_4GPIOENS1_5StateE) refers to embot_hw_gpio.o(.text._ZNK5embot2hw4gpio3BSP7getPROPENS0_4GPIOE) for embot::hw::gpio::BSP::getPROP(embot::hw::GPIO) const
    embot_hw_gpio.o(.text._ZN5embot2hw4gpio3setERKNS0_4GPIOENS1_5StateE) refers to embot_hw_gpio.o(.text._ZNK5embot2hw4gpio4PROP7isvalidEv) for embot::hw::gpio::PROP::isvalid() const
    embot_hw_gpio.o(.text._ZN5embot2hw4gpio3setERKNS0_4GPIOENS1_5StateE) refers to embot_hw_gpio.o(.text._ZN5embot2hw4gpio4_setERKNS1_4PROPENS1_5StateE) for embot::hw::gpio::_set(embot::hw::gpio::PROP const&, embot::hw::gpio::State)
    embot_hw_gpio.o(.ARM.exidx.text._ZN5embot2hw4gpio3setERKNS0_4GPIOENS1_5StateE) refers to embot_hw_gpio.o(.text._ZN5embot2hw4gpio3setERKNS0_4GPIOENS1_5StateE) for [Anonymous Symbol]
    embot_hw_gpio.o(.text._ZN5embot2hw4gpio4_setERKNS1_4PROPENS1_5StateE) refers to stm32g4xx_hal_gpio_1.o(.text.HAL_GPIO_WritePin) for HAL_GPIO_WritePin
    embot_hw_gpio.o(.ARM.exidx.text._ZN5embot2hw4gpio4_setERKNS1_4PROPENS1_5StateE) refers to embot_hw_gpio.o(.text._ZN5embot2hw4gpio4_setERKNS1_4PROPENS1_5StateE) for [Anonymous Symbol]
    embot_hw_gpio.o(.text._ZN5embot2hw4gpio6toggleERKNS0_4GPIOE) refers to embot_hw_bsp_amcbldc.o(.text._ZN5embot2hw4gpio6getBSPEv) for embot::hw::gpio::getBSP()
    embot_hw_gpio.o(.text._ZN5embot2hw4gpio6toggleERKNS0_4GPIOE) refers to embot_hw_gpio.o(.text._ZNK5embot2hw4gpio3BSP7getPROPENS0_4GPIOE) for embot::hw::gpio::BSP::getPROP(embot::hw::GPIO) const
    embot_hw_gpio.o(.text._ZN5embot2hw4gpio6toggleERKNS0_4GPIOE) refers to embot_hw_gpio.o(.text._ZNK5embot2hw4gpio4PROP7isvalidEv) for embot::hw::gpio::PROP::isvalid() const
    embot_hw_gpio.o(.text._ZN5embot2hw4gpio6toggleERKNS0_4GPIOE) refers to embot_hw_gpio.o(.text._ZN5embot2hw4gpio7_toggleERKNS1_4PROPE) for embot::hw::gpio::_toggle(embot::hw::gpio::PROP const&)
    embot_hw_gpio.o(.ARM.exidx.text._ZN5embot2hw4gpio6toggleERKNS0_4GPIOE) refers to embot_hw_gpio.o(.text._ZN5embot2hw4gpio6toggleERKNS0_4GPIOE) for [Anonymous Symbol]
    embot_hw_gpio.o(.text._ZN5embot2hw4gpio7_toggleERKNS1_4PROPE) refers to stm32g4xx_hal_gpio_1.o(.text.HAL_GPIO_TogglePin) for HAL_GPIO_TogglePin
    embot_hw_gpio.o(.ARM.exidx.text._ZN5embot2hw4gpio7_toggleERKNS1_4PROPE) refers to embot_hw_gpio.o(.text._ZN5embot2hw4gpio7_toggleERKNS1_4PROPE) for [Anonymous Symbol]
    embot_hw_gpio.o(.text._ZN5embot2hw4gpio3getERKNS0_4GPIOE) refers to embot_hw_bsp_amcbldc.o(.text._ZN5embot2hw4gpio6getBSPEv) for embot::hw::gpio::getBSP()
    embot_hw_gpio.o(.text._ZN5embot2hw4gpio3getERKNS0_4GPIOE) refers to embot_hw_gpio.o(.text._ZNK5embot2hw4gpio3BSP7getPROPENS0_4GPIOE) for embot::hw::gpio::BSP::getPROP(embot::hw::GPIO) const
    embot_hw_gpio.o(.text._ZN5embot2hw4gpio3getERKNS0_4GPIOE) refers to embot_hw_gpio.o(.text._ZNK5embot2hw4gpio4PROP7isvalidEv) for embot::hw::gpio::PROP::isvalid() const
    embot_hw_gpio.o(.text._ZN5embot2hw4gpio3getERKNS0_4GPIOE) refers to embot_hw_gpio.o(.text._ZN5embot2hw4gpio4_getERKNS1_4PROPE) for embot::hw::gpio::_get(embot::hw::gpio::PROP const&)
    embot_hw_gpio.o(.ARM.exidx.text._ZN5embot2hw4gpio3getERKNS0_4GPIOE) refers to embot_hw_gpio.o(.text._ZN5embot2hw4gpio3getERKNS0_4GPIOE) for [Anonymous Symbol]
    embot_hw_gpio.o(.text._ZN5embot2hw4gpio4_getERKNS1_4PROPE) refers to stm32g4xx_hal_gpio_1.o(.text.HAL_GPIO_ReadPin) for HAL_GPIO_ReadPin
    embot_hw_gpio.o(.ARM.exidx.text._ZN5embot2hw4gpio4_getERKNS1_4PROPE) refers to embot_hw_gpio.o(.text._ZN5embot2hw4gpio4_getERKNS1_4PROPE) for [Anonymous Symbol]
    embot_hw_gpio.o(.ARM.exidx.text._ZL18LL_GPIO_SetPinModeP12GPIO_TypeDefjj) refers to embot_hw_gpio.o(.text._ZL18LL_GPIO_SetPinModeP12GPIO_TypeDefjj) for [Anonymous Symbol]
    embot_hw_gpio.o(.ARM.exidx.text._ZL24LL_GPIO_SetPinOutputTypeP12GPIO_TypeDefjj) refers to embot_hw_gpio.o(.text._ZL24LL_GPIO_SetPinOutputTypeP12GPIO_TypeDefjj) for [Anonymous Symbol]
    embot_hw_led.o(.ARM.exidx.text._ZN5embot2hw3led7convertENS0_4gpio5StateE) refers to embot_hw_led.o(.text._ZN5embot2hw3led7convertENS0_4gpio5StateE) for [Anonymous Symbol]
    embot_hw_led.o(.text._ZN5embot2hw3led9supportedENS0_3LEDE) refers to embot_hw_bsp_amcbldc.o(.text._ZN5embot2hw3led6getBSPEv) for embot::hw::led::getBSP()
    embot_hw_led.o(.text._ZN5embot2hw3led9supportedENS0_3LEDE) refers to embot_hw_led.o(.text._ZNK5embot2hw3bsp4SUPP9supportedINS0_3LEDEEEbT_) for bool embot::hw::bsp::SUPP::supported<embot::hw::LED>(embot::hw::LED) const
    embot_hw_led.o(.ARM.exidx.text._ZN5embot2hw3led9supportedENS0_3LEDE) refers to embot_hw_led.o(.text._ZN5embot2hw3led9supportedENS0_3LEDE) for [Anonymous Symbol]
    embot_hw_led.o(.text._ZN5embot2hw3led11initialisedENS0_3LEDE) refers to embot_hw_led.o(.bss._ZN5embot2hw3ledL15initialisedmaskE) for embot::hw::led::initialisedmask
    embot_hw_led.o(.text._ZN5embot2hw3led11initialisedENS0_3LEDE) refers to embot_hw_led.o(.text._ZN5embot4core10tointegralINS_2hw3LEDEEEDaT_) for auto embot::core::tointegral<embot::hw::LED>(embot::hw::LED)
    embot_hw_led.o(.text._ZN5embot2hw3led11initialisedENS0_3LEDE) refers to embot_hw_flashburner.o(.text._ZN5embot4core6binary3bit5checkIjEEbT_h) for bool embot::core::binary::bit::check<unsigned int>(unsigned int, unsigned char)
    embot_hw_led.o(.ARM.exidx.text._ZN5embot2hw3led11initialisedENS0_3LEDE) refers to embot_hw_led.o(.text._ZN5embot2hw3led11initialisedENS0_3LEDE) for [Anonymous Symbol]
    embot_hw_led.o(.text._ZN5embot2hw3led4initENS0_3LEDE) refers to embot_hw_led.o(.text._ZN5embot2hw3led9supportedENS0_3LEDE) for embot::hw::led::supported(embot::hw::LED)
    embot_hw_led.o(.text._ZN5embot2hw3led4initENS0_3LEDE) refers to embot_hw_led.o(.text._ZN5embot2hw3led11initialisedENS0_3LEDE) for embot::hw::led::initialised(embot::hw::LED)
    embot_hw_led.o(.text._ZN5embot2hw3led4initENS0_3LEDE) refers to embot_hw.o(.text._ZN5embot2hw11initialisedEv) for embot::hw::initialised()
    embot_hw_led.o(.text._ZN5embot2hw3led4initENS0_3LEDE) refers to embot_hw_bsp_amcbldc.o(.text._ZN5embot2hw3led6getBSPEv) for embot::hw::led::getBSP()
    embot_hw_led.o(.text._ZN5embot2hw3led4initENS0_3LEDE) refers to embot_hw_bsp_amcbldc.o(.text._ZNK5embot2hw3led3BSP4initENS0_3LEDE) for embot::hw::led::BSP::init(embot::hw::LED) const
    embot_hw_led.o(.text._ZN5embot2hw3led4initENS0_3LEDE) refers to embot_hw_led.o(.text._ZN5embot4core10tointegralINS_2hw3LEDEEEDaT_) for auto embot::core::tointegral<embot::hw::LED>(embot::hw::LED)
    embot_hw_led.o(.text._ZN5embot2hw3led4initENS0_3LEDE) refers to embot_hw_led.o(.bss._ZN5embot2hw3ledL15initialisedmaskE) for embot::hw::led::initialisedmask
    embot_hw_led.o(.text._ZN5embot2hw3led4initENS0_3LEDE) refers to embot_hw_can.o(.text._ZN5embot4core6binary3bit3setIjEEvRT_h) for void embot::core::binary::bit::set<unsigned int>(unsigned int&, unsigned char)
    embot_hw_led.o(.text._ZN5embot2hw3led4initENS0_3LEDE) refers to embot_hw_led.o(.text._ZN5embot2hw3led3offENS0_3LEDE) for embot::hw::led::off(embot::hw::LED)
    embot_hw_led.o(.ARM.exidx.text._ZN5embot2hw3led4initENS0_3LEDE) refers to embot_hw_led.o(.text._ZN5embot2hw3led4initENS0_3LEDE) for [Anonymous Symbol]
    embot_hw_led.o(.text._ZN5embot2hw3led3offENS0_3LEDE) refers to embot_hw_led.o(.text._ZN5embot2hw3led11initialisedENS0_3LEDE) for embot::hw::led::initialised(embot::hw::LED)
    embot_hw_led.o(.text._ZN5embot2hw3led3offENS0_3LEDE) refers to embot_hw_bsp_amcbldc.o(.text._ZN5embot2hw3led6getBSPEv) for embot::hw::led::getBSP()
    embot_hw_led.o(.text._ZN5embot2hw3led3offENS0_3LEDE) refers to embot_hw_led.o(.text._ZNK5embot2hw3led3BSP7getPROPENS0_3LEDE) for embot::hw::led::BSP::getPROP(embot::hw::LED) const
    embot_hw_led.o(.text._ZN5embot2hw3led3offENS0_3LEDE) refers to embot_hw_gpio.o(.text._ZN5embot2hw4gpio3setERKNS0_4GPIOENS1_5StateE) for embot::hw::gpio::set(embot::hw::GPIO const&, embot::hw::gpio::State)
    embot_hw_led.o(.ARM.exidx.text._ZN5embot2hw3led3offENS0_3LEDE) refers to embot_hw_led.o(.text._ZN5embot2hw3led3offENS0_3LEDE) for [Anonymous Symbol]
    embot_hw_led.o(.text._ZN5embot2hw3led2onENS0_3LEDE) refers to embot_hw_led.o(.text._ZN5embot2hw3led11initialisedENS0_3LEDE) for embot::hw::led::initialised(embot::hw::LED)
    embot_hw_led.o(.text._ZN5embot2hw3led2onENS0_3LEDE) refers to embot_hw_bsp_amcbldc.o(.text._ZN5embot2hw3led6getBSPEv) for embot::hw::led::getBSP()
    embot_hw_led.o(.text._ZN5embot2hw3led2onENS0_3LEDE) refers to embot_hw_led.o(.text._ZNK5embot2hw3led3BSP7getPROPENS0_3LEDE) for embot::hw::led::BSP::getPROP(embot::hw::LED) const
    embot_hw_led.o(.text._ZN5embot2hw3led2onENS0_3LEDE) refers to embot_hw_gpio.o(.text._ZN5embot2hw4gpio3setERKNS0_4GPIOENS1_5StateE) for embot::hw::gpio::set(embot::hw::GPIO const&, embot::hw::gpio::State)
    embot_hw_led.o(.ARM.exidx.text._ZN5embot2hw3led2onENS0_3LEDE) refers to embot_hw_led.o(.text._ZN5embot2hw3led2onENS0_3LEDE) for [Anonymous Symbol]
    embot_hw_led.o(.text._ZN5embot2hw3led6toggleENS0_3LEDE) refers to embot_hw_led.o(.text._ZN5embot2hw3led11initialisedENS0_3LEDE) for embot::hw::led::initialised(embot::hw::LED)
    embot_hw_led.o(.text._ZN5embot2hw3led6toggleENS0_3LEDE) refers to embot_hw_bsp_amcbldc.o(.text._ZN5embot2hw3led6getBSPEv) for embot::hw::led::getBSP()
    embot_hw_led.o(.text._ZN5embot2hw3led6toggleENS0_3LEDE) refers to embot_hw_led.o(.text._ZNK5embot2hw3led3BSP7getPROPENS0_3LEDE) for embot::hw::led::BSP::getPROP(embot::hw::LED) const
    embot_hw_led.o(.text._ZN5embot2hw3led6toggleENS0_3LEDE) refers to embot_hw_gpio.o(.text._ZN5embot2hw4gpio6toggleERKNS0_4GPIOE) for embot::hw::gpio::toggle(embot::hw::GPIO const&)
    embot_hw_led.o(.ARM.exidx.text._ZN5embot2hw3led6toggleENS0_3LEDE) refers to embot_hw_led.o(.text._ZN5embot2hw3led6toggleENS0_3LEDE) for [Anonymous Symbol]
    embot_hw_button.o(.ARM.exidx.text._ZN5embot2hw6button7convertENS0_4gpio5StateE) refers to embot_hw_button.o(.text._ZN5embot2hw6button7convertENS0_4gpio5StateE) for [Anonymous Symbol]
    embot_hw_button.o(.text._ZN5embot2hw6button9supportedENS0_3BTNE) refers to embot_hw_bsp_amcbldc.o(.text._ZN5embot2hw6button6getBSPEv) for embot::hw::button::getBSP()
    embot_hw_button.o(.text._ZN5embot2hw6button9supportedENS0_3BTNE) refers to embot_hw_button.o(.text._ZNK5embot2hw3bsp4SUPP9supportedINS0_3BTNEEEbT_) for bool embot::hw::bsp::SUPP::supported<embot::hw::BTN>(embot::hw::BTN) const
    embot_hw_button.o(.ARM.exidx.text._ZN5embot2hw6button9supportedENS0_3BTNE) refers to embot_hw_button.o(.text._ZN5embot2hw6button9supportedENS0_3BTNE) for [Anonymous Symbol]
    embot_hw_button.o(.text._ZN5embot2hw6button11initialisedENS0_3BTNE) refers to embot_hw_button.o(.bss._ZN5embot2hw6buttonL15initialisedmaskE) for embot::hw::button::initialisedmask
    embot_hw_button.o(.text._ZN5embot2hw6button11initialisedENS0_3BTNE) refers to embot_hw_button.o(.text._ZN5embot4core10tointegralINS_2hw3BTNEEEDaT_) for auto embot::core::tointegral<embot::hw::BTN>(embot::hw::BTN)
    embot_hw_button.o(.text._ZN5embot2hw6button11initialisedENS0_3BTNE) refers to embot_hw_flashburner.o(.text._ZN5embot4core6binary3bit5checkIjEEbT_h) for bool embot::core::binary::bit::check<unsigned int>(unsigned int, unsigned char)
    embot_hw_button.o(.ARM.exidx.text._ZN5embot2hw6button11initialisedENS0_3BTNE) refers to embot_hw_button.o(.text._ZN5embot2hw6button11initialisedENS0_3BTNE) for [Anonymous Symbol]
    embot_hw_button.o(.text._ZN5embot2hw6button4initENS0_3BTNERKNS1_6ConfigE) refers to embot_hw_button.o(.text._ZN5embot2hw6button9supportedENS0_3BTNE) for embot::hw::button::supported(embot::hw::BTN)
    embot_hw_button.o(.text._ZN5embot2hw6button4initENS0_3BTNERKNS1_6ConfigE) refers to embot_hw_button.o(.text._ZN5embot2hw6button11initialisedENS0_3BTNE) for embot::hw::button::initialised(embot::hw::BTN)
    embot_hw_button.o(.text._ZN5embot2hw6button4initENS0_3BTNERKNS1_6ConfigE) refers to embot_hw.o(.text._ZN5embot2hw11initialisedEv) for embot::hw::initialised()
    embot_hw_button.o(.text._ZN5embot2hw6button4initENS0_3BTNERKNS1_6ConfigE) refers to embot_hw_button.o(.text._ZN5embot4core10tointegralINS_2hw3BTNEEEDaT_) for auto embot::core::tointegral<embot::hw::BTN>(embot::hw::BTN)
    embot_hw_button.o(.text._ZN5embot2hw6button4initENS0_3BTNERKNS1_6ConfigE) refers to embot_hw_button.o(.data._ZN5embot2hw6buttonL13s_privatedataE) for embot::hw::button::s_privatedata
    embot_hw_button.o(.text._ZN5embot2hw6button4initENS0_3BTNERKNS1_6ConfigE) refers to embot_hw_bsp_amcbldc.o(.text._ZN5embot2hw6button6getBSPEv) for embot::hw::button::getBSP()
    embot_hw_button.o(.text._ZN5embot2hw6button4initENS0_3BTNERKNS1_6ConfigE) refers to embot_hw_bsp_amcbldc.o(.text._ZNK5embot2hw6button3BSP4initENS0_3BTNE) for embot::hw::button::BSP::init(embot::hw::BTN) const
    embot_hw_button.o(.text._ZN5embot2hw6button4initENS0_3BTNERKNS1_6ConfigE) refers to embot_hw_button.o(.text._ZNK5embot2hw6button3BSP7getPROPENS0_3BTNE) for embot::hw::button::BSP::getPROP(embot::hw::BTN) const
    embot_hw_button.o(.text._ZN5embot2hw6button4initENS0_3BTNERKNS1_6ConfigE) refers to embot_hw_gpio.o(.text._ZN5embot2hw4gpio9configureERKNS0_4GPIOENS1_4ModeENS1_4PullENS1_5SpeedE) for embot::hw::gpio::configure(embot::hw::GPIO const&, embot::hw::gpio::Mode, embot::hw::gpio::Pull, embot::hw::gpio::Speed)
    embot_hw_button.o(.text._ZN5embot2hw6button4initENS0_3BTNERKNS1_6ConfigE) refers to stm32g4xx_hal_cortex_1.o(.text.HAL_NVIC_SetPriority) for HAL_NVIC_SetPriority
    embot_hw_button.o(.text._ZN5embot2hw6button4initENS0_3BTNERKNS1_6ConfigE) refers to stm32g4xx_hal_cortex_1.o(.text.HAL_NVIC_EnableIRQ) for HAL_NVIC_EnableIRQ
    embot_hw_button.o(.text._ZN5embot2hw6button4initENS0_3BTNERKNS1_6ConfigE) refers to embot_hw_button.o(.bss._ZN5embot2hw6buttonL15initialisedmaskE) for embot::hw::button::initialisedmask
    embot_hw_button.o(.text._ZN5embot2hw6button4initENS0_3BTNERKNS1_6ConfigE) refers to embot_hw_can.o(.text._ZN5embot4core6binary3bit3setIjEEvRT_h) for void embot::core::binary::bit::set<unsigned int>(unsigned int&, unsigned char)
    embot_hw_button.o(.ARM.exidx.text._ZN5embot2hw6button4initENS0_3BTNERKNS1_6ConfigE) refers to embot_hw_button.o(.text._ZN5embot2hw6button4initENS0_3BTNERKNS1_6ConfigE) for [Anonymous Symbol]
    embot_hw_button.o(.text._ZN5embot2hw6button6configENS0_3BTNE) refers to embot_hw_button.o(.text._ZN5embot4core10tointegralINS_2hw3BTNEEEDaT_) for auto embot::core::tointegral<embot::hw::BTN>(embot::hw::BTN)
    embot_hw_button.o(.text._ZN5embot2hw6button6configENS0_3BTNE) refers to embot_hw_button.o(.data._ZN5embot2hw6buttonL13s_privatedataE) for embot::hw::button::s_privatedata
    embot_hw_button.o(.ARM.exidx.text._ZN5embot2hw6button6configENS0_3BTNE) refers to embot_hw_button.o(.text._ZN5embot2hw6button6configENS0_3BTNE) for [Anonymous Symbol]
    embot_hw_button.o(.text._ZN5embot2hw6button7pressedENS0_3BTNE) refers to embot_hw_button.o(.text._ZN5embot2hw6button11initialisedENS0_3BTNE) for embot::hw::button::initialised(embot::hw::BTN)
    embot_hw_button.o(.text._ZN5embot2hw6button7pressedENS0_3BTNE) refers to embot_hw_bsp_amcbldc.o(.text._ZN5embot2hw6button6getBSPEv) for embot::hw::button::getBSP()
    embot_hw_button.o(.text._ZN5embot2hw6button7pressedENS0_3BTNE) refers to embot_hw_button.o(.text._ZNK5embot2hw6button3BSP7getPROPENS0_3BTNE) for embot::hw::button::BSP::getPROP(embot::hw::BTN) const
    embot_hw_button.o(.text._ZN5embot2hw6button7pressedENS0_3BTNE) refers to embot_hw_gpio.o(.text._ZN5embot2hw4gpio3getERKNS0_4GPIOE) for embot::hw::gpio::get(embot::hw::GPIO const&)
    embot_hw_button.o(.ARM.exidx.text._ZN5embot2hw6button7pressedENS0_3BTNE) refers to embot_hw_button.o(.text._ZN5embot2hw6button7pressedENS0_3BTNE) for [Anonymous Symbol]
    embot_hw_button.o(.text._ZN5embot2hw6button8_timenowEv) refers to embot_core.o(.text._ZN5embot4core3nowEv) for embot::core::now()
    embot_hw_button.o(.ARM.exidx.text._ZN5embot2hw6button8_timenowEv) refers to embot_hw_button.o(.text._ZN5embot2hw6button8_timenowEv) for [Anonymous Symbol]
    embot_hw_button.o(.text._ZN5embot2hw6button6onextiENS0_3BTNE) refers to embot_hw_button.o(.text._ZN5embot2hw6button11initialisedENS0_3BTNE) for embot::hw::button::initialised(embot::hw::BTN)
    embot_hw_button.o(.text._ZN5embot2hw6button6onextiENS0_3BTNE) refers to embot_hw_button.o(.text._ZN5embot4core10tointegralINS_2hw3BTNEEEDaT_) for auto embot::core::tointegral<embot::hw::BTN>(embot::hw::BTN)
    embot_hw_button.o(.text._ZN5embot2hw6button6onextiENS0_3BTNE) refers to embot_hw_button.o(.data._ZN5embot2hw6buttonL13s_privatedataE) for embot::hw::button::s_privatedata
    embot_hw_button.o(.text._ZN5embot2hw6button6onextiENS0_3BTNE) refers to embot_hw_can.o(.text._ZNK5embot4core8Callback7executeEv) for embot::core::Callback::execute() const
    embot_hw_button.o(.text._ZN5embot2hw6button6onextiENS0_3BTNE) refers to embot_hw_flashburner.o(.text._ZN5embot4core6binary3bit5checkIjEEbT_h) for bool embot::core::binary::bit::check<unsigned int>(unsigned int, unsigned char)
    embot_hw_button.o(.text._ZN5embot2hw6button6onextiENS0_3BTNE) refers to embot_hw_button.o(.text._ZN5embot2hw6button7pressedENS0_3BTNE) for embot::hw::button::pressed(embot::hw::BTN)
    embot_hw_button.o(.text._ZN5embot2hw6button6onextiENS0_3BTNE) refers to embot_hw_button.o(.text._ZN5embot4core6binary3bit5clearIjEEvRT_h) for void embot::core::binary::bit::clear<unsigned int>(unsigned int&, unsigned char)
    embot_hw_button.o(.text._ZN5embot2hw6button6onextiENS0_3BTNE) refers to embot_hw_button.o(.text._ZN5embot2hw6button8_timenowEv) for embot::hw::button::_timenow()
    embot_hw_button.o(.text._ZN5embot2hw6button6onextiENS0_3BTNE) refers to embot_hw_can.o(.text._ZN5embot4core6binary3bit3setIjEEvRT_h) for void embot::core::binary::bit::set<unsigned int>(unsigned int&, unsigned char)
    embot_hw_button.o(.ARM.exidx.text._ZN5embot2hw6button6onextiENS0_3BTNE) refers to embot_hw_button.o(.text._ZN5embot2hw6button6onextiENS0_3BTNE) for [Anonymous Symbol]
    embot_hw_i2c.o(.ARM.exidx.text._ZN5embot2hw3i2c9supportedENS0_3I2CE) refers to embot_hw_i2c.o(.text._ZN5embot2hw3i2c9supportedENS0_3I2CE) for [Anonymous Symbol]
    embot_hw_i2c.o(.ARM.exidx.text._ZN5embot2hw3i2c11initialisedENS0_3I2CE) refers to embot_hw_i2c.o(.text._ZN5embot2hw3i2c11initialisedENS0_3I2CE) for [Anonymous Symbol]
    embot_hw_i2c.o(.ARM.exidx.text._ZN5embot2hw3i2c4initENS0_3I2CERKNS1_6ConfigE) refers to embot_hw_i2c.o(.text._ZN5embot2hw3i2c4initENS0_3I2CERKNS1_6ConfigE) for [Anonymous Symbol]
    embot_hw_i2c.o(.ARM.exidx.text._ZN5embot2hw3i2c6isbusyENS0_3I2CEjRj) refers to embot_hw_i2c.o(.text._ZN5embot2hw3i2c6isbusyENS0_3I2CEjRj) for [Anonymous Symbol]
    embot_hw_i2c.o(.ARM.exidx.text._ZN5embot2hw3i2c4pingENS0_3I2CEhj) refers to embot_hw_i2c.o(.text._ZN5embot2hw3i2c4pingENS0_3I2CEhj) for [Anonymous Symbol]
    embot_hw_i2c.o(.ARM.exidx.text._ZN5embot2hw3i2c4readENS0_3I2CEhNS1_3RegERNS_4core4DataEj) refers to embot_hw_i2c.o(.text._ZN5embot2hw3i2c4readENS0_3I2CEhNS1_3RegERNS_4core4DataEj) for [Anonymous Symbol]
    embot_hw_i2c.o(.ARM.exidx.text._ZN5embot2hw3i2c5writeENS0_3I2CEhNS1_3RegERKNS_4core4DataEj) refers to embot_hw_i2c.o(.text._ZN5embot2hw3i2c5writeENS0_3I2CEhNS1_3RegERKNS_4core4DataEj) for [Anonymous Symbol]
    embot_hw_i2c.o(.ARM.exidx.text._ZN5embot2hw3i2c7receiveENS0_3I2CEhRNS_4core4DataEj) refers to embot_hw_i2c.o(.text._ZN5embot2hw3i2c7receiveENS0_3I2CEhRNS_4core4DataEj) for [Anonymous Symbol]
    embot_hw_i2c.o(.ARM.exidx.text._ZN5embot2hw3i2c8transmitENS0_3I2CEhRKNS_4core4DataEj) refers to embot_hw_i2c.o(.text._ZN5embot2hw3i2c8transmitENS0_3I2CEhRKNS_4core4DataEj) for [Anonymous Symbol]
    embot_hw_i2c.o(.ARM.exidx.text._ZN5embot2hw3i2c19transmitzeroaddressENS0_3I2CEj) refers to embot_hw_i2c.o(.text._ZN5embot2hw3i2c19transmitzeroaddressENS0_3I2CEj) for [Anonymous Symbol]
    embot_hw_i2c.o(.ARM.exidx.text._ZN5embot2hw3i2c6isbusyENS0_3I2CE) refers to embot_hw_i2c.o(.text._ZN5embot2hw3i2c6isbusyENS0_3I2CE) for [Anonymous Symbol]
    embot_hw_i2c.o(.ARM.exidx.text._ZN5embot2hw3i2c4readENS0_3I2CEhNS1_3RegERNS_4core4DataERKNS4_8CallbackE) refers to embot_hw_i2c.o(.text._ZN5embot2hw3i2c4readENS0_3I2CEhNS1_3RegERNS_4core4DataERKNS4_8CallbackE) for [Anonymous Symbol]
    embot_hw_i2c.o(.ARM.exidx.text._ZN5embot2hw3i2c5writeENS0_3I2CEhNS1_3RegERKNS_4core4DataERKNS4_8CallbackE) refers to embot_hw_i2c.o(.text._ZN5embot2hw3i2c5writeENS0_3I2CEhNS1_3RegERKNS_4core4DataERKNS4_8CallbackE) for [Anonymous Symbol]
    embot_hw_i2c.o(.ARM.exidx.text._ZN5embot2hw3i2c7receiveENS0_3I2CEhRNS_4core4DataERKNS3_8CallbackE) refers to embot_hw_i2c.o(.text._ZN5embot2hw3i2c7receiveENS0_3I2CEhRNS_4core4DataERKNS3_8CallbackE) for [Anonymous Symbol]
    embot_hw_i2c.o(.ARM.exidx.text._ZN5embot2hw3i2c8transmitENS0_3I2CEhRKNS_4core4DataERKNS3_8CallbackE) refers to embot_hw_i2c.o(.text._ZN5embot2hw3i2c8transmitENS0_3I2CEhRKNS_4core4DataERKNS3_8CallbackE) for [Anonymous Symbol]
    embot_hw_tlv493d.o(.text._ZN5embot2hw7tlv493d9to_stringENS0_7TLV493DE) refers to embot_hw_tlv493d.o(.text._ZN5embot4core10tointegralINS_2hw7TLV493DEEEDaT_) for auto embot::core::tointegral<embot::hw::TLV493D>(embot::hw::TLV493D)
    embot_hw_tlv493d.o(.text._ZN5embot2hw7tlv493d9to_stringENS0_7TLV493DE) refers to amcbldc-main.o(.text._ZNSt3__211char_traitsIcE6lengthEPKc) for std::__2::char_traits<char>::length(char const*)
    embot_hw_tlv493d.o(.text._ZN5embot2hw7tlv493d9to_stringENS0_7TLV493DE) refers to string.cpp.o(.text._ZNSt3__212basic_stringIcNS_11char_traitsIcEENS_9allocatorIcEEE6__initEPKcj) for std::__2::basic_string<char, std::__2::char_traits<char>, std::__2::allocator<char> >::__init(char const*, unsigned int)
    embot_hw_tlv493d.o(.text._ZN5embot2hw7tlv493d9to_stringENS0_7TLV493DE) refers to embot_hw_tlv493d.o(.rodata.str1.1) for [Anonymous Symbol]
    embot_hw_tlv493d.o(.ARM.exidx.text._ZN5embot2hw7tlv493d9to_stringENS0_7TLV493DE) refers to embot_hw_tlv493d.o(.text._ZN5embot2hw7tlv493d9to_stringENS0_7TLV493DE) for [Anonymous Symbol]
    embot_hw_tlv493d.o(.ARM.exidx.text._ZN5embot2hw7tlv493d9supportedENS0_7TLV493DE) refers to embot_hw_tlv493d.o(.text._ZN5embot2hw7tlv493d9supportedENS0_7TLV493DE) for [Anonymous Symbol]
    embot_hw_tlv493d.o(.ARM.exidx.text._ZN5embot2hw7tlv493d11initialisedENS0_7TLV493DE) refers to embot_hw_tlv493d.o(.text._ZN5embot2hw7tlv493d11initialisedENS0_7TLV493DE) for [Anonymous Symbol]
    embot_hw_tlv493d.o(.ARM.exidx.text._ZN5embot2hw7tlv493d4initENS0_7TLV493DERKNS1_6ConfigE) refers to embot_hw_tlv493d.o(.text._ZN5embot2hw7tlv493d4initENS0_7TLV493DERKNS1_6ConfigE) for [Anonymous Symbol]
    embot_hw_tlv493d.o(.ARM.exidx.text._ZN5embot2hw7tlv493d7isaliveENS0_7TLV493DEj) refers to embot_hw_tlv493d.o(.text._ZN5embot2hw7tlv493d7isaliveENS0_7TLV493DEj) for [Anonymous Symbol]
    embot_hw_tlv493d.o(.ARM.exidx.text._ZN5embot2hw7tlv493d11isacquiringENS0_7TLV493DE) refers to embot_hw_tlv493d.o(.text._ZN5embot2hw7tlv493d11isacquiringENS0_7TLV493DE) for [Anonymous Symbol]
    embot_hw_tlv493d.o(.ARM.exidx.text._ZN5embot2hw7tlv493d10canacquireENS0_7TLV493DE) refers to embot_hw_tlv493d.o(.text._ZN5embot2hw7tlv493d10canacquireENS0_7TLV493DE) for [Anonymous Symbol]
    embot_hw_tlv493d.o(.ARM.exidx.text._ZN5embot2hw7tlv493d11acquisitionENS0_7TLV493DERKNS_4core8CallbackE) refers to embot_hw_tlv493d.o(.text._ZN5embot2hw7tlv493d11acquisitionENS0_7TLV493DERKNS_4core8CallbackE) for [Anonymous Symbol]
    embot_hw_tlv493d.o(.ARM.exidx.text._ZN5embot2hw7tlv493d13operationdoneENS0_7TLV493DE) refers to embot_hw_tlv493d.o(.text._ZN5embot2hw7tlv493d13operationdoneENS0_7TLV493DE) for [Anonymous Symbol]
    embot_hw_tlv493d.o(.ARM.exidx.text._ZN5embot2hw7tlv493d4readENS0_7TLV493DERi) refers to embot_hw_tlv493d.o(.text._ZN5embot2hw7tlv493d4readENS0_7TLV493DERi) for [Anonymous Symbol]
    embot_hw_motor.o(.text._ZN5embot2hw5motor9to_stringENS0_5MOTORE) refers to embot_hw_motor.o(.text._ZN5embot4core10tointegralINS_2hw5MOTOREEEDaT_) for auto embot::core::tointegral<embot::hw::MOTOR>(embot::hw::MOTOR)
    embot_hw_motor.o(.text._ZN5embot2hw5motor9to_stringENS0_5MOTORE) refers to amcbldc-main.o(.text._ZNSt3__211char_traitsIcE6lengthEPKc) for std::__2::char_traits<char>::length(char const*)
    embot_hw_motor.o(.text._ZN5embot2hw5motor9to_stringENS0_5MOTORE) refers to string.cpp.o(.text._ZNSt3__212basic_stringIcNS_11char_traitsIcEENS_9allocatorIcEEE6__initEPKcj) for std::__2::basic_string<char, std::__2::char_traits<char>, std::__2::allocator<char> >::__init(char const*, unsigned int)
    embot_hw_motor.o(.text._ZN5embot2hw5motor9to_stringENS0_5MOTORE) refers to embot_hw_motor.o(.rodata.str1.1) for [Anonymous Symbol]
    embot_hw_motor.o(.ARM.exidx.text._ZN5embot2hw5motor9to_stringENS0_5MOTORE) refers to embot_hw_motor.o(.text._ZN5embot2hw5motor9to_stringENS0_5MOTORE) for [Anonymous Symbol]
    embot_hw_motor.o(.text._ZN5embot2hw5motor9supportedENS0_5MOTORE) refers to embot_hw_bsp_amcbldc.o(.text._ZN5embot2hw5motor6getBSPEv) for embot::hw::motor::getBSP()
    embot_hw_motor.o(.text._ZN5embot2hw5motor9supportedENS0_5MOTORE) refers to embot_hw_motor.o(.text._ZNK5embot2hw3bsp4SUPP9supportedINS0_5MOTOREEEbT_) for bool embot::hw::bsp::SUPP::supported<embot::hw::MOTOR>(embot::hw::MOTOR) const
    embot_hw_motor.o(.ARM.exidx.text._ZN5embot2hw5motor9supportedENS0_5MOTORE) refers to embot_hw_motor.o(.text._ZN5embot2hw5motor9supportedENS0_5MOTORE) for [Anonymous Symbol]
    embot_hw_motor.o(.text._ZN5embot2hw5motor11initialisedENS0_5MOTORE) refers to embot_hw_motor.o(.bss._ZN5embot2hw5motorL15initialisedmaskE) for embot::hw::motor::initialisedmask
    embot_hw_motor.o(.text._ZN5embot2hw5motor11initialisedENS0_5MOTORE) refers to embot_hw_motor.o(.text._ZN5embot4core10tointegralINS_2hw5MOTOREEEDaT_) for auto embot::core::tointegral<embot::hw::MOTOR>(embot::hw::MOTOR)
    embot_hw_motor.o(.text._ZN5embot2hw5motor11initialisedENS0_5MOTORE) refers to embot_hw_flashburner.o(.text._ZN5embot4core6binary3bit5checkIjEEbT_h) for bool embot::core::binary::bit::check<unsigned int>(unsigned int, unsigned char)
    embot_hw_motor.o(.ARM.exidx.text._ZN5embot2hw5motor11initialisedENS0_5MOTORE) refers to embot_hw_motor.o(.text._ZN5embot2hw5motor11initialisedENS0_5MOTORE) for [Anonymous Symbol]
    embot_hw_motor.o(.text.__cxx_global_var_init) refers to embot_hw_motor.o(.bss._ZN5embot2hw5motorL13s_privatedataE) for embot::hw::motor::s_privatedata
    embot_hw_motor.o(.text.__cxx_global_var_init) refers to embot_hw_motor.o(.text._ZN5embot2hw5motor11PrivateDataC2Ev) for embot::hw::motor::PrivateData::PrivateData__sub_object()
    embot_hw_motor.o(.ARM.exidx.text.__cxx_global_var_init) refers to embot_hw_motor.o(.text.__cxx_global_var_init) for [Anonymous Symbol]
    embot_hw_motor.o(.text._ZN5embot2hw5motor4initENS0_5MOTORERKNS1_6ConfigE) refers to embot_hw_motor.o(.text._ZN5embot2hw5motor9supportedENS0_5MOTORE) for embot::hw::motor::supported(embot::hw::MOTOR)
    embot_hw_motor.o(.text._ZN5embot2hw5motor4initENS0_5MOTORERKNS1_6ConfigE) refers to embot_hw_motor.o(.text._ZN5embot2hw5motor11initialisedENS0_5MOTORE) for embot::hw::motor::initialised(embot::hw::MOTOR)
    embot_hw_motor.o(.text._ZN5embot2hw5motor4initENS0_5MOTORERKNS1_6ConfigE) refers to embot_hw_motor.o(.text._ZN5embot4core10tointegralINS_2hw5MOTOREEEDaT_) for auto embot::core::tointegral<embot::hw::MOTOR>(embot::hw::MOTOR)
    embot_hw_motor.o(.text._ZN5embot2hw5motor4initENS0_5MOTORERKNS1_6ConfigE) refers to embot_hw_bsp_amcbldc.o(.text._ZN5embot2hw5motor6getBSPEv) for embot::hw::motor::getBSP()
    embot_hw_motor.o(.text._ZN5embot2hw5motor4initENS0_5MOTORERKNS1_6ConfigE) refers to embot_hw_bsp_amcbldc.o(.text._ZNK5embot2hw5motor3BSP4initENS0_5MOTORE) for embot::hw::motor::BSP::init(embot::hw::MOTOR) const
    embot_hw_motor.o(.text._ZN5embot2hw5motor4initENS0_5MOTORERKNS1_6ConfigE) refers to embot_hw_motor.o(.bss._ZN5embot2hw5motorL13s_privatedataE) for embot::hw::motor::s_privatedata
    embot_hw_motor.o(.text._ZN5embot2hw5motor4initENS0_5MOTORERKNS1_6ConfigE) refers to embot_hw_motor.o(.text._ZN5embot2hw5motor9s_hw_initENS0_5MOTORE) for embot::hw::motor::s_hw_init(embot::hw::MOTOR)
    embot_hw_motor.o(.text._ZN5embot2hw5motor4initENS0_5MOTORERKNS1_6ConfigE) refers to embot_hw_motor.o(.bss._ZN5embot2hw5motorL15initialisedmaskE) for embot::hw::motor::initialisedmask
    embot_hw_motor.o(.text._ZN5embot2hw5motor4initENS0_5MOTORERKNS1_6ConfigE) refers to embot_hw_can.o(.text._ZN5embot4core6binary3bit3setIjEEvRT_h) for void embot::core::binary::bit::set<unsigned int>(unsigned int&, unsigned char)
    embot_hw_motor.o(.ARM.exidx.text._ZN5embot2hw5motor4initENS0_5MOTORERKNS1_6ConfigE) refers to embot_hw_motor.o(.text._ZN5embot2hw5motor4initENS0_5MOTORERKNS1_6ConfigE) for [Anonymous Symbol]
    embot_hw_motor.o(.text._ZN5embot2hw5motor9s_hw_initENS0_5MOTORE) refers to adc_4.o(.text.MX_ADC1_Init) for MX_ADC1_Init
    embot_hw_motor.o(.text._ZN5embot2hw5motor9s_hw_initENS0_5MOTORE) refers to adc_4.o(.text.MX_ADC2_Init) for MX_ADC2_Init
    embot_hw_motor.o(.text._ZN5embot2hw5motor9s_hw_initENS0_5MOTORE) refers to tim_4.o(.text.MX_TIM1_Init) for MX_TIM1_Init
    embot_hw_motor.o(.text._ZN5embot2hw5motor9s_hw_initENS0_5MOTORE) refers to tim_4.o(.text.MX_TIM3_Init) for MX_TIM3_Init
    embot_hw_motor.o(.text._ZN5embot2hw5motor9s_hw_initENS0_5MOTORE) refers to tim_4.o(.text.MX_TIM2_Init) for MX_TIM2_Init
    embot_hw_motor.o(.text._ZN5embot2hw5motor9s_hw_initENS0_5MOTORE) refers to cordic_2.o(.text.MX_CORDIC_Init) for MX_CORDIC_Init
    embot_hw_motor.o(.text._ZN5embot2hw5motor9s_hw_initENS0_5MOTORE) refers to fmac_4.o(.text.MX_FMAC_Init) for MX_FMAC_Init
    embot_hw_motor.o(.text._ZN5embot2hw5motor9s_hw_initENS0_5MOTORE) refers to crc_2.o(.text.MX_CRC_Init) for MX_CRC_Init
    embot_hw_motor.o(.text._ZN5embot2hw5motor9s_hw_initENS0_5MOTORE) refers to motorhal_config.o(.bss.MainConf) for MainConf
    embot_hw_motor.o(.text._ZN5embot2hw5motor9s_hw_initENS0_5MOTORE) refers to analog.o(.text.analogInit) for analogInit
    embot_hw_motor.o(.text._ZN5embot2hw5motor9s_hw_initENS0_5MOTORE) refers to encoder.o(.text.encoderInit) for encoderInit
    embot_hw_motor.o(.text._ZN5embot2hw5motor9s_hw_initENS0_5MOTORE) refers to pwm.o(.text.pwmInit) for pwmInit
    embot_hw_motor.o(.text._ZN5embot2hw5motor9s_hw_initENS0_5MOTORE) refers to pwm.o(.text.hallInit) for hallInit
    embot_hw_motor.o(.text._ZN5embot2hw5motor9s_hw_initENS0_5MOTORE) refers to stm32g4xx_hal_gpio_1.o(.text.HAL_GPIO_WritePin) for HAL_GPIO_WritePin
    embot_hw_motor.o(.text._ZN5embot2hw5motor9s_hw_initENS0_5MOTORE) refers to stm32hal.o(.text.HAL_Delay) for HAL_Delay
    embot_hw_motor.o(.ARM.exidx.text._ZN5embot2hw5motor9s_hw_initENS0_5MOTORE) refers to embot_hw_motor.o(.text._ZN5embot2hw5motor9s_hw_initENS0_5MOTORE) for [Anonymous Symbol]
    embot_hw_motor.o(.text._ZN5embot2hw5motor10getencoderENS0_5MOTORERi) refers to embot_hw_motor.o(.text._ZN5embot2hw5motor11initialisedENS0_5MOTORE) for embot::hw::motor::initialised(embot::hw::MOTOR)
    embot_hw_motor.o(.text._ZN5embot2hw5motor10getencoderENS0_5MOTORERi) refers to embot_hw_motor.o(.text._ZN5embot2hw5motor15s_hw_getencoderENS0_5MOTORE) for embot::hw::motor::s_hw_getencoder(embot::hw::MOTOR)
    embot_hw_motor.o(.ARM.exidx.text._ZN5embot2hw5motor10getencoderENS0_5MOTORERi) refers to embot_hw_motor.o(.text._ZN5embot2hw5motor10getencoderENS0_5MOTORERi) for [Anonymous Symbol]
    embot_hw_motor.o(.text._ZN5embot2hw5motor15s_hw_getencoderENS0_5MOTORE) refers to encoder.o(.text.encoderGetCounter) for encoderGetCounter
    embot_hw_motor.o(.ARM.exidx.text._ZN5embot2hw5motor15s_hw_getencoderENS0_5MOTORE) refers to embot_hw_motor.o(.text._ZN5embot2hw5motor15s_hw_getencoderENS0_5MOTORE) for [Anonymous Symbol]
    embot_hw_motor.o(.text._ZN5embot2hw5motor14gethallcounterENS0_5MOTORERi) refers to embot_hw_motor.o(.text._ZN5embot2hw5motor11initialisedENS0_5MOTORE) for embot::hw::motor::initialised(embot::hw::MOTOR)
    embot_hw_motor.o(.text._ZN5embot2hw5motor14gethallcounterENS0_5MOTORERi) refers to embot_hw_motor.o(.text._ZN5embot2hw5motor19s_hw_gethallcounterENS0_5MOTORE) for embot::hw::motor::s_hw_gethallcounter(embot::hw::MOTOR)
    embot_hw_motor.o(.ARM.exidx.text._ZN5embot2hw5motor14gethallcounterENS0_5MOTORERi) refers to embot_hw_motor.o(.text._ZN5embot2hw5motor14gethallcounterENS0_5MOTORERi) for [Anonymous Symbol]
    embot_hw_motor.o(.text._ZN5embot2hw5motor19s_hw_gethallcounterENS0_5MOTORE) refers to pwm.o(.text.hallGetCounter) for hallGetCounter
    embot_hw_motor.o(.ARM.exidx.text._ZN5embot2hw5motor19s_hw_gethallcounterENS0_5MOTORE) refers to embot_hw_motor.o(.text._ZN5embot2hw5motor19s_hw_gethallcounterENS0_5MOTORE) for [Anonymous Symbol]
    embot_hw_motor.o(.text._ZN5embot2hw5motor6setpwmENS0_5MOTOREi) refers to embot_hw_motor.o(.text._ZN5embot2hw5motor11s_hw_setpwmENS0_5MOTOREi) for embot::hw::motor::s_hw_setpwm(embot::hw::MOTOR, int)
    embot_hw_motor.o(.ARM.exidx.text._ZN5embot2hw5motor6setpwmENS0_5MOTOREi) refers to embot_hw_motor.o(.text._ZN5embot2hw5motor6setpwmENS0_5MOTOREi) for [Anonymous Symbol]
    embot_hw_motor.o(.text._ZN5embot2hw5motor11s_hw_setpwmENS0_5MOTOREi) refers to pwm.o(.text.pwmSetValue) for pwmSetValue
    embot_hw_motor.o(.ARM.exidx.text._ZN5embot2hw5motor11s_hw_setpwmENS0_5MOTOREi) refers to embot_hw_motor.o(.text._ZN5embot2hw5motor11s_hw_setpwmENS0_5MOTOREi) for [Anonymous Symbol]
    embot_hw_motor.o(.text._GLOBAL__sub_I_embot_hw_motor.cpp) refers to embot_hw_motor.o(.text.__cxx_global_var_init) for __cxx_global_var_init
    embot_hw_motor.o(.ARM.exidx.text._GLOBAL__sub_I_embot_hw_motor.cpp) refers to embot_hw_motor.o(.text._GLOBAL__sub_I_embot_hw_motor.cpp) for [Anonymous Symbol]
    embot_hw_motor.o(.init_array) refers to embot_hw_motor.o(.text._GLOBAL__sub_I_embot_hw_motor.cpp) for _GLOBAL__sub_I_embot_hw_motor.cpp
    embot_hw_lowlevel.o(.ARM.exidx.text._ZN5embot2hw8lowlevel15_execOperationsEj) refers to embot_hw_lowlevel.o(.text._ZN5embot2hw8lowlevel15_execOperationsEj) for [Anonymous Symbol]
    embot_hw_lowlevel.o(.text._ZN5embot2hw8lowlevel13asmEXECcyclesEj) refers to embot_hw_lowlevel.o(.text._ZN5embot2hw8lowlevel15_execOperationsEj) for embot::hw::lowlevel::_execOperations(unsigned int)
    embot_hw_lowlevel.o(.ARM.exidx.text._ZN5embot2hw8lowlevel13asmEXECcyclesEj) refers to embot_hw_lowlevel.o(.text._ZN5embot2hw8lowlevel13asmEXECcyclesEj) for [Anonymous Symbol]
    embot_hw_bsp_amcbldc.o(.text._Z8leds_offv) refers to embot_hw_bsp_amcbldc.o(.rodata._ZN5embot2hw3ledL6thebspE) for embot::hw::led::thebsp
    embot_hw_bsp_amcbldc.o(.text._Z8leds_offv) refers to embot_hw_led.o(.text._ZNK5embot2hw3led3BSP7getPROPENS0_3LEDE) for embot::hw::led::BSP::getPROP(embot::hw::LED) const
    embot_hw_bsp_amcbldc.o(.text._Z8leds_offv) refers to embot_hw_bsp_amcbldc.o(.text._ZN5embot2hw4gpio6ConfigC2ENS1_4ModeENS1_4PullENS1_5SpeedE) for embot::hw::gpio::Config::Config__sub_object(embot::hw::gpio::Mode, embot::hw::gpio::Pull, embot::hw::gpio::Speed)
    embot_hw_bsp_amcbldc.o(.text._Z8leds_offv) refers to embot_hw_gpio.o(.text._ZN5embot2hw4gpio4initERKNS0_4GPIOERKNS1_6ConfigE) for embot::hw::gpio::init(embot::hw::GPIO const&, embot::hw::gpio::Config const&)
    embot_hw_bsp_amcbldc.o(.text._Z8leds_offv) refers to embot_hw_gpio.o(.text._ZN5embot2hw4gpio3setERKNS0_4GPIOENS1_5StateE) for embot::hw::gpio::set(embot::hw::GPIO const&, embot::hw::gpio::State)
    embot_hw_bsp_amcbldc.o(.ARM.exidx.text._Z8leds_offv) refers to embot_hw_bsp_amcbldc.o(.text._Z8leds_offv) for [Anonymous Symbol]
    embot_hw_bsp_amcbldc.o(.text._ZN5embot2hw3led6getBSPEv) refers to embot_hw_bsp_amcbldc.o(.rodata._ZN5embot2hw3ledL6thebspE) for embot::hw::led::thebsp
    embot_hw_bsp_amcbldc.o(.ARM.exidx.text._ZN5embot2hw3led6getBSPEv) refers to embot_hw_bsp_amcbldc.o(.text._ZN5embot2hw3led6getBSPEv) for [Anonymous Symbol]
    embot_hw_bsp_amcbldc.o(.text._ZN5embot2hw3bsp10specializeEv) refers to embot_hw_bsp_amcbldc.o(.text._Z8leds_offv) for leds_off()
    embot_hw_bsp_amcbldc.o(.ARM.exidx.text._ZN5embot2hw3bsp10specializeEv) refers to embot_hw_bsp_amcbldc.o(.text._ZN5embot2hw3bsp10specializeEv) for [Anonymous Symbol]
    embot_hw_bsp_amcbldc.o(.ARM.exidx.text._ZNK5embot2hw4gpio3BSP4initENS0_4GPIOE) refers to embot_hw_bsp_amcbldc.o(.text._ZNK5embot2hw4gpio3BSP4initENS0_4GPIOE) for [Anonymous Symbol]
    embot_hw_bsp_amcbldc.o(.text._ZN5embot2hw4gpio6getBSPEv) refers to embot_hw_bsp_amcbldc.o(.rodata._ZN5embot2hw4gpioL6thebspE) for embot::hw::gpio::thebsp
    embot_hw_bsp_amcbldc.o(.ARM.exidx.text._ZN5embot2hw4gpio6getBSPEv) refers to embot_hw_bsp_amcbldc.o(.text._ZN5embot2hw4gpio6getBSPEv) for [Anonymous Symbol]
    embot_hw_bsp_amcbldc.o(.ARM.exidx.text._ZNK5embot2hw3led3BSP4initENS0_3LEDE) refers to embot_hw_bsp_amcbldc.o(.text._ZNK5embot2hw3led3BSP4initENS0_3LEDE) for [Anonymous Symbol]
    embot_hw_bsp_amcbldc.o(.ARM.exidx.text._ZNK5embot2hw6button3BSP4initENS0_3BTNE) refers to embot_hw_bsp_amcbldc.o(.text._ZNK5embot2hw6button3BSP4initENS0_3BTNE) for [Anonymous Symbol]
    embot_hw_bsp_amcbldc.o(.ARM.exidx.text._ZNK5embot2hw6button3BSP6onEXTIERKNS0_4gpio4PROPE) refers to embot_hw_bsp_amcbldc.o(.text._ZNK5embot2hw6button3BSP6onEXTIERKNS0_4gpio4PROPE) for [Anonymous Symbol]
    embot_hw_bsp_amcbldc.o(.text._ZN5embot2hw6button6getBSPEv) refers to embot_hw_bsp_amcbldc.o(.rodata._ZN5embot2hw6buttonL6thebspE) for embot::hw::button::thebsp
    embot_hw_bsp_amcbldc.o(.ARM.exidx.text._ZN5embot2hw6button6getBSPEv) refers to embot_hw_bsp_amcbldc.o(.text._ZN5embot2hw6button6getBSPEv) for [Anonymous Symbol]
    embot_hw_bsp_amcbldc.o(.text._ZNK5embot2hw3can3BSP4initENS0_3CANE) refers to stm32g4xx_hal_gpio_1.o(.text.HAL_GPIO_WritePin) for HAL_GPIO_WritePin
    embot_hw_bsp_amcbldc.o(.text._ZNK5embot2hw3can3BSP4initENS0_3CANE) refers to stm32hal.o(.text.HAL_Delay) for HAL_Delay
    embot_hw_bsp_amcbldc.o(.text._ZNK5embot2hw3can3BSP4initENS0_3CANE) refers to fdcan_4.o(.text.MX_FDCAN2_Init) for MX_FDCAN2_Init
    embot_hw_bsp_amcbldc.o(.ARM.exidx.text._ZNK5embot2hw3can3BSP4initENS0_3CANE) refers to embot_hw_bsp_amcbldc.o(.text._ZNK5embot2hw3can3BSP4initENS0_3CANE) for [Anonymous Symbol]
    embot_hw_bsp_amcbldc.o(.text._ZN5embot2hw3can6getBSPEv) refers to embot_hw_bsp_amcbldc.o(.rodata._ZN5embot2hw3canL6thebspE) for embot::hw::can::thebsp
    embot_hw_bsp_amcbldc.o(.ARM.exidx.text._ZN5embot2hw3can6getBSPEv) refers to embot_hw_bsp_amcbldc.o(.text._ZN5embot2hw3can6getBSPEv) for [Anonymous Symbol]
    embot_hw_bsp_amcbldc.o(.text.FDCAN2_IT0_IRQHandler) refers to fdcan_4.o(.bss.hfdcan2) for hfdcan2
    embot_hw_bsp_amcbldc.o(.text.FDCAN2_IT0_IRQHandler) refers to stm32g4xx_hal_fdcan_1.o(.text.HAL_FDCAN_IRQHandler) for HAL_FDCAN_IRQHandler
    embot_hw_bsp_amcbldc.o(.ARM.exidx.text.FDCAN2_IT0_IRQHandler) refers to embot_hw_bsp_amcbldc.o(.text.FDCAN2_IT0_IRQHandler) for [Anonymous Symbol]
    embot_hw_bsp_amcbldc.o(.text.FDCAN2_IT1_IRQHandler) refers to fdcan_4.o(.bss.hfdcan2) for hfdcan2
    embot_hw_bsp_amcbldc.o(.text.FDCAN2_IT1_IRQHandler) refers to stm32g4xx_hal_fdcan_1.o(.text.HAL_FDCAN_IRQHandler) for HAL_FDCAN_IRQHandler
    embot_hw_bsp_amcbldc.o(.ARM.exidx.text.FDCAN2_IT1_IRQHandler) refers to embot_hw_bsp_amcbldc.o(.text.FDCAN2_IT1_IRQHandler) for [Anonymous Symbol]
    embot_hw_bsp_amcbldc.o(.ARM.exidx.text._ZNK5embot2hw5flash3BSP4initENS0_5FLASHE) refers to embot_hw_bsp_amcbldc.o(.text._ZNK5embot2hw5flash3BSP4initENS0_5FLASHE) for [Anonymous Symbol]
    embot_hw_bsp_amcbldc.o(.text._ZN5embot2hw5flash6getBSPEv) refers to embot_hw_bsp_amcbldc.o(.rodata._ZN5embot2hw5flashL6thebspE) for embot::hw::flash::thebsp
    embot_hw_bsp_amcbldc.o(.ARM.exidx.text._ZN5embot2hw5flash6getBSPEv) refers to embot_hw_bsp_amcbldc.o(.text._ZN5embot2hw5flash6getBSPEv) for [Anonymous Symbol]
    embot_hw_bsp_amcbldc.o(.ARM.exidx.text._ZNK5embot2hw3adc3BSP4initENS0_3ADCE) refers to embot_hw_bsp_amcbldc.o(.text._ZNK5embot2hw3adc3BSP4initENS0_3ADCE) for [Anonymous Symbol]
    embot_hw_bsp_amcbldc.o(.text._ZN5embot2hw3adc6getBSPEv) refers to embot_hw_bsp_amcbldc.o(.rodata._ZN5embot2hw3adcL6thebspE) for embot::hw::adc::thebsp
    embot_hw_bsp_amcbldc.o(.ARM.exidx.text._ZN5embot2hw3adc6getBSPEv) refers to embot_hw_bsp_amcbldc.o(.text._ZN5embot2hw3adc6getBSPEv) for [Anonymous Symbol]
    embot_hw_bsp_amcbldc.o(.ARM.exidx.text._ZNK5embot2hw5timer3BSP4initENS0_5TIMERE) refers to embot_hw_bsp_amcbldc.o(.text._ZNK5embot2hw5timer3BSP4initENS0_5TIMERE) for [Anonymous Symbol]
    embot_hw_bsp_amcbldc.o(.text._ZN5embot2hw5timer6getBSPEv) refers to embot_hw_bsp_amcbldc.o(.rodata._ZN5embot2hw5timerL6thebspE) for embot::hw::timer::thebsp
    embot_hw_bsp_amcbldc.o(.ARM.exidx.text._ZN5embot2hw5timer6getBSPEv) refers to embot_hw_bsp_amcbldc.o(.text._ZN5embot2hw5timer6getBSPEv) for [Anonymous Symbol]
    embot_hw_bsp_amcbldc.o(.ARM.exidx.text._ZNK5embot2hw3i2c3BSP4initENS0_3I2CE) refers to embot_hw_bsp_amcbldc.o(.text._ZNK5embot2hw3i2c3BSP4initENS0_3I2CE) for [Anonymous Symbol]
    embot_hw_bsp_amcbldc.o(.text._ZN5embot2hw3i2c6getBSPEv) refers to embot_hw_bsp_amcbldc.o(.rodata._ZN5embot2hw3i2cL6thebspE) for embot::hw::i2c::thebsp
    embot_hw_bsp_amcbldc.o(.ARM.exidx.text._ZN5embot2hw3i2c6getBSPEv) refers to embot_hw_bsp_amcbldc.o(.text._ZN5embot2hw3i2c6getBSPEv) for [Anonymous Symbol]
    embot_hw_bsp_amcbldc.o(.ARM.exidx.text._ZNK5embot2hw7tlv493d3BSP4initENS0_7TLV493DE) refers to embot_hw_bsp_amcbldc.o(.text._ZNK5embot2hw7tlv493d3BSP4initENS0_7TLV493DE) for [Anonymous Symbol]
    embot_hw_bsp_amcbldc.o(.text._ZN5embot2hw7tlv493d6getBSPEv) refers to embot_hw_bsp_amcbldc.o(.rodata._ZN5embot2hw7tlv493dL6thebspE) for embot::hw::tlv493d::thebsp
    embot_hw_bsp_amcbldc.o(.ARM.exidx.text._ZN5embot2hw7tlv493d6getBSPEv) refers to embot_hw_bsp_amcbldc.o(.text._ZN5embot2hw7tlv493d6getBSPEv) for [Anonymous Symbol]
    embot_hw_bsp_amcbldc.o(.ARM.exidx.text._ZNK5embot2hw5motor3BSP4initENS0_5MOTORE) refers to embot_hw_bsp_amcbldc.o(.text._ZNK5embot2hw5motor3BSP4initENS0_5MOTORE) for [Anonymous Symbol]
    embot_hw_bsp_amcbldc.o(.text._ZN5embot2hw5motor6getBSPEv) refers to embot_hw_bsp_amcbldc.o(.rodata._ZN5embot2hw5motorL6thebspE) for embot::hw::motor::thebsp
    embot_hw_bsp_amcbldc.o(.ARM.exidx.text._ZN5embot2hw5motor6getBSPEv) refers to embot_hw_bsp_amcbldc.o(.text._ZN5embot2hw5motor6getBSPEv) for [Anonymous Symbol]
    embot_hw_bsp_amcbldc.o(.text._ZN5embot2hw4gpio3$_08__invokeEv) refers to embot_hw_bsp_amcbldc.o(.text._ZNK5embot2hw4gpio3$_0clEv) for embot::hw::gpio::$_0::operator()() const
    embot_hw_bsp_amcbldc.o(.ARM.exidx.text._ZN5embot2hw4gpio3$_08__invokeEv) refers to embot_hw_bsp_amcbldc.o(.text._ZN5embot2hw4gpio3$_08__invokeEv) for [Anonymous Symbol]
    embot_hw_bsp_amcbldc.o(.text._ZN5embot2hw4gpio3$_18__invokeEv) refers to embot_hw_bsp_amcbldc.o(.text._ZNK5embot2hw4gpio3$_1clEv) for embot::hw::gpio::$_1::operator()() const
    embot_hw_bsp_amcbldc.o(.ARM.exidx.text._ZN5embot2hw4gpio3$_18__invokeEv) refers to embot_hw_bsp_amcbldc.o(.text._ZN5embot2hw4gpio3$_18__invokeEv) for [Anonymous Symbol]
    embot_hw_bsp_amcbldc.o(.text._ZN5embot2hw4gpio3$_28__invokeEv) refers to embot_hw_bsp_amcbldc.o(.text._ZNK5embot2hw4gpio3$_2clEv) for embot::hw::gpio::$_2::operator()() const
    embot_hw_bsp_amcbldc.o(.ARM.exidx.text._ZN5embot2hw4gpio3$_28__invokeEv) refers to embot_hw_bsp_amcbldc.o(.text._ZN5embot2hw4gpio3$_28__invokeEv) for [Anonymous Symbol]
    embot_hw_bsp_amcbldc.o(.text._ZN5embot2hw4gpio3$_38__invokeEv) refers to embot_hw_bsp_amcbldc.o(.text._ZNK5embot2hw4gpio3$_3clEv) for embot::hw::gpio::$_3::operator()() const
    embot_hw_bsp_amcbldc.o(.ARM.exidx.text._ZN5embot2hw4gpio3$_38__invokeEv) refers to embot_hw_bsp_amcbldc.o(.text._ZN5embot2hw4gpio3$_38__invokeEv) for [Anonymous Symbol]
    embot_hw_bsp_amcbldc.o(.text._ZN5embot2hw4gpio3$_48__invokeEv) refers to embot_hw_bsp_amcbldc.o(.text._ZNK5embot2hw4gpio3$_4clEv) for embot::hw::gpio::$_4::operator()() const
    embot_hw_bsp_amcbldc.o(.ARM.exidx.text._ZN5embot2hw4gpio3$_48__invokeEv) refers to embot_hw_bsp_amcbldc.o(.text._ZN5embot2hw4gpio3$_48__invokeEv) for [Anonymous Symbol]
    embot_hw_bsp_amcbldc.o(.text._ZN5embot2hw4gpio3$_58__invokeEv) refers to embot_hw_bsp_amcbldc.o(.text._ZNK5embot2hw4gpio3$_5clEv) for embot::hw::gpio::$_5::operator()() const
    embot_hw_bsp_amcbldc.o(.ARM.exidx.text._ZN5embot2hw4gpio3$_58__invokeEv) refers to embot_hw_bsp_amcbldc.o(.text._ZN5embot2hw4gpio3$_58__invokeEv) for [Anonymous Symbol]
    embot_hw_bsp_amcbldc.o(.text._ZN5embot2hw4gpio3$_68__invokeEv) refers to embot_hw_bsp_amcbldc.o(.text._ZNK5embot2hw4gpio3$_6clEv) for embot::hw::gpio::$_6::operator()() const
    embot_hw_bsp_amcbldc.o(.ARM.exidx.text._ZN5embot2hw4gpio3$_68__invokeEv) refers to embot_hw_bsp_amcbldc.o(.text._ZN5embot2hw4gpio3$_68__invokeEv) for [Anonymous Symbol]
    embot_hw_bsp_amcbldc.o(.ARM.exidx.text._ZNK5embot2hw4gpio3$_0clEv) refers to embot_hw_bsp_amcbldc.o(.text._ZNK5embot2hw4gpio3$_0clEv) for [Anonymous Symbol]
    embot_hw_bsp_amcbldc.o(.ARM.exidx.text._ZNK5embot2hw4gpio3$_1clEv) refers to embot_hw_bsp_amcbldc.o(.text._ZNK5embot2hw4gpio3$_1clEv) for [Anonymous Symbol]
    embot_hw_bsp_amcbldc.o(.ARM.exidx.text._ZNK5embot2hw4gpio3$_2clEv) refers to embot_hw_bsp_amcbldc.o(.text._ZNK5embot2hw4gpio3$_2clEv) for [Anonymous Symbol]
    embot_hw_bsp_amcbldc.o(.ARM.exidx.text._ZNK5embot2hw4gpio3$_3clEv) refers to embot_hw_bsp_amcbldc.o(.text._ZNK5embot2hw4gpio3$_3clEv) for [Anonymous Symbol]
    embot_hw_bsp_amcbldc.o(.ARM.exidx.text._ZNK5embot2hw4gpio3$_4clEv) refers to embot_hw_bsp_amcbldc.o(.text._ZNK5embot2hw4gpio3$_4clEv) for [Anonymous Symbol]
    embot_hw_bsp_amcbldc.o(.ARM.exidx.text._ZNK5embot2hw4gpio3$_5clEv) refers to embot_hw_bsp_amcbldc.o(.text._ZNK5embot2hw4gpio3$_5clEv) for [Anonymous Symbol]
    embot_hw_bsp_amcbldc.o(.ARM.exidx.text._ZNK5embot2hw4gpio3$_6clEv) refers to embot_hw_bsp_amcbldc.o(.text._ZNK5embot2hw4gpio3$_6clEv) for [Anonymous Symbol]
    embot_hw_bsp_amcbldc.o(.rodata._ZN5embot2hw4gpioL6thebspE) refers to embot_hw_bsp_amcbldc.o(.text._ZN5embot2hw4gpio3$_08__invokeEv) for embot::hw::gpio::$_0::__invoke()
    embot_hw_bsp_amcbldc.o(.rodata._ZN5embot2hw4gpioL6thebspE) refers to embot_hw_bsp_amcbldc.o(.text._ZN5embot2hw4gpio3$_18__invokeEv) for embot::hw::gpio::$_1::__invoke()
    embot_hw_bsp_amcbldc.o(.rodata._ZN5embot2hw4gpioL6thebspE) refers to embot_hw_bsp_amcbldc.o(.text._ZN5embot2hw4gpio3$_28__invokeEv) for embot::hw::gpio::$_2::__invoke()
    embot_hw_bsp_amcbldc.o(.rodata._ZN5embot2hw4gpioL6thebspE) refers to embot_hw_bsp_amcbldc.o(.text._ZN5embot2hw4gpio3$_38__invokeEv) for embot::hw::gpio::$_3::__invoke()
    embot_hw_bsp_amcbldc.o(.rodata._ZN5embot2hw4gpioL6thebspE) refers to embot_hw_bsp_amcbldc.o(.text._ZN5embot2hw4gpio3$_48__invokeEv) for embot::hw::gpio::$_4::__invoke()
    embot_hw_bsp_amcbldc.o(.rodata._ZN5embot2hw4gpioL6thebspE) refers to embot_hw_bsp_amcbldc.o(.text._ZN5embot2hw4gpio3$_58__invokeEv) for embot::hw::gpio::$_5::__invoke()
    embot_hw_bsp_amcbldc.o(.rodata._ZN5embot2hw4gpioL6thebspE) refers to embot_hw_bsp_amcbldc.o(.text._ZN5embot2hw4gpio3$_68__invokeEv) for embot::hw::gpio::$_6::__invoke()
    embot_hw_bsp_amcbldc.o(.rodata._ZN5embot2hw3ledL6thebspE) refers to embot_hw_bsp_amcbldc.o(.rodata._ZN5embot2hw3ledL5led1pE) for [Anonymous Symbol]
    embot_hw_bsp_amcbldc.o(.rodata._ZN5embot2hw3ledL6thebspE) refers to embot_hw_bsp_amcbldc.o(.rodata._ZN5embot2hw3ledL5led2pE) for [Anonymous Symbol]
    embot_hw_bsp_amcbldc.o(.rodata._ZN5embot2hw3ledL6thebspE) refers to embot_hw_bsp_amcbldc.o(.rodata._ZN5embot2hw3ledL5led3pE) for [Anonymous Symbol]
    embot_hw_bsp_amcbldc.o(.rodata._ZN5embot2hw3canL5can1pE) refers to fdcan_4.o(.bss.hfdcan2) for hfdcan2
    embot_hw_bsp_amcbldc.o(.rodata._ZN5embot2hw3canL6thebspE) refers to embot_hw_bsp_amcbldc.o(.rodata._ZN5embot2hw3canL5can1pE) for [Anonymous Symbol]
    embot_hw_bsp_amcbldc.o(.rodata._ZN5embot2hw5flashL6thebspE) refers to embot_hw_bsp_amcbldc.o(.rodata._ZN5embot2hw5flashL5wholeE) for [Anonymous Symbol]
    embot_hw_bsp_amcbldc.o(.rodata._ZN5embot2hw5flashL6thebspE) refers to embot_hw_bsp_amcbldc.o(.rodata._ZN5embot2hw5flashL10bootloaderE) for [Anonymous Symbol]
    embot_hw_bsp_amcbldc.o(.rodata._ZN5embot2hw5flashL6thebspE) refers to embot_hw_bsp_amcbldc.o(.rodata._ZN5embot2hw5flashL11applicationE) for [Anonymous Symbol]
    embot_hw_bsp_amcbldc.o(.rodata._ZN5embot2hw5flashL6thebspE) refers to embot_hw_bsp_amcbldc.o(.rodata._ZN5embot2hw5flashL13sharedstorageE) for [Anonymous Symbol]
    embot_hw_bsp_amcbldc.o(.rodata._ZN5embot2hw5flashL6thebspE) refers to embot_hw_bsp_amcbldc.o(.rodata._ZN5embot2hw5flashL18applicationstorageE) for [Anonymous Symbol]
    embot_hw_bsp_amcbldc.o(.rodata._ZN5embot2hw5motorL6thebspE) refers to embot_hw_bsp_amcbldc.o(.rodata._ZN5embot2hw5motorL6propM1E) for [Anonymous Symbol]
    embot_os.o(.text._ZN5embot2os11initialisedEv) refers to embot_os.o(.bss._ZN5embot2osL8_inittedE) for embot::os::_initted
    embot_os.o(.ARM.exidx.text._ZN5embot2os11initialisedEv) refers to embot_os.o(.text._ZN5embot2os11initialisedEv) for [Anonymous Symbol]
    embot_os.o(.text._ZN5embot2os4initERKNS0_6ConfigE) refers to embot_os.o(.text._ZN5embot2os11initialisedEv) for embot::os::initialised()
    embot_os.o(.text._ZN5embot2os4initERKNS0_6ConfigE) refers to embot_os.o(.text._ZNK5embot2os6Config7isvalidEv) for embot::os::Config::isvalid() const
    embot_os.o(.text._ZN5embot2os4initERKNS0_6ConfigE) refers to embot_os.o(.data._ZN5embot2osL7_configE) for embot::os::_config
    embot_os.o(.text._ZN5embot2os4initERKNS0_6ConfigE) refers to embot_os.o(.text._ZN5embot2osL4_nowEv) for embot::os::_now()
    embot_os.o(.text._ZN5embot2os4initERKNS0_6ConfigE) refers to embot_os.o(.text._ZN5embot2hw6ConfigC2EPFvvEPFyvE) for embot::hw::Config::Config__sub_object(void (*)(), unsigned long long (*)())
    embot_os.o(.text._ZN5embot2os4initERKNS0_6ConfigE) refers to embot_hw.o(.text._ZN5embot2hw4initERKNS0_6ConfigE) for embot::hw::init(embot::hw::Config const&)
    embot_os.o(.text._ZN5embot2os4initERKNS0_6ConfigE) refers to embot_os.o(.bss._ZN5embot2osL8_inittedE) for embot::os::_initted
    embot_os.o(.ARM.exidx.text._ZN5embot2os4initERKNS0_6ConfigE) refers to embot_os.o(.text._ZN5embot2os4initERKNS0_6ConfigE) for [Anonymous Symbol]
    embot_os.o(.text._ZN5embot2osL4_nowEv) refers to embot_os_rtos.o(.text._ZN5embot2os4rtos17scheduler_timegetEv) for embot::os::rtos::scheduler_timeget()
    embot_os.o(.ARM.exidx.text._ZN5embot2osL4_nowEv) refers to embot_os.o(.text._ZN5embot2osL4_nowEv) for [Anonymous Symbol]
    embot_os.o(.text._ZN5embot2os7startedEv) refers to embot_os_rtos.o(.text._ZN5embot2os4rtos19scheduler_isrunningEv) for embot::os::rtos::scheduler_isrunning()
    embot_os.o(.ARM.exidx.text._ZN5embot2os7startedEv) refers to embot_os.o(.text._ZN5embot2os7startedEv) for [Anonymous Symbol]
    embot_os.o(.text._ZN5embot2os5startEv) refers to embot_os.o(.bss._ZN5embot2osL8_inittedE) for embot::os::_initted
    embot_os.o(.text._ZN5embot2os5startEv) refers to embot_os.o(.data._ZN5embot2osL7_configE) for embot::os::_config
    embot_os.o(.text._ZN5embot2os5startEv) refers to embot_os.o(.text._ZNK5embot2os6Config7isvalidEv) for embot::os::Config::isvalid() const
    embot_os.o(.text._ZN5embot2os5startEv) refers to embot_os.o(.text._ZN5embot2os12theScheduler6TimingC2Ej) for embot::os::theScheduler::Timing::Timing__sub_object(unsigned int)
    embot_os.o(.text._ZN5embot2os5startEv) refers to embot_os.o(.text._ZN5embot2os12theScheduler9BehaviourC2ERKNS0_10InitThread6ConfigERKNS0_10IdleThread6ConfigERKNS_4core8CallbackE) for embot::os::theScheduler::Behaviour::Behaviour__sub_object(embot::os::InitThread::Config const&, embot::os::IdleThread::Config const&, embot::core::Callback const&)
    embot_os.o(.text._ZN5embot2os5startEv) refers to embot_os.o(.text._ZN5embot2os12theScheduler6ConfigC2ERKNS1_6TimingERKNS1_9BehaviourE) for embot::os::theScheduler::Config::Config__sub_object(embot::os::theScheduler::Timing const&, embot::os::theScheduler::Behaviour const&)
    embot_os.o(.text._ZN5embot2os5startEv) refers to embot_os_thescheduler.o(.text._ZN5embot2os12theScheduler11getInstanceEv) for embot::os::theScheduler::getInstance()
    embot_os.o(.text._ZN5embot2os5startEv) refers to embot_os_thescheduler.o(.text._ZN5embot2os12theScheduler5startERKNS1_6ConfigE) for embot::os::theScheduler::start(embot::os::theScheduler::Config const&)
    embot_os.o(.ARM.exidx.text._ZN5embot2os5startEv) refers to embot_os.o(.text._ZN5embot2os5startEv) for [Anonymous Symbol]
    embot_os_thread.o(.text._ZN5embot2os10InitThread11getInstanceEv) refers to embot_os_thread.o(.bss._ZGVZN5embot2os10InitThread11getInstanceEvE1p) for guard variable for embot::os::InitThread::getInstance()::p
    embot_os_thread.o(.text._ZN5embot2os10InitThread11getInstanceEv) refers to embot_os_thread.o(.bss._ZZN5embot2os10InitThread11getInstanceEvE1p) for embot::os::InitThread::getInstance()::p
    embot_os_thread.o(.text._ZN5embot2os10InitThread11getInstanceEv) refers to cxa_guard.cpp.o(.text.unlikely.__cxa_guard_acquire) for __cxa_guard_acquire
    embot_os_thread.o(.text._ZN5embot2os10InitThread11getInstanceEv) refers to embot_os_rtos.o(.text._Znwj) for operator new(unsigned int)
    embot_os_thread.o(.text._ZN5embot2os10InitThread11getInstanceEv) refers to embot_os_thread.o(.text._ZN5embot2os10InitThreadC2Ev) for embot::os::InitThread::InitThread__sub_object()
    embot_os_thread.o(.text._ZN5embot2os10InitThread11getInstanceEv) refers to cxa_guard.cpp.o(.text.unlikely.__cxa_guard_release) for __cxa_guard_release
    embot_os_thread.o(.ARM.exidx.text._ZN5embot2os10InitThread11getInstanceEv) refers to embot_os_thread.o(.text._ZN5embot2os10InitThread11getInstanceEv) for [Anonymous Symbol]
    embot_os_thread.o(.text._ZN5embot2os10InitThreadC2Ev) refers to embot_os_thread.o(.text._ZN5embot2os6ThreadC2Ev) for embot::os::Thread::Thread__sub_object()
    embot_os_thread.o(.text._ZN5embot2os10InitThreadC2Ev) refers to embot_os_thread.o(.rodata._ZTVN5embot2os10InitThreadE) for vtable for embot::os::InitThread
    embot_os_thread.o(.text._ZN5embot2os10InitThreadC2Ev) refers to embot_os_rtos.o(.text._Znwj) for operator new(unsigned int)
    embot_os_thread.o(.text._ZN5embot2os10InitThreadC2Ev) refers to embot_os_thread.o(.text._ZN5embot2os10InitThread4ImplC2Ev) for embot::os::InitThread::Impl::Impl__sub_object()
    embot_os_thread.o(.text._ZN5embot2os10InitThreadC2Ev) refers to embot_os_thread.o(.text._ZN5embot2os10InitThread4ImplD2Ev) for embot::os::InitThread::Impl::~Impl__sub_object()
    embot_os_thread.o(.text._ZN5embot2os10InitThreadC2Ev) refers to embot_os_rtos.o(.text._ZdlPv) for operator delete(void*)
    embot_os_thread.o(.ARM.exidx.text._ZN5embot2os10InitThreadC2Ev) refers to embot_os_thread.o(.text._ZN5embot2os10InitThreadC2Ev) for [Anonymous Symbol]
    embot_os_thread.o(.text._ZN5embot2os10InitThreadD2Ev) refers to embot_os_thread.o(.rodata._ZTVN5embot2os10InitThreadE) for vtable for embot::os::InitThread
    embot_os_thread.o(.text._ZN5embot2os10InitThreadD2Ev) refers to embot_os_thread.o(.text._ZN5embot2os10InitThread4ImplD2Ev) for embot::os::InitThread::Impl::~Impl__sub_object()
    embot_os_thread.o(.text._ZN5embot2os10InitThreadD2Ev) refers to embot_os_rtos.o(.text._ZdlPv) for operator delete(void*)
    embot_os_thread.o(.text._ZN5embot2os10InitThreadD2Ev) refers to embot_os_thread.o(.text._ZN5embot2os6ThreadD2Ev) for embot::os::Thread::~Thread__sub_object()
    embot_os_thread.o(.ARM.exidx.text._ZN5embot2os10InitThreadD2Ev) refers to embot_os_thread.o(.text._ZN5embot2os10InitThreadD2Ev) for [Anonymous Symbol]
    embot_os_thread.o(.text._ZN5embot2os10InitThreadD0Ev) refers to embot_os_thread.o(.text._ZN5embot2os10InitThreadD2Ev) for embot::os::InitThread::~InitThread__sub_object()
    embot_os_thread.o(.text._ZN5embot2os10InitThreadD0Ev) refers to embot_os_rtos.o(.text._ZdlPv) for operator delete(void*)
    embot_os_thread.o(.ARM.exidx.text._ZN5embot2os10InitThreadD0Ev) refers to embot_os_thread.o(.text._ZN5embot2os10InitThreadD0Ev) for [Anonymous Symbol]
    embot_os_thread.o(.ARM.exidx.text._ZNK5embot2os10InitThread7getTypeEv) refers to embot_os_thread.o(.text._ZNK5embot2os10InitThread7getTypeEv) for [Anonymous Symbol]
    embot_os_thread.o(.ARM.exidx.text._ZNK5embot2os10InitThread11getPriorityEv) refers to embot_os_thread.o(.text._ZNK5embot2os10InitThread11getPriorityEv) for [Anonymous Symbol]
    embot_os_thread.o(.ARM.exidx.text._ZN5embot2os10InitThread11setPriorityENS0_8PriorityE) refers to embot_os_thread.o(.text._ZN5embot2os10InitThread11setPriorityENS0_8PriorityE) for [Anonymous Symbol]
    embot_os_thread.o(.ARM.exidx.text._ZNK5embot2os10InitThread7getNameEv) refers to embot_os_thread.o(.text._ZNK5embot2os10InitThread7getNameEv) for [Anonymous Symbol]
    embot_os_thread.o(.ARM.exidx.text._ZN5embot2os10InitThread8setEventEj) refers to embot_os_thread.o(.text._ZN5embot2os10InitThread8setEventEj) for [Anonymous Symbol]
    embot_os_thread.o(.ARM.exidx.text._ZN5embot2os10InitThread10setMessageEPvj) refers to embot_os_thread.o(.text._ZN5embot2os10InitThread10setMessageEPvj) for [Anonymous Symbol]
    embot_os_thread.o(.ARM.exidx.text._ZN5embot2os10InitThread8setValueEjj) refers to embot_os_thread.o(.text._ZN5embot2os10InitThread8setValueEjj) for [Anonymous Symbol]
    embot_os_thread.o(.ARM.exidx.text._ZN5embot2os10InitThread11setCallbackERKNS_4core8CallbackEj) refers to embot_os_thread.o(.text._ZN5embot2os10InitThread11setCallbackERKNS_4core8CallbackEj) for [Anonymous Symbol]
    embot_os_thread.o(.text._ZN5embot2os10InitThread5synchEv) refers to embot_os_rtos.o(.text._ZN5embot2os4rtos24scheduler_thread_runningEv) for embot::os::rtos::scheduler_thread_running()
    embot_os_thread.o(.text._ZN5embot2os10InitThread5synchEv) refers to embot_os_rtos.o(.text._ZN5embot2os4rtos19scheduler_associateEPvPNS0_6ThreadE) for embot::os::rtos::scheduler_associate(void*, embot::os::Thread*)
    embot_os_thread.o(.ARM.exidx.text._ZN5embot2os10InitThread5synchEv) refers to embot_os_thread.o(.text._ZN5embot2os10InitThread5synchEv) for [Anonymous Symbol]
    embot_os_thread.o(.ARM.exidx.text._ZN5embot2os10InitThread3runEv) refers to embot_os_thread.o(.text._ZN5embot2os10InitThread3runEv) for [Anonymous Symbol]
    embot_os_thread.o(.ARM.exidx.text._ZN5embot2os10InitThread9terminateEv) refers to embot_os_thread.o(.text._ZN5embot2os10InitThread9terminateEv) for [Anonymous Symbol]
    embot_os_thread.o(.ARM.exidx.text._ZNK5embot2os10InitThread12isterminatedEv) refers to embot_os_thread.o(.text._ZNK5embot2os10InitThread12isterminatedEv) for [Anonymous Symbol]
    embot_os_thread.o(.text._ZN5embot2os10IdleThread11getInstanceEv) refers to embot_os_thread.o(.bss._ZGVZN5embot2os10IdleThread11getInstanceEvE1p) for guard variable for embot::os::IdleThread::getInstance()::p
    embot_os_thread.o(.text._ZN5embot2os10IdleThread11getInstanceEv) refers to embot_os_thread.o(.bss._ZZN5embot2os10IdleThread11getInstanceEvE1p) for embot::os::IdleThread::getInstance()::p
    embot_os_thread.o(.text._ZN5embot2os10IdleThread11getInstanceEv) refers to cxa_guard.cpp.o(.text.unlikely.__cxa_guard_acquire) for __cxa_guard_acquire
    embot_os_thread.o(.text._ZN5embot2os10IdleThread11getInstanceEv) refers to embot_os_rtos.o(.text._Znwj) for operator new(unsigned int)
    embot_os_thread.o(.text._ZN5embot2os10IdleThread11getInstanceEv) refers to embot_os_thread.o(.text._ZN5embot2os10IdleThreadC2Ev) for embot::os::IdleThread::IdleThread__sub_object()
    embot_os_thread.o(.text._ZN5embot2os10IdleThread11getInstanceEv) refers to cxa_guard.cpp.o(.text.unlikely.__cxa_guard_release) for __cxa_guard_release
    embot_os_thread.o(.ARM.exidx.text._ZN5embot2os10IdleThread11getInstanceEv) refers to embot_os_thread.o(.text._ZN5embot2os10IdleThread11getInstanceEv) for [Anonymous Symbol]
    embot_os_thread.o(.text._ZN5embot2os10IdleThreadC2Ev) refers to embot_os_thread.o(.text._ZN5embot2os6ThreadC2Ev) for embot::os::Thread::Thread__sub_object()
    embot_os_thread.o(.text._ZN5embot2os10IdleThreadC2Ev) refers to embot_os_thread.o(.rodata._ZTVN5embot2os10IdleThreadE) for vtable for embot::os::IdleThread
    embot_os_thread.o(.text._ZN5embot2os10IdleThreadC2Ev) refers to embot_os_rtos.o(.text._Znwj) for operator new(unsigned int)
    embot_os_thread.o(.text._ZN5embot2os10IdleThreadC2Ev) refers to embot_os_thread.o(.text._ZN5embot2os10IdleThread4ImplC2Ev) for embot::os::IdleThread::Impl::Impl__sub_object()
    embot_os_thread.o(.text._ZN5embot2os10IdleThreadC2Ev) refers to embot_os_thread.o(.text._ZN5embot2os10IdleThread4ImplD2Ev) for embot::os::IdleThread::Impl::~Impl__sub_object()
    embot_os_thread.o(.text._ZN5embot2os10IdleThreadC2Ev) refers to embot_os_rtos.o(.text._ZdlPv) for operator delete(void*)
    embot_os_thread.o(.ARM.exidx.text._ZN5embot2os10IdleThreadC2Ev) refers to embot_os_thread.o(.text._ZN5embot2os10IdleThreadC2Ev) for [Anonymous Symbol]
    embot_os_thread.o(.text._ZN5embot2os10IdleThreadD2Ev) refers to embot_os_thread.o(.rodata._ZTVN5embot2os10IdleThreadE) for vtable for embot::os::IdleThread
    embot_os_thread.o(.text._ZN5embot2os10IdleThreadD2Ev) refers to embot_os_thread.o(.text._ZN5embot2os10IdleThread4ImplD2Ev) for embot::os::IdleThread::Impl::~Impl__sub_object()
    embot_os_thread.o(.text._ZN5embot2os10IdleThreadD2Ev) refers to embot_os_rtos.o(.text._ZdlPv) for operator delete(void*)
    embot_os_thread.o(.text._ZN5embot2os10IdleThreadD2Ev) refers to embot_os_thread.o(.text._ZN5embot2os6ThreadD2Ev) for embot::os::Thread::~Thread__sub_object()
    embot_os_thread.o(.ARM.exidx.text._ZN5embot2os10IdleThreadD2Ev) refers to embot_os_thread.o(.text._ZN5embot2os10IdleThreadD2Ev) for [Anonymous Symbol]
    embot_os_thread.o(.text._ZN5embot2os10IdleThreadD0Ev) refers to embot_os_thread.o(.text._ZN5embot2os10IdleThreadD2Ev) for embot::os::IdleThread::~IdleThread__sub_object()
    embot_os_thread.o(.text._ZN5embot2os10IdleThreadD0Ev) refers to embot_os_rtos.o(.text._ZdlPv) for operator delete(void*)
    embot_os_thread.o(.ARM.exidx.text._ZN5embot2os10IdleThreadD0Ev) refers to embot_os_thread.o(.text._ZN5embot2os10IdleThreadD0Ev) for [Anonymous Symbol]
    embot_os_thread.o(.ARM.exidx.text._ZNK5embot2os10IdleThread7getTypeEv) refers to embot_os_thread.o(.text._ZNK5embot2os10IdleThread7getTypeEv) for [Anonymous Symbol]
    embot_os_thread.o(.ARM.exidx.text._ZNK5embot2os10IdleThread11getPriorityEv) refers to embot_os_thread.o(.text._ZNK5embot2os10IdleThread11getPriorityEv) for [Anonymous Symbol]
    embot_os_thread.o(.ARM.exidx.text._ZN5embot2os10IdleThread11setPriorityENS0_8PriorityE) refers to embot_os_thread.o(.text._ZN5embot2os10IdleThread11setPriorityENS0_8PriorityE) for [Anonymous Symbol]
    embot_os_thread.o(.ARM.exidx.text._ZNK5embot2os10IdleThread7getNameEv) refers to embot_os_thread.o(.text._ZNK5embot2os10IdleThread7getNameEv) for [Anonymous Symbol]
    embot_os_thread.o(.text._ZN5embot2os10IdleThread8setEventEj) refers to embot_os_rtos.o(.text._ZN5embot2os4rtos9event_setEPvj) for embot::os::rtos::event_set(void*, unsigned int)
    embot_os_thread.o(.ARM.exidx.text._ZN5embot2os10IdleThread8setEventEj) refers to embot_os_thread.o(.text._ZN5embot2os10IdleThread8setEventEj) for [Anonymous Symbol]
    embot_os_thread.o(.ARM.exidx.text._ZN5embot2os10IdleThread10setMessageEPvj) refers to embot_os_thread.o(.text._ZN5embot2os10IdleThread10setMessageEPvj) for [Anonymous Symbol]
    embot_os_thread.o(.ARM.exidx.text._ZN5embot2os10IdleThread8setValueEjj) refers to embot_os_thread.o(.text._ZN5embot2os10IdleThread8setValueEjj) for [Anonymous Symbol]
    embot_os_thread.o(.ARM.exidx.text._ZN5embot2os10IdleThread11setCallbackERKNS_4core8CallbackEj) refers to embot_os_thread.o(.text._ZN5embot2os10IdleThread11setCallbackERKNS_4core8CallbackEj) for [Anonymous Symbol]
    embot_os_thread.o(.text._ZN5embot2os10IdleThread5synchEv) refers to embot_os_rtos.o(.text._ZN5embot2os4rtos24scheduler_thread_runningEv) for embot::os::rtos::scheduler_thread_running()
    embot_os_thread.o(.text._ZN5embot2os10IdleThread5synchEv) refers to embot_os_rtos.o(.text._ZN5embot2os4rtos19scheduler_associateEPvPNS0_6ThreadE) for embot::os::rtos::scheduler_associate(void*, embot::os::Thread*)
    embot_os_thread.o(.ARM.exidx.text._ZN5embot2os10IdleThread5synchEv) refers to embot_os_thread.o(.text._ZN5embot2os10IdleThread5synchEv) for [Anonymous Symbol]
    embot_os_thread.o(.ARM.exidx.text._ZN5embot2os10IdleThread3runEv) refers to embot_os_thread.o(.text._ZN5embot2os10IdleThread3runEv) for [Anonymous Symbol]
    embot_os_thread.o(.text._ZN5embot2os11EventThreadC2Ev) refers to embot_os_thread.o(.text._ZN5embot2os6ThreadC2Ev) for embot::os::Thread::Thread__sub_object()
    embot_os_thread.o(.text._ZN5embot2os11EventThreadC2Ev) refers to embot_os_thread.o(.rodata._ZTVN5embot2os11EventThreadE) for vtable for embot::os::EventThread
    embot_os_thread.o(.text._ZN5embot2os11EventThreadC2Ev) refers to embot_os_rtos.o(.text._Znwj) for operator new(unsigned int)
    embot_os_thread.o(.text._ZN5embot2os11EventThreadC2Ev) refers to embot_os_thread.o(.text._ZN5embot2os11EventThread4ImplC2EPS1_) for embot::os::EventThread::Impl::Impl__sub_object(embot::os::EventThread*)
    embot_os_thread.o(.ARM.exidx.text._ZN5embot2os11EventThreadC2Ev) refers to embot_os_thread.o(.text._ZN5embot2os11EventThreadC2Ev) for [Anonymous Symbol]
    embot_os_thread.o(.text._ZN5embot2os11EventThreadD2Ev) refers to embot_os_thread.o(.rodata._ZTVN5embot2os11EventThreadE) for vtable for embot::os::EventThread
    embot_os_thread.o(.text._ZN5embot2os11EventThreadD2Ev) refers to embot_os_thread.o(.text._ZN5embot2os11EventThread4ImplD2Ev) for embot::os::EventThread::Impl::~Impl__sub_object()
    embot_os_thread.o(.text._ZN5embot2os11EventThreadD2Ev) refers to embot_os_rtos.o(.text._ZdlPv) for operator delete(void*)
    embot_os_thread.o(.text._ZN5embot2os11EventThreadD2Ev) refers to embot_os_thread.o(.text._ZN5embot2os6ThreadD2Ev) for embot::os::Thread::~Thread__sub_object()
    embot_os_thread.o(.ARM.exidx.text._ZN5embot2os11EventThreadD2Ev) refers to embot_os_thread.o(.text._ZN5embot2os11EventThreadD2Ev) for [Anonymous Symbol]
    embot_os_thread.o(.text._ZN5embot2os11EventThreadD0Ev) refers to embot_os_thread.o(.text._ZN5embot2os11EventThreadD2Ev) for embot::os::EventThread::~EventThread__sub_object()
    embot_os_thread.o(.text._ZN5embot2os11EventThreadD0Ev) refers to embot_os_rtos.o(.text._ZdlPv) for operator delete(void*)
    embot_os_thread.o(.ARM.exidx.text._ZN5embot2os11EventThreadD0Ev) refers to embot_os_thread.o(.text._ZN5embot2os11EventThreadD0Ev) for [Anonymous Symbol]
    embot_os_thread.o(.ARM.exidx.text._ZNK5embot2os11EventThread7getTypeEv) refers to embot_os_thread.o(.text._ZNK5embot2os11EventThread7getTypeEv) for [Anonymous Symbol]
    embot_os_thread.o(.ARM.exidx.text._ZNK5embot2os11EventThread11getPriorityEv) refers to embot_os_thread.o(.text._ZNK5embot2os11EventThread11getPriorityEv) for [Anonymous Symbol]
    embot_os_thread.o(.text._ZN5embot2os11EventThread11setPriorityENS0_8PriorityE) refers to embot_os_thread.o(.text._ZN5embot4core10tointegralINS_2os8PriorityEEEDaT_) for auto embot::core::tointegral<embot::os::Priority>(embot::os::Priority)
    embot_os_thread.o(.text._ZN5embot2os11EventThread11setPriorityENS0_8PriorityE) refers to embot_os_rtos.o(.text._ZN5embot2os4rtos14thread_props_t7setprioEh) for embot::os::rtos::thread_props_t::setprio(unsigned char)
    embot_os_thread.o(.text._ZN5embot2os11EventThread11setPriorityENS0_8PriorityE) refers to embot_os_rtos.o(.text._ZN5embot2os4rtos18thread_setpriorityEPvNS0_8PriorityE) for embot::os::rtos::thread_setpriority(void*, embot::os::Priority)
    embot_os_thread.o(.ARM.exidx.text._ZN5embot2os11EventThread11setPriorityENS0_8PriorityE) refers to embot_os_thread.o(.text._ZN5embot2os11EventThread11setPriorityENS0_8PriorityE) for [Anonymous Symbol]
    embot_os_thread.o(.ARM.exidx.text._ZNK5embot2os11EventThread7getNameEv) refers to embot_os_thread.o(.text._ZNK5embot2os11EventThread7getNameEv) for [Anonymous Symbol]
    embot_os_thread.o(.text._ZN5embot2os11EventThread8setEventEj) refers to embot_os_rtos.o(.text._ZN5embot2os4rtos9event_setEPvj) for embot::os::rtos::event_set(void*, unsigned int)
    embot_os_thread.o(.ARM.exidx.text._ZN5embot2os11EventThread8setEventEj) refers to embot_os_thread.o(.text._ZN5embot2os11EventThread8setEventEj) for [Anonymous Symbol]
    embot_os_thread.o(.ARM.exidx.text._ZN5embot2os11EventThread10setMessageEPvj) refers to embot_os_thread.o(.text._ZN5embot2os11EventThread10setMessageEPvj) for [Anonymous Symbol]
    embot_os_thread.o(.ARM.exidx.text._ZN5embot2os11EventThread8setValueEjj) refers to embot_os_thread.o(.text._ZN5embot2os11EventThread8setValueEjj) for [Anonymous Symbol]
    embot_os_thread.o(.ARM.exidx.text._ZN5embot2os11EventThread11setCallbackERKNS_4core8CallbackEj) refers to embot_os_thread.o(.text._ZN5embot2os11EventThread11setCallbackERKNS_4core8CallbackEj) for [Anonymous Symbol]
    embot_os_thread.o(.text._ZN5embot2os11EventThread5startERKNS1_6ConfigEPFvPvE) refers to embot_os_thread.o(.text._ZNK5embot2os11EventThread6Config7isvalidEv) for embot::os::EventThread::Config::isvalid() const
    embot_os_thread.o(.text._ZN5embot2os11EventThread5startERKNS1_6ConfigEPFvPvE) refers to embot_os_thread.o(.text._ZN5embot2os11EventThread4Impl19os_eventdriven_loopEPv) for embot::os::EventThread::Impl::os_eventdriven_loop(void*)
    embot_os_thread.o(.text._ZN5embot2os11EventThread5startERKNS1_6ConfigEPFvPvE) refers to embot_os_thread.o(.text._ZN5embot4core10tointegralINS_2os8PriorityEEEDaT_) for auto embot::core::tointegral<embot::os::Priority>(embot::os::Priority)
    embot_os_thread.o(.text._ZN5embot2os11EventThread5startERKNS1_6ConfigEPFvPvE) refers to embot_os_rtos.o(.text._ZN5embot2os4rtos14thread_props_t7prepareEPFvPvES3_ht) for embot::os::rtos::thread_props_t::prepare(void (*)(void*), void*, unsigned char, unsigned short)
    embot_os_thread.o(.text._ZN5embot2os11EventThread5startERKNS1_6ConfigEPFvPvE) refers to embot_os_rtos.o(.text._ZN5embot2os4rtos10thread_newERNS1_14thread_props_tE) for embot::os::rtos::thread_new(embot::os::rtos::thread_props_t&)
    embot_os_thread.o(.text._ZN5embot2os11EventThread5startERKNS1_6ConfigEPFvPvE) refers to embot_os_rtos.o(.text._ZN5embot2os4rtos19scheduler_associateEPvPNS0_6ThreadE) for embot::os::rtos::scheduler_associate(void*, embot::os::Thread*)
    embot_os_thread.o(.ARM.exidx.text._ZN5embot2os11EventThread5startERKNS1_6ConfigEPFvPvE) refers to embot_os_thread.o(.text._ZN5embot2os11EventThread5startERKNS1_6ConfigEPFvPvE) for [Anonymous Symbol]
    embot_os_thread.o(.text._ZN5embot2os11EventThread3runEv) refers to embot_os_thread.o(.text._ZN5embot2os11EventThread4Impl19os_eventdriven_loopEPv) for embot::os::EventThread::Impl::os_eventdriven_loop(void*)
    embot_os_thread.o(.ARM.exidx.text._ZN5embot2os11EventThread3runEv) refers to embot_os_thread.o(.text._ZN5embot2os11EventThread3runEv) for [Anonymous Symbol]
    embot_os_thread.o(.text._ZN5embot2os13MessageThreadC2Ev) refers to embot_os_thread.o(.text._ZN5embot2os6ThreadC2Ev) for embot::os::Thread::Thread__sub_object()
    embot_os_thread.o(.text._ZN5embot2os13MessageThreadC2Ev) refers to embot_os_thread.o(.rodata._ZTVN5embot2os13MessageThreadE) for vtable for embot::os::MessageThread
    embot_os_thread.o(.text._ZN5embot2os13MessageThreadC2Ev) refers to embot_os_rtos.o(.text._Znwj) for operator new(unsigned int)
    embot_os_thread.o(.text._ZN5embot2os13MessageThreadC2Ev) refers to embot_os_thread.o(.text._ZN5embot2os13MessageThread4ImplC2EPS1_) for embot::os::MessageThread::Impl::Impl__sub_object(embot::os::MessageThread*)
    embot_os_thread.o(.ARM.exidx.text._ZN5embot2os13MessageThreadC2Ev) refers to embot_os_thread.o(.text._ZN5embot2os13MessageThreadC2Ev) for [Anonymous Symbol]
    embot_os_thread.o(.text._ZN5embot2os13MessageThreadD2Ev) refers to embot_os_thread.o(.rodata._ZTVN5embot2os13MessageThreadE) for vtable for embot::os::MessageThread
    embot_os_thread.o(.text._ZN5embot2os13MessageThreadD2Ev) refers to embot_os_thread.o(.text._ZN5embot2os13MessageThread4ImplD2Ev) for embot::os::MessageThread::Impl::~Impl__sub_object()
    embot_os_thread.o(.text._ZN5embot2os13MessageThreadD2Ev) refers to embot_os_rtos.o(.text._ZdlPv) for operator delete(void*)
    embot_os_thread.o(.text._ZN5embot2os13MessageThreadD2Ev) refers to embot_os_thread.o(.text._ZN5embot2os6ThreadD2Ev) for embot::os::Thread::~Thread__sub_object()
    embot_os_thread.o(.ARM.exidx.text._ZN5embot2os13MessageThreadD2Ev) refers to embot_os_thread.o(.text._ZN5embot2os13MessageThreadD2Ev) for [Anonymous Symbol]
    embot_os_thread.o(.text._ZN5embot2os13MessageThreadD0Ev) refers to embot_os_thread.o(.text._ZN5embot2os13MessageThreadD2Ev) for embot::os::MessageThread::~MessageThread__sub_object()
    embot_os_thread.o(.text._ZN5embot2os13MessageThreadD0Ev) refers to embot_os_rtos.o(.text._ZdlPv) for operator delete(void*)
    embot_os_thread.o(.ARM.exidx.text._ZN5embot2os13MessageThreadD0Ev) refers to embot_os_thread.o(.text._ZN5embot2os13MessageThreadD0Ev) for [Anonymous Symbol]
    embot_os_thread.o(.ARM.exidx.text._ZNK5embot2os13MessageThread7getTypeEv) refers to embot_os_thread.o(.text._ZNK5embot2os13MessageThread7getTypeEv) for [Anonymous Symbol]
    embot_os_thread.o(.ARM.exidx.text._ZNK5embot2os13MessageThread11getPriorityEv) refers to embot_os_thread.o(.text._ZNK5embot2os13MessageThread11getPriorityEv) for [Anonymous Symbol]
    embot_os_thread.o(.text._ZN5embot2os13MessageThread11setPriorityENS0_8PriorityE) refers to embot_os_thread.o(.text._ZN5embot4core10tointegralINS_2os8PriorityEEEDaT_) for auto embot::core::tointegral<embot::os::Priority>(embot::os::Priority)
    embot_os_thread.o(.text._ZN5embot2os13MessageThread11setPriorityENS0_8PriorityE) refers to embot_os_rtos.o(.text._ZN5embot2os4rtos14thread_props_t7setprioEh) for embot::os::rtos::thread_props_t::setprio(unsigned char)
    embot_os_thread.o(.text._ZN5embot2os13MessageThread11setPriorityENS0_8PriorityE) refers to embot_os_rtos.o(.text._ZN5embot2os4rtos18thread_setpriorityEPvNS0_8PriorityE) for embot::os::rtos::thread_setpriority(void*, embot::os::Priority)
    embot_os_thread.o(.ARM.exidx.text._ZN5embot2os13MessageThread11setPriorityENS0_8PriorityE) refers to embot_os_thread.o(.text._ZN5embot2os13MessageThread11setPriorityENS0_8PriorityE) for [Anonymous Symbol]
    embot_os_thread.o(.ARM.exidx.text._ZNK5embot2os13MessageThread7getNameEv) refers to embot_os_thread.o(.text._ZNK5embot2os13MessageThread7getNameEv) for [Anonymous Symbol]
    embot_os_thread.o(.ARM.exidx.text._ZN5embot2os13MessageThread8setEventEj) refers to embot_os_thread.o(.text._ZN5embot2os13MessageThread8setEventEj) for [Anonymous Symbol]
    embot_os_thread.o(.text._ZN5embot2os13MessageThread10setMessageEPvj) refers to embot_os_rtos.o(.text._ZN5embot2os4rtos16messagequeue_putEPvS2_j) for embot::os::rtos::messagequeue_put(void*, void*, unsigned int)
    embot_os_thread.o(.ARM.exidx.text._ZN5embot2os13MessageThread10setMessageEPvj) refers to embot_os_thread.o(.text._ZN5embot2os13MessageThread10setMessageEPvj) for [Anonymous Symbol]
    embot_os_thread.o(.ARM.exidx.text._ZN5embot2os13MessageThread8setValueEjj) refers to embot_os_thread.o(.text._ZN5embot2os13MessageThread8setValueEjj) for [Anonymous Symbol]
    embot_os_thread.o(.ARM.exidx.text._ZN5embot2os13MessageThread11setCallbackERKNS_4core8CallbackEj) refers to embot_os_thread.o(.text._ZN5embot2os13MessageThread11setCallbackERKNS_4core8CallbackEj) for [Anonymous Symbol]
    embot_os_thread.o(.text._ZN5embot2os13MessageThread5startERKNS1_6ConfigEPFvPvE) refers to embot_os_thread.o(.text._ZNK5embot2os13MessageThread6Config7isvalidEv) for embot::os::MessageThread::Config::isvalid() const
    embot_os_thread.o(.text._ZN5embot2os13MessageThread5startERKNS1_6ConfigEPFvPvE) refers to embot_os_rtos.o(.text._ZN5embot2os4rtos16messagequeue_newEh) for embot::os::rtos::messagequeue_new(unsigned char)
    embot_os_thread.o(.text._ZN5embot2os13MessageThread5startERKNS1_6ConfigEPFvPvE) refers to embot_os_thread.o(.text._ZN5embot2os13MessageThread4Impl21os_messagedriven_loopEPv) for embot::os::MessageThread::Impl::os_messagedriven_loop(void*)
    embot_os_thread.o(.text._ZN5embot2os13MessageThread5startERKNS1_6ConfigEPFvPvE) refers to embot_os_thread.o(.text._ZN5embot4core10tointegralINS_2os8PriorityEEEDaT_) for auto embot::core::tointegral<embot::os::Priority>(embot::os::Priority)
    embot_os_thread.o(.text._ZN5embot2os13MessageThread5startERKNS1_6ConfigEPFvPvE) refers to embot_os_rtos.o(.text._ZN5embot2os4rtos14thread_props_t7prepareEPFvPvES3_ht) for embot::os::rtos::thread_props_t::prepare(void (*)(void*), void*, unsigned char, unsigned short)
    embot_os_thread.o(.text._ZN5embot2os13MessageThread5startERKNS1_6ConfigEPFvPvE) refers to embot_os_rtos.o(.text._ZN5embot2os4rtos10thread_newERNS1_14thread_props_tE) for embot::os::rtos::thread_new(embot::os::rtos::thread_props_t&)
    embot_os_thread.o(.text._ZN5embot2os13MessageThread5startERKNS1_6ConfigEPFvPvE) refers to embot_os_rtos.o(.text._ZN5embot2os4rtos19scheduler_associateEPvPNS0_6ThreadE) for embot::os::rtos::scheduler_associate(void*, embot::os::Thread*)
    embot_os_thread.o(.ARM.exidx.text._ZN5embot2os13MessageThread5startERKNS1_6ConfigEPFvPvE) refers to embot_os_thread.o(.text._ZN5embot2os13MessageThread5startERKNS1_6ConfigEPFvPvE) for [Anonymous Symbol]
    embot_os_thread.o(.text._ZN5embot2os13MessageThread3runEv) refers to embot_os_thread.o(.text._ZN5embot2os13MessageThread4Impl21os_messagedriven_loopEPv) for embot::os::MessageThread::Impl::os_messagedriven_loop(void*)
    embot_os_thread.o(.ARM.exidx.text._ZN5embot2os13MessageThread3runEv) refers to embot_os_thread.o(.text._ZN5embot2os13MessageThread3runEv) for [Anonymous Symbol]
    embot_os_thread.o(.text._ZN5embot2os11ValueThreadC2Ev) refers to embot_os_thread.o(.text._ZN5embot2os6ThreadC2Ev) for embot::os::Thread::Thread__sub_object()
    embot_os_thread.o(.text._ZN5embot2os11ValueThreadC2Ev) refers to embot_os_thread.o(.rodata._ZTVN5embot2os11ValueThreadE) for vtable for embot::os::ValueThread
    embot_os_thread.o(.text._ZN5embot2os11ValueThreadC2Ev) refers to embot_os_rtos.o(.text._Znwj) for operator new(unsigned int)
    embot_os_thread.o(.text._ZN5embot2os11ValueThreadC2Ev) refers to embot_os_thread.o(.text._ZN5embot2os11ValueThread4ImplC2EPS1_) for embot::os::ValueThread::Impl::Impl__sub_object(embot::os::ValueThread*)
    embot_os_thread.o(.ARM.exidx.text._ZN5embot2os11ValueThreadC2Ev) refers to embot_os_thread.o(.text._ZN5embot2os11ValueThreadC2Ev) for [Anonymous Symbol]
    embot_os_thread.o(.text._ZN5embot2os11ValueThreadD2Ev) refers to embot_os_thread.o(.rodata._ZTVN5embot2os11ValueThreadE) for vtable for embot::os::ValueThread
    embot_os_thread.o(.text._ZN5embot2os11ValueThreadD2Ev) refers to embot_os_thread.o(.text._ZN5embot2os11ValueThread4ImplD2Ev) for embot::os::ValueThread::Impl::~Impl__sub_object()
    embot_os_thread.o(.text._ZN5embot2os11ValueThreadD2Ev) refers to embot_os_rtos.o(.text._ZdlPv) for operator delete(void*)
    embot_os_thread.o(.text._ZN5embot2os11ValueThreadD2Ev) refers to embot_os_thread.o(.text._ZN5embot2os6ThreadD2Ev) for embot::os::Thread::~Thread__sub_object()
    embot_os_thread.o(.ARM.exidx.text._ZN5embot2os11ValueThreadD2Ev) refers to embot_os_thread.o(.text._ZN5embot2os11ValueThreadD2Ev) for [Anonymous Symbol]
    embot_os_thread.o(.text._ZN5embot2os11ValueThreadD0Ev) refers to embot_os_thread.o(.text._ZN5embot2os11ValueThreadD2Ev) for embot::os::ValueThread::~ValueThread__sub_object()
    embot_os_thread.o(.text._ZN5embot2os11ValueThreadD0Ev) refers to embot_os_rtos.o(.text._ZdlPv) for operator delete(void*)
    embot_os_thread.o(.ARM.exidx.text._ZN5embot2os11ValueThreadD0Ev) refers to embot_os_thread.o(.text._ZN5embot2os11ValueThreadD0Ev) for [Anonymous Symbol]
    embot_os_thread.o(.ARM.exidx.text._ZNK5embot2os11ValueThread7getTypeEv) refers to embot_os_thread.o(.text._ZNK5embot2os11ValueThread7getTypeEv) for [Anonymous Symbol]
    embot_os_thread.o(.ARM.exidx.text._ZNK5embot2os11ValueThread11getPriorityEv) refers to embot_os_thread.o(.text._ZNK5embot2os11ValueThread11getPriorityEv) for [Anonymous Symbol]
    embot_os_thread.o(.text._ZN5embot2os11ValueThread11setPriorityENS0_8PriorityE) refers to embot_os_thread.o(.text._ZN5embot4core10tointegralINS_2os8PriorityEEEDaT_) for auto embot::core::tointegral<embot::os::Priority>(embot::os::Priority)
    embot_os_thread.o(.text._ZN5embot2os11ValueThread11setPriorityENS0_8PriorityE) refers to embot_os_rtos.o(.text._ZN5embot2os4rtos14thread_props_t7setprioEh) for embot::os::rtos::thread_props_t::setprio(unsigned char)
    embot_os_thread.o(.text._ZN5embot2os11ValueThread11setPriorityENS0_8PriorityE) refers to embot_os_rtos.o(.text._ZN5embot2os4rtos18thread_setpriorityEPvNS0_8PriorityE) for embot::os::rtos::thread_setpriority(void*, embot::os::Priority)
    embot_os_thread.o(.ARM.exidx.text._ZN5embot2os11ValueThread11setPriorityENS0_8PriorityE) refers to embot_os_thread.o(.text._ZN5embot2os11ValueThread11setPriorityENS0_8PriorityE) for [Anonymous Symbol]
    embot_os_thread.o(.ARM.exidx.text._ZNK5embot2os11ValueThread7getNameEv) refers to embot_os_thread.o(.text._ZNK5embot2os11ValueThread7getNameEv) for [Anonymous Symbol]
    embot_os_thread.o(.ARM.exidx.text._ZN5embot2os11ValueThread8setEventEj) refers to embot_os_thread.o(.text._ZN5embot2os11ValueThread8setEventEj) for [Anonymous Symbol]
    embot_os_thread.o(.ARM.exidx.text._ZN5embot2os11ValueThread10setMessageEPvj) refers to embot_os_thread.o(.text._ZN5embot2os11ValueThread10setMessageEPvj) for [Anonymous Symbol]
    embot_os_thread.o(.text._ZN5embot2os11ValueThread8setValueEjj) refers to embot_os_rtos.o(.text._ZN5embot2os4rtos16messagequeue_putEPvS2_j) for embot::os::rtos::messagequeue_put(void*, void*, unsigned int)
    embot_os_thread.o(.ARM.exidx.text._ZN5embot2os11ValueThread8setValueEjj) refers to embot_os_thread.o(.text._ZN5embot2os11ValueThread8setValueEjj) for [Anonymous Symbol]
    embot_os_thread.o(.ARM.exidx.text._ZN5embot2os11ValueThread11setCallbackERKNS_4core8CallbackEj) refers to embot_os_thread.o(.text._ZN5embot2os11ValueThread11setCallbackERKNS_4core8CallbackEj) for [Anonymous Symbol]
    embot_os_thread.o(.text._ZN5embot2os11ValueThread5startERKNS1_6ConfigEPFvPvE) refers to embot_os_thread.o(.text._ZNK5embot2os11ValueThread6Config7isvalidEv) for embot::os::ValueThread::Config::isvalid() const
    embot_os_thread.o(.text._ZN5embot2os11ValueThread5startERKNS1_6ConfigEPFvPvE) refers to embot_os_rtos.o(.text._ZN5embot2os4rtos16messagequeue_newEh) for embot::os::rtos::messagequeue_new(unsigned char)
    embot_os_thread.o(.text._ZN5embot2os11ValueThread5startERKNS1_6ConfigEPFvPvE) refers to embot_os_thread.o(.text._ZN5embot2os11ValueThread4Impl19os_valuedriven_loopEPv) for embot::os::ValueThread::Impl::os_valuedriven_loop(void*)
    embot_os_thread.o(.text._ZN5embot2os11ValueThread5startERKNS1_6ConfigEPFvPvE) refers to embot_os_thread.o(.text._ZN5embot4core10tointegralINS_2os8PriorityEEEDaT_) for auto embot::core::tointegral<embot::os::Priority>(embot::os::Priority)
    embot_os_thread.o(.text._ZN5embot2os11ValueThread5startERKNS1_6ConfigEPFvPvE) refers to embot_os_rtos.o(.text._ZN5embot2os4rtos14thread_props_t7prepareEPFvPvES3_ht) for embot::os::rtos::thread_props_t::prepare(void (*)(void*), void*, unsigned char, unsigned short)
    embot_os_thread.o(.text._ZN5embot2os11ValueThread5startERKNS1_6ConfigEPFvPvE) refers to embot_os_rtos.o(.text._ZN5embot2os4rtos10thread_newERNS1_14thread_props_tE) for embot::os::rtos::thread_new(embot::os::rtos::thread_props_t&)
    embot_os_thread.o(.text._ZN5embot2os11ValueThread5startERKNS1_6ConfigEPFvPvE) refers to embot_os_rtos.o(.text._ZN5embot2os4rtos19scheduler_associateEPvPNS0_6ThreadE) for embot::os::rtos::scheduler_associate(void*, embot::os::Thread*)
    embot_os_thread.o(.ARM.exidx.text._ZN5embot2os11ValueThread5startERKNS1_6ConfigEPFvPvE) refers to embot_os_thread.o(.text._ZN5embot2os11ValueThread5startERKNS1_6ConfigEPFvPvE) for [Anonymous Symbol]
    embot_os_thread.o(.text._ZN5embot2os11ValueThread3runEv) refers to embot_os_thread.o(.text._ZN5embot2os11ValueThread4Impl19os_valuedriven_loopEPv) for embot::os::ValueThread::Impl::os_valuedriven_loop(void*)
    embot_os_thread.o(.ARM.exidx.text._ZN5embot2os11ValueThread3runEv) refers to embot_os_thread.o(.text._ZN5embot2os11ValueThread3runEv) for [Anonymous Symbol]
    embot_os_thread.o(.text._ZN5embot2os14CallbackThreadC2Ev) refers to embot_os_thread.o(.text._ZN5embot2os6ThreadC2Ev) for embot::os::Thread::Thread__sub_object()
    embot_os_thread.o(.text._ZN5embot2os14CallbackThreadC2Ev) refers to embot_os_thread.o(.rodata._ZTVN5embot2os14CallbackThreadE) for vtable for embot::os::CallbackThread
    embot_os_thread.o(.text._ZN5embot2os14CallbackThreadC2Ev) refers to embot_os_rtos.o(.text._Znwj) for operator new(unsigned int)
    embot_os_thread.o(.text._ZN5embot2os14CallbackThreadC2Ev) refers to embot_os_thread.o(.text._ZN5embot2os14CallbackThread4ImplC2EPS1_) for embot::os::CallbackThread::Impl::Impl__sub_object(embot::os::CallbackThread*)
    embot_os_thread.o(.ARM.exidx.text._ZN5embot2os14CallbackThreadC2Ev) refers to embot_os_thread.o(.text._ZN5embot2os14CallbackThreadC2Ev) for [Anonymous Symbol]
    embot_os_thread.o(.text._ZN5embot2os14CallbackThreadD2Ev) refers to embot_os_thread.o(.rodata._ZTVN5embot2os14CallbackThreadE) for vtable for embot::os::CallbackThread
    embot_os_thread.o(.text._ZN5embot2os14CallbackThreadD2Ev) refers to embot_os_thread.o(.text._ZN5embot2os14CallbackThread4ImplD2Ev) for embot::os::CallbackThread::Impl::~Impl__sub_object()
    embot_os_thread.o(.text._ZN5embot2os14CallbackThreadD2Ev) refers to embot_os_rtos.o(.text._ZdlPv) for operator delete(void*)
    embot_os_thread.o(.text._ZN5embot2os14CallbackThreadD2Ev) refers to embot_os_thread.o(.text._ZN5embot2os6ThreadD2Ev) for embot::os::Thread::~Thread__sub_object()
    embot_os_thread.o(.ARM.exidx.text._ZN5embot2os14CallbackThreadD2Ev) refers to embot_os_thread.o(.text._ZN5embot2os14CallbackThreadD2Ev) for [Anonymous Symbol]
    embot_os_thread.o(.text._ZN5embot2os14CallbackThreadD0Ev) refers to embot_os_thread.o(.text._ZN5embot2os14CallbackThreadD2Ev) for embot::os::CallbackThread::~CallbackThread__sub_object()
    embot_os_thread.o(.text._ZN5embot2os14CallbackThreadD0Ev) refers to embot_os_rtos.o(.text._ZdlPv) for operator delete(void*)
    embot_os_thread.o(.ARM.exidx.text._ZN5embot2os14CallbackThreadD0Ev) refers to embot_os_thread.o(.text._ZN5embot2os14CallbackThreadD0Ev) for [Anonymous Symbol]
    embot_os_thread.o(.ARM.exidx.text._ZNK5embot2os14CallbackThread7getTypeEv) refers to embot_os_thread.o(.text._ZNK5embot2os14CallbackThread7getTypeEv) for [Anonymous Symbol]
    embot_os_thread.o(.ARM.exidx.text._ZNK5embot2os14CallbackThread11getPriorityEv) refers to embot_os_thread.o(.text._ZNK5embot2os14CallbackThread11getPriorityEv) for [Anonymous Symbol]
    embot_os_thread.o(.text._ZN5embot2os14CallbackThread11setPriorityENS0_8PriorityE) refers to embot_os_thread.o(.text._ZN5embot4core10tointegralINS_2os8PriorityEEEDaT_) for auto embot::core::tointegral<embot::os::Priority>(embot::os::Priority)
    embot_os_thread.o(.text._ZN5embot2os14CallbackThread11setPriorityENS0_8PriorityE) refers to embot_os_rtos.o(.text._ZN5embot2os4rtos14thread_props_t7setprioEh) for embot::os::rtos::thread_props_t::setprio(unsigned char)
    embot_os_thread.o(.text._ZN5embot2os14CallbackThread11setPriorityENS0_8PriorityE) refers to embot_os_rtos.o(.text._ZN5embot2os4rtos18thread_setpriorityEPvNS0_8PriorityE) for embot::os::rtos::thread_setpriority(void*, embot::os::Priority)
    embot_os_thread.o(.ARM.exidx.text._ZN5embot2os14CallbackThread11setPriorityENS0_8PriorityE) refers to embot_os_thread.o(.text._ZN5embot2os14CallbackThread11setPriorityENS0_8PriorityE) for [Anonymous Symbol]
    embot_os_thread.o(.ARM.exidx.text._ZNK5embot2os14CallbackThread7getNameEv) refers to embot_os_thread.o(.text._ZNK5embot2os14CallbackThread7getNameEv) for [Anonymous Symbol]
    embot_os_thread.o(.ARM.exidx.text._ZN5embot2os14CallbackThread8setEventEj) refers to embot_os_thread.o(.text._ZN5embot2os14CallbackThread8setEventEj) for [Anonymous Symbol]
    embot_os_thread.o(.ARM.exidx.text._ZN5embot2os14CallbackThread10setMessageEPvj) refers to embot_os_thread.o(.text._ZN5embot2os14CallbackThread10setMessageEPvj) for [Anonymous Symbol]
    embot_os_thread.o(.ARM.exidx.text._ZN5embot2os14CallbackThread8setValueEjj) refers to embot_os_thread.o(.text._ZN5embot2os14CallbackThread8setValueEjj) for [Anonymous Symbol]
    embot_os_thread.o(.text._ZN5embot2os14CallbackThread11setCallbackERKNS_4core8CallbackEj) refers to embot_hw_can.o(.text._ZNK5embot4core8Callback7isvalidEv) for embot::core::Callback::isvalid() const
    embot_os_thread.o(.text._ZN5embot2os14CallbackThread11setCallbackERKNS_4core8CallbackEj) refers to embot_os_rtos.o(.text._ZN5embot2os4rtos16messagequeue_putEPvS2_j) for embot::os::rtos::messagequeue_put(void*, void*, unsigned int)
    embot_os_thread.o(.ARM.exidx.text._ZN5embot2os14CallbackThread11setCallbackERKNS_4core8CallbackEj) refers to embot_os_thread.o(.text._ZN5embot2os14CallbackThread11setCallbackERKNS_4core8CallbackEj) for [Anonymous Symbol]
    embot_os_thread.o(.text._ZN5embot2os14CallbackThread5startERKNS1_6ConfigEPFvPvE) refers to embot_os_thread.o(.text._ZNK5embot2os14CallbackThread6Config7isvalidEv) for embot::os::CallbackThread::Config::isvalid() const
    embot_os_thread.o(.text._ZN5embot2os14CallbackThread5startERKNS1_6ConfigEPFvPvE) refers to embot_os_rtos.o(.text._ZN5embot2os4rtos16messagequeue_newEh) for embot::os::rtos::messagequeue_new(unsigned char)
    embot_os_thread.o(.text._ZN5embot2os14CallbackThread5startERKNS1_6ConfigEPFvPvE) refers to embot_os_thread.o(.text._ZN5embot2os14CallbackThread4Impl22os_callbackdriven_loopEPv) for embot::os::CallbackThread::Impl::os_callbackdriven_loop(void*)
    embot_os_thread.o(.text._ZN5embot2os14CallbackThread5startERKNS1_6ConfigEPFvPvE) refers to embot_os_thread.o(.text._ZN5embot4core10tointegralINS_2os8PriorityEEEDaT_) for auto embot::core::tointegral<embot::os::Priority>(embot::os::Priority)
    embot_os_thread.o(.text._ZN5embot2os14CallbackThread5startERKNS1_6ConfigEPFvPvE) refers to embot_os_rtos.o(.text._ZN5embot2os4rtos14thread_props_t7prepareEPFvPvES3_ht) for embot::os::rtos::thread_props_t::prepare(void (*)(void*), void*, unsigned char, unsigned short)
    embot_os_thread.o(.text._ZN5embot2os14CallbackThread5startERKNS1_6ConfigEPFvPvE) refers to embot_os_rtos.o(.text._ZN5embot2os4rtos10thread_newERNS1_14thread_props_tE) for embot::os::rtos::thread_new(embot::os::rtos::thread_props_t&)
    embot_os_thread.o(.text._ZN5embot2os14CallbackThread5startERKNS1_6ConfigEPFvPvE) refers to embot_os_rtos.o(.text._ZN5embot2os4rtos19scheduler_associateEPvPNS0_6ThreadE) for embot::os::rtos::scheduler_associate(void*, embot::os::Thread*)
    embot_os_thread.o(.ARM.exidx.text._ZN5embot2os14CallbackThread5startERKNS1_6ConfigEPFvPvE) refers to embot_os_thread.o(.text._ZN5embot2os14CallbackThread5startERKNS1_6ConfigEPFvPvE) for [Anonymous Symbol]
    embot_os_thread.o(.text._ZN5embot2os14CallbackThread3runEv) refers to embot_os_thread.o(.text._ZN5embot2os14CallbackThread4Impl22os_callbackdriven_loopEPv) for embot::os::CallbackThread::Impl::os_callbackdriven_loop(void*)
    embot_os_thread.o(.ARM.exidx.text._ZN5embot2os14CallbackThread3runEv) refers to embot_os_thread.o(.text._ZN5embot2os14CallbackThread3runEv) for [Anonymous Symbol]
    embot_os_thread.o(.text._ZN5embot2os14PeriodicThreadC2Ev) refers to embot_os_thread.o(.text._ZN5embot2os6ThreadC2Ev) for embot::os::Thread::Thread__sub_object()
    embot_os_thread.o(.text._ZN5embot2os14PeriodicThreadC2Ev) refers to embot_os_thread.o(.rodata._ZTVN5embot2os14PeriodicThreadE) for vtable for embot::os::PeriodicThread
    embot_os_thread.o(.text._ZN5embot2os14PeriodicThreadC2Ev) refers to embot_os_rtos.o(.text._Znwj) for operator new(unsigned int)
    embot_os_thread.o(.text._ZN5embot2os14PeriodicThreadC2Ev) refers to embot_os_thread.o(.text._ZN5embot2os14PeriodicThread4ImplC2EPS1_) for embot::os::PeriodicThread::Impl::Impl__sub_object(embot::os::PeriodicThread*)
    embot_os_thread.o(.ARM.exidx.text._ZN5embot2os14PeriodicThreadC2Ev) refers to embot_os_thread.o(.text._ZN5embot2os14PeriodicThreadC2Ev) for [Anonymous Symbol]
    embot_os_thread.o(.text._ZN5embot2os14PeriodicThreadD2Ev) refers to embot_os_thread.o(.rodata._ZTVN5embot2os14PeriodicThreadE) for vtable for embot::os::PeriodicThread
    embot_os_thread.o(.text._ZN5embot2os14PeriodicThreadD2Ev) refers to embot_os_thread.o(.text._ZN5embot2os14PeriodicThread4ImplD2Ev) for embot::os::PeriodicThread::Impl::~Impl__sub_object()
    embot_os_thread.o(.text._ZN5embot2os14PeriodicThreadD2Ev) refers to embot_os_rtos.o(.text._ZdlPv) for operator delete(void*)
    embot_os_thread.o(.text._ZN5embot2os14PeriodicThreadD2Ev) refers to embot_os_thread.o(.text._ZN5embot2os6ThreadD2Ev) for embot::os::Thread::~Thread__sub_object()
    embot_os_thread.o(.ARM.exidx.text._ZN5embot2os14PeriodicThreadD2Ev) refers to embot_os_thread.o(.text._ZN5embot2os14PeriodicThreadD2Ev) for [Anonymous Symbol]
    embot_os_thread.o(.text._ZN5embot2os14PeriodicThreadD0Ev) refers to embot_os_thread.o(.text._ZN5embot2os14PeriodicThreadD2Ev) for embot::os::PeriodicThread::~PeriodicThread__sub_object()
    embot_os_thread.o(.text._ZN5embot2os14PeriodicThreadD0Ev) refers to embot_os_rtos.o(.text._ZdlPv) for operator delete(void*)
    embot_os_thread.o(.ARM.exidx.text._ZN5embot2os14PeriodicThreadD0Ev) refers to embot_os_thread.o(.text._ZN5embot2os14PeriodicThreadD0Ev) for [Anonymous Symbol]
    embot_os_thread.o(.ARM.exidx.text._ZNK5embot2os14PeriodicThread7getTypeEv) refers to embot_os_thread.o(.text._ZNK5embot2os14PeriodicThread7getTypeEv) for [Anonymous Symbol]
    embot_os_thread.o(.ARM.exidx.text._ZNK5embot2os14PeriodicThread11getPriorityEv) refers to embot_os_thread.o(.text._ZNK5embot2os14PeriodicThread11getPriorityEv) for [Anonymous Symbol]
    embot_os_thread.o(.text._ZN5embot2os14PeriodicThread11setPriorityENS0_8PriorityE) refers to embot_os_thread.o(.text._ZN5embot4core10tointegralINS_2os8PriorityEEEDaT_) for auto embot::core::tointegral<embot::os::Priority>(embot::os::Priority)
    embot_os_thread.o(.text._ZN5embot2os14PeriodicThread11setPriorityENS0_8PriorityE) refers to embot_os_rtos.o(.text._ZN5embot2os4rtos14thread_props_t7setprioEh) for embot::os::rtos::thread_props_t::setprio(unsigned char)
    embot_os_thread.o(.text._ZN5embot2os14PeriodicThread11setPriorityENS0_8PriorityE) refers to embot_os_rtos.o(.text._ZN5embot2os4rtos18thread_setpriorityEPvNS0_8PriorityE) for embot::os::rtos::thread_setpriority(void*, embot::os::Priority)
    embot_os_thread.o(.ARM.exidx.text._ZN5embot2os14PeriodicThread11setPriorityENS0_8PriorityE) refers to embot_os_thread.o(.text._ZN5embot2os14PeriodicThread11setPriorityENS0_8PriorityE) for [Anonymous Symbol]
    embot_os_thread.o(.ARM.exidx.text._ZNK5embot2os14PeriodicThread7getNameEv) refers to embot_os_thread.o(.text._ZNK5embot2os14PeriodicThread7getNameEv) for [Anonymous Symbol]
    embot_os_thread.o(.ARM.exidx.text._ZN5embot2os14PeriodicThread8setEventEj) refers to embot_os_thread.o(.text._ZN5embot2os14PeriodicThread8setEventEj) for [Anonymous Symbol]
    embot_os_thread.o(.ARM.exidx.text._ZN5embot2os14PeriodicThread10setMessageEPvj) refers to embot_os_thread.o(.text._ZN5embot2os14PeriodicThread10setMessageEPvj) for [Anonymous Symbol]
    embot_os_thread.o(.ARM.exidx.text._ZN5embot2os14PeriodicThread11setCallbackERKNS_4core8CallbackEj) refers to embot_os_thread.o(.text._ZN5embot2os14PeriodicThread11setCallbackERKNS_4core8CallbackEj) for [Anonymous Symbol]
    embot_os_thread.o(.ARM.exidx.text._ZN5embot2os14PeriodicThread8setValueEjj) refers to embot_os_thread.o(.text._ZN5embot2os14PeriodicThread8setValueEjj) for [Anonymous Symbol]
    embot_os_thread.o(.text._ZN5embot2os14PeriodicThread5startERKNS1_6ConfigEPFvPvE) refers to embot_os_thread.o(.text._ZNK5embot2os14PeriodicThread6Config7isvalidEv) for embot::os::PeriodicThread::Config::isvalid() const
    embot_os_thread.o(.text._ZN5embot2os14PeriodicThread5startERKNS1_6ConfigEPFvPvE) refers to embot_os_thread.o(.text._ZN5embot2os14PeriodicThread4Impl16os_periodic_loopEPv) for embot::os::PeriodicThread::Impl::os_periodic_loop(void*)
    embot_os_thread.o(.text._ZN5embot2os14PeriodicThread5startERKNS1_6ConfigEPFvPvE) refers to embot_os_thread.o(.text._ZN5embot4core10tointegralINS_2os8PriorityEEEDaT_) for auto embot::core::tointegral<embot::os::Priority>(embot::os::Priority)
    embot_os_thread.o(.text._ZN5embot2os14PeriodicThread5startERKNS1_6ConfigEPFvPvE) refers to embot_os_rtos.o(.text._ZN5embot2os4rtos14thread_props_t7prepareEPFvPvES3_ht) for embot::os::rtos::thread_props_t::prepare(void (*)(void*), void*, unsigned char, unsigned short)
    embot_os_thread.o(.text._ZN5embot2os14PeriodicThread5startERKNS1_6ConfigEPFvPvE) refers to embot_os_rtos.o(.text._ZN5embot2os4rtos10thread_newERNS1_14thread_props_tE) for embot::os::rtos::thread_new(embot::os::rtos::thread_props_t&)
    embot_os_thread.o(.text._ZN5embot2os14PeriodicThread5startERKNS1_6ConfigEPFvPvE) refers to embot_os_rtos.o(.text._ZN5embot2os4rtos19scheduler_associateEPvPNS0_6ThreadE) for embot::os::rtos::scheduler_associate(void*, embot::os::Thread*)
    embot_os_thread.o(.ARM.exidx.text._ZN5embot2os14PeriodicThread5startERKNS1_6ConfigEPFvPvE) refers to embot_os_thread.o(.text._ZN5embot2os14PeriodicThread5startERKNS1_6ConfigEPFvPvE) for [Anonymous Symbol]
    embot_os_thread.o(.text._ZN5embot2os14PeriodicThread3runEv) refers to embot_os_thread.o(.text._ZN5embot2os14PeriodicThread4Impl16os_periodic_loopEPv) for embot::os::PeriodicThread::Impl::os_periodic_loop(void*)
    embot_os_thread.o(.ARM.exidx.text._ZN5embot2os14PeriodicThread3runEv) refers to embot_os_thread.o(.text._ZN5embot2os14PeriodicThread3runEv) for [Anonymous Symbol]
    embot_os_thread.o(.rodata._ZTVN5embot2os10InitThreadE) refers to embot_os_thread.o(.text._ZNK5embot2os10InitThread7getTypeEv) for embot::os::InitThread::getType() const
    embot_os_thread.o(.rodata._ZTVN5embot2os10InitThreadE) refers to embot_os_thread.o(.text._ZNK5embot2os10InitThread11getPriorityEv) for embot::os::InitThread::getPriority() const
    embot_os_thread.o(.rodata._ZTVN5embot2os10InitThreadE) refers to embot_os_thread.o(.text._ZN5embot2os10InitThread11setPriorityENS0_8PriorityE) for embot::os::InitThread::setPriority(embot::os::Priority)
    embot_os_thread.o(.rodata._ZTVN5embot2os10InitThreadE) refers to embot_os_thread.o(.text._ZNK5embot2os10InitThread7getNameEv) for embot::os::InitThread::getName() const
    embot_os_thread.o(.rodata._ZTVN5embot2os10InitThreadE) refers to embot_os_thread.o(.text._ZN5embot2os10InitThread3runEv) for embot::os::InitThread::run()
    embot_os_thread.o(.rodata._ZTVN5embot2os10InitThreadE) refers to embot_os_thread.o(.text._ZN5embot2os10InitThread8setEventEj) for embot::os::InitThread::setEvent(unsigned int)
    embot_os_thread.o(.rodata._ZTVN5embot2os10InitThreadE) refers to embot_os_thread.o(.text._ZN5embot2os10InitThread10setMessageEPvj) for embot::os::InitThread::setMessage(void*, unsigned int)
    embot_os_thread.o(.rodata._ZTVN5embot2os10InitThreadE) refers to embot_os_thread.o(.text._ZN5embot2os10InitThread8setValueEjj) for embot::os::InitThread::setValue(unsigned int, unsigned int)
    embot_os_thread.o(.rodata._ZTVN5embot2os10InitThreadE) refers to embot_os_thread.o(.text._ZN5embot2os10InitThread11setCallbackERKNS_4core8CallbackEj) for embot::os::InitThread::setCallback(embot::core::Callback const&, unsigned int)
    embot_os_thread.o(.rodata._ZTVN5embot2os10InitThreadE) refers to embot_os_thread.o(.text._ZN5embot2os10InitThreadD2Ev) for embot::os::InitThread::~InitThread__sub_object()
    embot_os_thread.o(.rodata._ZTVN5embot2os10InitThreadE) refers to embot_os_thread.o(.text._ZN5embot2os10InitThreadD0Ev) for embot::os::InitThread::~InitThread__deallocating()
    embot_os_thread.o(.rodata._ZTVN5embot2os10IdleThreadE) refers to embot_os_thread.o(.text._ZNK5embot2os10IdleThread7getTypeEv) for embot::os::IdleThread::getType() const
    embot_os_thread.o(.rodata._ZTVN5embot2os10IdleThreadE) refers to embot_os_thread.o(.text._ZNK5embot2os10IdleThread11getPriorityEv) for embot::os::IdleThread::getPriority() const
    embot_os_thread.o(.rodata._ZTVN5embot2os10IdleThreadE) refers to embot_os_thread.o(.text._ZN5embot2os10IdleThread11setPriorityENS0_8PriorityE) for embot::os::IdleThread::setPriority(embot::os::Priority)
    embot_os_thread.o(.rodata._ZTVN5embot2os10IdleThreadE) refers to embot_os_thread.o(.text._ZNK5embot2os10IdleThread7getNameEv) for embot::os::IdleThread::getName() const
    embot_os_thread.o(.rodata._ZTVN5embot2os10IdleThreadE) refers to embot_os_thread.o(.text._ZN5embot2os10IdleThread3runEv) for embot::os::IdleThread::run()
    embot_os_thread.o(.rodata._ZTVN5embot2os10IdleThreadE) refers to embot_os_thread.o(.text._ZN5embot2os10IdleThread8setEventEj) for embot::os::IdleThread::setEvent(unsigned int)
    embot_os_thread.o(.rodata._ZTVN5embot2os10IdleThreadE) refers to embot_os_thread.o(.text._ZN5embot2os10IdleThread10setMessageEPvj) for embot::os::IdleThread::setMessage(void*, unsigned int)
    embot_os_thread.o(.rodata._ZTVN5embot2os10IdleThreadE) refers to embot_os_thread.o(.text._ZN5embot2os10IdleThread8setValueEjj) for embot::os::IdleThread::setValue(unsigned int, unsigned int)
    embot_os_thread.o(.rodata._ZTVN5embot2os10IdleThreadE) refers to embot_os_thread.o(.text._ZN5embot2os10IdleThread11setCallbackERKNS_4core8CallbackEj) for embot::os::IdleThread::setCallback(embot::core::Callback const&, unsigned int)
    embot_os_thread.o(.rodata._ZTVN5embot2os10IdleThreadE) refers to embot_os_thread.o(.text._ZN5embot2os10IdleThreadD2Ev) for embot::os::IdleThread::~IdleThread__sub_object()
    embot_os_thread.o(.rodata._ZTVN5embot2os10IdleThreadE) refers to embot_os_thread.o(.text._ZN5embot2os10IdleThreadD0Ev) for embot::os::IdleThread::~IdleThread__deallocating()
    embot_os_thread.o(.rodata._ZTVN5embot2os11EventThreadE) refers to embot_os_thread.o(.text._ZNK5embot2os11EventThread7getTypeEv) for embot::os::EventThread::getType() const
    embot_os_thread.o(.rodata._ZTVN5embot2os11EventThreadE) refers to embot_os_thread.o(.text._ZNK5embot2os11EventThread11getPriorityEv) for embot::os::EventThread::getPriority() const
    embot_os_thread.o(.rodata._ZTVN5embot2os11EventThreadE) refers to embot_os_thread.o(.text._ZN5embot2os11EventThread11setPriorityENS0_8PriorityE) for embot::os::EventThread::setPriority(embot::os::Priority)
    embot_os_thread.o(.rodata._ZTVN5embot2os11EventThreadE) refers to embot_os_thread.o(.text._ZNK5embot2os11EventThread7getNameEv) for embot::os::EventThread::getName() const
    embot_os_thread.o(.rodata._ZTVN5embot2os11EventThreadE) refers to embot_os_thread.o(.text._ZN5embot2os11EventThread3runEv) for embot::os::EventThread::run()
    embot_os_thread.o(.rodata._ZTVN5embot2os11EventThreadE) refers to embot_os_thread.o(.text._ZN5embot2os11EventThread8setEventEj) for embot::os::EventThread::setEvent(unsigned int)
    embot_os_thread.o(.rodata._ZTVN5embot2os11EventThreadE) refers to embot_os_thread.o(.text._ZN5embot2os11EventThread10setMessageEPvj) for embot::os::EventThread::setMessage(void*, unsigned int)
    embot_os_thread.o(.rodata._ZTVN5embot2os11EventThreadE) refers to embot_os_thread.o(.text._ZN5embot2os11EventThread8setValueEjj) for embot::os::EventThread::setValue(unsigned int, unsigned int)
    embot_os_thread.o(.rodata._ZTVN5embot2os11EventThreadE) refers to embot_os_thread.o(.text._ZN5embot2os11EventThread11setCallbackERKNS_4core8CallbackEj) for embot::os::EventThread::setCallback(embot::core::Callback const&, unsigned int)
    embot_os_thread.o(.rodata._ZTVN5embot2os11EventThreadE) refers to embot_os_thread.o(.text._ZN5embot2os11EventThreadD2Ev) for embot::os::EventThread::~EventThread__sub_object()
    embot_os_thread.o(.rodata._ZTVN5embot2os11EventThreadE) refers to embot_os_thread.o(.text._ZN5embot2os11EventThreadD0Ev) for embot::os::EventThread::~EventThread__deallocating()
    embot_os_thread.o(.rodata._ZTVN5embot2os13MessageThreadE) refers to embot_os_thread.o(.text._ZNK5embot2os13MessageThread7getTypeEv) for embot::os::MessageThread::getType() const
    embot_os_thread.o(.rodata._ZTVN5embot2os13MessageThreadE) refers to embot_os_thread.o(.text._ZNK5embot2os13MessageThread11getPriorityEv) for embot::os::MessageThread::getPriority() const
    embot_os_thread.o(.rodata._ZTVN5embot2os13MessageThreadE) refers to embot_os_thread.o(.text._ZN5embot2os13MessageThread11setPriorityENS0_8PriorityE) for embot::os::MessageThread::setPriority(embot::os::Priority)
    embot_os_thread.o(.rodata._ZTVN5embot2os13MessageThreadE) refers to embot_os_thread.o(.text._ZNK5embot2os13MessageThread7getNameEv) for embot::os::MessageThread::getName() const
    embot_os_thread.o(.rodata._ZTVN5embot2os13MessageThreadE) refers to embot_os_thread.o(.text._ZN5embot2os13MessageThread3runEv) for embot::os::MessageThread::run()
    embot_os_thread.o(.rodata._ZTVN5embot2os13MessageThreadE) refers to embot_os_thread.o(.text._ZN5embot2os13MessageThread8setEventEj) for embot::os::MessageThread::setEvent(unsigned int)
    embot_os_thread.o(.rodata._ZTVN5embot2os13MessageThreadE) refers to embot_os_thread.o(.text._ZN5embot2os13MessageThread10setMessageEPvj) for embot::os::MessageThread::setMessage(void*, unsigned int)
    embot_os_thread.o(.rodata._ZTVN5embot2os13MessageThreadE) refers to embot_os_thread.o(.text._ZN5embot2os13MessageThread8setValueEjj) for embot::os::MessageThread::setValue(unsigned int, unsigned int)
    embot_os_thread.o(.rodata._ZTVN5embot2os13MessageThreadE) refers to embot_os_thread.o(.text._ZN5embot2os13MessageThread11setCallbackERKNS_4core8CallbackEj) for embot::os::MessageThread::setCallback(embot::core::Callback const&, unsigned int)
    embot_os_thread.o(.rodata._ZTVN5embot2os13MessageThreadE) refers to embot_os_thread.o(.text._ZN5embot2os13MessageThreadD2Ev) for embot::os::MessageThread::~MessageThread__sub_object()
    embot_os_thread.o(.rodata._ZTVN5embot2os13MessageThreadE) refers to embot_os_thread.o(.text._ZN5embot2os13MessageThreadD0Ev) for embot::os::MessageThread::~MessageThread__deallocating()
    embot_os_thread.o(.rodata._ZTVN5embot2os11ValueThreadE) refers to embot_os_thread.o(.text._ZNK5embot2os11ValueThread7getTypeEv) for embot::os::ValueThread::getType() const
    embot_os_thread.o(.rodata._ZTVN5embot2os11ValueThreadE) refers to embot_os_thread.o(.text._ZNK5embot2os11ValueThread11getPriorityEv) for embot::os::ValueThread::getPriority() const
    embot_os_thread.o(.rodata._ZTVN5embot2os11ValueThreadE) refers to embot_os_thread.o(.text._ZN5embot2os11ValueThread11setPriorityENS0_8PriorityE) for embot::os::ValueThread::setPriority(embot::os::Priority)
    embot_os_thread.o(.rodata._ZTVN5embot2os11ValueThreadE) refers to embot_os_thread.o(.text._ZNK5embot2os11ValueThread7getNameEv) for embot::os::ValueThread::getName() const
    embot_os_thread.o(.rodata._ZTVN5embot2os11ValueThreadE) refers to embot_os_thread.o(.text._ZN5embot2os11ValueThread3runEv) for embot::os::ValueThread::run()
    embot_os_thread.o(.rodata._ZTVN5embot2os11ValueThreadE) refers to embot_os_thread.o(.text._ZN5embot2os11ValueThread8setEventEj) for embot::os::ValueThread::setEvent(unsigned int)
    embot_os_thread.o(.rodata._ZTVN5embot2os11ValueThreadE) refers to embot_os_thread.o(.text._ZN5embot2os11ValueThread10setMessageEPvj) for embot::os::ValueThread::setMessage(void*, unsigned int)
    embot_os_thread.o(.rodata._ZTVN5embot2os11ValueThreadE) refers to embot_os_thread.o(.text._ZN5embot2os11ValueThread8setValueEjj) for embot::os::ValueThread::setValue(unsigned int, unsigned int)
    embot_os_thread.o(.rodata._ZTVN5embot2os11ValueThreadE) refers to embot_os_thread.o(.text._ZN5embot2os11ValueThread11setCallbackERKNS_4core8CallbackEj) for embot::os::ValueThread::setCallback(embot::core::Callback const&, unsigned int)
    embot_os_thread.o(.rodata._ZTVN5embot2os11ValueThreadE) refers to embot_os_thread.o(.text._ZN5embot2os11ValueThreadD2Ev) for embot::os::ValueThread::~ValueThread__sub_object()
    embot_os_thread.o(.rodata._ZTVN5embot2os11ValueThreadE) refers to embot_os_thread.o(.text._ZN5embot2os11ValueThreadD0Ev) for embot::os::ValueThread::~ValueThread__deallocating()
    embot_os_thread.o(.rodata._ZTVN5embot2os14CallbackThreadE) refers to embot_os_thread.o(.text._ZNK5embot2os14CallbackThread7getTypeEv) for embot::os::CallbackThread::getType() const
    embot_os_thread.o(.rodata._ZTVN5embot2os14CallbackThreadE) refers to embot_os_thread.o(.text._ZNK5embot2os14CallbackThread11getPriorityEv) for embot::os::CallbackThread::getPriority() const
    embot_os_thread.o(.rodata._ZTVN5embot2os14CallbackThreadE) refers to embot_os_thread.o(.text._ZN5embot2os14CallbackThread11setPriorityENS0_8PriorityE) for embot::os::CallbackThread::setPriority(embot::os::Priority)
    embot_os_thread.o(.rodata._ZTVN5embot2os14CallbackThreadE) refers to embot_os_thread.o(.text._ZNK5embot2os14CallbackThread7getNameEv) for embot::os::CallbackThread::getName() const
    embot_os_thread.o(.rodata._ZTVN5embot2os14CallbackThreadE) refers to embot_os_thread.o(.text._ZN5embot2os14CallbackThread3runEv) for embot::os::CallbackThread::run()
    embot_os_thread.o(.rodata._ZTVN5embot2os14CallbackThreadE) refers to embot_os_thread.o(.text._ZN5embot2os14CallbackThread8setEventEj) for embot::os::CallbackThread::setEvent(unsigned int)
    embot_os_thread.o(.rodata._ZTVN5embot2os14CallbackThreadE) refers to embot_os_thread.o(.text._ZN5embot2os14CallbackThread10setMessageEPvj) for embot::os::CallbackThread::setMessage(void*, unsigned int)
    embot_os_thread.o(.rodata._ZTVN5embot2os14CallbackThreadE) refers to embot_os_thread.o(.text._ZN5embot2os14CallbackThread8setValueEjj) for embot::os::CallbackThread::setValue(unsigned int, unsigned int)
    embot_os_thread.o(.rodata._ZTVN5embot2os14CallbackThreadE) refers to embot_os_thread.o(.text._ZN5embot2os14CallbackThread11setCallbackERKNS_4core8CallbackEj) for embot::os::CallbackThread::setCallback(embot::core::Callback const&, unsigned int)
    embot_os_thread.o(.rodata._ZTVN5embot2os14CallbackThreadE) refers to embot_os_thread.o(.text._ZN5embot2os14CallbackThreadD2Ev) for embot::os::CallbackThread::~CallbackThread__sub_object()
    embot_os_thread.o(.rodata._ZTVN5embot2os14CallbackThreadE) refers to embot_os_thread.o(.text._ZN5embot2os14CallbackThreadD0Ev) for embot::os::CallbackThread::~CallbackThread__deallocating()
    embot_os_thread.o(.rodata._ZTVN5embot2os14PeriodicThreadE) refers to embot_os_thread.o(.text._ZNK5embot2os14PeriodicThread7getTypeEv) for embot::os::PeriodicThread::getType() const
    embot_os_thread.o(.rodata._ZTVN5embot2os14PeriodicThreadE) refers to embot_os_thread.o(.text._ZNK5embot2os14PeriodicThread11getPriorityEv) for embot::os::PeriodicThread::getPriority() const
    embot_os_thread.o(.rodata._ZTVN5embot2os14PeriodicThreadE) refers to embot_os_thread.o(.text._ZN5embot2os14PeriodicThread11setPriorityENS0_8PriorityE) for embot::os::PeriodicThread::setPriority(embot::os::Priority)
    embot_os_thread.o(.rodata._ZTVN5embot2os14PeriodicThreadE) refers to embot_os_thread.o(.text._ZNK5embot2os14PeriodicThread7getNameEv) for embot::os::PeriodicThread::getName() const
    embot_os_thread.o(.rodata._ZTVN5embot2os14PeriodicThreadE) refers to embot_os_thread.o(.text._ZN5embot2os14PeriodicThread3runEv) for embot::os::PeriodicThread::run()
    embot_os_thread.o(.rodata._ZTVN5embot2os14PeriodicThreadE) refers to embot_os_thread.o(.text._ZN5embot2os14PeriodicThread8setEventEj) for embot::os::PeriodicThread::setEvent(unsigned int)
    embot_os_thread.o(.rodata._ZTVN5embot2os14PeriodicThreadE) refers to embot_os_thread.o(.text._ZN5embot2os14PeriodicThread10setMessageEPvj) for embot::os::PeriodicThread::setMessage(void*, unsigned int)
    embot_os_thread.o(.rodata._ZTVN5embot2os14PeriodicThreadE) refers to embot_os_thread.o(.text._ZN5embot2os14PeriodicThread8setValueEjj) for embot::os::PeriodicThread::setValue(unsigned int, unsigned int)
    embot_os_thread.o(.rodata._ZTVN5embot2os14PeriodicThreadE) refers to embot_os_thread.o(.text._ZN5embot2os14PeriodicThread11setCallbackERKNS_4core8CallbackEj) for embot::os::PeriodicThread::setCallback(embot::core::Callback const&, unsigned int)
    embot_os_thread.o(.rodata._ZTVN5embot2os14PeriodicThreadE) refers to embot_os_thread.o(.text._ZN5embot2os14PeriodicThreadD2Ev) for embot::os::PeriodicThread::~PeriodicThread__sub_object()
    embot_os_thread.o(.rodata._ZTVN5embot2os14PeriodicThreadE) refers to embot_os_thread.o(.text._ZN5embot2os14PeriodicThreadD0Ev) for embot::os::PeriodicThread::~PeriodicThread__deallocating()
    embot_os_thecallbackmanager.o(.text._ZN5embot2os18theCallbackManager11getInstanceEv) refers to embot_os_thecallbackmanager.o(.bss._ZGVZN5embot2os18theCallbackManager11getInstanceEvE1p) for guard variable for embot::os::theCallbackManager::getInstance()::p
    embot_os_thecallbackmanager.o(.text._ZN5embot2os18theCallbackManager11getInstanceEv) refers to embot_os_thecallbackmanager.o(.bss._ZZN5embot2os18theCallbackManager11getInstanceEvE1p) for embot::os::theCallbackManager::getInstance()::p
    embot_os_thecallbackmanager.o(.text._ZN5embot2os18theCallbackManager11getInstanceEv) refers to cxa_guard.cpp.o(.text.unlikely.__cxa_guard_acquire) for __cxa_guard_acquire
    embot_os_thecallbackmanager.o(.text._ZN5embot2os18theCallbackManager11getInstanceEv) refers to embot_os_rtos.o(.text._Znwj) for operator new(unsigned int)
    embot_os_thecallbackmanager.o(.text._ZN5embot2os18theCallbackManager11getInstanceEv) refers to embot_os_thecallbackmanager.o(.text._ZN5embot2os18theCallbackManagerC2Ev) for embot::os::theCallbackManager::theCallbackManager__sub_object()
    embot_os_thecallbackmanager.o(.text._ZN5embot2os18theCallbackManager11getInstanceEv) refers to cxa_guard.cpp.o(.text.unlikely.__cxa_guard_release) for __cxa_guard_release
    embot_os_thecallbackmanager.o(.ARM.exidx.text._ZN5embot2os18theCallbackManager11getInstanceEv) refers to embot_os_thecallbackmanager.o(.text._ZN5embot2os18theCallbackManager11getInstanceEv) for [Anonymous Symbol]
    embot_os_thecallbackmanager.o(.text._ZN5embot2os18theCallbackManagerC2Ev) refers to embot_os_rtos.o(.text._Znwj) for operator new(unsigned int)
    embot_os_thecallbackmanager.o(.text._ZN5embot2os18theCallbackManagerC2Ev) refers to embot_os_thecallbackmanager.o(.text._ZN5embot2os18theCallbackManager4ImplC2Ev) for embot::os::theCallbackManager::Impl::Impl__sub_object()
    embot_os_thecallbackmanager.o(.text._ZN5embot2os18theCallbackManagerC2Ev) refers to embot_os_rtos.o(.text._ZdlPv) for operator delete(void*)
    embot_os_thecallbackmanager.o(.ARM.exidx.text._ZN5embot2os18theCallbackManagerC2Ev) refers to embot_os_thecallbackmanager.o(.text._ZN5embot2os18theCallbackManagerC2Ev) for [Anonymous Symbol]
    embot_os_thecallbackmanager.o(.text._ZN5embot2os18theCallbackManagerD2Ev) refers to embot_os_rtos.o(.text._ZdlPv) for operator delete(void*)
    embot_os_thecallbackmanager.o(.ARM.exidx.text._ZN5embot2os18theCallbackManagerD2Ev) refers to embot_os_thecallbackmanager.o(.text._ZN5embot2os18theCallbackManagerD2Ev) for [Anonymous Symbol]
    embot_os_thecallbackmanager.o(.ARM.exidx.text._Z7tCBKmanPv) refers to embot_os_thecallbackmanager.o(.text._Z7tCBKmanPv) for [Anonymous Symbol]
    embot_os_thecallbackmanager.o(.text._ZN5embot2os18theCallbackManager5startERKNS1_6ConfigE) refers to embot_os_thecallbackmanager.o(.text._ZNK5embot2os18theCallbackManager7startedEv) for embot::os::theCallbackManager::started() const
    embot_os_thecallbackmanager.o(.text._ZN5embot2os18theCallbackManager5startERKNS1_6ConfigE) refers to embot_os_rtos.o(.text._Znwj) for operator new(unsigned int)
    embot_os_thecallbackmanager.o(.text._ZN5embot2os18theCallbackManager5startERKNS1_6ConfigE) refers to embot_os_thread.o(.text._ZN5embot2os14CallbackThreadC2Ev) for embot::os::CallbackThread::CallbackThread()
    embot_os_thecallbackmanager.o(.text._ZN5embot2os18theCallbackManager5startERKNS1_6ConfigE) refers to embot_os_thecallbackmanager.o(.text._ZN5embot2os14CallbackThread6ConfigC2Ev) for embot::os::CallbackThread::Config::Config__sub_object()
    embot_os_thecallbackmanager.o(.text._ZN5embot2os18theCallbackManager5startERKNS1_6ConfigE) refers to embot_os_thecallbackmanager.o(.text._Z7tCBKmanPv) for tCBKman(void*)
    embot_os_thecallbackmanager.o(.text._ZN5embot2os18theCallbackManager5startERKNS1_6ConfigE) refers to embot_os_thread.o(.text._ZN5embot2os14CallbackThread5startERKNS1_6ConfigEPFvPvE) for embot::os::CallbackThread::start(embot::os::CallbackThread::Config const&, void (*)(void*))
    embot_os_thecallbackmanager.o(.ARM.exidx.text._ZN5embot2os18theCallbackManager5startERKNS1_6ConfigE) refers to embot_os_thecallbackmanager.o(.text._ZN5embot2os18theCallbackManager5startERKNS1_6ConfigE) for [Anonymous Symbol]
    embot_os_thecallbackmanager.o(.ARM.exidx.text._ZNK5embot2os18theCallbackManager7startedEv) refers to embot_os_thecallbackmanager.o(.text._ZNK5embot2os18theCallbackManager7startedEv) for [Anonymous Symbol]
    embot_os_thecallbackmanager.o(.ARM.exidx.text._ZNK5embot2os18theCallbackManager6threadEv) refers to embot_os_thecallbackmanager.o(.text._ZNK5embot2os18theCallbackManager6threadEv) for [Anonymous Symbol]
    embot_app_thejumper.o(.text._ZN5embot3app9theJumper11getInstanceEv) refers to embot_app_thejumper.o(.bss._ZGVZN5embot3app9theJumper11getInstanceEvE1p) for guard variable for embot::app::theJumper::getInstance()::p
    embot_app_thejumper.o(.text._ZN5embot3app9theJumper11getInstanceEv) refers to embot_app_thejumper.o(.bss._ZZN5embot3app9theJumper11getInstanceEvE1p) for embot::app::theJumper::getInstance()::p
    embot_app_thejumper.o(.text._ZN5embot3app9theJumper11getInstanceEv) refers to cxa_guard.cpp.o(.text.unlikely.__cxa_guard_acquire) for __cxa_guard_acquire
    embot_app_thejumper.o(.text._ZN5embot3app9theJumper11getInstanceEv) refers to embot_os_rtos.o(.text._Znwj) for operator new(unsigned int)
    embot_app_thejumper.o(.text._ZN5embot3app9theJumper11getInstanceEv) refers to embot_app_thejumper.o(.text._ZN5embot3app9theJumperC2Ev) for embot::app::theJumper::theJumper__sub_object()
    embot_app_thejumper.o(.text._ZN5embot3app9theJumper11getInstanceEv) refers to cxa_guard.cpp.o(.text.unlikely.__cxa_guard_release) for __cxa_guard_release
    embot_app_thejumper.o(.ARM.exidx.text._ZN5embot3app9theJumper11getInstanceEv) refers to embot_app_thejumper.o(.text._ZN5embot3app9theJumper11getInstanceEv) for [Anonymous Symbol]
    embot_app_thejumper.o(.text._ZN5embot3app9theJumperC2Ev) refers to embot_os_rtos.o(.text._Znwj) for operator new(unsigned int)
    embot_app_thejumper.o(.text._ZN5embot3app9theJumperC2Ev) refers to embot_app_thejumper.o(.text._ZN5embot3app9theJumper4ImplC2Ev) for embot::app::theJumper::Impl::Impl__sub_object()
    embot_app_thejumper.o(.text._ZN5embot3app9theJumperC2Ev) refers to embot_os_rtos.o(.text._ZdlPv) for operator delete(void*)
    embot_app_thejumper.o(.ARM.exidx.text._ZN5embot3app9theJumperC2Ev) refers to embot_app_thejumper.o(.text._ZN5embot3app9theJumperC2Ev) for [Anonymous Symbol]
    embot_app_thejumper.o(.text._ZN5embot3app9theJumperD2Ev) refers to embot_os_rtos.o(.text._ZdlPv) for operator delete(void*)
    embot_app_thejumper.o(.ARM.exidx.text._ZN5embot3app9theJumperD2Ev) refers to embot_app_thejumper.o(.text._ZN5embot3app9theJumperD2Ev) for [Anonymous Symbol]
    embot_app_thejumper.o(.text._ZN5embot3app9theJumper3getERj) refers to embot_app_thejumper.o(.ARM.__at_0x20000000) for s_nzi_ram
    embot_app_thejumper.o(.ARM.exidx.text._ZN5embot3app9theJumper3getERj) refers to embot_app_thejumper.o(.text._ZN5embot3app9theJumper3getERj) for [Anonymous Symbol]
    embot_app_thejumper.o(.text._ZN5embot3app9theJumper3setENS1_7CommandEj) refers to embot_app_thejumper.o(.ARM.__at_0x20000000) for s_nzi_ram
    embot_app_thejumper.o(.ARM.exidx.text._ZN5embot3app9theJumper3setENS1_7CommandEj) refers to embot_app_thejumper.o(.text._ZN5embot3app9theJumper3setENS1_7CommandEj) for [Anonymous Symbol]
    embot_app_thejumper.o(.text._ZN5embot3app9theJumper4jumpEj) refers to embot_hw_sys.o(.text._ZN5embot2hw3sys12jump2addressEj) for embot::hw::sys::jump2address(unsigned int)
    embot_app_thejumper.o(.ARM.exidx.text._ZN5embot3app9theJumper4jumpEj) refers to embot_app_thejumper.o(.text._ZN5embot3app9theJumper4jumpEj) for [Anonymous Symbol]
    embot_app_thejumper.o(.text._ZN5embot3app9theJumper7restartEv) refers to embot_hw_sys.o(.text._ZN5embot2hw3sys5resetEv) for embot::hw::sys::reset()
    embot_app_thejumper.o(.ARM.exidx.text._ZN5embot3app9theJumper7restartEv) refers to embot_app_thejumper.o(.text._ZN5embot3app9theJumper7restartEv) for [Anonymous Symbol]
    embot_os_thescheduler.o(.text._ZN5embot2os12theScheduler11getInstanceEv) refers to embot_os_thescheduler.o(.bss._ZGVZN5embot2os12theScheduler11getInstanceEvE1p) for guard variable for embot::os::theScheduler::getInstance()::p
    embot_os_thescheduler.o(.text._ZN5embot2os12theScheduler11getInstanceEv) refers to embot_os_thescheduler.o(.bss._ZZN5embot2os12theScheduler11getInstanceEvE1p) for embot::os::theScheduler::getInstance()::p
    embot_os_thescheduler.o(.text._ZN5embot2os12theScheduler11getInstanceEv) refers to cxa_guard.cpp.o(.text.unlikely.__cxa_guard_acquire) for __cxa_guard_acquire
    embot_os_thescheduler.o(.text._ZN5embot2os12theScheduler11getInstanceEv) refers to embot_os_rtos.o(.text._Znwj) for operator new(unsigned int)
    embot_os_thescheduler.o(.text._ZN5embot2os12theScheduler11getInstanceEv) refers to embot_os_thescheduler.o(.text._ZN5embot2os12theSchedulerC2Ev) for embot::os::theScheduler::theScheduler__sub_object()
    embot_os_thescheduler.o(.text._ZN5embot2os12theScheduler11getInstanceEv) refers to cxa_guard.cpp.o(.text.unlikely.__cxa_guard_release) for __cxa_guard_release
    embot_os_thescheduler.o(.ARM.exidx.text._ZN5embot2os12theScheduler11getInstanceEv) refers to embot_os_thescheduler.o(.text._ZN5embot2os12theScheduler11getInstanceEv) for [Anonymous Symbol]
    embot_os_thescheduler.o(.text._ZN5embot2os12theSchedulerC2Ev) refers to embot_os_rtos.o(.text._Znwj) for operator new(unsigned int)
    embot_os_thescheduler.o(.text._ZN5embot2os12theSchedulerC2Ev) refers to embot_os_thescheduler.o(.text._ZN5embot2os12theScheduler4ImplC2Ev) for embot::os::theScheduler::Impl::Impl__sub_object()
    embot_os_thescheduler.o(.text._ZN5embot2os12theSchedulerC2Ev) refers to embot_os_thescheduler.o(.text._ZN5embot2os12theScheduler4ImplD2Ev) for embot::os::theScheduler::Impl::~Impl__sub_object()
    embot_os_thescheduler.o(.text._ZN5embot2os12theSchedulerC2Ev) refers to embot_os_rtos.o(.text._ZdlPv) for operator delete(void*)
    embot_os_thescheduler.o(.ARM.exidx.text._ZN5embot2os12theSchedulerC2Ev) refers to embot_os_thescheduler.o(.text._ZN5embot2os12theSchedulerC2Ev) for [Anonymous Symbol]
    embot_os_thescheduler.o(.text._ZN5embot2os12theSchedulerD2Ev) refers to embot_os_thescheduler.o(.text._ZN5embot2os12theScheduler4ImplD2Ev) for embot::os::theScheduler::Impl::~Impl__sub_object()
    embot_os_thescheduler.o(.text._ZN5embot2os12theSchedulerD2Ev) refers to embot_os_rtos.o(.text._ZdlPv) for operator delete(void*)
    embot_os_thescheduler.o(.ARM.exidx.text._ZN5embot2os12theSchedulerD2Ev) refers to embot_os_thescheduler.o(.text._ZN5embot2os12theSchedulerD2Ev) for [Anonymous Symbol]
    embot_os_thescheduler.o(.text._ZN5embot2os12theScheduler5startERKNS1_6ConfigE) refers to embot_os_thescheduler.o(.text._ZNK5embot2os12theScheduler7startedEv) for embot::os::theScheduler::started() const
    embot_os_thescheduler.o(.text._ZN5embot2os12theScheduler5startERKNS1_6ConfigE) refers to embot_os_thescheduler.o(.text._ZN5embot2os12theScheduler4Impl5startERKNS1_6ConfigE) for embot::os::theScheduler::Impl::start(embot::os::theScheduler::Config const&)
    embot_os_thescheduler.o(.ARM.exidx.text._ZN5embot2os12theScheduler5startERKNS1_6ConfigE) refers to embot_os_thescheduler.o(.text._ZN5embot2os12theScheduler5startERKNS1_6ConfigE) for [Anonymous Symbol]
    embot_os_thescheduler.o(.ARM.exidx.text._ZNK5embot2os12theScheduler7startedEv) refers to embot_os_thescheduler.o(.text._ZNK5embot2os12theScheduler7startedEv) for [Anonymous Symbol]
    embot_os_thescheduler.o(.ARM.exidx.text._ZNK5embot2os12theScheduler8ticktimeEv) refers to embot_os_thescheduler.o(.text._ZNK5embot2os12theScheduler8ticktimeEv) for [Anonymous Symbol]
    embot_os_thescheduler.o(.text._ZNK5embot2os12theScheduler9scheduledEv) refers to embot_os_thescheduler.o(.text._ZN5embot2os12theScheduler4Impl11runningtaskEv) for embot::os::theScheduler::Impl::runningtask()
    embot_os_thescheduler.o(.ARM.exidx.text._ZNK5embot2os12theScheduler9scheduledEv) refers to embot_os_thescheduler.o(.text._ZNK5embot2os12theScheduler9scheduledEv) for [Anonymous Symbol]
    embot_os_thescheduler.o(.ARM.exidx.text._ZNK5embot2os12theScheduler10getOSerrorERi) refers to embot_os_thescheduler.o(.text._ZNK5embot2os12theScheduler10getOSerrorERi) for [Anonymous Symbol]
    embot_os_thetimermanager.o(.text._ZN5embot2os15theTimerManager11getInstanceEv) refers to embot_os_thetimermanager.o(.bss._ZGVZN5embot2os15theTimerManager11getInstanceEvE1p) for guard variable for embot::os::theTimerManager::getInstance()::p
    embot_os_thetimermanager.o(.text._ZN5embot2os15theTimerManager11getInstanceEv) refers to embot_os_thetimermanager.o(.bss._ZZN5embot2os15theTimerManager11getInstanceEvE1p) for embot::os::theTimerManager::getInstance()::p
    embot_os_thetimermanager.o(.text._ZN5embot2os15theTimerManager11getInstanceEv) refers to cxa_guard.cpp.o(.text.unlikely.__cxa_guard_acquire) for __cxa_guard_acquire
    embot_os_thetimermanager.o(.text._ZN5embot2os15theTimerManager11getInstanceEv) refers to embot_os_rtos.o(.text._Znwj) for operator new(unsigned int)
    embot_os_thetimermanager.o(.text._ZN5embot2os15theTimerManager11getInstanceEv) refers to embot_os_thetimermanager.o(.text._ZN5embot2os15theTimerManagerC2Ev) for embot::os::theTimerManager::theTimerManager__sub_object()
    embot_os_thetimermanager.o(.text._ZN5embot2os15theTimerManager11getInstanceEv) refers to cxa_guard.cpp.o(.text.unlikely.__cxa_guard_release) for __cxa_guard_release
    embot_os_thetimermanager.o(.ARM.exidx.text._ZN5embot2os15theTimerManager11getInstanceEv) refers to embot_os_thetimermanager.o(.text._ZN5embot2os15theTimerManager11getInstanceEv) for [Anonymous Symbol]
    embot_os_thetimermanager.o(.text._ZN5embot2os15theTimerManagerC2Ev) refers to embot_os_rtos.o(.text._Znwj) for operator new(unsigned int)
    embot_os_thetimermanager.o(.text._ZN5embot2os15theTimerManagerC2Ev) refers to embot_os_thetimermanager.o(.text._ZN5embot2os15theTimerManager4ImplC2Ev) for embot::os::theTimerManager::Impl::Impl__sub_object()
    embot_os_thetimermanager.o(.text._ZN5embot2os15theTimerManagerC2Ev) refers to embot_os_rtos.o(.text._ZdlPv) for operator delete(void*)
    embot_os_thetimermanager.o(.ARM.exidx.text._ZN5embot2os15theTimerManagerC2Ev) refers to embot_os_thetimermanager.o(.text._ZN5embot2os15theTimerManagerC2Ev) for [Anonymous Symbol]
    embot_os_thetimermanager.o(.text._ZN5embot2os15theTimerManagerD2Ev) refers to embot_os_rtos.o(.text._ZdlPv) for operator delete(void*)
    embot_os_thetimermanager.o(.ARM.exidx.text._ZN5embot2os15theTimerManagerD2Ev) refers to embot_os_thetimermanager.o(.text._ZN5embot2os15theTimerManagerD2Ev) for [Anonymous Symbol]
    embot_os_thetimermanager.o(.ARM.exidx.text._Z7tTMRmanPv) refers to embot_os_thetimermanager.o(.text._Z7tTMRmanPv) for [Anonymous Symbol]
    embot_os_thetimermanager.o(.text._ZN5embot2os15theTimerManager5startERKNS1_6ConfigE) refers to embot_os_thetimermanager.o(.text._ZNK5embot2os15theTimerManager7startedEv) for embot::os::theTimerManager::started() const
    embot_os_thetimermanager.o(.text._ZN5embot2os15theTimerManager5startERKNS1_6ConfigE) refers to embot_os_rtos.o(.text._Znwj) for operator new(unsigned int)
    embot_os_thetimermanager.o(.text._ZN5embot2os15theTimerManager5startERKNS1_6ConfigE) refers to embot_os_thread.o(.text._ZN5embot2os13MessageThreadC2Ev) for embot::os::MessageThread::MessageThread()
    embot_os_thetimermanager.o(.text._ZN5embot2os15theTimerManager5startERKNS1_6ConfigE) refers to embot_os_thetimermanager.o(.text._ZN5embot2os13MessageThread6ConfigC2Ev) for embot::os::MessageThread::Config::Config__sub_object()
    embot_os_thetimermanager.o(.text._ZN5embot2os15theTimerManager5startERKNS1_6ConfigE) refers to embot_os_thetimermanager.o(.text._ZN5embot2os15theTimerManager4Impl12processtimerEPNS0_6ThreadEPvS5_) for embot::os::theTimerManager::Impl::processtimer(embot::os::Thread*, void*, void*)
    embot_os_thetimermanager.o(.text._ZN5embot2os15theTimerManager5startERKNS1_6ConfigE) refers to embot_os_thetimermanager.o(.text._Z7tTMRmanPv) for tTMRman(void*)
    embot_os_thetimermanager.o(.text._ZN5embot2os15theTimerManager5startERKNS1_6ConfigE) refers to embot_os_thread.o(.text._ZN5embot2os13MessageThread5startERKNS1_6ConfigEPFvPvE) for embot::os::MessageThread::start(embot::os::MessageThread::Config const&, void (*)(void*))
    embot_os_thetimermanager.o(.ARM.exidx.text._ZN5embot2os15theTimerManager5startERKNS1_6ConfigE) refers to embot_os_thetimermanager.o(.text._ZN5embot2os15theTimerManager5startERKNS1_6ConfigE) for [Anonymous Symbol]
    embot_os_thetimermanager.o(.ARM.exidx.text._ZNK5embot2os15theTimerManager7startedEv) refers to embot_os_thetimermanager.o(.text._ZNK5embot2os15theTimerManager7startedEv) for [Anonymous Symbol]
    embot_os_thetimermanager.o(.ARM.exidx.text._ZN5embot2os15theTimerManager8onexpiryERKNS0_5TimerE) refers to embot_os_thetimermanager.o(.text._ZN5embot2os15theTimerManager8onexpiryERKNS0_5TimerE) for [Anonymous Symbol]
    embot_os_timer.o(.text._ZN5embot2os5TimerC2Ev) refers to embot_os_rtos.o(.text._Znwj) for operator new(unsigned int)
    embot_os_timer.o(.text._ZN5embot2os5TimerC2Ev) refers to embot_os_timer.o(.text._ZN5embot2os5Timer4ImplC2EPS1_) for embot::os::Timer::Impl::Impl__sub_object(embot::os::Timer*)
    embot_os_timer.o(.ARM.exidx.text._ZN5embot2os5TimerC2Ev) refers to embot_os_timer.o(.text._ZN5embot2os5TimerC2Ev) for [Anonymous Symbol]
    embot_os_timer.o(.text._ZN5embot2os5TimerD2Ev) refers to embot_os_timer.o(.text._ZN5embot2os5Timer4ImplD2Ev) for embot::os::Timer::Impl::~Impl__sub_object()
    embot_os_timer.o(.text._ZN5embot2os5TimerD2Ev) refers to embot_os_rtos.o(.text._ZdlPv) for operator delete(void*)
    embot_os_timer.o(.ARM.exidx.text._ZN5embot2os5TimerD2Ev) refers to embot_os_timer.o(.text._ZN5embot2os5TimerD2Ev) for [Anonymous Symbol]
    embot_os_timer.o(.text._ZN5embot2os5Timer5startERKNS1_6ConfigEb) refers to embot_os_timer.o(.text._ZN5embot2os10timertools3TMR5startERKNS0_5Timer6ConfigEb) for embot::os::timertools::TMR::start(embot::os::Timer::Config const&, bool)
    embot_os_timer.o(.ARM.exidx.text._ZN5embot2os5Timer5startERKNS1_6ConfigEb) refers to embot_os_timer.o(.text._ZN5embot2os5Timer5startERKNS1_6ConfigEb) for [Anonymous Symbol]
    embot_os_timer.o(.text._ZN5embot2os5Timer4loadERKNS1_6ConfigE) refers to embot_os_timer.o(.text._ZN5embot2os10timertools3TMR4loadERKNS0_5Timer6ConfigE) for embot::os::timertools::TMR::load(embot::os::Timer::Config const&)
    embot_os_timer.o(.ARM.exidx.text._ZN5embot2os5Timer4loadERKNS1_6ConfigE) refers to embot_os_timer.o(.text._ZN5embot2os5Timer4loadERKNS1_6ConfigE) for [Anonymous Symbol]
    embot_os_timer.o(.text._ZN5embot2os5Timer5startEv) refers to embot_os_timer.o(.text._ZN5embot2os10timertools3TMR5startEv) for embot::os::timertools::TMR::start()
    embot_os_timer.o(.ARM.exidx.text._ZN5embot2os5Timer5startEv) refers to embot_os_timer.o(.text._ZN5embot2os5Timer5startEv) for [Anonymous Symbol]
    embot_os_timer.o(.text._ZN5embot2os5Timer4stopEv) refers to embot_os_timer.o(.text._ZN5embot2os10timertools3TMR4stopEv) for embot::os::timertools::TMR::stop()
    embot_os_timer.o(.ARM.exidx.text._ZN5embot2os5Timer4stopEv) refers to embot_os_timer.o(.text._ZN5embot2os5Timer4stopEv) for [Anonymous Symbol]
    embot_os_timer.o(.text._ZNK5embot2os5Timer9getStatusEv) refers to embot_os_timer.o(.text._ZN5embot2os10timertools3TMR9getstatusEv) for embot::os::timertools::TMR::getstatus()
    embot_os_timer.o(.ARM.exidx.text._ZNK5embot2os5Timer9getStatusEv) refers to embot_os_timer.o(.text._ZNK5embot2os5Timer9getStatusEv) for [Anonymous Symbol]
    embot_os_timer.o(.ARM.exidx.text._ZNK5embot2os5Timer9getConfigEv) refers to embot_os_timer.o(.text._ZNK5embot2os5Timer9getConfigEv) for [Anonymous Symbol]
    embot_os_timer.o(.text._ZN5embot2os5Timer7executeEv) refers to embot_os_action.o(.text._ZN5embot2os6Action7executeEj) for embot::os::Action::execute(unsigned int)
    embot_os_timer.o(.text._ZN5embot2os5Timer7executeEv) refers to embot_os_timer.o(.text._ZN5embot2os10timertools3TMR5resetENS0_5Timer6StatusEb) for embot::os::timertools::TMR::reset(embot::os::Timer::Status, bool)
    embot_os_timer.o(.ARM.exidx.text._ZN5embot2os5Timer7executeEv) refers to embot_os_timer.o(.text._ZN5embot2os5Timer7executeEv) for [Anonymous Symbol]
    embot_os_action.o(.ARM.exidx.text._ZNK5embot2os13EventToThread7isvalidEv) refers to embot_os_action.o(.text._ZNK5embot2os13EventToThread7isvalidEv) for [Anonymous Symbol]
    embot_os_action.o(.text._ZN5embot2os13EventToThread7executeEv) refers to embot_os_action.o(.text._ZNK5embot2os13EventToThread7isvalidEv) for embot::os::EventToThread::isvalid() const
    embot_os_action.o(.ARM.exidx.text._ZN5embot2os13EventToThread7executeEv) refers to embot_os_action.o(.text._ZN5embot2os13EventToThread7executeEv) for [Anonymous Symbol]
    embot_os_action.o(.ARM.exidx.text._ZNK5embot2os15MessageToThread7isvalidEv) refers to embot_os_action.o(.text._ZNK5embot2os15MessageToThread7isvalidEv) for [Anonymous Symbol]
    embot_os_action.o(.text._ZN5embot2os15MessageToThread7executeEj) refers to embot_os_action.o(.text._ZNK5embot2os15MessageToThread7isvalidEv) for embot::os::MessageToThread::isvalid() const
    embot_os_action.o(.ARM.exidx.text._ZN5embot2os15MessageToThread7executeEj) refers to embot_os_action.o(.text._ZN5embot2os15MessageToThread7executeEj) for [Anonymous Symbol]
    embot_os_action.o(.ARM.exidx.text._ZNK5embot2os13ValueToThread7isvalidEv) refers to embot_os_action.o(.text._ZNK5embot2os13ValueToThread7isvalidEv) for [Anonymous Symbol]
    embot_os_action.o(.text._ZN5embot2os13ValueToThread7executeEj) refers to embot_os_action.o(.text._ZNK5embot2os13ValueToThread7isvalidEv) for embot::os::ValueToThread::isvalid() const
    embot_os_action.o(.ARM.exidx.text._ZN5embot2os13ValueToThread7executeEj) refers to embot_os_action.o(.text._ZN5embot2os13ValueToThread7executeEj) for [Anonymous Symbol]
    embot_os_action.o(.text._ZNK5embot2os16CallbackToThread7isvalidEv) refers to embot_hw_can.o(.text._ZNK5embot4core8Callback7isvalidEv) for embot::core::Callback::isvalid() const
    embot_os_action.o(.ARM.exidx.text._ZNK5embot2os16CallbackToThread7isvalidEv) refers to embot_os_action.o(.text._ZNK5embot2os16CallbackToThread7isvalidEv) for [Anonymous Symbol]
    embot_os_action.o(.text._ZN5embot2os16CallbackToThread7executeEj) refers to embot_os_action.o(.text._ZNK5embot2os16CallbackToThread7isvalidEv) for embot::os::CallbackToThread::isvalid() const
    embot_os_action.o(.text._ZN5embot2os16CallbackToThread7executeEj) refers to embot_hw_can.o(.text._ZNK5embot4core8Callback7executeEv) for embot::core::Callback::execute() const
    embot_os_action.o(.ARM.exidx.text._ZN5embot2os16CallbackToThread7executeEj) refers to embot_os_action.o(.text._ZN5embot2os16CallbackToThread7executeEj) for [Anonymous Symbol]
    embot_os_action.o(.ARM.exidx.text._ZN5embot2os6Action4loadERKNS0_13EventToThreadE) refers to embot_os_action.o(.text._ZN5embot2os6Action4loadERKNS0_13EventToThreadE) for [Anonymous Symbol]
    embot_os_action.o(.ARM.exidx.text._ZN5embot2os6Action4loadERKNS0_15MessageToThreadE) refers to embot_os_action.o(.text._ZN5embot2os6Action4loadERKNS0_15MessageToThreadE) for [Anonymous Symbol]
    embot_os_action.o(.ARM.exidx.text._ZN5embot2os6Action4loadERKNS0_13ValueToThreadE) refers to embot_os_action.o(.text._ZN5embot2os6Action4loadERKNS0_13ValueToThreadE) for [Anonymous Symbol]
    embot_os_action.o(.ARM.exidx.text._ZN5embot2os6Action4loadERKNS0_16CallbackToThreadE) refers to embot_os_action.o(.text._ZN5embot2os6Action4loadERKNS0_16CallbackToThreadE) for [Anonymous Symbol]
    embot_os_action.o(.text._ZNK5embot2os6Action7isvalidEv) refers to embot_os_action.o(.text._ZNK5embot2os13EventToThread7isvalidEv) for embot::os::EventToThread::isvalid() const
    embot_os_action.o(.text._ZNK5embot2os6Action7isvalidEv) refers to embot_os_action.o(.text._ZNK5embot2os15MessageToThread7isvalidEv) for embot::os::MessageToThread::isvalid() const
    embot_os_action.o(.text._ZNK5embot2os6Action7isvalidEv) refers to embot_os_action.o(.text._ZNK5embot2os16CallbackToThread7isvalidEv) for embot::os::CallbackToThread::isvalid() const
    embot_os_action.o(.text._ZNK5embot2os6Action7isvalidEv) refers to embot_os_action.o(.text._ZNK5embot2os13ValueToThread7isvalidEv) for embot::os::ValueToThread::isvalid() const
    embot_os_action.o(.ARM.exidx.text._ZNK5embot2os6Action7isvalidEv) refers to embot_os_action.o(.text._ZNK5embot2os6Action7isvalidEv) for [Anonymous Symbol]
    embot_os_action.o(.text._ZN5embot2os6Action7executeEj) refers to embot_os_action.o(.text._ZNK5embot2os6Action7isvalidEv) for embot::os::Action::isvalid() const
    embot_os_action.o(.text._ZN5embot2os6Action7executeEj) refers to embot_os_action.o(.text._ZN5embot2os13EventToThread7executeEv) for embot::os::EventToThread::execute()
    embot_os_action.o(.text._ZN5embot2os6Action7executeEj) refers to embot_os_action.o(.text._ZN5embot2os15MessageToThread7executeEj) for embot::os::MessageToThread::execute(unsigned int)
    embot_os_action.o(.text._ZN5embot2os6Action7executeEj) refers to embot_os_action.o(.text._ZN5embot2os16CallbackToThread7executeEj) for embot::os::CallbackToThread::execute(unsigned int)
    embot_os_action.o(.text._ZN5embot2os6Action7executeEj) refers to embot_os_action.o(.text._ZN5embot2os13ValueToThread7executeEj) for embot::os::ValueToThread::execute(unsigned int)
    embot_os_action.o(.ARM.exidx.text._ZN5embot2os6Action7executeEj) refers to embot_os_action.o(.text._ZN5embot2os6Action7executeEj) for [Anonymous Symbol]
    embot_os_rtos.o(.text._ZN5embot2os4rtos14thread_props_tC2Ev) refers to embot_os_rtos.o(.text._Znwj) for operator new(unsigned int)
    embot_os_rtos.o(.text._ZN5embot2os4rtos14thread_props_tC2Ev) refers to embot_os_rtos.o(.text._ZN5embot2os4rtos14thread_props_t4ImplC2Ev) for embot::os::rtos::thread_props_t::Impl::Impl__sub_object()
    embot_os_rtos.o(.ARM.exidx.text._ZN5embot2os4rtos14thread_props_tC2Ev) refers to embot_os_rtos.o(.text._ZN5embot2os4rtos14thread_props_tC2Ev) for [Anonymous Symbol]
    embot_os_rtos.o(.text._Znwj) refers to osal-oosiit.o(i.osal_base_memory_new) for osal_base_memory_new
    embot_os_rtos.o(.ARM.exidx.text._Znwj) refers to embot_os_rtos.o(.text._Znwj) for [Anonymous Symbol]
    embot_os_rtos.o(.text._ZN5embot2os4rtos14thread_props_tD2Ev) refers to embot_os_rtos.o(.text._ZN5embot2os4rtos14thread_props_t4ImplD2Ev) for embot::os::rtos::thread_props_t::Impl::~Impl__sub_object()
    embot_os_rtos.o(.text._ZN5embot2os4rtos14thread_props_tD2Ev) refers to embot_os_rtos.o(.text._ZdlPv) for operator delete(void*)
    embot_os_rtos.o(.ARM.exidx.text._ZN5embot2os4rtos14thread_props_tD2Ev) refers to embot_os_rtos.o(.text._ZN5embot2os4rtos14thread_props_tD2Ev) for [Anonymous Symbol]
    embot_os_rtos.o(.text._ZdlPv) refers to osal-oosiit.o(i.osal_base_memory_del) for osal_base_memory_del
    embot_os_rtos.o(.ARM.exidx.text._ZdlPv) refers to embot_os_rtos.o(.text._ZdlPv) for [Anonymous Symbol]
    embot_os_rtos.o(.text._ZN5embot2os4rtos14thread_props_t7prepareEPFvPvES3_ht) refers to embot_os_rtos.o(.text._ZN5embot2os4rtos14thread_props_t4Impl7prepareEPFvPvES4_ht) for embot::os::rtos::thread_props_t::Impl::prepare(void (*)(void*), void*, unsigned char, unsigned short)
    embot_os_rtos.o(.ARM.exidx.text._ZN5embot2os4rtos14thread_props_t7prepareEPFvPvES3_ht) refers to embot_os_rtos.o(.text._ZN5embot2os4rtos14thread_props_t7prepareEPFvPvES3_ht) for [Anonymous Symbol]
    embot_os_rtos.o(.text._ZN5embot2os4rtos14thread_props_t7setprioEh) refers to embot_os_rtos.o(.text._ZN5embot2os4rtos14thread_props_t4Impl7setprioEh) for embot::os::rtos::thread_props_t::Impl::setprio(unsigned char)
    embot_os_rtos.o(.ARM.exidx.text._ZN5embot2os4rtos14thread_props_t7setprioEh) refers to embot_os_rtos.o(.text._ZN5embot2os4rtos14thread_props_t7setprioEh) for [Anonymous Symbol]
    embot_os_rtos.o(.ARM.exidx.text._ZN5embot2os4rtos14thread_props_t12getInternalsEv) refers to embot_os_rtos.o(.text._ZN5embot2os4rtos14thread_props_t12getInternalsEv) for [Anonymous Symbol]
    embot_os_rtos.o(.text._ZNK5embot2os4rtos14thread_props_t7isvalidEv) refers to embot_os_rtos.o(.text._ZNK5embot2os4rtos14thread_props_t4Impl7isvalidEv) for embot::os::rtos::thread_props_t::Impl::isvalid() const
    embot_os_rtos.o(.ARM.exidx.text._ZNK5embot2os4rtos14thread_props_t7isvalidEv) refers to embot_os_rtos.o(.text._ZNK5embot2os4rtos14thread_props_t7isvalidEv) for [Anonymous Symbol]
    embot_os_rtos.o(.text._ZN5embot2os4rtos14thread_props_t7releaseEv) refers to embot_os_rtos.o(.text._ZN5embot2os4rtos14thread_props_t4Impl7releaseEv) for embot::os::rtos::thread_props_t::Impl::release()
    embot_os_rtos.o(.ARM.exidx.text._ZN5embot2os4rtos14thread_props_t7releaseEv) refers to embot_os_rtos.o(.text._ZN5embot2os4rtos14thread_props_t7releaseEv) for [Anonymous Symbol]
    embot_os_rtos.o(.text._ZN5embot2os4rtos17scheduler_props_tC2Ev) refers to embot_os_rtos.o(.text._Znwj) for operator new(unsigned int)
    embot_os_rtos.o(.text._ZN5embot2os4rtos17scheduler_props_tC2Ev) refers to embot_os_rtos.o(.text._ZN5embot2os4rtos17scheduler_props_t4ImplC2EPS2_) for embot::os::rtos::scheduler_props_t::Impl::Impl__sub_object(embot::os::rtos::scheduler_props_t*)
    embot_os_rtos.o(.ARM.exidx.text._ZN5embot2os4rtos17scheduler_props_tC2Ev) refers to embot_os_rtos.o(.text._ZN5embot2os4rtos17scheduler_props_tC2Ev) for [Anonymous Symbol]
    embot_os_rtos.o(.text._ZN5embot2os4rtos17scheduler_props_tD2Ev) refers to embot_os_rtos.o(.text._ZN5embot2os4rtos17scheduler_props_t4ImplD2Ev) for embot::os::rtos::scheduler_props_t::Impl::~Impl__sub_object()
    embot_os_rtos.o(.text._ZN5embot2os4rtos17scheduler_props_tD2Ev) refers to embot_os_rtos.o(.text._ZdlPv) for operator delete(void*)
    embot_os_rtos.o(.ARM.exidx.text._ZN5embot2os4rtos17scheduler_props_tD2Ev) refers to embot_os_rtos.o(.text._ZN5embot2os4rtos17scheduler_props_tD2Ev) for [Anonymous Symbol]
    embot_os_rtos.o(.text._ZN5embot2os4rtos17scheduler_props_t7prepareEyttPFvvES4_PFvPviPKcE) refers to embot_os_rtos.o(.text._ZN5embot2os4rtos17scheduler_props_t4Impl7prepareEyttPFvvES5_PFvPviPKcE) for embot::os::rtos::scheduler_props_t::Impl::prepare(unsigned long long, unsigned short, unsigned short, void (*)(), void (*)(), void (*)(void*, int, char const*))
    embot_os_rtos.o(.ARM.exidx.text._ZN5embot2os4rtos17scheduler_props_t7prepareEyttPFvvES4_PFvPviPKcE) refers to embot_os_rtos.o(.text._ZN5embot2os4rtos17scheduler_props_t7prepareEyttPFvvES4_PFvPviPKcE) for [Anonymous Symbol]
    embot_os_rtos.o(.ARM.exidx.text._ZN5embot2os4rtos17scheduler_props_t12getInternalsEv) refers to embot_os_rtos.o(.text._ZN5embot2os4rtos17scheduler_props_t12getInternalsEv) for [Anonymous Symbol]
    embot_os_rtos.o(.ARM.exidx.text._ZNK5embot2os4rtos17scheduler_props_t7isvalidEv) refers to embot_os_rtos.o(.text._ZNK5embot2os4rtos17scheduler_props_t7isvalidEv) for [Anonymous Symbol]
    embot_os_rtos.o(.text._ZN5embot2os4rtos17scheduler_props_t7releaseENS2_8ResourceE) refers to embot_os_rtos.o(.text._ZN5embot2os4rtos17scheduler_props_t4Impl11releaseinitEv) for embot::os::rtos::scheduler_props_t::Impl::releaseinit()
    embot_os_rtos.o(.ARM.exidx.text._ZN5embot2os4rtos17scheduler_props_t7releaseENS2_8ResourceE) refers to embot_os_rtos.o(.text._ZN5embot2os4rtos17scheduler_props_t7releaseENS2_8ResourceE) for [Anonymous Symbol]
    embot_os_rtos.o(.text._ZN5embot2os4rtos14scheduler_initERNS1_17scheduler_props_tE) refers to embot_os_rtos.o(.text._ZN5embot2os4rtos17scheduler_props_t12getInternalsEv) for embot::os::rtos::scheduler_props_t::getInternals()
    embot_os_rtos.o(.text._ZN5embot2os4rtos14scheduler_initERNS1_17scheduler_props_tE) refers to osal-oosiit.o(i.osal_base_memory_getsize) for osal_base_memory_getsize
    embot_os_rtos.o(.text._ZN5embot2os4rtos14scheduler_initERNS1_17scheduler_props_tE) refers to osal-oosiit.o(i.osal_base_memory_new) for osal_base_memory_new
    embot_os_rtos.o(.text._ZN5embot2os4rtos14scheduler_initERNS1_17scheduler_props_tE) refers to osal-oosiit.o(i.osal_base_initialise) for osal_base_initialise
    embot_os_rtos.o(.text._ZN5embot2os4rtos14scheduler_initERNS1_17scheduler_props_tE) refers to embot_os_rtos.o(.bss._ZN5embot2os4rtos19the_scheduler_propsE) for embot::os::rtos::the_scheduler_props
    embot_os_rtos.o(.ARM.exidx.text._ZN5embot2os4rtos14scheduler_initERNS1_17scheduler_props_tE) refers to embot_os_rtos.o(.text._ZN5embot2os4rtos14scheduler_initERNS1_17scheduler_props_tE) for [Anonymous Symbol]
    embot_os_rtos.o(.text._ZN5embot2os4rtos15scheduler_startEv) refers to embot_os_rtos.o(.bss._ZN5embot2os4rtos19the_scheduler_propsE) for embot::os::rtos::the_scheduler_props
    embot_os_rtos.o(.text._ZN5embot2os4rtos15scheduler_startEv) refers to embot_os_rtos.o(.text._ZN5embot2os4rtos17scheduler_props_t12getInternalsEv) for embot::os::rtos::scheduler_props_t::getInternals()
    embot_os_rtos.o(.text._ZN5embot2os4rtos15scheduler_startEv) refers to osal-oosiit.o(i.osal_system_start) for osal_system_start
    embot_os_rtos.o(.ARM.exidx.text._ZN5embot2os4rtos15scheduler_startEv) refers to embot_os_rtos.o(.text._ZN5embot2os4rtos15scheduler_startEv) for [Anonymous Symbol]
    embot_os_rtos.o(.text._ZN5embot2os4rtos16scheduler_start2Ev) refers to embot_os_rtos.o(.bss._ZN5embot2os4rtos19the_scheduler_propsE) for embot::os::rtos::the_scheduler_props
    embot_os_rtos.o(.text._ZN5embot2os4rtos16scheduler_start2Ev) refers to embot_os_rtos.o(.text._ZN5embot2os4rtos17scheduler_props_t12getInternalsEv) for embot::os::rtos::scheduler_props_t::getInternals()
    embot_os_rtos.o(.text._ZN5embot2os4rtos16scheduler_start2Ev) refers to osal-oosiit.o(i.osal_system_start) for osal_system_start
    embot_os_rtos.o(.ARM.exidx.text._ZN5embot2os4rtos16scheduler_start2Ev) refers to embot_os_rtos.o(.text._ZN5embot2os4rtos16scheduler_start2Ev) for [Anonymous Symbol]
    embot_os_rtos.o(.text._ZN5embot2os4rtos19scheduler_isrunningEv) refers to osal-oosiit.o(i.osal_info_get_status) for osal_info_get_status
    embot_os_rtos.o(.ARM.exidx.text._ZN5embot2os4rtos19scheduler_isrunningEv) refers to embot_os_rtos.o(.text._ZN5embot2os4rtos19scheduler_isrunningEv) for [Anonymous Symbol]
    embot_os_rtos.o(.text._ZN5embot2os4rtos17scheduler_timegetEv) refers to embot_os_rtos.o(.text._ZN5embot2os4rtos19scheduler_isrunningEv) for embot::os::rtos::scheduler_isrunning()
    embot_os_rtos.o(.text._ZN5embot2os4rtos17scheduler_timegetEv) refers to osal-oosiit.o(i.osal_system_abstime_get) for osal_system_abstime_get
    embot_os_rtos.o(.ARM.exidx.text._ZN5embot2os4rtos17scheduler_timegetEv) refers to embot_os_rtos.o(.text._ZN5embot2os4rtos17scheduler_timegetEv) for [Anonymous Symbol]
    embot_os_rtos.o(.text._ZN5embot2os4rtos24scheduler_thread_runningEv) refers to osal-oosiit.o(i.osal_task_get) for osal_task_get
    embot_os_rtos.o(.ARM.exidx.text._ZN5embot2os4rtos24scheduler_thread_runningEv) refers to embot_os_rtos.o(.text._ZN5embot2os4rtos24scheduler_thread_runningEv) for [Anonymous Symbol]
    embot_os_rtos.o(.text.__cxx_global_var_init) refers to embot_os_rtos.o(.bss._ZN5embot2os4rtos12mapofthreadsE) for embot::os::rtos::mapofthreads
    embot_os_rtos.o(.text.__cxx_global_var_init) refers to embot_os_rtos.o(.text._ZNSt3__26__treeINS_12__value_typeIPvPN5embot2os6ThreadEEENS_19__map_value_compareIS2_S7_NS_4lessIS2_EELb1EEENS_9allocatorIS7_EEEC2ERKSB_) for std::__2::__tree<std::__2::__value_type<void*, embot::os::Thread*>, std::__2::__map_value_compare<void*, std::__2::__value_type<void*, embot::os::Thread*>, std::__2::less<void*>, true>, std::__2::allocator<std::__2::__value_type<void*, embot::os::Thread*> > >::__tree__sub_object(std::__2::__map_value_compare<void*, std::__2::__value_type<void*, embot::os::Thread*>, std::__2::less<void*>, true> const&)
    embot_os_rtos.o(.text.__cxx_global_var_init) refers to embot_os_rtos.o(.text._ZNSt3__23mapIPvPN5embot2os6ThreadENS_4lessIS1_EENS_9allocatorINS_4pairIKS1_S5_EEEEED2Ev) for std::__2::map<void*, embot::os::Thread*, std::__2::less<void*>, std::__2::allocator<std::__2::pair<void* const, embot::os::Thread*> > >::~map__sub_object()
    embot_os_rtos.o(.text.__cxx_global_var_init) refers to cxa_atexit.o(.text) for __cxa_atexit
    embot_os_rtos.o(.ARM.exidx.text.__cxx_global_var_init) refers to embot_os_rtos.o(.text.__cxx_global_var_init) for [Anonymous Symbol]
    embot_os_rtos.o(.text._ZN5embot2os4rtos19scheduler_associateEPvPNS0_6ThreadE) refers to embot_os_rtos.o(.bss._ZN5embot2os4rtos12mapofthreadsE) for embot::os::rtos::mapofthreads
    embot_os_rtos.o(.text._ZN5embot2os4rtos19scheduler_associateEPvPNS0_6ThreadE) refers to embot_os_rtos.o(.text._ZNSt3__26__treeINS_12__value_typeIPvPN5embot2os6ThreadEEENS_19__map_value_compareIS2_S7_NS_4lessIS2_EELb1EEENS_9allocatorIS7_EEE25__emplace_unique_key_argsIS2_JNS_4pairIS2_S6_EEEEENSG_INS_15__tree_iteratorIS7_PNS_11__tree_nodeIS7_S2_EEiEEbEERKT_DpOT0_) for std::__2::pair<std::__2::__tree_iterator<std::__2::__value_type<void*, embot::os::Thread*>, std::__2::__tree_node<std::__2::__value_type<void*, embot::os::Thread*>, void*>*, int>, bool> std::__2::__tree<std::__2::__value_type<void*, embot::os::Thread*>, std::__2::__map_value_compare<void*, std::__2::__value_type<void*, embot::os::Thread*>, std::__2::less<void*>, true>, std::__2::allocator<std::__2::__value_type<void*, embot::os::Thread*> > >::__emplace_unique_key_args<void*, std::__2::pair<void*, embot::os::Thread*> >(void* const&, std::__2::pair<void*, embot::os::Thread*>&&)
    embot_os_rtos.o(.ARM.exidx.text._ZN5embot2os4rtos19scheduler_associateEPvPNS0_6ThreadE) refers to embot_os_rtos.o(.text._ZN5embot2os4rtos19scheduler_associateEPvPNS0_6ThreadE) for [Anonymous Symbol]
    embot_os_rtos.o(.text._ZN5embot2os4rtos21scheduler_deassociateEPvPNS0_6ThreadE) refers to embot_os_rtos.o(.bss._ZN5embot2os4rtos12mapofthreadsE) for embot::os::rtos::mapofthreads
    embot_os_rtos.o(.text._ZN5embot2os4rtos21scheduler_deassociateEPvPNS0_6ThreadE) refers to embot_os_rtos.o(.text._ZNSt3__26__treeINS_12__value_typeIPvPN5embot2os6ThreadEEENS_19__map_value_compareIS2_S7_NS_4lessIS2_EELb1EEENS_9allocatorIS7_EEE14__erase_uniqueIS2_EEjRKT_) for unsigned int std::__2::__tree<std::__2::__value_type<void*, embot::os::Thread*>, std::__2::__map_value_compare<void*, std::__2::__value_type<void*, embot::os::Thread*>, std::__2::less<void*>, true>, std::__2::allocator<std::__2::__value_type<void*, embot::os::Thread*> > >::__erase_unique<void*>(void* const&)
    embot_os_rtos.o(.ARM.exidx.text._ZN5embot2os4rtos21scheduler_deassociateEPvPNS0_6ThreadE) refers to embot_os_rtos.o(.text._ZN5embot2os4rtos21scheduler_deassociateEPvPNS0_6ThreadE) for [Anonymous Symbol]
    embot_os_rtos.o(.text._ZN5embot2os4rtos23scheduler_getassociatedEPv) refers to embot_os_rtos.o(.bss._ZN5embot2os4rtos12mapofthreadsE) for embot::os::rtos::mapofthreads
    embot_os_rtos.o(.text._ZN5embot2os4rtos23scheduler_getassociatedEPv) refers to embot_os_rtos.o(.text._ZNSt3__26__treeINS_12__value_typeIPvPN5embot2os6ThreadEEENS_19__map_value_compareIS2_S7_NS_4lessIS2_EELb1EEENS_9allocatorIS7_EEE4findIS2_EENS_15__tree_iteratorIS7_PNS_11__tree_nodeIS7_S2_EEiEERKT_) for std::__2::__tree_iterator<std::__2::__value_type<void*, embot::os::Thread*>, std::__2::__tree_node<std::__2::__value_type<void*, embot::os::Thread*>, void*>*, int> std::__2::__tree<std::__2::__value_type<void*, embot::os::Thread*>, std::__2::__map_value_compare<void*, std::__2::__value_type<void*, embot::os::Thread*>, std::__2::less<void*>, true>, std::__2::allocator<std::__2::__value_type<void*, embot::os::Thread*> > >::find<void*>(void* const&)
    embot_os_rtos.o(.text._ZN5embot2os4rtos23scheduler_getassociatedEPv) refers to embot_os_rtos.o(.text._ZNSt3__29__launderINS_4pairIKPvPN5embot2os6ThreadEEEEEPT_SA_) for std::__2::pair<void* const, embot::os::Thread*>* std::__2::__launder<std::__2::pair<void* const, embot::os::Thread*> >(std::__2::pair<void* const, embot::os::Thread*>*)
    embot_os_rtos.o(.ARM.exidx.text._ZN5embot2os4rtos23scheduler_getassociatedEPv) refers to embot_os_rtos.o(.text._ZN5embot2os4rtos23scheduler_getassociatedEPv) for [Anonymous Symbol]
    embot_os_rtos.o(.text._ZN5embot2os4rtos14scheduler_lockEv) refers to osal-oosiit.o(i.osal_system_scheduling_suspend) for osal_system_scheduling_suspend
    embot_os_rtos.o(.ARM.exidx.text._ZN5embot2os4rtos14scheduler_lockEv) refers to embot_os_rtos.o(.text._ZN5embot2os4rtos14scheduler_lockEv) for [Anonymous Symbol]
    embot_os_rtos.o(.text._ZN5embot2os4rtos16scheduler_unlockEv) refers to osal-oosiit.o(i.osal_system_scheduling_restart) for osal_system_scheduling_restart
    embot_os_rtos.o(.ARM.exidx.text._ZN5embot2os4rtos16scheduler_unlockEv) refers to embot_os_rtos.o(.text._ZN5embot2os4rtos16scheduler_unlockEv) for [Anonymous Symbol]
    embot_os_rtos.o(.text._ZN5embot2os4rtos10thread_newERNS1_14thread_props_tE) refers to embot_os_rtos.o(.text._ZN5embot2os4rtos14thread_props_t12getInternalsEv) for embot::os::rtos::thread_props_t::getInternals()
    embot_os_rtos.o(.text._ZN5embot2os4rtos10thread_newERNS1_14thread_props_tE) refers to osal-oosiit.o(i.osal_task_new1) for osal_task_new1
    embot_os_rtos.o(.ARM.exidx.text._ZN5embot2os4rtos10thread_newERNS1_14thread_props_tE) refers to embot_os_rtos.o(.text._ZN5embot2os4rtos10thread_newERNS1_14thread_props_tE) for [Anonymous Symbol]
    embot_os_rtos.o(.text._ZN5embot2os4rtos13thread_deleteEPv) refers to osal-oosiit.o(i.osal_task_delete) for osal_task_delete
    embot_os_rtos.o(.ARM.exidx.text._ZN5embot2os4rtos13thread_deleteEPv) refers to embot_os_rtos.o(.text._ZN5embot2os4rtos13thread_deleteEPv) for [Anonymous Symbol]
    embot_os_rtos.o(.text._ZN5embot2os4rtos18thread_setpriorityEPvNS0_8PriorityE) refers to embot_os_thread.o(.text._ZN5embot4core10tointegralINS_2os8PriorityEEEDaT_) for auto embot::core::tointegral<embot::os::Priority>(embot::os::Priority)
    embot_os_rtos.o(.text._ZN5embot2os4rtos18thread_setpriorityEPvNS0_8PriorityE) refers to osal-oosiit.o(i.osal_task_priority_set) for osal_task_priority_set
    embot_os_rtos.o(.ARM.exidx.text._ZN5embot2os4rtos18thread_setpriorityEPvNS0_8PriorityE) refers to embot_os_rtos.o(.text._ZN5embot2os4rtos18thread_setpriorityEPvNS0_8PriorityE) for [Anonymous Symbol]
    embot_os_rtos.o(.text._ZN5embot2os4rtos17thread_period_setEPvj) refers to osal-oosiit.o(i.osal_task_period_set) for osal_task_period_set
    embot_os_rtos.o(.ARM.exidx.text._ZN5embot2os4rtos17thread_period_setEPvj) refers to embot_os_rtos.o(.text._ZN5embot2os4rtos17thread_period_setEPvj) for [Anonymous Symbol]
    embot_os_rtos.o(.text._ZN5embot2os4rtos18thread_period_waitEPvj) refers to osal-oosiit.o(i.osal_task_period_wait) for osal_task_period_wait
    embot_os_rtos.o(.ARM.exidx.text._ZN5embot2os4rtos18thread_period_waitEPvj) refers to embot_os_rtos.o(.text._ZN5embot2os4rtos18thread_period_waitEPvj) for [Anonymous Symbol]
    embot_os_rtos.o(.text._ZN5embot2os4rtos12thread_sleepEPvj) refers to osal-oosiit.o(i.osal_task_wait) for osal_task_wait
    embot_os_rtos.o(.ARM.exidx.text._ZN5embot2os4rtos12thread_sleepEPvj) refers to embot_os_rtos.o(.text._ZN5embot2os4rtos12thread_sleepEPvj) for [Anonymous Symbol]
    embot_os_rtos.o(.text._ZN5embot2os4rtos9event_setEPvj) refers to osal-oosiit.o(i.osal_eventflag_set) for osal_eventflag_set
    embot_os_rtos.o(.ARM.exidx.text._ZN5embot2os4rtos9event_setEPvj) refers to embot_os_rtos.o(.text._ZN5embot2os4rtos9event_setEPvj) for [Anonymous Symbol]
    embot_os_rtos.o(.text._ZN5embot2os4rtos9event_getEj) refers to osal-oosiit.o(i.osal_eventflag_getany) for osal_eventflag_getany
    embot_os_rtos.o(.ARM.exidx.text._ZN5embot2os4rtos9event_getEj) refers to embot_os_rtos.o(.text._ZN5embot2os4rtos9event_getEj) for [Anonymous Symbol]
    embot_os_rtos.o(.text._ZN5embot2os4rtos16messagequeue_newEh) refers to osal-oosiit.o(i.osal_messagequeue_new) for osal_messagequeue_new
    embot_os_rtos.o(.ARM.exidx.text._ZN5embot2os4rtos16messagequeue_newEh) refers to embot_os_rtos.o(.text._ZN5embot2os4rtos16messagequeue_newEh) for [Anonymous Symbol]
    embot_os_rtos.o(.text._ZN5embot2os4rtos19messagequeue_deleteEPv) refers to osal-oosiit.o(i.osal_messagequeue_delete) for osal_messagequeue_delete
    embot_os_rtos.o(.ARM.exidx.text._ZN5embot2os4rtos19messagequeue_deleteEPv) refers to embot_os_rtos.o(.text._ZN5embot2os4rtos19messagequeue_deleteEPv) for [Anonymous Symbol]
    embot_os_rtos.o(.text._ZN5embot2os4rtos16messagequeue_putEPvS2_j) refers to osal-oosiit.o(i.osal_messagequeue_put) for osal_messagequeue_put
    embot_os_rtos.o(.ARM.exidx.text._ZN5embot2os4rtos16messagequeue_putEPvS2_j) refers to embot_os_rtos.o(.text._ZN5embot2os4rtos16messagequeue_putEPvS2_j) for [Anonymous Symbol]
    embot_os_rtos.o(.text._ZN5embot2os4rtos16messagequeue_getEPvj) refers to osal-oosiit.o(i.osal_messagequeue_getquick) for osal_messagequeue_getquick
    embot_os_rtos.o(.ARM.exidx.text._ZN5embot2os4rtos16messagequeue_getEPvj) refers to embot_os_rtos.o(.text._ZN5embot2os4rtos16messagequeue_getEPvj) for [Anonymous Symbol]
    embot_os_rtos.o(.text._ZN5embot2os4rtos17messagequeue_sizeEPv) refers to osal-oosiit.o(i.osal_messagequeue_size) for osal_messagequeue_size
    embot_os_rtos.o(.ARM.exidx.text._ZN5embot2os4rtos17messagequeue_sizeEPv) refers to embot_os_rtos.o(.text._ZN5embot2os4rtos17messagequeue_sizeEPv) for [Anonymous Symbol]
    embot_os_rtos.o(.text._ZN5embot2os4rtos9timer_newEv) refers to osal-oosiit.o(i.osal_timer_new) for osal_timer_new
    embot_os_rtos.o(.ARM.exidx.text._ZN5embot2os4rtos9timer_newEv) refers to embot_os_rtos.o(.text._ZN5embot2os4rtos9timer_newEv) for [Anonymous Symbol]
    embot_os_rtos.o(.text._ZN5embot2os4rtos12timer_deleteEPv) refers to osal-oosiit.o(i.osal_timer_delete) for osal_timer_delete
    embot_os_rtos.o(.ARM.exidx.text._ZN5embot2os4rtos12timer_deleteEPv) refers to embot_os_rtos.o(.text._ZN5embot2os4rtos12timer_deleteEPv) for [Anonymous Symbol]
    embot_os_rtos.o(.text._ZN5embot2os4rtos11timer_startEPvNS1_9timerModeEjPFvS2_S2_ES2_) refers to osal-oosiit.o(i.osal_timer_start) for osal_timer_start
    embot_os_rtos.o(.ARM.exidx.text._ZN5embot2os4rtos11timer_startEPvNS1_9timerModeEjPFvS2_S2_ES2_) refers to embot_os_rtos.o(.text._ZN5embot2os4rtos11timer_startEPvNS1_9timerModeEjPFvS2_S2_ES2_) for [Anonymous Symbol]
    embot_os_rtos.o(.text._ZN5embot2os4rtos10timer_stopEPv) refers to osal-oosiit.o(i.osal_timer_stop) for osal_timer_stop
    embot_os_rtos.o(.ARM.exidx.text._ZN5embot2os4rtos10timer_stopEPv) refers to embot_os_rtos.o(.text._ZN5embot2os4rtos10timer_stopEPv) for [Anonymous Symbol]
    embot_os_rtos.o(.text._ZN5embot2os4rtos9mutex_newEv) refers to osal-oosiit.o(i.osal_mutex_new) for osal_mutex_new
    embot_os_rtos.o(.ARM.exidx.text._ZN5embot2os4rtos9mutex_newEv) refers to embot_os_rtos.o(.text._ZN5embot2os4rtos9mutex_newEv) for [Anonymous Symbol]
    embot_os_rtos.o(.text._ZN5embot2os4rtos10mutex_takeEPvj) refers to osal-oosiit.o(i.osal_mutex_take) for osal_mutex_take
    embot_os_rtos.o(.ARM.exidx.text._ZN5embot2os4rtos10mutex_takeEPvj) refers to embot_os_rtos.o(.text._ZN5embot2os4rtos10mutex_takeEPvj) for [Anonymous Symbol]
    embot_os_rtos.o(.text._ZN5embot2os4rtos13mutex_releaseEPv) refers to osal-oosiit.o(i.osal_mutex_release) for osal_mutex_release
    embot_os_rtos.o(.ARM.exidx.text._ZN5embot2os4rtos13mutex_releaseEPv) refers to embot_os_rtos.o(.text._ZN5embot2os4rtos13mutex_releaseEPv) for [Anonymous Symbol]
    embot_os_rtos.o(.text._ZN5embot2os4rtos12mutex_deleteEPv) refers to osal-oosiit.o(i.osal_mutex_delete) for osal_mutex_delete
    embot_os_rtos.o(.ARM.exidx.text._ZN5embot2os4rtos12mutex_deleteEPv) refers to embot_os_rtos.o(.text._ZN5embot2os4rtos12mutex_deleteEPv) for [Anonymous Symbol]
    embot_os_rtos.o(.text._ZN5embot2os4rtos13semaphore_newEhh) refers to osal-oosiit.o(i.osal_semaphore_new) for osal_semaphore_new
    embot_os_rtos.o(.ARM.exidx.text._ZN5embot2os4rtos13semaphore_newEhh) refers to embot_os_rtos.o(.text._ZN5embot2os4rtos13semaphore_newEhh) for [Anonymous Symbol]
    embot_os_rtos.o(.text._ZN5embot2os4rtos17semaphore_acquireEPvj) refers to osal-oosiit.o(i.osal_semaphore_decrement) for osal_semaphore_decrement
    embot_os_rtos.o(.ARM.exidx.text._ZN5embot2os4rtos17semaphore_acquireEPvj) refers to embot_os_rtos.o(.text._ZN5embot2os4rtos17semaphore_acquireEPvj) for [Anonymous Symbol]
    embot_os_rtos.o(.text._ZN5embot2os4rtos17semaphore_releaseEPv) refers to osal-oosiit.o(i.osal_semaphore_increment) for osal_semaphore_increment
    embot_os_rtos.o(.ARM.exidx.text._ZN5embot2os4rtos17semaphore_releaseEPv) refers to embot_os_rtos.o(.text._ZN5embot2os4rtos17semaphore_releaseEPv) for [Anonymous Symbol]
    embot_os_rtos.o(.text._ZN5embot2os4rtos16semaphore_deleteEPv) refers to osal-oosiit.o(i.osal_semaphore_delete) for osal_semaphore_delete
    embot_os_rtos.o(.ARM.exidx.text._ZN5embot2os4rtos16semaphore_deleteEPv) refers to embot_os_rtos.o(.text._ZN5embot2os4rtos16semaphore_deleteEPv) for [Anonymous Symbol]
    embot_os_rtos.o(.text._ZN5embot2os4rtos10memory_newEj) refers to osal-oosiit.o(i.osal_base_memory_new) for osal_base_memory_new
    embot_os_rtos.o(.ARM.exidx.text._ZN5embot2os4rtos10memory_newEj) refers to embot_os_rtos.o(.text._ZN5embot2os4rtos10memory_newEj) for [Anonymous Symbol]
    embot_os_rtos.o(.text._ZN5embot2os4rtos14memory_reallocEPvj) refers to osal-oosiit.o(i.osal_base_memory_realloc) for osal_base_memory_realloc
    embot_os_rtos.o(.ARM.exidx.text._ZN5embot2os4rtos14memory_reallocEPvj) refers to embot_os_rtos.o(.text._ZN5embot2os4rtos14memory_reallocEPvj) for [Anonymous Symbol]
    embot_os_rtos.o(.text._ZN5embot2os4rtos13memory_deleteEPv) refers to osal-oosiit.o(i.osal_base_memory_del) for osal_base_memory_del
    embot_os_rtos.o(.ARM.exidx.text._ZN5embot2os4rtos13memory_deleteEPv) refers to embot_os_rtos.o(.text._ZN5embot2os4rtos13memory_deleteEPv) for [Anonymous Symbol]
    embot_os_rtos.o(.text._ZnwjRKSt9nothrow_t) refers to osal-oosiit.o(i.osal_base_memory_new) for osal_base_memory_new
    embot_os_rtos.o(.ARM.exidx.text._ZnwjRKSt9nothrow_t) refers to embot_os_rtos.o(.text._ZnwjRKSt9nothrow_t) for [Anonymous Symbol]
    embot_os_rtos.o(.text.__cxx_global_var_init.1) refers to embot_os_rtos.o(.bss._ZL18osal_init_pre_main) for osal_init_pre_main
    embot_os_rtos.o(.text.__cxx_global_var_init.1) refers to embot_os_rtos.o(.text._ZN20osal_init_pre_main_tC2Ev) for osal_init_pre_main_t::osal_init_pre_main_t__sub_object()
    embot_os_rtos.o(.ARM.exidx.text.__cxx_global_var_init.1) refers to embot_os_rtos.o(.text.__cxx_global_var_init.1) for [Anonymous Symbol]
    embot_os_rtos.o(.text.osal_ext_calloc) refers to calloc.o(.text) for calloc
    embot_os_rtos.o(.ARM.exidx.text.osal_ext_calloc) refers to embot_os_rtos.o(.text.osal_ext_calloc) for [Anonymous Symbol]
    embot_os_rtos.o(.text.osal_ext_realloc) refers to h1_realloc.o(.text) for realloc
    embot_os_rtos.o(.ARM.exidx.text.osal_ext_realloc) refers to embot_os_rtos.o(.text.osal_ext_realloc) for [Anonymous Symbol]
    embot_os_rtos.o(.text.osal_ext_free) refers to h1_free.o(.text) for free
    embot_os_rtos.o(.ARM.exidx.text.osal_ext_free) refers to embot_os_rtos.o(.text.osal_ext_free) for [Anonymous Symbol]
    embot_os_rtos.o(.text._GLOBAL__sub_I_embot_os_rtos.cpp) refers to embot_os_rtos.o(.text.__cxx_global_var_init) for __cxx_global_var_init
    embot_os_rtos.o(.text._GLOBAL__sub_I_embot_os_rtos.cpp) refers to embot_os_rtos.o(.text.__cxx_global_var_init.1) for __cxx_global_var_init.1
    embot_os_rtos.o(.ARM.exidx.text._GLOBAL__sub_I_embot_os_rtos.cpp) refers to embot_os_rtos.o(.text._GLOBAL__sub_I_embot_os_rtos.cpp) for [Anonymous Symbol]
    embot_os_rtos.o(.init_array) refers to embot_os_rtos.o(.text._GLOBAL__sub_I_embot_os_rtos.cpp) for _GLOBAL__sub_I_embot_os_rtos.cpp
    embot_app_application_thecanparserbasic.o(.text._ZN5embot3app11application17theCANparserBasic4Impl7processERKNS_4prot3can5FrameERNSt3__26vectorIS6_NS9_9allocatorIS6_EEEE) refers to embot_app_thecanboardinfo.o(.text._ZN5embot3app15theCANboardInfo11getInstanceEv) for embot::app::theCANboardInfo::getInstance()
    embot_app_application_thecanparserbasic.o(.text._ZN5embot3app11application17theCANparserBasic4Impl7processERKNS_4prot3can5FrameERNSt3__26vectorIS6_NS9_9allocatorIS6_EEEE) refers to embot_app_thecanboardinfo.o(.text._ZN5embot3app15theCANboardInfo16cachedCANaddressEv) for embot::app::theCANboardInfo::cachedCANaddress()
    embot_app_application_thecanparserbasic.o(.text._ZN5embot3app11application17theCANparserBasic4Impl7processERKNS_4prot3can5FrameERNSt3__26vectorIS6_NS9_9allocatorIS6_EEEE) refers to embot_prot_can.o(.text._ZN5embot4prot3can13frameis4boardERKNS1_5FrameEh) for embot::prot::can::frameis4board(embot::prot::can::Frame const&, unsigned char)
    embot_app_application_thecanparserbasic.o(.text._ZN5embot3app11application17theCANparserBasic4Impl7processERKNS_4prot3can5FrameERNSt3__26vectorIS6_NS9_9allocatorIS6_EEEE) refers to embot_prot_can.o(.text._ZN5embot4prot3can10frame2clasERKNS1_5FrameE) for embot::prot::can::frame2clas(embot::prot::can::Frame const&)
    embot_app_application_thecanparserbasic.o(.text._ZN5embot3app11application17theCANparserBasic4Impl7processERKNS_4prot3can5FrameERNSt3__26vectorIS6_NS9_9allocatorIS6_EEEE) refers to embot_prot_can.o(.text._ZN5embot4prot3can9frame2cmdERKNS1_5FrameE) for embot::prot::can::frame2cmd(embot::prot::can::Frame const&)
    embot_app_application_thecanparserbasic.o(.text._ZN5embot3app11application17theCANparserBasic4Impl7processERKNS_4prot3can5FrameERNSt3__26vectorIS6_NS9_9allocatorIS6_EEEE) refers to embot_app_application_thecanparserbasic.o(.text._ZN5embot3app11application17theCANparserBasic4Impl28process_bl_getadditionalinfoERKNS_4prot3can5FrameERNSt3__26vectorIS6_NS9_9allocatorIS6_EEEE) for embot::app::application::theCANparserBasic::Impl::process_bl_getadditionalinfo(embot::prot::can::Frame const&, std::__2::vector<embot::prot::can::Frame, std::__2::allocator<embot::prot::can::Frame> >&)
    embot_app_application_thecanparserbasic.o(.text._ZN5embot3app11application17theCANparserBasic4Impl7processERKNS_4prot3can5FrameERNSt3__26vectorIS6_NS9_9allocatorIS6_EEEE) refers to embot_app_application_thecanparserbasic.o(.text._ZN5embot3app11application17theCANparserBasic4Impl13process_setidENS_4prot3can4ClasEhRKNS5_5FrameERNSt3__26vectorIS7_NSA_9allocatorIS7_EEEE) for embot::app::application::theCANparserBasic::Impl::process_setid(embot::prot::can::Clas, unsigned char, embot::prot::can::Frame const&, std::__2::vector<embot::prot::can::Frame, std::__2::allocator<embot::prot::can::Frame> >&)
    embot_app_application_thecanparserbasic.o(.text._ZN5embot3app11application17theCANparserBasic4Impl7processERKNS_4prot3can5FrameERNSt3__26vectorIS6_NS9_9allocatorIS6_EEEE) refers to embot_app_application_thecanparserbasic.o(.text._ZN5embot3app11application17theCANparserBasic4Impl21process_bl_board_applERKNS_4prot3can5FrameERNSt3__26vectorIS6_NS9_9allocatorIS6_EEEE) for embot::app::application::theCANparserBasic::Impl::process_bl_board_appl(embot::prot::can::Frame const&, std::__2::vector<embot::prot::can::Frame, std::__2::allocator<embot::prot::can::Frame> >&)
    embot_app_application_thecanparserbasic.o(.text._ZN5embot3app11application17theCANparserBasic4Impl7processERKNS_4prot3can5FrameERNSt3__26vectorIS6_NS9_9allocatorIS6_EEEE) refers to embot_hw_sys.o(.text._ZN5embot2hw3sys5resetEv) for embot::hw::sys::reset()
    embot_app_application_thecanparserbasic.o(.text._ZN5embot3app11application17theCANparserBasic4Impl7processERKNS_4prot3can5FrameERNSt3__26vectorIS6_NS9_9allocatorIS6_EEEE) refers to embot_app_application_thecanparserbasic.o(.text._ZN5embot3app11application17theCANparserBasic4Impl26process_getfirmwareversionENS_4prot3can4ClasEhRKNS5_5FrameERNSt3__26vectorIS7_NSA_9allocatorIS7_EEEE) for embot::app::application::theCANparserBasic::Impl::process_getfirmwareversion(embot::prot::can::Clas, unsigned char, embot::prot::can::Frame const&, std::__2::vector<embot::prot::can::Frame, std::__2::allocator<embot::prot::can::Frame> >&)
    embot_app_application_thecanparserbasic.o(.text._ZN5embot3app11application17theCANparserBasic4Impl7processERKNS_4prot3can5FrameERNSt3__26vectorIS6_NS9_9allocatorIS6_EEEE) refers to embot_app_application_thecanparserbasic.o(.text._ZN5embot3app11application17theCANparserBasic4Impl28process_bl_setadditionalinfoERKNS_4prot3can5FrameERNSt3__26vectorIS6_NS9_9allocatorIS6_EEEE) for embot::app::application::theCANparserBasic::Impl::process_bl_setadditionalinfo(embot::prot::can::Frame const&, std::__2::vector<embot::prot::can::Frame, std::__2::allocator<embot::prot::can::Frame> >&)
    embot_app_application_thecanparserbasic.o(.text._ZN5embot3app11application17theCANparserBasic4Impl7processERKNS_4prot3can5FrameERNSt3__26vectorIS6_NS9_9allocatorIS6_EEEE) refers to embot_app_application_thecanparserbasic.o(.text._ZN5embot3app11application17theCANparserBasic4Impl24process_bl_gettimeoflifeERKNS_4prot3can5FrameERNSt3__26vectorIS6_NS9_9allocatorIS6_EEEE) for embot::app::application::theCANparserBasic::Impl::process_bl_gettimeoflife(embot::prot::can::Frame const&, std::__2::vector<embot::prot::can::Frame, std::__2::allocator<embot::prot::can::Frame> >&)
    embot_app_application_thecanparserbasic.o(.text._ZN5embot3app11application17theCANparserBasic4Impl7processERKNS_4prot3can5FrameERNSt3__26vectorIS6_NS9_9allocatorIS6_EEEE) refers to embot_app_application_thecanparserbasic.o(.text._ZN5embot3app11application17theCANparserBasic4Impl24process_bl_setcanaddressERKNS_4prot3can5FrameERNSt3__26vectorIS6_NS9_9allocatorIS6_EEEE) for embot::app::application::theCANparserBasic::Impl::process_bl_setcanaddress(embot::prot::can::Frame const&, std::__2::vector<embot::prot::can::Frame, std::__2::allocator<embot::prot::can::Frame> >&)
    embot_app_application_thecanparserbasic.o(.text._ZN5embot3app11application17theCANparserBasic4Impl7processERKNS_4prot3can5FrameERNSt3__26vectorIS6_NS9_9allocatorIS6_EEEE) refers to embot_app_application_thecanparserbasic.o(.text._ZN5embot3app11application17theCANparserBasic4Impl25process_bl_broadcast_applERKNS_4prot3can5FrameERNSt3__26vectorIS6_NS9_9allocatorIS6_EEEE) for embot::app::application::theCANparserBasic::Impl::process_bl_broadcast_appl(embot::prot::can::Frame const&, std::__2::vector<embot::prot::can::Frame, std::__2::allocator<embot::prot::can::Frame> >&)
    embot_app_application_thecanparserbasic.o(.ARM.exidx.text._ZN5embot3app11application17theCANparserBasic4Impl7processERKNS_4prot3can5FrameERNSt3__26vectorIS6_NS9_9allocatorIS6_EEEE) refers to embot_app_application_thecanparserbasic.o(.text._ZN5embot3app11application17theCANparserBasic4Impl7processERKNS_4prot3can5FrameERNSt3__26vectorIS6_NS9_9allocatorIS6_EEEE) for [Anonymous Symbol]
    embot_app_application_thecanparserbasic.o(.text._ZN5embot3app11application17theCANparserBasic4Impl21process_bl_board_applERKNS_4prot3can5FrameERNSt3__26vectorIS6_NS9_9allocatorIS6_EEEE) refers to embot_app_application_thecanparserbasic.o(.text._ZN5embot4prot3can10bootloader13Message_BOARDC2Ev) for embot::prot::can::bootloader::Message_BOARD::Message_BOARD__sub_object()
    embot_app_application_thecanparserbasic.o(.text._ZN5embot3app11application17theCANparserBasic4Impl21process_bl_board_applERKNS_4prot3can5FrameERNSt3__26vectorIS6_NS9_9allocatorIS6_EEEE) refers to embot_prot_can_bootloader.o(.text._ZN5embot4prot3can10bootloader13Message_BOARD4loadERKNS1_5FrameE) for embot::prot::can::bootloader::Message_BOARD::load(embot::prot::can::Frame const&)
    embot_app_application_thecanparserbasic.o(.text._ZN5embot3app11application17theCANparserBasic4Impl21process_bl_board_applERKNS_4prot3can5FrameERNSt3__26vectorIS6_NS9_9allocatorIS6_EEEE) refers to embot_hw_sys.o(.text._ZN5embot2hw3sys5resetEv) for embot::hw::sys::reset()
    embot_app_application_thecanparserbasic.o(.ARM.exidx.text._ZN5embot3app11application17theCANparserBasic4Impl21process_bl_board_applERKNS_4prot3can5FrameERNSt3__26vectorIS6_NS9_9allocatorIS6_EEEE) refers to embot_app_application_thecanparserbasic.o(.text._ZN5embot3app11application17theCANparserBasic4Impl21process_bl_board_applERKNS_4prot3can5FrameERNSt3__26vectorIS6_NS9_9allocatorIS6_EEEE) for [Anonymous Symbol]
    embot_app_application_thecanparserbasic.o(.text._ZN5embot3app11application17theCANparserBasic4Impl25process_bl_broadcast_applERKNS_4prot3can5FrameERNSt3__26vectorIS6_NS9_9allocatorIS6_EEEE) refers to embot_app_application_thecanparserbasic.o(.text._ZN5embot4prot3can10bootloader17Message_BROADCASTC2Ev) for embot::prot::can::bootloader::Message_BROADCAST::Message_BROADCAST__sub_object()
    embot_app_application_thecanparserbasic.o(.text._ZN5embot3app11application17theCANparserBasic4Impl25process_bl_broadcast_applERKNS_4prot3can5FrameERNSt3__26vectorIS6_NS9_9allocatorIS6_EEEE) refers to embot_prot_can_bootloader.o(.text._ZN5embot4prot3can10bootloader17Message_BROADCAST4loadERKNS1_5FrameE) for embot::prot::can::bootloader::Message_BROADCAST::load(embot::prot::can::Frame const&)
    embot_app_application_thecanparserbasic.o(.text._ZN5embot3app11application17theCANparserBasic4Impl25process_bl_broadcast_applERKNS_4prot3can5FrameERNSt3__26vectorIS6_NS9_9allocatorIS6_EEEE) refers to embot_app_thecanboardinfo.o(.text._ZN5embot3app15theCANboardInfo11getInstanceEv) for embot::app::theCANboardInfo::getInstance()
    embot_app_application_thecanparserbasic.o(.text._ZN5embot3app11application17theCANparserBasic4Impl25process_bl_broadcast_applERKNS_4prot3can5FrameERNSt3__26vectorIS6_NS9_9allocatorIS6_EEEE) refers to rt_memclr_w.o(.text) for __aeabi_memclr4
    embot_app_application_thecanparserbasic.o(.text._ZN5embot3app11application17theCANparserBasic4Impl25process_bl_broadcast_applERKNS_4prot3can5FrameERNSt3__26vectorIS6_NS9_9allocatorIS6_EEEE) refers to embot_app_thecanboardinfo.o(.text._ZN5embot3app15theCANboardInfo3getERNS1_10StoredInfoE) for embot::app::theCANboardInfo::get(embot::app::theCANboardInfo::StoredInfo&)
    embot_app_application_thecanparserbasic.o(.text._ZN5embot3app11application17theCANparserBasic4Impl25process_bl_broadcast_applERKNS_4prot3can5FrameERNSt3__26vectorIS6_NS9_9allocatorIS6_EEEE) refers to embot_app_application_thecanparserbasic.o(.text._ZN5embot4prot3can10bootloader17Message_BROADCAST9ReplyInfoC2Ev) for embot::prot::can::bootloader::Message_BROADCAST::ReplyInfo::ReplyInfo__sub_object()
    embot_app_application_thecanparserbasic.o(.text._ZN5embot3app11application17theCANparserBasic4Impl25process_bl_broadcast_applERKNS_4prot3can5FrameERNSt3__26vectorIS6_NS9_9allocatorIS6_EEEE) refers to embot_app_thecanboardinfo.o(.text._ZN5embot3app15theCANboardInfo16cachedCANaddressEv) for embot::app::theCANboardInfo::cachedCANaddress()
    embot_app_application_thecanparserbasic.o(.text._ZN5embot3app11application17theCANparserBasic4Impl25process_bl_broadcast_applERKNS_4prot3can5FrameERNSt3__26vectorIS6_NS9_9allocatorIS6_EEEE) refers to embot_prot_can_bootloader.o(.text._ZN5embot4prot3can10bootloader17Message_BROADCAST5replyERNS1_5FrameEhRKNS3_9ReplyInfoE) for embot::prot::can::bootloader::Message_BROADCAST::reply(embot::prot::can::Frame&, unsigned char, embot::prot::can::bootloader::Message_BROADCAST::ReplyInfo const&)
    embot_app_application_thecanparserbasic.o(.text._ZN5embot3app11application17theCANparserBasic4Impl25process_bl_broadcast_applERKNS_4prot3can5FrameERNSt3__26vectorIS6_NS9_9allocatorIS6_EEEE) refers to amcbldc-main.o(.text._ZNSt3__26vectorIN5embot4prot3can5FrameENS_9allocatorIS4_EEE21_ConstructTransactionC2ERS7_j) for std::__2::vector<embot::prot::can::Frame, std::__2::allocator<embot::prot::can::Frame> >::_ConstructTransaction::_ConstructTransaction__sub_object(std::__2::vector<embot::prot::can::Frame, std::__2::allocator<embot::prot::can::Frame> >&, unsigned int)
    embot_app_application_thecanparserbasic.o(.text._ZN5embot3app11application17theCANparserBasic4Impl25process_bl_broadcast_applERKNS_4prot3can5FrameERNSt3__26vectorIS6_NS9_9allocatorIS6_EEEE) refers to amcbldc-main.o(.text._ZNSt3__26vectorIN5embot4prot3can5FrameENS_9allocatorIS4_EEE21_ConstructTransactionD2Ev) for std::__2::vector<embot::prot::can::Frame, std::__2::allocator<embot::prot::can::Frame> >::_ConstructTransaction::~_ConstructTransaction__sub_object()
    embot_app_application_thecanparserbasic.o(.text._ZN5embot3app11application17theCANparserBasic4Impl25process_bl_broadcast_applERKNS_4prot3can5FrameERNSt3__26vectorIS6_NS9_9allocatorIS6_EEEE) refers to amcbldc-main.o(.text._ZNKSt3__26vectorIN5embot4prot3can5FrameENS_9allocatorIS4_EEE8max_sizeEv) for std::__2::vector<embot::prot::can::Frame, std::__2::allocator<embot::prot::can::Frame> >::max_size() const
    embot_app_application_thecanparserbasic.o(.text._ZN5embot3app11application17theCANparserBasic4Impl25process_bl_broadcast_applERKNS_4prot3can5FrameERNSt3__26vectorIS6_NS9_9allocatorIS6_EEEE) refers to amcbldc-main.o(.text._ZNSt3__214__split_bufferIN5embot4prot3can5FrameERNS_9allocatorIS4_EEEC2EjjS7_) for std::__2::__split_buffer<embot::prot::can::Frame, std::__2::allocator<embot::prot::can::Frame>&>::__split_buffer__sub_object(unsigned int, unsigned int, std::__2::allocator<embot::prot::can::Frame>&)
    embot_app_application_thecanparserbasic.o(.text._ZN5embot3app11application17theCANparserBasic4Impl25process_bl_broadcast_applERKNS_4prot3can5FrameERNSt3__26vectorIS6_NS9_9allocatorIS6_EEEE) refers to amcbldc-main.o(.text._ZNSt3__26vectorIN5embot4prot3can5FrameENS_9allocatorIS4_EEE26__swap_out_circular_bufferERNS_14__split_bufferIS4_RS6_EE) for std::__2::vector<embot::prot::can::Frame, std::__2::allocator<embot::prot::can::Frame> >::__swap_out_circular_buffer(std::__2::__split_buffer<embot::prot::can::Frame, std::__2::allocator<embot::prot::can::Frame>&>&)
    embot_app_application_thecanparserbasic.o(.text._ZN5embot3app11application17theCANparserBasic4Impl25process_bl_broadcast_applERKNS_4prot3can5FrameERNSt3__26vectorIS6_NS9_9allocatorIS6_EEEE) refers to amcbldc-main.o(.text._ZNSt3__214__split_bufferIN5embot4prot3can5FrameERNS_9allocatorIS4_EEED2Ev) for std::__2::__split_buffer<embot::prot::can::Frame, std::__2::allocator<embot::prot::can::Frame>&>::~__split_buffer__sub_object()
    embot_app_application_thecanparserbasic.o(.text._ZN5embot3app11application17theCANparserBasic4Impl25process_bl_broadcast_applERKNS_4prot3can5FrameERNSt3__26vectorIS6_NS9_9allocatorIS6_EEEE) refers to vector.cpp.o(.text._ZNKSt3__220__vector_base_commonILb1EE20__throw_length_errorEv) for std::__2::__vector_base_common<true>::__throw_length_error() const
    embot_app_application_thecanparserbasic.o(.ARM.exidx.text._ZN5embot3app11application17theCANparserBasic4Impl25process_bl_broadcast_applERKNS_4prot3can5FrameERNSt3__26vectorIS6_NS9_9allocatorIS6_EEEE) refers to embot_app_application_thecanparserbasic.o(.text._ZN5embot3app11application17theCANparserBasic4Impl25process_bl_broadcast_applERKNS_4prot3can5FrameERNSt3__26vectorIS6_NS9_9allocatorIS6_EEEE) for [Anonymous Symbol]
    embot_app_application_thecanparserbasic.o(.text._ZN5embot3app11application17theCANparserBasic4Impl24process_bl_setcanaddressERKNS_4prot3can5FrameERNSt3__26vectorIS6_NS9_9allocatorIS6_EEEE) refers to embot_app_application_thecanparserbasic.o(.text._ZN5embot4prot3can10bootloader21Message_SETCANADDRESSC2Ev) for embot::prot::can::bootloader::Message_SETCANADDRESS::Message_SETCANADDRESS__sub_object()
    embot_app_application_thecanparserbasic.o(.text._ZN5embot3app11application17theCANparserBasic4Impl24process_bl_setcanaddressERKNS_4prot3can5FrameERNSt3__26vectorIS6_NS9_9allocatorIS6_EEEE) refers to embot_prot_can_bootloader.o(.text._ZN5embot4prot3can10bootloader21Message_SETCANADDRESS4loadERKNS1_5FrameE) for embot::prot::can::bootloader::Message_SETCANADDRESS::load(embot::prot::can::Frame const&)
    embot_app_application_thecanparserbasic.o(.text._ZN5embot3app11application17theCANparserBasic4Impl24process_bl_setcanaddressERKNS_4prot3can5FrameERNSt3__26vectorIS6_NS9_9allocatorIS6_EEEE) refers to embot_app_application_thecanparserbasic.o(.text._ZN5embot3app11application17theCANparserBasic4Impl13setcanaddressEht) for embot::app::application::theCANparserBasic::Impl::setcanaddress(unsigned char, unsigned short)
    embot_app_application_thecanparserbasic.o(.text._ZN5embot3app11application17theCANparserBasic4Impl24process_bl_setcanaddressERKNS_4prot3can5FrameERNSt3__26vectorIS6_NS9_9allocatorIS6_EEEE) refers to embot_prot_can_bootloader.o(.text._ZN5embot4prot3can10bootloader21Message_SETCANADDRESS5replyEv) for embot::prot::can::bootloader::Message_SETCANADDRESS::reply()
    embot_app_application_thecanparserbasic.o(.ARM.exidx.text._ZN5embot3app11application17theCANparserBasic4Impl24process_bl_setcanaddressERKNS_4prot3can5FrameERNSt3__26vectorIS6_NS9_9allocatorIS6_EEEE) refers to embot_app_application_thecanparserbasic.o(.text._ZN5embot3app11application17theCANparserBasic4Impl24process_bl_setcanaddressERKNS_4prot3can5FrameERNSt3__26vectorIS6_NS9_9allocatorIS6_EEEE) for [Anonymous Symbol]
    embot_app_application_thecanparserbasic.o(.text._ZN5embot3app11application17theCANparserBasic4Impl28process_bl_getadditionalinfoERKNS_4prot3can5FrameERNSt3__26vectorIS6_NS9_9allocatorIS6_EEEE) refers to embot_app_application_thecanparserbasic.o(.text._ZN5embot4prot3can10bootloader27Message_GET_ADDITIONAL_INFOC2Ev) for embot::prot::can::bootloader::Message_GET_ADDITIONAL_INFO::Message_GET_ADDITIONAL_INFO__sub_object()
    embot_app_application_thecanparserbasic.o(.text._ZN5embot3app11application17theCANparserBasic4Impl28process_bl_getadditionalinfoERKNS_4prot3can5FrameERNSt3__26vectorIS6_NS9_9allocatorIS6_EEEE) refers to embot_prot_can_bootloader.o(.text._ZN5embot4prot3can10bootloader27Message_GET_ADDITIONAL_INFO4loadERKNS1_5FrameE) for embot::prot::can::bootloader::Message_GET_ADDITIONAL_INFO::load(embot::prot::can::Frame const&)
    embot_app_application_thecanparserbasic.o(.text._ZN5embot3app11application17theCANparserBasic4Impl28process_bl_getadditionalinfoERKNS_4prot3can5FrameERNSt3__26vectorIS6_NS9_9allocatorIS6_EEEE) refers to embot_app_thecanboardinfo.o(.text._ZN5embot3app15theCANboardInfo11getInstanceEv) for embot::app::theCANboardInfo::getInstance()
    embot_app_application_thecanparserbasic.o(.text._ZN5embot3app11application17theCANparserBasic4Impl28process_bl_getadditionalinfoERKNS_4prot3can5FrameERNSt3__26vectorIS6_NS9_9allocatorIS6_EEEE) refers to rt_memclr_w.o(.text) for __aeabi_memclr4
    embot_app_application_thecanparserbasic.o(.text._ZN5embot3app11application17theCANparserBasic4Impl28process_bl_getadditionalinfoERKNS_4prot3can5FrameERNSt3__26vectorIS6_NS9_9allocatorIS6_EEEE) refers to embot_app_thecanboardinfo.o(.text._ZN5embot3app15theCANboardInfo3getERNS1_10StoredInfoE) for embot::app::theCANboardInfo::get(embot::app::theCANboardInfo::StoredInfo&)
    embot_app_application_thecanparserbasic.o(.text._ZN5embot3app11application17theCANparserBasic4Impl28process_bl_getadditionalinfoERKNS_4prot3can5FrameERNSt3__26vectorIS6_NS9_9allocatorIS6_EEEE) refers to embot_prot_can_bootloader.o(.text._ZN5embot4prot3can10bootloader27Message_GET_ADDITIONAL_INFO15numberofrepliesEv) for embot::prot::can::bootloader::Message_GET_ADDITIONAL_INFO::numberofreplies()
    embot_app_application_thecanparserbasic.o(.text._ZN5embot3app11application17theCANparserBasic4Impl28process_bl_getadditionalinfoERKNS_4prot3can5FrameERNSt3__26vectorIS6_NS9_9allocatorIS6_EEEE) refers to amcbldc-main.o(.text._ZNSt3__26vectorIN5embot4prot3can5FrameENS_9allocatorIS4_EEE21_ConstructTransactionC2ERS7_j) for std::__2::vector<embot::prot::can::Frame, std::__2::allocator<embot::prot::can::Frame> >::_ConstructTransaction::_ConstructTransaction__sub_object(std::__2::vector<embot::prot::can::Frame, std::__2::allocator<embot::prot::can::Frame> >&, unsigned int)
    embot_app_application_thecanparserbasic.o(.text._ZN5embot3app11application17theCANparserBasic4Impl28process_bl_getadditionalinfoERKNS_4prot3can5FrameERNSt3__26vectorIS6_NS9_9allocatorIS6_EEEE) refers to amcbldc-main.o(.text._ZNSt3__26vectorIN5embot4prot3can5FrameENS_9allocatorIS4_EEE21_ConstructTransactionD2Ev) for std::__2::vector<embot::prot::can::Frame, std::__2::allocator<embot::prot::can::Frame> >::_ConstructTransaction::~_ConstructTransaction__sub_object()
    embot_app_application_thecanparserbasic.o(.text._ZN5embot3app11application17theCANparserBasic4Impl28process_bl_getadditionalinfoERKNS_4prot3can5FrameERNSt3__26vectorIS6_NS9_9allocatorIS6_EEEE) refers to embot_app_thecanboardinfo.o(.text._ZN5embot3app15theCANboardInfo16cachedCANaddressEv) for embot::app::theCANboardInfo::cachedCANaddress()
    embot_app_application_thecanparserbasic.o(.text._ZN5embot3app11application17theCANparserBasic4Impl28process_bl_getadditionalinfoERKNS_4prot3can5FrameERNSt3__26vectorIS6_NS9_9allocatorIS6_EEEE) refers to embot_prot_can_bootloader.o(.text._ZN5embot4prot3can10bootloader27Message_GET_ADDITIONAL_INFO5replyERNS1_5FrameEhRKNS3_9ReplyInfoE) for embot::prot::can::bootloader::Message_GET_ADDITIONAL_INFO::reply(embot::prot::can::Frame&, unsigned char, embot::prot::can::bootloader::Message_GET_ADDITIONAL_INFO::ReplyInfo const&)
    embot_app_application_thecanparserbasic.o(.text._ZN5embot3app11application17theCANparserBasic4Impl28process_bl_getadditionalinfoERKNS_4prot3can5FrameERNSt3__26vectorIS6_NS9_9allocatorIS6_EEEE) refers to amcbldc-main.o(.text._ZNKSt3__26vectorIN5embot4prot3can5FrameENS_9allocatorIS4_EEE8max_sizeEv) for std::__2::vector<embot::prot::can::Frame, std::__2::allocator<embot::prot::can::Frame> >::max_size() const
    embot_app_application_thecanparserbasic.o(.text._ZN5embot3app11application17theCANparserBasic4Impl28process_bl_getadditionalinfoERKNS_4prot3can5FrameERNSt3__26vectorIS6_NS9_9allocatorIS6_EEEE) refers to amcbldc-main.o(.text._ZNSt3__214__split_bufferIN5embot4prot3can5FrameERNS_9allocatorIS4_EEEC2EjjS7_) for std::__2::__split_buffer<embot::prot::can::Frame, std::__2::allocator<embot::prot::can::Frame>&>::__split_buffer__sub_object(unsigned int, unsigned int, std::__2::allocator<embot::prot::can::Frame>&)
    embot_app_application_thecanparserbasic.o(.text._ZN5embot3app11application17theCANparserBasic4Impl28process_bl_getadditionalinfoERKNS_4prot3can5FrameERNSt3__26vectorIS6_NS9_9allocatorIS6_EEEE) refers to amcbldc-main.o(.text._ZNSt3__26vectorIN5embot4prot3can5FrameENS_9allocatorIS4_EEE26__swap_out_circular_bufferERNS_14__split_bufferIS4_RS6_EE) for std::__2::vector<embot::prot::can::Frame, std::__2::allocator<embot::prot::can::Frame> >::__swap_out_circular_buffer(std::__2::__split_buffer<embot::prot::can::Frame, std::__2::allocator<embot::prot::can::Frame>&>&)
    embot_app_application_thecanparserbasic.o(.text._ZN5embot3app11application17theCANparserBasic4Impl28process_bl_getadditionalinfoERKNS_4prot3can5FrameERNSt3__26vectorIS6_NS9_9allocatorIS6_EEEE) refers to amcbldc-main.o(.text._ZNSt3__214__split_bufferIN5embot4prot3can5FrameERNS_9allocatorIS4_EEED2Ev) for std::__2::__split_buffer<embot::prot::can::Frame, std::__2::allocator<embot::prot::can::Frame>&>::~__split_buffer__sub_object()
    embot_app_application_thecanparserbasic.o(.text._ZN5embot3app11application17theCANparserBasic4Impl28process_bl_getadditionalinfoERKNS_4prot3can5FrameERNSt3__26vectorIS6_NS9_9allocatorIS6_EEEE) refers to vector.cpp.o(.text._ZNKSt3__220__vector_base_commonILb1EE20__throw_length_errorEv) for std::__2::__vector_base_common<true>::__throw_length_error() const
    embot_app_application_thecanparserbasic.o(.ARM.exidx.text._ZN5embot3app11application17theCANparserBasic4Impl28process_bl_getadditionalinfoERKNS_4prot3can5FrameERNSt3__26vectorIS6_NS9_9allocatorIS6_EEEE) refers to embot_app_application_thecanparserbasic.o(.text._ZN5embot3app11application17theCANparserBasic4Impl28process_bl_getadditionalinfoERKNS_4prot3can5FrameERNSt3__26vectorIS6_NS9_9allocatorIS6_EEEE) for [Anonymous Symbol]
    embot_app_application_thecanparserbasic.o(.text._ZN5embot3app11application17theCANparserBasic4Impl28process_bl_setadditionalinfoERKNS_4prot3can5FrameERNSt3__26vectorIS6_NS9_9allocatorIS6_EEEE) refers to embot_app_application_thecanparserbasic.o(.text._ZN5embot4prot3can10bootloader28Message_SET_ADDITIONAL_INFO2C2Ev) for embot::prot::can::bootloader::Message_SET_ADDITIONAL_INFO2::Message_SET_ADDITIONAL_INFO2__sub_object()
    embot_app_application_thecanparserbasic.o(.text._ZN5embot3app11application17theCANparserBasic4Impl28process_bl_setadditionalinfoERKNS_4prot3can5FrameERNSt3__26vectorIS6_NS9_9allocatorIS6_EEEE) refers to embot_prot_can_bootloader.o(.text._ZN5embot4prot3can10bootloader28Message_SET_ADDITIONAL_INFO24loadERKNS1_5FrameE) for embot::prot::can::bootloader::Message_SET_ADDITIONAL_INFO2::load(embot::prot::can::Frame const&)
    embot_app_application_thecanparserbasic.o(.text._ZN5embot3app11application17theCANparserBasic4Impl28process_bl_setadditionalinfoERKNS_4prot3can5FrameERNSt3__26vectorIS6_NS9_9allocatorIS6_EEEE) refers to embot_app_thecanboardinfo.o(.text._ZN5embot3app15theCANboardInfo11getInstanceEv) for embot::app::theCANboardInfo::getInstance()
    embot_app_application_thecanparserbasic.o(.text._ZN5embot3app11application17theCANparserBasic4Impl28process_bl_setadditionalinfoERKNS_4prot3can5FrameERNSt3__26vectorIS6_NS9_9allocatorIS6_EEEE) refers to rt_memclr_w.o(.text) for __aeabi_memclr4
    embot_app_application_thecanparserbasic.o(.text._ZN5embot3app11application17theCANparserBasic4Impl28process_bl_setadditionalinfoERKNS_4prot3can5FrameERNSt3__26vectorIS6_NS9_9allocatorIS6_EEEE) refers to embot_app_thecanboardinfo.o(.text._ZN5embot3app15theCANboardInfo3getERNS1_10StoredInfoE) for embot::app::theCANboardInfo::get(embot::app::theCANboardInfo::StoredInfo&)
    embot_app_application_thecanparserbasic.o(.text._ZN5embot3app11application17theCANparserBasic4Impl28process_bl_setadditionalinfoERKNS_4prot3can5FrameERNSt3__26vectorIS6_NS9_9allocatorIS6_EEEE) refers to rt_memcpy_v6.o(.text) for __aeabi_memcpy
    embot_app_application_thecanparserbasic.o(.text._ZN5embot3app11application17theCANparserBasic4Impl28process_bl_setadditionalinfoERKNS_4prot3can5FrameERNSt3__26vectorIS6_NS9_9allocatorIS6_EEEE) refers to embot_app_thecanboardinfo.o(.text._ZN5embot3app15theCANboardInfo3setERKNS1_10StoredInfoE) for embot::app::theCANboardInfo::set(embot::app::theCANboardInfo::StoredInfo const&)
    embot_app_application_thecanparserbasic.o(.ARM.exidx.text._ZN5embot3app11application17theCANparserBasic4Impl28process_bl_setadditionalinfoERKNS_4prot3can5FrameERNSt3__26vectorIS6_NS9_9allocatorIS6_EEEE) refers to embot_app_application_thecanparserbasic.o(.text._ZN5embot3app11application17theCANparserBasic4Impl28process_bl_setadditionalinfoERKNS_4prot3can5FrameERNSt3__26vectorIS6_NS9_9allocatorIS6_EEEE) for [Anonymous Symbol]
    embot_app_application_thecanparserbasic.o(.text._ZN5embot3app11application17theCANparserBasic4Impl24process_bl_gettimeoflifeERKNS_4prot3can5FrameERNSt3__26vectorIS6_NS9_9allocatorIS6_EEEE) refers to embot_app_application_thecanparserbasic.o(.text._ZN5embot4prot3can10bootloader22Message_GET_TIMEOFLIFEC2Ev) for embot::prot::can::bootloader::Message_GET_TIMEOFLIFE::Message_GET_TIMEOFLIFE__sub_object()
    embot_app_application_thecanparserbasic.o(.text._ZN5embot3app11application17theCANparserBasic4Impl24process_bl_gettimeoflifeERKNS_4prot3can5FrameERNSt3__26vectorIS6_NS9_9allocatorIS6_EEEE) refers to embot_prot_can_bootloader.o(.text._ZN5embot4prot3can10bootloader22Message_GET_TIMEOFLIFE4loadERKNS1_5FrameE) for embot::prot::can::bootloader::Message_GET_TIMEOFLIFE::load(embot::prot::can::Frame const&)
    embot_app_application_thecanparserbasic.o(.text._ZN5embot3app11application17theCANparserBasic4Impl24process_bl_gettimeoflifeERKNS_4prot3can5FrameERNSt3__26vectorIS6_NS9_9allocatorIS6_EEEE) refers to embot_app_application_thecanparserbasic.o(.text._ZN5embot4prot3can10bootloader22Message_GET_TIMEOFLIFE9ReplyInfoC2Ev) for embot::prot::can::bootloader::Message_GET_TIMEOFLIFE::ReplyInfo::ReplyInfo__sub_object()
    embot_app_application_thecanparserbasic.o(.text._ZN5embot3app11application17theCANparserBasic4Impl24process_bl_gettimeoflifeERKNS_4prot3can5FrameERNSt3__26vectorIS6_NS9_9allocatorIS6_EEEE) refers to embot_core.o(.text._ZN5embot4core3nowEv) for embot::core::now()
    embot_app_application_thecanparserbasic.o(.text._ZN5embot3app11application17theCANparserBasic4Impl24process_bl_gettimeoflifeERKNS_4prot3can5FrameERNSt3__26vectorIS6_NS9_9allocatorIS6_EEEE) refers to embot_app_thecanboardinfo.o(.text._ZN5embot3app15theCANboardInfo11getInstanceEv) for embot::app::theCANboardInfo::getInstance()
    embot_app_application_thecanparserbasic.o(.text._ZN5embot3app11application17theCANparserBasic4Impl24process_bl_gettimeoflifeERKNS_4prot3can5FrameERNSt3__26vectorIS6_NS9_9allocatorIS6_EEEE) refers to embot_app_thecanboardinfo.o(.text._ZN5embot3app15theCANboardInfo16cachedCANaddressEv) for embot::app::theCANboardInfo::cachedCANaddress()
    embot_app_application_thecanparserbasic.o(.text._ZN5embot3app11application17theCANparserBasic4Impl24process_bl_gettimeoflifeERKNS_4prot3can5FrameERNSt3__26vectorIS6_NS9_9allocatorIS6_EEEE) refers to embot_prot_can_bootloader.o(.text._ZN5embot4prot3can10bootloader22Message_GET_TIMEOFLIFE5replyERNS1_5FrameEhRKNS3_9ReplyInfoE) for embot::prot::can::bootloader::Message_GET_TIMEOFLIFE::reply(embot::prot::can::Frame&, unsigned char, embot::prot::can::bootloader::Message_GET_TIMEOFLIFE::ReplyInfo const&)
    embot_app_application_thecanparserbasic.o(.text._ZN5embot3app11application17theCANparserBasic4Impl24process_bl_gettimeoflifeERKNS_4prot3can5FrameERNSt3__26vectorIS6_NS9_9allocatorIS6_EEEE) refers to amcbldc-main.o(.text._ZNSt3__26vectorIN5embot4prot3can5FrameENS_9allocatorIS4_EEE21_ConstructTransactionC2ERS7_j) for std::__2::vector<embot::prot::can::Frame, std::__2::allocator<embot::prot::can::Frame> >::_ConstructTransaction::_ConstructTransaction__sub_object(std::__2::vector<embot::prot::can::Frame, std::__2::allocator<embot::prot::can::Frame> >&, unsigned int)
    embot_app_application_thecanparserbasic.o(.text._ZN5embot3app11application17theCANparserBasic4Impl24process_bl_gettimeoflifeERKNS_4prot3can5FrameERNSt3__26vectorIS6_NS9_9allocatorIS6_EEEE) refers to amcbldc-main.o(.text._ZNSt3__26vectorIN5embot4prot3can5FrameENS_9allocatorIS4_EEE21_ConstructTransactionD2Ev) for std::__2::vector<embot::prot::can::Frame, std::__2::allocator<embot::prot::can::Frame> >::_ConstructTransaction::~_ConstructTransaction__sub_object()
    embot_app_application_thecanparserbasic.o(.text._ZN5embot3app11application17theCANparserBasic4Impl24process_bl_gettimeoflifeERKNS_4prot3can5FrameERNSt3__26vectorIS6_NS9_9allocatorIS6_EEEE) refers to amcbldc-main.o(.text._ZNKSt3__26vectorIN5embot4prot3can5FrameENS_9allocatorIS4_EEE8max_sizeEv) for std::__2::vector<embot::prot::can::Frame, std::__2::allocator<embot::prot::can::Frame> >::max_size() const
    embot_app_application_thecanparserbasic.o(.text._ZN5embot3app11application17theCANparserBasic4Impl24process_bl_gettimeoflifeERKNS_4prot3can5FrameERNSt3__26vectorIS6_NS9_9allocatorIS6_EEEE) refers to amcbldc-main.o(.text._ZNSt3__214__split_bufferIN5embot4prot3can5FrameERNS_9allocatorIS4_EEEC2EjjS7_) for std::__2::__split_buffer<embot::prot::can::Frame, std::__2::allocator<embot::prot::can::Frame>&>::__split_buffer__sub_object(unsigned int, unsigned int, std::__2::allocator<embot::prot::can::Frame>&)
    embot_app_application_thecanparserbasic.o(.text._ZN5embot3app11application17theCANparserBasic4Impl24process_bl_gettimeoflifeERKNS_4prot3can5FrameERNSt3__26vectorIS6_NS9_9allocatorIS6_EEEE) refers to amcbldc-main.o(.text._ZNSt3__26vectorIN5embot4prot3can5FrameENS_9allocatorIS4_EEE26__swap_out_circular_bufferERNS_14__split_bufferIS4_RS6_EE) for std::__2::vector<embot::prot::can::Frame, std::__2::allocator<embot::prot::can::Frame> >::__swap_out_circular_buffer(std::__2::__split_buffer<embot::prot::can::Frame, std::__2::allocator<embot::prot::can::Frame>&>&)
    embot_app_application_thecanparserbasic.o(.text._ZN5embot3app11application17theCANparserBasic4Impl24process_bl_gettimeoflifeERKNS_4prot3can5FrameERNSt3__26vectorIS6_NS9_9allocatorIS6_EEEE) refers to amcbldc-main.o(.text._ZNSt3__214__split_bufferIN5embot4prot3can5FrameERNS_9allocatorIS4_EEED2Ev) for std::__2::__split_buffer<embot::prot::can::Frame, std::__2::allocator<embot::prot::can::Frame>&>::~__split_buffer__sub_object()
    embot_app_application_thecanparserbasic.o(.text._ZN5embot3app11application17theCANparserBasic4Impl24process_bl_gettimeoflifeERKNS_4prot3can5FrameERNSt3__26vectorIS6_NS9_9allocatorIS6_EEEE) refers to vector.cpp.o(.text._ZNKSt3__220__vector_base_commonILb1EE20__throw_length_errorEv) for std::__2::__vector_base_common<true>::__throw_length_error() const
    embot_app_application_thecanparserbasic.o(.ARM.exidx.text._ZN5embot3app11application17theCANparserBasic4Impl24process_bl_gettimeoflifeERKNS_4prot3can5FrameERNSt3__26vectorIS6_NS9_9allocatorIS6_EEEE) refers to embot_app_application_thecanparserbasic.o(.text._ZN5embot3app11application17theCANparserBasic4Impl24process_bl_gettimeoflifeERKNS_4prot3can5FrameERNSt3__26vectorIS6_NS9_9allocatorIS6_EEEE) for [Anonymous Symbol]
    embot_app_application_thecanparserbasic.o(.text._ZN5embot3app11application17theCANparserBasic4Impl13process_setidENS_4prot3can4ClasEhRKNS5_5FrameERNSt3__26vectorIS7_NSA_9allocatorIS7_EEEE) refers to embot_app_application_thecanparserbasic.o(.text._ZN5embot4prot3can6shared14Message_SET_IDC2ENS1_4ClasEh) for embot::prot::can::shared::Message_SET_ID::Message_SET_ID__sub_object(embot::prot::can::Clas, unsigned char)
    embot_app_application_thecanparserbasic.o(.text._ZN5embot3app11application17theCANparserBasic4Impl13process_setidENS_4prot3can4ClasEhRKNS5_5FrameERNSt3__26vectorIS7_NSA_9allocatorIS7_EEEE) refers to embot_prot_can.o(.text._ZN5embot4prot3can6shared14Message_SET_ID4loadERKNS1_5FrameE) for embot::prot::can::shared::Message_SET_ID::load(embot::prot::can::Frame const&)
    embot_app_application_thecanparserbasic.o(.text._ZN5embot3app11application17theCANparserBasic4Impl13process_setidENS_4prot3can4ClasEhRKNS5_5FrameERNSt3__26vectorIS7_NSA_9allocatorIS7_EEEE) refers to embot_app_application_thecanparserbasic.o(.text._ZN5embot3app11application17theCANparserBasic4Impl13setcanaddressEht) for embot::app::application::theCANparserBasic::Impl::setcanaddress(unsigned char, unsigned short)
    embot_app_application_thecanparserbasic.o(.text._ZN5embot3app11application17theCANparserBasic4Impl13process_setidENS_4prot3can4ClasEhRKNS5_5FrameERNSt3__26vectorIS7_NSA_9allocatorIS7_EEEE) refers to embot_prot_can.o(.text._ZN5embot4prot3can6shared14Message_SET_ID5replyEv) for embot::prot::can::shared::Message_SET_ID::reply()
    embot_app_application_thecanparserbasic.o(.ARM.exidx.text._ZN5embot3app11application17theCANparserBasic4Impl13process_setidENS_4prot3can4ClasEhRKNS5_5FrameERNSt3__26vectorIS7_NSA_9allocatorIS7_EEEE) refers to embot_app_application_thecanparserbasic.o(.text._ZN5embot3app11application17theCANparserBasic4Impl13process_setidENS_4prot3can4ClasEhRKNS5_5FrameERNSt3__26vectorIS7_NSA_9allocatorIS7_EEEE) for [Anonymous Symbol]
    embot_app_application_thecanparserbasic.o(.text._ZN5embot3app11application17theCANparserBasic4Impl26process_getfirmwareversionENS_4prot3can4ClasEhRKNS5_5FrameERNSt3__26vectorIS7_NSA_9allocatorIS7_EEEE) refers to embot_app_application_thecanparserbasic.o(.text._ZN5embot4prot3can6shared19Message_GET_VERSIONC2ENS1_4ClasEh) for embot::prot::can::shared::Message_GET_VERSION::Message_GET_VERSION__sub_object(embot::prot::can::Clas, unsigned char)
    embot_app_application_thecanparserbasic.o(.text._ZN5embot3app11application17theCANparserBasic4Impl26process_getfirmwareversionENS_4prot3can4ClasEhRKNS5_5FrameERNSt3__26vectorIS7_NSA_9allocatorIS7_EEEE) refers to embot_prot_can.o(.text._ZN5embot4prot3can6shared19Message_GET_VERSION4loadERKNS1_5FrameE) for embot::prot::can::shared::Message_GET_VERSION::load(embot::prot::can::Frame const&)
    embot_app_application_thecanparserbasic.o(.text._ZN5embot3app11application17theCANparserBasic4Impl26process_getfirmwareversionENS_4prot3can4ClasEhRKNS5_5FrameERNSt3__26vectorIS7_NSA_9allocatorIS7_EEEE) refers to embot_app_application_thecanparserbasic.o(.text._ZN5embot4prot3can6shared19Message_GET_VERSION9ReplyInfoC2Ev) for embot::prot::can::shared::Message_GET_VERSION::ReplyInfo::ReplyInfo__sub_object()
    embot_app_application_thecanparserbasic.o(.text._ZN5embot3app11application17theCANparserBasic4Impl26process_getfirmwareversionENS_4prot3can4ClasEhRKNS5_5FrameERNSt3__26vectorIS7_NSA_9allocatorIS7_EEEE) refers to embot_app_thecanboardinfo.o(.text._ZN5embot3app15theCANboardInfo11getInstanceEv) for embot::app::theCANboardInfo::getInstance()
    embot_app_application_thecanparserbasic.o(.text._ZN5embot3app11application17theCANparserBasic4Impl26process_getfirmwareversionENS_4prot3can4ClasEhRKNS5_5FrameERNSt3__26vectorIS7_NSA_9allocatorIS7_EEEE) refers to embot_app_thecanboardinfo.o(.text._ZN5embot3app15theCANboardInfo16cachedCANaddressEv) for embot::app::theCANboardInfo::cachedCANaddress()
    embot_app_application_thecanparserbasic.o(.text._ZN5embot3app11application17theCANparserBasic4Impl26process_getfirmwareversionENS_4prot3can4ClasEhRKNS5_5FrameERNSt3__26vectorIS7_NSA_9allocatorIS7_EEEE) refers to embot_prot_can.o(.text._ZN5embot4prot3can6shared19Message_GET_VERSION5replyERNS1_5FrameEhRKNS3_9ReplyInfoE) for embot::prot::can::shared::Message_GET_VERSION::reply(embot::prot::can::Frame&, unsigned char, embot::prot::can::shared::Message_GET_VERSION::ReplyInfo const&)
    embot_app_application_thecanparserbasic.o(.text._ZN5embot3app11application17theCANparserBasic4Impl26process_getfirmwareversionENS_4prot3can4ClasEhRKNS5_5FrameERNSt3__26vectorIS7_NSA_9allocatorIS7_EEEE) refers to amcbldc-main.o(.text._ZNSt3__26vectorIN5embot4prot3can5FrameENS_9allocatorIS4_EEE21_ConstructTransactionC2ERS7_j) for std::__2::vector<embot::prot::can::Frame, std::__2::allocator<embot::prot::can::Frame> >::_ConstructTransaction::_ConstructTransaction__sub_object(std::__2::vector<embot::prot::can::Frame, std::__2::allocator<embot::prot::can::Frame> >&, unsigned int)
    embot_app_application_thecanparserbasic.o(.text._ZN5embot3app11application17theCANparserBasic4Impl26process_getfirmwareversionENS_4prot3can4ClasEhRKNS5_5FrameERNSt3__26vectorIS7_NSA_9allocatorIS7_EEEE) refers to amcbldc-main.o(.text._ZNSt3__26vectorIN5embot4prot3can5FrameENS_9allocatorIS4_EEE21_ConstructTransactionD2Ev) for std::__2::vector<embot::prot::can::Frame, std::__2::allocator<embot::prot::can::Frame> >::_ConstructTransaction::~_ConstructTransaction__sub_object()
    embot_app_application_thecanparserbasic.o(.text._ZN5embot3app11application17theCANparserBasic4Impl26process_getfirmwareversionENS_4prot3can4ClasEhRKNS5_5FrameERNSt3__26vectorIS7_NSA_9allocatorIS7_EEEE) refers to amcbldc-main.o(.text._ZNKSt3__26vectorIN5embot4prot3can5FrameENS_9allocatorIS4_EEE8max_sizeEv) for std::__2::vector<embot::prot::can::Frame, std::__2::allocator<embot::prot::can::Frame> >::max_size() const
    embot_app_application_thecanparserbasic.o(.text._ZN5embot3app11application17theCANparserBasic4Impl26process_getfirmwareversionENS_4prot3can4ClasEhRKNS5_5FrameERNSt3__26vectorIS7_NSA_9allocatorIS7_EEEE) refers to amcbldc-main.o(.text._ZNSt3__214__split_bufferIN5embot4prot3can5FrameERNS_9allocatorIS4_EEEC2EjjS7_) for std::__2::__split_buffer<embot::prot::can::Frame, std::__2::allocator<embot::prot::can::Frame>&>::__split_buffer__sub_object(unsigned int, unsigned int, std::__2::allocator<embot::prot::can::Frame>&)
    embot_app_application_thecanparserbasic.o(.text._ZN5embot3app11application17theCANparserBasic4Impl26process_getfirmwareversionENS_4prot3can4ClasEhRKNS5_5FrameERNSt3__26vectorIS7_NSA_9allocatorIS7_EEEE) refers to amcbldc-main.o(.text._ZNSt3__26vectorIN5embot4prot3can5FrameENS_9allocatorIS4_EEE26__swap_out_circular_bufferERNS_14__split_bufferIS4_RS6_EE) for std::__2::vector<embot::prot::can::Frame, std::__2::allocator<embot::prot::can::Frame> >::__swap_out_circular_buffer(std::__2::__split_buffer<embot::prot::can::Frame, std::__2::allocator<embot::prot::can::Frame>&>&)
    embot_app_application_thecanparserbasic.o(.text._ZN5embot3app11application17theCANparserBasic4Impl26process_getfirmwareversionENS_4prot3can4ClasEhRKNS5_5FrameERNSt3__26vectorIS7_NSA_9allocatorIS7_EEEE) refers to amcbldc-main.o(.text._ZNSt3__214__split_bufferIN5embot4prot3can5FrameERNS_9allocatorIS4_EEED2Ev) for std::__2::__split_buffer<embot::prot::can::Frame, std::__2::allocator<embot::prot::can::Frame>&>::~__split_buffer__sub_object()
    embot_app_application_thecanparserbasic.o(.text._ZN5embot3app11application17theCANparserBasic4Impl26process_getfirmwareversionENS_4prot3can4ClasEhRKNS5_5FrameERNSt3__26vectorIS7_NSA_9allocatorIS7_EEEE) refers to vector.cpp.o(.text._ZNKSt3__220__vector_base_commonILb1EE20__throw_length_errorEv) for std::__2::__vector_base_common<true>::__throw_length_error() const
    embot_app_application_thecanparserbasic.o(.ARM.exidx.text._ZN5embot3app11application17theCANparserBasic4Impl26process_getfirmwareversionENS_4prot3can4ClasEhRKNS5_5FrameERNSt3__26vectorIS7_NSA_9allocatorIS7_EEEE) refers to embot_app_application_thecanparserbasic.o(.text._ZN5embot3app11application17theCANparserBasic4Impl26process_getfirmwareversionENS_4prot3can4ClasEhRKNS5_5FrameERNSt3__26vectorIS7_NSA_9allocatorIS7_EEEE) for [Anonymous Symbol]
    embot_app_application_thecanparserbasic.o(.text._ZN5embot3app11application17theCANparserBasic11getInstanceEv) refers to embot_app_application_thecanparserbasic.o(.bss._ZGVZN5embot3app11application17theCANparserBasic11getInstanceEvE1p) for guard variable for embot::app::application::theCANparserBasic::getInstance()::p
    embot_app_application_thecanparserbasic.o(.text._ZN5embot3app11application17theCANparserBasic11getInstanceEv) refers to embot_app_application_thecanparserbasic.o(.bss._ZZN5embot3app11application17theCANparserBasic11getInstanceEvE1p) for embot::app::application::theCANparserBasic::getInstance()::p
    embot_app_application_thecanparserbasic.o(.text._ZN5embot3app11application17theCANparserBasic11getInstanceEv) refers to cxa_guard.cpp.o(.text.unlikely.__cxa_guard_acquire) for __cxa_guard_acquire
    embot_app_application_thecanparserbasic.o(.text._ZN5embot3app11application17theCANparserBasic11getInstanceEv) refers to embot_os_rtos.o(.text._Znwj) for operator new(unsigned int)
    embot_app_application_thecanparserbasic.o(.text._ZN5embot3app11application17theCANparserBasic11getInstanceEv) refers to embot_app_application_thecanparserbasic.o(.text._ZN5embot3app11application17theCANparserBasicC2Ev) for embot::app::application::theCANparserBasic::theCANparserBasic__sub_object()
    embot_app_application_thecanparserbasic.o(.text._ZN5embot3app11application17theCANparserBasic11getInstanceEv) refers to cxa_guard.cpp.o(.text.unlikely.__cxa_guard_release) for __cxa_guard_release
    embot_app_application_thecanparserbasic.o(.ARM.exidx.text._ZN5embot3app11application17theCANparserBasic11getInstanceEv) refers to embot_app_application_thecanparserbasic.o(.text._ZN5embot3app11application17theCANparserBasic11getInstanceEv) for [Anonymous Symbol]
    embot_app_application_thecanparserbasic.o(.text._ZN5embot3app11application17theCANparserBasicC2Ev) refers to embot_os_rtos.o(.text._Znwj) for operator new(unsigned int)
    embot_app_application_thecanparserbasic.o(.text._ZN5embot3app11application17theCANparserBasicC2Ev) refers to embot_app_application_thecanparserbasic.o(.text._ZN5embot3app11application17theCANparserBasic4ImplC2Ev) for embot::app::application::theCANparserBasic::Impl::Impl__sub_object()
    embot_app_application_thecanparserbasic.o(.text._ZN5embot3app11application17theCANparserBasicC2Ev) refers to embot_os_rtos.o(.text._ZdlPv) for operator delete(void*)
    embot_app_application_thecanparserbasic.o(.text._ZN5embot3app11application17theCANparserBasicC2Ev) refers to embot_app_thejumper.o(.text._ZN5embot3app9theJumper11getInstanceEv) for embot::app::theJumper::getInstance()
    embot_app_application_thecanparserbasic.o(.ARM.exidx.text._ZN5embot3app11application17theCANparserBasicC2Ev) refers to embot_app_application_thecanparserbasic.o(.text._ZN5embot3app11application17theCANparserBasicC2Ev) for [Anonymous Symbol]
    embot_app_application_thecanparserbasic.o(.text._ZN5embot3app11application17theCANparserBasicD2Ev) refers to embot_os_rtos.o(.text._ZdlPv) for operator delete(void*)
    embot_app_application_thecanparserbasic.o(.ARM.exidx.text._ZN5embot3app11application17theCANparserBasicD2Ev) refers to embot_app_application_thecanparserbasic.o(.text._ZN5embot3app11application17theCANparserBasicD2Ev) for [Anonymous Symbol]
    embot_app_application_thecanparserbasic.o(.text._ZN5embot3app11application17theCANparserBasic10initialiseERKNS2_6ConfigE) refers to embot_app_thecanboardinfo.o(.text._ZN5embot3app15theCANboardInfo11getInstanceEv) for embot::app::theCANboardInfo::getInstance()
    embot_app_application_thecanparserbasic.o(.text._ZN5embot3app11application17theCANparserBasic10initialiseERKNS2_6ConfigE) refers to embot_app_thecanboardinfo.o(.text._ZN5embot3app15theCANboardInfo3getERNS1_10StoredInfoE) for embot::app::theCANboardInfo::get(embot::app::theCANboardInfo::StoredInfo&)
    embot_app_application_thecanparserbasic.o(.ARM.exidx.text._ZN5embot3app11application17theCANparserBasic10initialiseERKNS2_6ConfigE) refers to embot_app_application_thecanparserbasic.o(.text._ZN5embot3app11application17theCANparserBasic10initialiseERKNS2_6ConfigE) for [Anonymous Symbol]
    embot_app_application_thecanparserbasic.o(.text._ZN5embot3app11application17theCANparserBasic7processERKNS_4prot3can5FrameERNSt3__26vectorIS5_NS8_9allocatorIS5_EEEE) refers to embot_app_application_thecanparserbasic.o(.text._ZN5embot3app11application17theCANparserBasic4Impl7processERKNS_4prot3can5FrameERNSt3__26vectorIS6_NS9_9allocatorIS6_EEEE) for embot::app::application::theCANparserBasic::Impl::process(embot::prot::can::Frame const&, std::__2::vector<embot::prot::can::Frame, std::__2::allocator<embot::prot::can::Frame> >&)
    embot_app_application_thecanparserbasic.o(.ARM.exidx.text._ZN5embot3app11application17theCANparserBasic7processERKNS_4prot3can5FrameERNSt3__26vectorIS5_NS8_9allocatorIS5_EEEE) refers to embot_app_application_thecanparserbasic.o(.text._ZN5embot3app11application17theCANparserBasic7processERKNS_4prot3can5FrameERNSt3__26vectorIS5_NS8_9allocatorIS5_EEEE) for [Anonymous Symbol]
    embot_prot_can.o(.ARM.exidx.text._ZN5embot4prot3can10frame2clasERKNS1_5FrameE) refers to embot_prot_can.o(.text._ZN5embot4prot3can10frame2clasERKNS1_5FrameE) for [Anonymous Symbol]
    embot_prot_can.o(.ARM.exidx.text._ZN5embot4prot3can12frame2senderERKNS1_5FrameE) refers to embot_prot_can.o(.text._ZN5embot4prot3can12frame2senderERKNS1_5FrameE) for [Anonymous Symbol]
    embot_prot_can.o(.text._ZN5embot4prot3can17frameisbootloaderERKNS1_5FrameE) refers to embot_prot_can.o(.text._ZN5embot4prot3can10frame2clasERKNS1_5FrameE) for embot::prot::can::frame2clas(embot::prot::can::Frame const&)
    embot_prot_can.o(.ARM.exidx.text._ZN5embot4prot3can17frameisbootloaderERKNS1_5FrameE) refers to embot_prot_can.o(.text._ZN5embot4prot3can17frameisbootloaderERKNS1_5FrameE) for [Anonymous Symbol]
    embot_prot_can.o(.text._ZN5embot4prot3can14frameispollingERKNS1_5FrameE) refers to embot_prot_can.o(.text._ZN5embot4prot3can10frame2clasERKNS1_5FrameE) for embot::prot::can::frame2clas(embot::prot::can::Frame const&)
    embot_prot_can.o(.ARM.exidx.text._ZN5embot4prot3can14frameispollingERKNS1_5FrameE) refers to embot_prot_can.o(.text._ZN5embot4prot3can14frameispollingERKNS1_5FrameE) for [Anonymous Symbol]
    embot_prot_can.o(.text._ZN5embot4prot3can15frameisperiodicERKNS1_5FrameE) refers to embot_prot_can.o(.text._ZN5embot4prot3can10frame2clasERKNS1_5FrameE) for embot::prot::can::frame2clas(embot::prot::can::Frame const&)
    embot_prot_can.o(.ARM.exidx.text._ZN5embot4prot3can15frameisperiodicERKNS1_5FrameE) refers to embot_prot_can.o(.text._ZN5embot4prot3can15frameisperiodicERKNS1_5FrameE) for [Anonymous Symbol]
    embot_prot_can.o(.text._ZN5embot4prot3can17frame2destinationERKNS1_5FrameE) refers to embot_prot_can.o(.text._ZN5embot4prot3can15frameisperiodicERKNS1_5FrameE) for embot::prot::can::frameisperiodic(embot::prot::can::Frame const&)
    embot_prot_can.o(.ARM.exidx.text._ZN5embot4prot3can17frame2destinationERKNS1_5FrameE) refers to embot_prot_can.o(.text._ZN5embot4prot3can17frame2destinationERKNS1_5FrameE) for [Anonymous Symbol]
    embot_prot_can.o(.text._ZN5embot4prot3can13frameis4boardERKNS1_5FrameEh) refers to embot_prot_can.o(.text._ZN5embot4prot3can15frameisperiodicERKNS1_5FrameE) for embot::prot::can::frameisperiodic(embot::prot::can::Frame const&)
    embot_prot_can.o(.ARM.exidx.text._ZN5embot4prot3can13frameis4boardERKNS1_5FrameEh) refers to embot_prot_can.o(.text._ZN5embot4prot3can13frameis4boardERKNS1_5FrameEh) for [Anonymous Symbol]
    embot_prot_can.o(.text._ZN5embot4prot3can9frame2cmdERKNS1_5FrameE) refers to embot_prot_can.o(.text._ZN5embot4prot3can15frameisperiodicERKNS1_5FrameE) for embot::prot::can::frameisperiodic(embot::prot::can::Frame const&)
    embot_prot_can.o(.text._ZN5embot4prot3can9frame2cmdERKNS1_5FrameE) refers to embot_prot_can.o(.text._ZN5embot4prot3can17frameisbootloaderERKNS1_5FrameE) for embot::prot::can::frameisbootloader(embot::prot::can::Frame const&)
    embot_prot_can.o(.ARM.exidx.text._ZN5embot4prot3can9frame2cmdERKNS1_5FrameE) refers to embot_prot_can.o(.text._ZN5embot4prot3can9frame2cmdERKNS1_5FrameE) for [Anonymous Symbol]
    embot_prot_can.o(.text._ZN5embot4prot3can14frame2datasizeERKNS1_5FrameE) refers to embot_prot_can.o(.text._ZN5embot4prot3can15frameisperiodicERKNS1_5FrameE) for embot::prot::can::frameisperiodic(embot::prot::can::Frame const&)
    embot_prot_can.o(.ARM.exidx.text._ZN5embot4prot3can14frame2datasizeERKNS1_5FrameE) refers to embot_prot_can.o(.text._ZN5embot4prot3can14frame2datasizeERKNS1_5FrameE) for [Anonymous Symbol]
    embot_prot_can.o(.text._ZN5embot4prot3can16frame2databufferERNS1_5FrameE) refers to embot_prot_can.o(.text._ZN5embot4prot3can15frameisperiodicERKNS1_5FrameE) for embot::prot::can::frameisperiodic(embot::prot::can::Frame const&)
    embot_prot_can.o(.ARM.exidx.text._ZN5embot4prot3can16frame2databufferERNS1_5FrameE) refers to embot_prot_can.o(.text._ZN5embot4prot3can16frame2databufferERNS1_5FrameE) for [Anonymous Symbol]
    embot_prot_can.o(.text._ZN5embot4prot3can32frame_set_clascmddestinationdataERNS1_5FrameENS1_4ClasEhhPKvhhb) refers to rt_memmove_v6.o(.text) for __aeabi_memmove
    embot_prot_can.o(.text._ZN5embot4prot3can32frame_set_clascmddestinationdataERNS1_5FrameENS1_4ClasEhhPKvhhb) refers to embot_prot_can.o(.text._ZN5embot4prot3can10frame2clasERKNS1_5FrameE) for embot::prot::can::frame2clas(embot::prot::can::Frame const&)
    embot_prot_can.o(.text._ZN5embot4prot3can32frame_set_clascmddestinationdataERNS1_5FrameENS1_4ClasEhhPKvhhb) refers to embot_prot_can.o(.text._ZN5embot4prot3can9frame2cmdERKNS1_5FrameE) for embot::prot::can::frame2cmd(embot::prot::can::Frame const&)
    embot_prot_can.o(.text._ZN5embot4prot3can32frame_set_clascmddestinationdataERNS1_5FrameENS1_4ClasEhhPKvhhb) refers to embot_prot_can.o(.text._ZN5embot4prot3can15frameisperiodicERKNS1_5FrameE) for embot::prot::can::frameisperiodic(embot::prot::can::Frame const&)
    embot_prot_can.o(.text._ZN5embot4prot3can32frame_set_clascmddestinationdataERNS1_5FrameENS1_4ClasEhhPKvhhb) refers to embot_prot_can.o(.text._ZN5embot4prot3can17frame2destinationERKNS1_5FrameE) for embot::prot::can::frame2destination(embot::prot::can::Frame const&)
    embot_prot_can.o(.ARM.exidx.text._ZN5embot4prot3can32frame_set_clascmddestinationdataERNS1_5FrameENS1_4ClasEhhPKvhhb) refers to embot_prot_can.o(.text._ZN5embot4prot3can32frame_set_clascmddestinationdataERNS1_5FrameENS1_4ClasEhhPKvhhb) for [Anonymous Symbol]
    embot_prot_can.o(.text._ZN5embot4prot3can16frame_set_senderERNS1_5FrameEhb) refers to embot_prot_can.o(.text._ZN5embot4prot3can12frame2senderERKNS1_5FrameE) for embot::prot::can::frame2sender(embot::prot::can::Frame const&)
    embot_prot_can.o(.ARM.exidx.text._ZN5embot4prot3can16frame_set_senderERNS1_5FrameEhb) refers to embot_prot_can.o(.text._ZN5embot4prot3can16frame_set_senderERNS1_5FrameEhb) for [Anonymous Symbol]
    embot_prot_can.o(.ARM.exidx.text._ZN5embot4prot3can14frame_set_sizeERNS1_5FrameEhb) refers to embot_prot_can.o(.text._ZN5embot4prot3can14frame_set_sizeERNS1_5FrameEhb) for [Anonymous Symbol]
    embot_prot_can.o(.text._ZN5embot4prot3can7Message3setERKNS1_5FrameE) refers to embot_prot_can.o(.text._ZN5embot4prot3can10frame2clasERKNS1_5FrameE) for embot::prot::can::frame2clas(embot::prot::can::Frame const&)
    embot_prot_can.o(.text._ZN5embot4prot3can7Message3setERKNS1_5FrameE) refers to embot_prot_can.o(.text._ZN5embot4prot3can9frame2cmdERKNS1_5FrameE) for embot::prot::can::frame2cmd(embot::prot::can::Frame const&)
    embot_prot_can.o(.text._ZN5embot4prot3can7Message3setERKNS1_5FrameE) refers to embot_prot_can.o(.text._ZN5embot4prot3can12frame2senderERKNS1_5FrameE) for embot::prot::can::frame2sender(embot::prot::can::Frame const&)
    embot_prot_can.o(.text._ZN5embot4prot3can7Message3setERKNS1_5FrameE) refers to embot_prot_can.o(.text._ZN5embot4prot3can17frame2destinationERKNS1_5FrameE) for embot::prot::can::frame2destination(embot::prot::can::Frame const&)
    embot_prot_can.o(.text._ZN5embot4prot3can7Message3setERKNS1_5FrameE) refers to embot_prot_can.o(.text._ZN5embot4prot3can16frame2databufferERNS1_5FrameE) for embot::prot::can::frame2databuffer(embot::prot::can::Frame&)
    embot_prot_can.o(.text._ZN5embot4prot3can7Message3setERKNS1_5FrameE) refers to embot_prot_can.o(.text._ZN5embot4prot3can14frame2datasizeERKNS1_5FrameE) for embot::prot::can::frame2datasize(embot::prot::can::Frame const&)
    embot_prot_can.o(.ARM.exidx.text._ZN5embot4prot3can7Message3setERKNS1_5FrameE) refers to embot_prot_can.o(.text._ZN5embot4prot3can7Message3setERKNS1_5FrameE) for [Anonymous Symbol]
    embot_prot_can.o(.text._ZN5embot4prot3can7Message5clearEv) refers to embot_prot_can.o(.text._ZN5embot4prot3can7Message7CanData5resetEv) for embot::prot::can::Message::CanData::reset()
    embot_prot_can.o(.ARM.exidx.text._ZN5embot4prot3can7Message5clearEv) refers to embot_prot_can.o(.text._ZN5embot4prot3can7Message5clearEv) for [Anonymous Symbol]
    embot_prot_can.o(.text._ZN5embot4prot3can7Message3setEhhNS1_4ClasEhPKvh) refers to embot_prot_can.o(.text._ZN5embot4prot3can16frame_set_senderERNS1_5FrameEhb) for embot::prot::can::frame_set_sender(embot::prot::can::Frame&, unsigned char, bool)
    embot_prot_can.o(.text._ZN5embot4prot3can7Message3setEhhNS1_4ClasEhPKvh) refers to embot_prot_can.o(.text._ZN5embot4prot3can32frame_set_clascmddestinationdataERNS1_5FrameENS1_4ClasEhhPKvhhb) for embot::prot::can::frame_set_clascmddestinationdata(embot::prot::can::Frame&, embot::prot::can::Clas, unsigned char, unsigned char, void const*, unsigned char, unsigned char, bool)
    embot_prot_can.o(.text._ZN5embot4prot3can7Message3setEhhNS1_4ClasEhPKvh) refers to embot_prot_can.o(.text._ZN5embot4prot3can14frame_set_sizeERNS1_5FrameEhb) for embot::prot::can::frame_set_size(embot::prot::can::Frame&, unsigned char, bool)
    embot_prot_can.o(.text._ZN5embot4prot3can7Message3setEhhNS1_4ClasEhPKvh) refers to embot_prot_can.o(.text._ZN5embot4prot3can16frame2databufferERNS1_5FrameE) for embot::prot::can::frame2databuffer(embot::prot::can::Frame&)
    embot_prot_can.o(.text._ZN5embot4prot3can7Message3setEhhNS1_4ClasEhPKvh) refers to embot_prot_can.o(.text._ZN5embot4prot3can14frame2datasizeERKNS1_5FrameE) for embot::prot::can::frame2datasize(embot::prot::can::Frame const&)
    embot_prot_can.o(.ARM.exidx.text._ZN5embot4prot3can7Message3setEhhNS1_4ClasEhPKvh) refers to embot_prot_can.o(.text._ZN5embot4prot3can7Message3setEhhNS1_4ClasEhPKvh) for [Anonymous Symbol]
    embot_prot_can.o(.ARM.exidx.text._ZN5embot4prot3can7Message7isvalidEv) refers to embot_prot_can.o(.text._ZN5embot4prot3can7Message7isvalidEv) for [Anonymous Symbol]
    embot_prot_can.o(.text._ZN5embot4prot3can6shared19Message_GET_VERSION4loadERKNS1_5FrameE) refers to embot_prot_can.o(.text._ZN5embot4prot3can7Message3setERKNS1_5FrameE) for embot::prot::can::Message::set(embot::prot::can::Frame const&)
    embot_prot_can.o(.text._ZN5embot4prot3can6shared19Message_GET_VERSION4loadERKNS1_5FrameE) refers to embot_prot_can.o(.text._ZN5embot4prot3can9frame2cmdERKNS1_5FrameE) for embot::prot::can::frame2cmd(embot::prot::can::Frame const&)
    embot_prot_can.o(.ARM.exidx.text._ZN5embot4prot3can6shared19Message_GET_VERSION4loadERKNS1_5FrameE) refers to embot_prot_can.o(.text._ZN5embot4prot3can6shared19Message_GET_VERSION4loadERKNS1_5FrameE) for [Anonymous Symbol]
    embot_prot_can.o(.text._ZN5embot4prot3can6shared19Message_GET_VERSION5replyERNS1_5FrameEhRKNS3_9ReplyInfoE) refers to embot_prot_can.o(.text._ZN5embot4prot3can16frame_set_senderERNS1_5FrameEhb) for embot::prot::can::frame_set_sender(embot::prot::can::Frame&, unsigned char, bool)
    embot_prot_can.o(.text._ZN5embot4prot3can6shared19Message_GET_VERSION5replyERNS1_5FrameEhRKNS3_9ReplyInfoE) refers to embot_prot_can.o(.text._ZN5embot4prot3can32frame_set_clascmddestinationdataERNS1_5FrameENS1_4ClasEhhPKvhhb) for embot::prot::can::frame_set_clascmddestinationdata(embot::prot::can::Frame&, embot::prot::can::Clas, unsigned char, unsigned char, void const*, unsigned char, unsigned char, bool)
    embot_prot_can.o(.text._ZN5embot4prot3can6shared19Message_GET_VERSION5replyERNS1_5FrameEhRKNS3_9ReplyInfoE) refers to embot_prot_can.o(.text._ZN5embot4prot3can14frame_set_sizeERNS1_5FrameEhb) for embot::prot::can::frame_set_size(embot::prot::can::Frame&, unsigned char, bool)
    embot_prot_can.o(.ARM.exidx.text._ZN5embot4prot3can6shared19Message_GET_VERSION5replyERNS1_5FrameEhRKNS3_9ReplyInfoE) refers to embot_prot_can.o(.text._ZN5embot4prot3can6shared19Message_GET_VERSION5replyERNS1_5FrameEhRKNS3_9ReplyInfoE) for [Anonymous Symbol]
    embot_prot_can.o(.text._ZN5embot4prot3can6shared14Message_SET_ID4loadERKNS1_5FrameE) refers to embot_prot_can.o(.text._ZN5embot4prot3can7Message3setERKNS1_5FrameE) for embot::prot::can::Message::set(embot::prot::can::Frame const&)
    embot_prot_can.o(.text._ZN5embot4prot3can6shared14Message_SET_ID4loadERKNS1_5FrameE) refers to embot_prot_can.o(.text._ZN5embot4prot3can9frame2cmdERKNS1_5FrameE) for embot::prot::can::frame2cmd(embot::prot::can::Frame const&)
    embot_prot_can.o(.ARM.exidx.text._ZN5embot4prot3can6shared14Message_SET_ID4loadERKNS1_5FrameE) refers to embot_prot_can.o(.text._ZN5embot4prot3can6shared14Message_SET_ID4loadERKNS1_5FrameE) for [Anonymous Symbol]
    embot_prot_can.o(.ARM.exidx.text._ZN5embot4prot3can6shared14Message_SET_ID5replyEv) refers to embot_prot_can.o(.text._ZN5embot4prot3can6shared14Message_SET_ID5replyEv) for [Anonymous Symbol]
    embot_prot_can_skin_periodic.o(.text._ZN5embot4prot3can4skin8periodic9supportedEh) refers to embot_prot_can_skin_periodic.o(.text._ZN5embot4prot3can4skin8periodic7convertEh) for embot::prot::can::skin::periodic::convert(unsigned char)
    embot_prot_can_skin_periodic.o(.ARM.exidx.text._ZN5embot4prot3can4skin8periodic9supportedEh) refers to embot_prot_can_skin_periodic.o(.text._ZN5embot4prot3can4skin8periodic9supportedEh) for [Anonymous Symbol]
    embot_prot_can_skin_periodic.o(.ARM.exidx.text._ZN5embot4prot3can4skin8periodic7convertEh) refers to embot_prot_can_skin_periodic.o(.text._ZN5embot4prot3can4skin8periodic7convertEh) for [Anonymous Symbol]
    embot_prot_can_skin_periodic.o(.ARM.exidx.text._ZN5embot4prot3can4skin8periodic7convertENS3_3CMDE) refers to embot_prot_can_skin_periodic.o(.text._ZN5embot4prot3can4skin8periodic7convertENS3_3CMDE) for [Anonymous Symbol]
    embot_prot_can_skin_periodic.o(.text._ZN5embot4prot3can4skin8periodic11Message_TRG4loadERKNS4_4InfoE) refers to rt_memcpy_v6.o(.text) for __aeabi_memcpy
    embot_prot_can_skin_periodic.o(.ARM.exidx.text._ZN5embot4prot3can4skin8periodic11Message_TRG4loadERKNS4_4InfoE) refers to embot_prot_can_skin_periodic.o(.text._ZN5embot4prot3can4skin8periodic11Message_TRG4loadERKNS4_4InfoE) for [Anonymous Symbol]
    embot_prot_can_skin_periodic.o(.text._ZN5embot4prot3can4skin8periodic11Message_TRG3getERNS1_5FrameES6_) refers to embot_prot_can.o(.text._ZN5embot4prot3can7Message3setEhhNS1_4ClasEhPKvh) for embot::prot::can::Message::set(unsigned char, unsigned char, embot::prot::can::Clas, unsigned char, void const*, unsigned char)
    embot_prot_can_skin_periodic.o(.text._ZN5embot4prot3can4skin8periodic11Message_TRG3getERNS1_5FrameES6_) refers to embot_prot_can_skin_periodic.o(.text._ZN5embot4core6binary3bit3setIhEEvRT_h) for void embot::core::binary::bit::set<unsigned char>(unsigned char&, unsigned char)
    embot_prot_can_skin_periodic.o(.text._ZN5embot4prot3can4skin8periodic11Message_TRG3getERNS1_5FrameES6_) refers to embot_prot_can_skin_periodic.o(.text._ZN5embot4core6binary3bit5countItEEhT_) for unsigned char embot::core::binary::bit::count<unsigned short>(unsigned short)
    embot_prot_can_skin_periodic.o(.ARM.exidx.text._ZN5embot4prot3can4skin8periodic11Message_TRG3getERNS1_5FrameES6_) refers to embot_prot_can_skin_periodic.o(.text._ZN5embot4prot3can4skin8periodic11Message_TRG3getERNS1_5FrameES6_) for [Anonymous Symbol]
    embot_prot_can_inertial_periodic.o(.text._ZN5embot4prot3can8inertial8periodic9supportedEh) refers to embot_prot_can_inertial_periodic.o(.text._ZN5embot4prot3can8inertial8periodic7convertEh) for embot::prot::can::inertial::periodic::convert(unsigned char)
    embot_prot_can_inertial_periodic.o(.ARM.exidx.text._ZN5embot4prot3can8inertial8periodic9supportedEh) refers to embot_prot_can_inertial_periodic.o(.text._ZN5embot4prot3can8inertial8periodic9supportedEh) for [Anonymous Symbol]
    embot_prot_can_inertial_periodic.o(.text._ZN5embot4prot3can8inertial8periodic7convertEh) refers to embot_hw_gpio.o(.text._ZN5embot4core6binary3bit5checkItEEbT_h) for bool embot::core::binary::bit::check<unsigned short>(unsigned short, unsigned char)
    embot_prot_can_inertial_periodic.o(.ARM.exidx.text._ZN5embot4prot3can8inertial8periodic7convertEh) refers to embot_prot_can_inertial_periodic.o(.text._ZN5embot4prot3can8inertial8periodic7convertEh) for [Anonymous Symbol]
    embot_prot_can_inertial_periodic.o(.ARM.exidx.text._ZN5embot4prot3can8inertial8periodic7convertENS3_3CMDE) refers to embot_prot_can_inertial_periodic.o(.text._ZN5embot4prot3can8inertial8periodic7convertENS3_3CMDE) for [Anonymous Symbol]
    embot_prot_can_inertial_periodic.o(.ARM.exidx.text._ZN5embot4prot3can8inertial8periodic25Message_DIGITAL_GYROSCOPE4loadERKNS4_4InfoE) refers to embot_prot_can_inertial_periodic.o(.text._ZN5embot4prot3can8inertial8periodic25Message_DIGITAL_GYROSCOPE4loadERKNS4_4InfoE) for [Anonymous Symbol]
    embot_prot_can_inertial_periodic.o(.text._ZN5embot4prot3can8inertial8periodic25Message_DIGITAL_GYROSCOPE3getERNS1_5FrameE) refers to embot_prot_can.o(.text._ZN5embot4prot3can7Message3setEhhNS1_4ClasEhPKvh) for embot::prot::can::Message::set(unsigned char, unsigned char, embot::prot::can::Clas, unsigned char, void const*, unsigned char)
    embot_prot_can_inertial_periodic.o(.ARM.exidx.text._ZN5embot4prot3can8inertial8periodic25Message_DIGITAL_GYROSCOPE3getERNS1_5FrameE) refers to embot_prot_can_inertial_periodic.o(.text._ZN5embot4prot3can8inertial8periodic25Message_DIGITAL_GYROSCOPE3getERNS1_5FrameE) for [Anonymous Symbol]
    embot_prot_can_inertial_periodic.o(.ARM.exidx.text._ZN5embot4prot3can8inertial8periodic29Message_DIGITAL_ACCELEROMETER4loadERKNS4_4InfoE) refers to embot_prot_can_inertial_periodic.o(.text._ZN5embot4prot3can8inertial8periodic29Message_DIGITAL_ACCELEROMETER4loadERKNS4_4InfoE) for [Anonymous Symbol]
    embot_prot_can_inertial_periodic.o(.text._ZN5embot4prot3can8inertial8periodic29Message_DIGITAL_ACCELEROMETER3getERNS1_5FrameE) refers to embot_prot_can.o(.text._ZN5embot4prot3can7Message3setEhhNS1_4ClasEhPKvh) for embot::prot::can::Message::set(unsigned char, unsigned char, embot::prot::can::Clas, unsigned char, void const*, unsigned char)
    embot_prot_can_inertial_periodic.o(.ARM.exidx.text._ZN5embot4prot3can8inertial8periodic29Message_DIGITAL_ACCELEROMETER3getERNS1_5FrameE) refers to embot_prot_can_inertial_periodic.o(.text._ZN5embot4prot3can8inertial8periodic29Message_DIGITAL_ACCELEROMETER3getERNS1_5FrameE) for [Anonymous Symbol]
    embot_prot_can_inertial_periodic.o(.ARM.exidx.text._ZN5embot4prot3can8inertial8periodic18Message_IMU_TRIPLE4loadERKNS4_4InfoE) refers to embot_prot_can_inertial_periodic.o(.text._ZN5embot4prot3can8inertial8periodic18Message_IMU_TRIPLE4loadERKNS4_4InfoE) for [Anonymous Symbol]
    embot_prot_can_inertial_periodic.o(.text._ZN5embot4prot3can8inertial8periodic18Message_IMU_TRIPLE3getERNS1_5FrameE) refers to embot_prot_can.o(.text._ZN5embot4prot3can7Message3setEhhNS1_4ClasEhPKvh) for embot::prot::can::Message::set(unsigned char, unsigned char, embot::prot::can::Clas, unsigned char, void const*, unsigned char)
    embot_prot_can_inertial_periodic.o(.ARM.exidx.text._ZN5embot4prot3can8inertial8periodic18Message_IMU_TRIPLE3getERNS1_5FrameE) refers to embot_prot_can_inertial_periodic.o(.text._ZN5embot4prot3can8inertial8periodic18Message_IMU_TRIPLE3getERNS1_5FrameE) for [Anonymous Symbol]
    embot_prot_can_inertial_periodic.o(.ARM.exidx.text._ZN5embot4prot3can8inertial8periodic22Message_IMU_QUATERNION4loadERKNS4_4InfoE) refers to embot_prot_can_inertial_periodic.o(.text._ZN5embot4prot3can8inertial8periodic22Message_IMU_QUATERNION4loadERKNS4_4InfoE) for [Anonymous Symbol]
    embot_prot_can_inertial_periodic.o(.text._ZN5embot4prot3can8inertial8periodic22Message_IMU_QUATERNION3getERNS1_5FrameE) refers to embot_prot_can.o(.text._ZN5embot4prot3can7Message3setEhhNS1_4ClasEhPKvh) for embot::prot::can::Message::set(unsigned char, unsigned char, embot::prot::can::Clas, unsigned char, void const*, unsigned char)
    embot_prot_can_inertial_periodic.o(.ARM.exidx.text._ZN5embot4prot3can8inertial8periodic22Message_IMU_QUATERNION3getERNS1_5FrameE) refers to embot_prot_can_inertial_periodic.o(.text._ZN5embot4prot3can8inertial8periodic22Message_IMU_QUATERNION3getERNS1_5FrameE) for [Anonymous Symbol]
    embot_prot_can_inertial_periodic.o(.ARM.exidx.text._ZN5embot4prot3can8inertial8periodic18Message_IMU_STATUS4loadERKNS4_4InfoE) refers to embot_prot_can_inertial_periodic.o(.text._ZN5embot4prot3can8inertial8periodic18Message_IMU_STATUS4loadERKNS4_4InfoE) for [Anonymous Symbol]
    embot_prot_can_inertial_periodic.o(.text._ZN5embot4prot3can8inertial8periodic18Message_IMU_STATUS3getERNS1_5FrameE) refers to embot_prot_can.o(.text._ZN5embot4prot3can7Message3setEhhNS1_4ClasEhPKvh) for embot::prot::can::Message::set(unsigned char, unsigned char, embot::prot::can::Clas, unsigned char, void const*, unsigned char)
    embot_prot_can_inertial_periodic.o(.ARM.exidx.text._ZN5embot4prot3can8inertial8periodic18Message_IMU_STATUS3getERNS1_5FrameE) refers to embot_prot_can_inertial_periodic.o(.text._ZN5embot4prot3can8inertial8periodic18Message_IMU_STATUS3getERNS1_5FrameE) for [Anonymous Symbol]
    embot_prot_can_motor_polling.o(.text._ZN5embot4prot3can5motor7polling9supportedEh) refers to embot_prot_can_motor_polling.o(.text._ZN5embot4prot3can5motor7polling7convertEh) for embot::prot::can::motor::polling::convert(unsigned char)
    embot_prot_can_motor_polling.o(.ARM.exidx.text._ZN5embot4prot3can5motor7polling9supportedEh) refers to embot_prot_can_motor_polling.o(.text._ZN5embot4prot3can5motor7polling9supportedEh) for [Anonymous Symbol]
    embot_prot_can_motor_polling.o(.text._ZN5embot4prot3can5motor7polling7convertEh) refers to embot_prot_can_motor_polling.o(.rodata.cst32) for embot::prot::can::motor::polling::convert(unsigned char)::mcpollmask256
    embot_prot_can_motor_polling.o(.text._ZN5embot4prot3can5motor7polling7convertEh) refers to embot_prot_can_motor_polling.o(.text._ZN5embot4core6binary3bit5checkIyEEbT_h) for bool embot::core::binary::bit::check<unsigned long long>(unsigned long long, unsigned char)
    embot_prot_can_motor_polling.o(.ARM.exidx.text._ZN5embot4prot3can5motor7polling7convertEh) refers to embot_prot_can_motor_polling.o(.text._ZN5embot4prot3can5motor7polling7convertEh) for [Anonymous Symbol]
    embot_prot_can_motor_polling.o(.ARM.exidx.text._ZN5embot4prot3can5motor7polling7convertENS3_3CMDE) refers to embot_prot_can_motor_polling.o(.text._ZN5embot4prot3can5motor7polling7convertENS3_3CMDE) for [Anonymous Symbol]
    embot_prot_can_motor_polling.o(.ARM.exidx.text._ZN5embot4prot3can5motor7polling26motorpollingframe2motindexERKNS1_5FrameE) refers to embot_prot_can_motor_polling.o(.text._ZN5embot4prot3can5motor7polling26motorpollingframe2motindexERKNS1_5FrameE) for [Anonymous Symbol]
    embot_prot_can_motor_polling.o(.ARM.exidx.text._ZN5embot4prot3can5motor7polling10toMotIndexEh) refers to embot_prot_can_motor_polling.o(.text._ZN5embot4prot3can5motor7polling10toMotIndexEh) for [Anonymous Symbol]
    embot_prot_can_motor_polling.o(.text._ZN5embot4prot3can5motor7polling7convertENS3_8MotIndexE) refers to embot_prot_can_motor_polling.o(.text._ZN5embot4core10tointegralINS_4prot3can5motor7polling8MotIndexEEEDaT_) for auto embot::core::tointegral<embot::prot::can::motor::polling::MotIndex>(embot::prot::can::motor::polling::MotIndex)
    embot_prot_can_motor_polling.o(.ARM.exidx.text._ZN5embot4prot3can5motor7polling7convertENS3_8MotIndexE) refers to embot_prot_can_motor_polling.o(.text._ZN5embot4prot3can5motor7polling7convertENS3_8MotIndexE) for [Anonymous Symbol]
    embot_prot_can_motor_polling.o(.text._ZN5embot4prot3can5motor7polling8tostringENS3_8MotIndexE) refers to embot_prot_can_motor_polling.o(.rodata.str1.1) for .L.str.1
    embot_prot_can_motor_polling.o(.text._ZN5embot4prot3can5motor7polling8tostringENS3_8MotIndexE) refers to amcbldc-main.o(.text._ZNSt3__211char_traitsIcE6lengthEPKc) for std::__2::char_traits<char>::length(char const*)
    embot_prot_can_motor_polling.o(.text._ZN5embot4prot3can5motor7polling8tostringENS3_8MotIndexE) refers to string.cpp.o(.text._ZNSt3__212basic_stringIcNS_11char_traitsIcEENS_9allocatorIcEEE6__initEPKcj) for std::__2::basic_string<char, std::__2::char_traits<char>, std::__2::allocator<char> >::__init(char const*, unsigned int)
    embot_prot_can_motor_polling.o(.ARM.exidx.text._ZN5embot4prot3can5motor7polling8tostringENS3_8MotIndexE) refers to embot_prot_can_motor_polling.o(.text._ZN5embot4prot3can5motor7polling8tostringENS3_8MotIndexE) for [Anonymous Symbol]
    embot_prot_can_motor_polling.o(.ARM.exidx.text._ZN5embot4prot3can5motor7polling13toControlModeEh) refers to embot_prot_can_motor_polling.o(.text._ZN5embot4prot3can5motor7polling13toControlModeEh) for [Anonymous Symbol]
    embot_prot_can_motor_polling.o(.text._ZN5embot4prot3can5motor7polling7convertENS3_11ControlModeE) refers to embot_prot_can_motor_polling.o(.text._ZN5embot4core10tointegralINS_4prot3can5motor7polling11ControlModeEEEDaT_) for auto embot::core::tointegral<embot::prot::can::motor::polling::ControlMode>(embot::prot::can::motor::polling::ControlMode)
    embot_prot_can_motor_polling.o(.ARM.exidx.text._ZN5embot4prot3can5motor7polling7convertENS3_11ControlModeE) refers to embot_prot_can_motor_polling.o(.text._ZN5embot4prot3can5motor7polling7convertENS3_11ControlModeE) for [Anonymous Symbol]
    embot_prot_can_motor_polling.o(.text._ZN5embot4prot3can5motor7polling8tostringENS3_11ControlModeE) refers to embot_prot_can_motor_polling.o(.rodata.str1.1) for .L.str.2
    embot_prot_can_motor_polling.o(.text._ZN5embot4prot3can5motor7polling8tostringENS3_11ControlModeE) refers to amcbldc-main.o(.text._ZNSt3__211char_traitsIcE6lengthEPKc) for std::__2::char_traits<char>::length(char const*)
    embot_prot_can_motor_polling.o(.text._ZN5embot4prot3can5motor7polling8tostringENS3_11ControlModeE) refers to string.cpp.o(.text._ZNSt3__212basic_stringIcNS_11char_traitsIcEENS_9allocatorIcEEE6__initEPKcj) for std::__2::basic_string<char, std::__2::char_traits<char>, std::__2::allocator<char> >::__init(char const*, unsigned int)
    embot_prot_can_motor_polling.o(.ARM.exidx.text._ZN5embot4prot3can5motor7polling8tostringENS3_11ControlModeE) refers to embot_prot_can_motor_polling.o(.text._ZN5embot4prot3can5motor7polling8tostringENS3_11ControlModeE) for [Anonymous Symbol]
    embot_prot_can_motor_polling.o(.text._ZN5embot4prot3can5motor7polling24Message_GET_CONTROL_MODE4loadERKNS1_5FrameE) refers to embot_prot_can.o(.text._ZN5embot4prot3can7Message3setERKNS1_5FrameE) for embot::prot::can::Message::set(embot::prot::can::Frame const&)
    embot_prot_can_motor_polling.o(.text._ZN5embot4prot3can5motor7polling24Message_GET_CONTROL_MODE4loadERKNS1_5FrameE) refers to embot_prot_can.o(.text._ZN5embot4prot3can9frame2cmdERKNS1_5FrameE) for embot::prot::can::frame2cmd(embot::prot::can::Frame const&)
    embot_prot_can_motor_polling.o(.text._ZN5embot4prot3can5motor7polling24Message_GET_CONTROL_MODE4loadERKNS1_5FrameE) refers to embot_prot_can_motor_polling.o(.text._ZN5embot4prot3can5motor7polling26motorpollingframe2motindexERKNS1_5FrameE) for embot::prot::can::motor::polling::motorpollingframe2motindex(embot::prot::can::Frame const&)
    embot_prot_can_motor_polling.o(.ARM.exidx.text._ZN5embot4prot3can5motor7polling24Message_GET_CONTROL_MODE4loadERKNS1_5FrameE) refers to embot_prot_can_motor_polling.o(.text._ZN5embot4prot3can5motor7polling24Message_GET_CONTROL_MODE4loadERKNS1_5FrameE) for [Anonymous Symbol]
    embot_prot_can_motor_polling.o(.text._ZN5embot4prot3can5motor7polling24Message_GET_CONTROL_MODE5replyERNS1_5FrameEhRKNS4_9ReplyInfoE) refers to embot_prot_can_motor_polling.o(.text._ZN5embot4prot3can5motor7polling7convertENS3_11ControlModeE) for embot::prot::can::motor::polling::convert(embot::prot::can::motor::polling::ControlMode)
    embot_prot_can_motor_polling.o(.text._ZN5embot4prot3can5motor7polling24Message_GET_CONTROL_MODE5replyERNS1_5FrameEhRKNS4_9ReplyInfoE) refers to embot_prot_can_motor_polling.o(.text._ZN5embot4prot3can5motor7polling7convertENS3_8MotIndexE) for embot::prot::can::motor::polling::convert(embot::prot::can::motor::polling::MotIndex)
    embot_prot_can_motor_polling.o(.text._ZN5embot4prot3can5motor7polling24Message_GET_CONTROL_MODE5replyERNS1_5FrameEhRKNS4_9ReplyInfoE) refers to embot_prot_can.o(.text._ZN5embot4prot3can16frame_set_senderERNS1_5FrameEhb) for embot::prot::can::frame_set_sender(embot::prot::can::Frame&, unsigned char, bool)
    embot_prot_can_motor_polling.o(.text._ZN5embot4prot3can5motor7polling24Message_GET_CONTROL_MODE5replyERNS1_5FrameEhRKNS4_9ReplyInfoE) refers to embot_prot_can.o(.text._ZN5embot4prot3can32frame_set_clascmddestinationdataERNS1_5FrameENS1_4ClasEhhPKvhhb) for embot::prot::can::frame_set_clascmddestinationdata(embot::prot::can::Frame&, embot::prot::can::Clas, unsigned char, unsigned char, void const*, unsigned char, unsigned char, bool)
    embot_prot_can_motor_polling.o(.text._ZN5embot4prot3can5motor7polling24Message_GET_CONTROL_MODE5replyERNS1_5FrameEhRKNS4_9ReplyInfoE) refers to embot_prot_can.o(.text._ZN5embot4prot3can14frame_set_sizeERNS1_5FrameEhb) for embot::prot::can::frame_set_size(embot::prot::can::Frame&, unsigned char, bool)
    embot_prot_can_motor_polling.o(.ARM.exidx.text._ZN5embot4prot3can5motor7polling24Message_GET_CONTROL_MODE5replyERNS1_5FrameEhRKNS4_9ReplyInfoE) refers to embot_prot_can_motor_polling.o(.text._ZN5embot4prot3can5motor7polling24Message_GET_CONTROL_MODE5replyERNS1_5FrameEhRKNS4_9ReplyInfoE) for [Anonymous Symbol]
    embot_prot_can_motor_polling.o(.text._ZN5embot4prot3can5motor7polling24Message_SET_CONTROL_MODE4loadERKNS1_5FrameE) refers to embot_prot_can.o(.text._ZN5embot4prot3can7Message3setERKNS1_5FrameE) for embot::prot::can::Message::set(embot::prot::can::Frame const&)
    embot_prot_can_motor_polling.o(.text._ZN5embot4prot3can5motor7polling24Message_SET_CONTROL_MODE4loadERKNS1_5FrameE) refers to embot_prot_can.o(.text._ZN5embot4prot3can9frame2cmdERKNS1_5FrameE) for embot::prot::can::frame2cmd(embot::prot::can::Frame const&)
    embot_prot_can_motor_polling.o(.text._ZN5embot4prot3can5motor7polling24Message_SET_CONTROL_MODE4loadERKNS1_5FrameE) refers to embot_prot_can_motor_polling.o(.text._ZN5embot4prot3can5motor7polling26motorpollingframe2motindexERKNS1_5FrameE) for embot::prot::can::motor::polling::motorpollingframe2motindex(embot::prot::can::Frame const&)
    embot_prot_can_motor_polling.o(.text._ZN5embot4prot3can5motor7polling24Message_SET_CONTROL_MODE4loadERKNS1_5FrameE) refers to embot_prot_can_motor_polling.o(.text._ZN5embot4prot3can5motor7polling13toControlModeEh) for embot::prot::can::motor::polling::toControlMode(unsigned char)
    embot_prot_can_motor_polling.o(.ARM.exidx.text._ZN5embot4prot3can5motor7polling24Message_SET_CONTROL_MODE4loadERKNS1_5FrameE) refers to embot_prot_can_motor_polling.o(.text._ZN5embot4prot3can5motor7polling24Message_SET_CONTROL_MODE4loadERKNS1_5FrameE) for [Anonymous Symbol]
    embot_prot_can_motor_polling.o(.ARM.exidx.text._ZN5embot4prot3can5motor7polling24Message_SET_CONTROL_MODE5replyEv) refers to embot_prot_can_motor_polling.o(.text._ZN5embot4prot3can5motor7polling24Message_SET_CONTROL_MODE5replyEv) for [Anonymous Symbol]
    embot_prot_can_motor_periodic.o(.text._ZN5embot4prot3can5motor8periodic9supportedEh) refers to embot_prot_can_motor_periodic.o(.text._ZN5embot4prot3can5motor8periodic7convertEh) for embot::prot::can::motor::periodic::convert(unsigned char)
    embot_prot_can_motor_periodic.o(.ARM.exidx.text._ZN5embot4prot3can5motor8periodic9supportedEh) refers to embot_prot_can_motor_periodic.o(.text._ZN5embot4prot3can5motor8periodic9supportedEh) for [Anonymous Symbol]
    embot_prot_can_motor_periodic.o(.text._ZN5embot4prot3can5motor8periodic7convertEh) refers to embot_hw_gpio.o(.text._ZN5embot4core6binary3bit5checkItEEbT_h) for bool embot::core::binary::bit::check<unsigned short>(unsigned short, unsigned char)
    embot_prot_can_motor_periodic.o(.ARM.exidx.text._ZN5embot4prot3can5motor8periodic7convertEh) refers to embot_prot_can_motor_periodic.o(.text._ZN5embot4prot3can5motor8periodic7convertEh) for [Anonymous Symbol]
    embot_prot_can_motor_periodic.o(.ARM.exidx.text._ZN5embot4prot3can5motor8periodic7convertENS3_3CMDE) refers to embot_prot_can_motor_periodic.o(.text._ZN5embot4prot3can5motor8periodic7convertENS3_3CMDE) for [Anonymous Symbol]
    embot_prot_can_motor_periodic.o(.text._ZN5embot4prot3can5motor8periodic13Message_PRINT4loadERKNS4_4InfoE) refers to rt_memcpy_v6.o(.text) for __aeabi_memcpy
    embot_prot_can_motor_periodic.o(.text._ZN5embot4prot3can5motor8periodic13Message_PRINT4loadERKNS4_4InfoE) refers to strlen.o(.text) for strlen
    embot_prot_can_motor_periodic.o(.text._ZN5embot4prot3can5motor8periodic13Message_PRINT4loadERKNS4_4InfoE) refers to embot_prot_can_motor_periodic.o(.bss._ZN5embot4prot3can5motor8periodic13Message_PRINT10textIDmod4E) for embot::prot::can::motor::periodic::Message_PRINT::textIDmod4
    embot_prot_can_motor_periodic.o(.ARM.exidx.text._ZN5embot4prot3can5motor8periodic13Message_PRINT4loadERKNS4_4InfoE) refers to embot_prot_can_motor_periodic.o(.text._ZN5embot4prot3can5motor8periodic13Message_PRINT4loadERKNS4_4InfoE) for [Anonymous Symbol]
    embot_prot_can_motor_periodic.o(.ARM.exidx.text._ZN5embot4prot3can5motor8periodic13Message_PRINT14numberofframesEv) refers to embot_prot_can_motor_periodic.o(.text._ZN5embot4prot3can5motor8periodic13Message_PRINT14numberofframesEv) for [Anonymous Symbol]
    embot_prot_can_motor_periodic.o(.text._ZN5embot4prot3can5motor8periodic13Message_PRINT3getERNS1_5FrameE) refers to embot_prot_can_motor_periodic.o(.bss._ZN5embot4prot3can5motor8periodic13Message_PRINT10textIDmod4E) for embot::prot::can::motor::periodic::Message_PRINT::textIDmod4
    embot_prot_can_motor_periodic.o(.text._ZN5embot4prot3can5motor8periodic13Message_PRINT3getERNS1_5FrameE) refers to rt_memcpy_v6.o(.text) for __aeabi_memcpy
    embot_prot_can_motor_periodic.o(.text._ZN5embot4prot3can5motor8periodic13Message_PRINT3getERNS1_5FrameE) refers to embot_prot_can.o(.text._ZN5embot4prot3can7Message3setEhhNS1_4ClasEhPKvh) for embot::prot::can::Message::set(unsigned char, unsigned char, embot::prot::can::Clas, unsigned char, void const*, unsigned char)
    embot_prot_can_motor_periodic.o(.ARM.exidx.text._ZN5embot4prot3can5motor8periodic13Message_PRINT3getERNS1_5FrameE) refers to embot_prot_can_motor_periodic.o(.text._ZN5embot4prot3can5motor8periodic13Message_PRINT3getERNS1_5FrameE) for [Anonymous Symbol]
    embot_prot_can_motor_periodic.o(.text._ZN5embot4prot3can5motor8periodic33Message_EMSTO2FOC_DESIRED_CURRENT4loadERKNS1_5FrameE) refers to embot_prot_can.o(.text._ZN5embot4prot3can7Message3setERKNS1_5FrameE) for embot::prot::can::Message::set(embot::prot::can::Frame const&)
    embot_prot_can_motor_periodic.o(.text._ZN5embot4prot3can5motor8periodic33Message_EMSTO2FOC_DESIRED_CURRENT4loadERKNS1_5FrameE) refers to embot_prot_can.o(.text._ZN5embot4prot3can9frame2cmdERKNS1_5FrameE) for embot::prot::can::frame2cmd(embot::prot::can::Frame const&)
    embot_prot_can_motor_periodic.o(.ARM.exidx.text._ZN5embot4prot3can5motor8periodic33Message_EMSTO2FOC_DESIRED_CURRENT4loadERKNS1_5FrameE) refers to embot_prot_can_motor_periodic.o(.text._ZN5embot4prot3can5motor8periodic33Message_EMSTO2FOC_DESIRED_CURRENT4loadERKNS1_5FrameE) for [Anonymous Symbol]
    embot_prot_can_motor_periodic.o(.ARM.exidx.text._ZN5embot4prot3can5motor8periodic11Message_FOC4loadERKNS4_4InfoE) refers to embot_prot_can_motor_periodic.o(.text._ZN5embot4prot3can5motor8periodic11Message_FOC4loadERKNS4_4InfoE) for [Anonymous Symbol]
    embot_prot_can_motor_periodic.o(.text._ZN5embot4prot3can5motor8periodic11Message_FOC3getERNS1_5FrameE) refers to embot_prot_can.o(.text._ZN5embot4prot3can7Message3setEhhNS1_4ClasEhPKvh) for embot::prot::can::Message::set(unsigned char, unsigned char, embot::prot::can::Clas, unsigned char, void const*, unsigned char)
    embot_prot_can_motor_periodic.o(.ARM.exidx.text._ZN5embot4prot3can5motor8periodic11Message_FOC3getERNS1_5FrameE) refers to embot_prot_can_motor_periodic.o(.text._ZN5embot4prot3can5motor8periodic11Message_FOC3getERNS1_5FrameE) for [Anonymous Symbol]
    embot_prot_can_bootloader.o(.text._ZN5embot4prot3can10bootloader9supportedEh) refers to embot_prot_can_bootloader.o(.text._ZN5embot4prot3can10bootloader7convertEh) for embot::prot::can::bootloader::convert(unsigned char)
    embot_prot_can_bootloader.o(.ARM.exidx.text._ZN5embot4prot3can10bootloader9supportedEh) refers to embot_prot_can_bootloader.o(.text._ZN5embot4prot3can10bootloader9supportedEh) for [Anonymous Symbol]
    embot_prot_can_bootloader.o(.text._ZN5embot4prot3can10bootloader7convertEh) refers to embot_prot_can_bootloader.o(.rodata.cst32) for .L__const._ZN5embot4prot3can10bootloader7convertEh.blmask256
    embot_prot_can_bootloader.o(.text._ZN5embot4prot3can10bootloader7convertEh) refers to embot_prot_can_motor_polling.o(.text._ZN5embot4core6binary3bit5checkIyEEbT_h) for bool embot::core::binary::bit::check<unsigned long long>(unsigned long long, unsigned char)
    embot_prot_can_bootloader.o(.ARM.exidx.text._ZN5embot4prot3can10bootloader7convertEh) refers to embot_prot_can_bootloader.o(.text._ZN5embot4prot3can10bootloader7convertEh) for [Anonymous Symbol]
    embot_prot_can_bootloader.o(.ARM.exidx.text._ZN5embot4prot3can10bootloader7convertENS2_3CMDE) refers to embot_prot_can_bootloader.o(.text._ZN5embot4prot3can10bootloader7convertENS2_3CMDE) for [Anonymous Symbol]
    embot_prot_can_bootloader.o(.text._ZN5embot4prot3can10bootloader17Message_BROADCAST4loadERKNS1_5FrameE) refers to embot_prot_can.o(.text._ZN5embot4prot3can7Message3setERKNS1_5FrameE) for embot::prot::can::Message::set(embot::prot::can::Frame const&)
    embot_prot_can_bootloader.o(.text._ZN5embot4prot3can10bootloader17Message_BROADCAST4loadERKNS1_5FrameE) refers to embot_prot_can.o(.text._ZN5embot4prot3can9frame2cmdERKNS1_5FrameE) for embot::prot::can::frame2cmd(embot::prot::can::Frame const&)
    embot_prot_can_bootloader.o(.ARM.exidx.text._ZN5embot4prot3can10bootloader17Message_BROADCAST4loadERKNS1_5FrameE) refers to embot_prot_can_bootloader.o(.text._ZN5embot4prot3can10bootloader17Message_BROADCAST4loadERKNS1_5FrameE) for [Anonymous Symbol]
    embot_prot_can_bootloader.o(.text._ZN5embot4prot3can10bootloader17Message_BROADCAST5replyERNS1_5FrameEhRKNS3_9ReplyInfoE) refers to embot_prot_can.o(.text._ZN5embot4prot3can16frame_set_senderERNS1_5FrameEhb) for embot::prot::can::frame_set_sender(embot::prot::can::Frame&, unsigned char, bool)
    embot_prot_can_bootloader.o(.text._ZN5embot4prot3can10bootloader17Message_BROADCAST5replyERNS1_5FrameEhRKNS3_9ReplyInfoE) refers to embot_prot_can.o(.text._ZN5embot4prot3can32frame_set_clascmddestinationdataERNS1_5FrameENS1_4ClasEhhPKvhhb) for embot::prot::can::frame_set_clascmddestinationdata(embot::prot::can::Frame&, embot::prot::can::Clas, unsigned char, unsigned char, void const*, unsigned char, unsigned char, bool)
    embot_prot_can_bootloader.o(.text._ZN5embot4prot3can10bootloader17Message_BROADCAST5replyERNS1_5FrameEhRKNS3_9ReplyInfoE) refers to embot_prot_can.o(.text._ZN5embot4prot3can14frame_set_sizeERNS1_5FrameEhb) for embot::prot::can::frame_set_size(embot::prot::can::Frame&, unsigned char, bool)
    embot_prot_can_bootloader.o(.ARM.exidx.text._ZN5embot4prot3can10bootloader17Message_BROADCAST5replyERNS1_5FrameEhRKNS3_9ReplyInfoE) refers to embot_prot_can_bootloader.o(.text._ZN5embot4prot3can10bootloader17Message_BROADCAST5replyERNS1_5FrameEhRKNS3_9ReplyInfoE) for [Anonymous Symbol]
    embot_prot_can_bootloader.o(.text._ZN5embot4prot3can10bootloader13Message_BOARD4loadERKNS1_5FrameE) refers to embot_prot_can.o(.text._ZN5embot4prot3can7Message3setERKNS1_5FrameE) for embot::prot::can::Message::set(embot::prot::can::Frame const&)
    embot_prot_can_bootloader.o(.text._ZN5embot4prot3can10bootloader13Message_BOARD4loadERKNS1_5FrameE) refers to embot_prot_can.o(.text._ZN5embot4prot3can9frame2cmdERKNS1_5FrameE) for embot::prot::can::frame2cmd(embot::prot::can::Frame const&)
    embot_prot_can_bootloader.o(.ARM.exidx.text._ZN5embot4prot3can10bootloader13Message_BOARD4loadERKNS1_5FrameE) refers to embot_prot_can_bootloader.o(.text._ZN5embot4prot3can10bootloader13Message_BOARD4loadERKNS1_5FrameE) for [Anonymous Symbol]
    embot_prot_can_bootloader.o(.text._ZN5embot4prot3can10bootloader13Message_BOARD5replyERNS1_5FrameEh) refers to embot_prot_can.o(.text._ZN5embot4prot3can16frame_set_senderERNS1_5FrameEhb) for embot::prot::can::frame_set_sender(embot::prot::can::Frame&, unsigned char, bool)
    embot_prot_can_bootloader.o(.text._ZN5embot4prot3can10bootloader13Message_BOARD5replyERNS1_5FrameEh) refers to embot_prot_can.o(.text._ZN5embot4prot3can32frame_set_clascmddestinationdataERNS1_5FrameENS1_4ClasEhhPKvhhb) for embot::prot::can::frame_set_clascmddestinationdata(embot::prot::can::Frame&, embot::prot::can::Clas, unsigned char, unsigned char, void const*, unsigned char, unsigned char, bool)
    embot_prot_can_bootloader.o(.text._ZN5embot4prot3can10bootloader13Message_BOARD5replyERNS1_5FrameEh) refers to embot_prot_can.o(.text._ZN5embot4prot3can14frame_set_sizeERNS1_5FrameEhb) for embot::prot::can::frame_set_size(embot::prot::can::Frame&, unsigned char, bool)
    embot_prot_can_bootloader.o(.ARM.exidx.text._ZN5embot4prot3can10bootloader13Message_BOARD5replyERNS1_5FrameEh) refers to embot_prot_can_bootloader.o(.text._ZN5embot4prot3can10bootloader13Message_BOARD5replyERNS1_5FrameEh) for [Anonymous Symbol]
    embot_prot_can_bootloader.o(.text._ZN5embot4prot3can10bootloader15Message_ADDRESS4loadERKNS1_5FrameE) refers to embot_prot_can.o(.text._ZN5embot4prot3can7Message3setERKNS1_5FrameE) for embot::prot::can::Message::set(embot::prot::can::Frame const&)
    embot_prot_can_bootloader.o(.text._ZN5embot4prot3can10bootloader15Message_ADDRESS4loadERKNS1_5FrameE) refers to embot_prot_can.o(.text._ZN5embot4prot3can9frame2cmdERKNS1_5FrameE) for embot::prot::can::frame2cmd(embot::prot::can::Frame const&)
    embot_prot_can_bootloader.o(.ARM.exidx.text._ZN5embot4prot3can10bootloader15Message_ADDRESS4loadERKNS1_5FrameE) refers to embot_prot_can_bootloader.o(.text._ZN5embot4prot3can10bootloader15Message_ADDRESS4loadERKNS1_5FrameE) for [Anonymous Symbol]
    embot_prot_can_bootloader.o(.ARM.exidx.text._ZN5embot4prot3can10bootloader15Message_ADDRESS5replyEv) refers to embot_prot_can_bootloader.o(.text._ZN5embot4prot3can10bootloader15Message_ADDRESS5replyEv) for [Anonymous Symbol]
    embot_prot_can_bootloader.o(.text._ZN5embot4prot3can10bootloader13Message_START4loadERKNS1_5FrameE) refers to embot_prot_can.o(.text._ZN5embot4prot3can7Message3setERKNS1_5FrameE) for embot::prot::can::Message::set(embot::prot::can::Frame const&)
    embot_prot_can_bootloader.o(.text._ZN5embot4prot3can10bootloader13Message_START4loadERKNS1_5FrameE) refers to embot_prot_can.o(.text._ZN5embot4prot3can9frame2cmdERKNS1_5FrameE) for embot::prot::can::frame2cmd(embot::prot::can::Frame const&)
    embot_prot_can_bootloader.o(.ARM.exidx.text._ZN5embot4prot3can10bootloader13Message_START4loadERKNS1_5FrameE) refers to embot_prot_can_bootloader.o(.text._ZN5embot4prot3can10bootloader13Message_START4loadERKNS1_5FrameE) for [Anonymous Symbol]
    embot_prot_can_bootloader.o(.text._ZN5embot4prot3can10bootloader13Message_START5replyERNS1_5FrameEhb) refers to embot_prot_can.o(.text._ZN5embot4prot3can16frame_set_senderERNS1_5FrameEhb) for embot::prot::can::frame_set_sender(embot::prot::can::Frame&, unsigned char, bool)
    embot_prot_can_bootloader.o(.text._ZN5embot4prot3can10bootloader13Message_START5replyERNS1_5FrameEhb) refers to embot_prot_can.o(.text._ZN5embot4prot3can32frame_set_clascmddestinationdataERNS1_5FrameENS1_4ClasEhhPKvhhb) for embot::prot::can::frame_set_clascmddestinationdata(embot::prot::can::Frame&, embot::prot::can::Clas, unsigned char, unsigned char, void const*, unsigned char, unsigned char, bool)
    embot_prot_can_bootloader.o(.text._ZN5embot4prot3can10bootloader13Message_START5replyERNS1_5FrameEhb) refers to embot_prot_can.o(.text._ZN5embot4prot3can14frame_set_sizeERNS1_5FrameEhb) for embot::prot::can::frame_set_size(embot::prot::can::Frame&, unsigned char, bool)
    embot_prot_can_bootloader.o(.ARM.exidx.text._ZN5embot4prot3can10bootloader13Message_START5replyERNS1_5FrameEhb) refers to embot_prot_can_bootloader.o(.text._ZN5embot4prot3can10bootloader13Message_START5replyERNS1_5FrameEhb) for [Anonymous Symbol]
    embot_prot_can_bootloader.o(.text._ZN5embot4prot3can10bootloader12Message_DATA4loadERKNS1_5FrameE) refers to embot_prot_can.o(.text._ZN5embot4prot3can7Message3setERKNS1_5FrameE) for embot::prot::can::Message::set(embot::prot::can::Frame const&)
    embot_prot_can_bootloader.o(.text._ZN5embot4prot3can10bootloader12Message_DATA4loadERKNS1_5FrameE) refers to embot_prot_can.o(.text._ZN5embot4prot3can9frame2cmdERKNS1_5FrameE) for embot::prot::can::frame2cmd(embot::prot::can::Frame const&)
    embot_prot_can_bootloader.o(.ARM.exidx.text._ZN5embot4prot3can10bootloader12Message_DATA4loadERKNS1_5FrameE) refers to embot_prot_can_bootloader.o(.text._ZN5embot4prot3can10bootloader12Message_DATA4loadERKNS1_5FrameE) for [Anonymous Symbol]
    embot_prot_can_bootloader.o(.text._ZN5embot4prot3can10bootloader12Message_DATA5replyERNS1_5FrameEhb) refers to embot_prot_can.o(.text._ZN5embot4prot3can16frame_set_senderERNS1_5FrameEhb) for embot::prot::can::frame_set_sender(embot::prot::can::Frame&, unsigned char, bool)
    embot_prot_can_bootloader.o(.text._ZN5embot4prot3can10bootloader12Message_DATA5replyERNS1_5FrameEhb) refers to embot_prot_can.o(.text._ZN5embot4prot3can32frame_set_clascmddestinationdataERNS1_5FrameENS1_4ClasEhhPKvhhb) for embot::prot::can::frame_set_clascmddestinationdata(embot::prot::can::Frame&, embot::prot::can::Clas, unsigned char, unsigned char, void const*, unsigned char, unsigned char, bool)
    embot_prot_can_bootloader.o(.text._ZN5embot4prot3can10bootloader12Message_DATA5replyERNS1_5FrameEhb) refers to embot_prot_can.o(.text._ZN5embot4prot3can14frame_set_sizeERNS1_5FrameEhb) for embot::prot::can::frame_set_size(embot::prot::can::Frame&, unsigned char, bool)
    embot_prot_can_bootloader.o(.ARM.exidx.text._ZN5embot4prot3can10bootloader12Message_DATA5replyERNS1_5FrameEhb) refers to embot_prot_can_bootloader.o(.text._ZN5embot4prot3can10bootloader12Message_DATA5replyERNS1_5FrameEhb) for [Anonymous Symbol]
    embot_prot_can_bootloader.o(.text._ZN5embot4prot3can10bootloader11Message_END4loadERKNS1_5FrameE) refers to embot_prot_can.o(.text._ZN5embot4prot3can7Message3setERKNS1_5FrameE) for embot::prot::can::Message::set(embot::prot::can::Frame const&)
    embot_prot_can_bootloader.o(.text._ZN5embot4prot3can10bootloader11Message_END4loadERKNS1_5FrameE) refers to embot_prot_can.o(.text._ZN5embot4prot3can9frame2cmdERKNS1_5FrameE) for embot::prot::can::frame2cmd(embot::prot::can::Frame const&)
    embot_prot_can_bootloader.o(.ARM.exidx.text._ZN5embot4prot3can10bootloader11Message_END4loadERKNS1_5FrameE) refers to embot_prot_can_bootloader.o(.text._ZN5embot4prot3can10bootloader11Message_END4loadERKNS1_5FrameE) for [Anonymous Symbol]
    embot_prot_can_bootloader.o(.text._ZN5embot4prot3can10bootloader11Message_END5replyERNS1_5FrameEhb) refers to embot_prot_can.o(.text._ZN5embot4prot3can16frame_set_senderERNS1_5FrameEhb) for embot::prot::can::frame_set_sender(embot::prot::can::Frame&, unsigned char, bool)
    embot_prot_can_bootloader.o(.text._ZN5embot4prot3can10bootloader11Message_END5replyERNS1_5FrameEhb) refers to embot_prot_can.o(.text._ZN5embot4prot3can32frame_set_clascmddestinationdataERNS1_5FrameENS1_4ClasEhhPKvhhb) for embot::prot::can::frame_set_clascmddestinationdata(embot::prot::can::Frame&, embot::prot::can::Clas, unsigned char, unsigned char, void const*, unsigned char, unsigned char, bool)
    embot_prot_can_bootloader.o(.text._ZN5embot4prot3can10bootloader11Message_END5replyERNS1_5FrameEhb) refers to embot_prot_can.o(.text._ZN5embot4prot3can14frame_set_sizeERNS1_5FrameEhb) for embot::prot::can::frame_set_size(embot::prot::can::Frame&, unsigned char, bool)
    embot_prot_can_bootloader.o(.ARM.exidx.text._ZN5embot4prot3can10bootloader11Message_END5replyERNS1_5FrameEhb) refers to embot_prot_can_bootloader.o(.text._ZN5embot4prot3can10bootloader11Message_END5replyERNS1_5FrameEhb) for [Anonymous Symbol]
    embot_prot_can_bootloader.o(.text._ZN5embot4prot3can10bootloader21Message_SETCANADDRESS4loadERKNS1_5FrameE) refers to embot_prot_can.o(.text._ZN5embot4prot3can7Message3setERKNS1_5FrameE) for embot::prot::can::Message::set(embot::prot::can::Frame const&)
    embot_prot_can_bootloader.o(.text._ZN5embot4prot3can10bootloader21Message_SETCANADDRESS4loadERKNS1_5FrameE) refers to embot_prot_can.o(.text._ZN5embot4prot3can9frame2cmdERKNS1_5FrameE) for embot::prot::can::frame2cmd(embot::prot::can::Frame const&)
    embot_prot_can_bootloader.o(.ARM.exidx.text._ZN5embot4prot3can10bootloader21Message_SETCANADDRESS4loadERKNS1_5FrameE) refers to embot_prot_can_bootloader.o(.text._ZN5embot4prot3can10bootloader21Message_SETCANADDRESS4loadERKNS1_5FrameE) for [Anonymous Symbol]
    embot_prot_can_bootloader.o(.ARM.exidx.text._ZN5embot4prot3can10bootloader21Message_SETCANADDRESS5replyEv) refers to embot_prot_can_bootloader.o(.text._ZN5embot4prot3can10bootloader21Message_SETCANADDRESS5replyEv) for [Anonymous Symbol]
    embot_prot_can_bootloader.o(.text._ZN5embot4prot3can10bootloader27Message_GET_ADDITIONAL_INFO4loadERKNS1_5FrameE) refers to embot_prot_can.o(.text._ZN5embot4prot3can7Message3setERKNS1_5FrameE) for embot::prot::can::Message::set(embot::prot::can::Frame const&)
    embot_prot_can_bootloader.o(.text._ZN5embot4prot3can10bootloader27Message_GET_ADDITIONAL_INFO4loadERKNS1_5FrameE) refers to embot_prot_can.o(.text._ZN5embot4prot3can9frame2cmdERKNS1_5FrameE) for embot::prot::can::frame2cmd(embot::prot::can::Frame const&)
    embot_prot_can_bootloader.o(.ARM.exidx.text._ZN5embot4prot3can10bootloader27Message_GET_ADDITIONAL_INFO4loadERKNS1_5FrameE) refers to embot_prot_can_bootloader.o(.text._ZN5embot4prot3can10bootloader27Message_GET_ADDITIONAL_INFO4loadERKNS1_5FrameE) for [Anonymous Symbol]
    embot_prot_can_bootloader.o(.ARM.exidx.text._ZN5embot4prot3can10bootloader27Message_GET_ADDITIONAL_INFO15numberofrepliesEv) refers to embot_prot_can_bootloader.o(.text._ZN5embot4prot3can10bootloader27Message_GET_ADDITIONAL_INFO15numberofrepliesEv) for [Anonymous Symbol]
    embot_prot_can_bootloader.o(.text._ZN5embot4prot3can10bootloader27Message_GET_ADDITIONAL_INFO5replyERNS1_5FrameEhRKNS3_9ReplyInfoE) refers to embot_prot_can.o(.text._ZN5embot4prot3can16frame_set_senderERNS1_5FrameEhb) for embot::prot::can::frame_set_sender(embot::prot::can::Frame&, unsigned char, bool)
    embot_prot_can_bootloader.o(.text._ZN5embot4prot3can10bootloader27Message_GET_ADDITIONAL_INFO5replyERNS1_5FrameEhRKNS3_9ReplyInfoE) refers to embot_prot_can.o(.text._ZN5embot4prot3can32frame_set_clascmddestinationdataERNS1_5FrameENS1_4ClasEhhPKvhhb) for embot::prot::can::frame_set_clascmddestinationdata(embot::prot::can::Frame&, embot::prot::can::Clas, unsigned char, unsigned char, void const*, unsigned char, unsigned char, bool)
    embot_prot_can_bootloader.o(.text._ZN5embot4prot3can10bootloader27Message_GET_ADDITIONAL_INFO5replyERNS1_5FrameEhRKNS3_9ReplyInfoE) refers to embot_prot_can.o(.text._ZN5embot4prot3can14frame_set_sizeERNS1_5FrameEhb) for embot::prot::can::frame_set_size(embot::prot::can::Frame&, unsigned char, bool)
    embot_prot_can_bootloader.o(.ARM.exidx.text._ZN5embot4prot3can10bootloader27Message_GET_ADDITIONAL_INFO5replyERNS1_5FrameEhRKNS3_9ReplyInfoE) refers to embot_prot_can_bootloader.o(.text._ZN5embot4prot3can10bootloader27Message_GET_ADDITIONAL_INFO5replyERNS1_5FrameEhRKNS3_9ReplyInfoE) for [Anonymous Symbol]
    embot_prot_can_bootloader.o(.text._ZN5embot4prot3can10bootloader28Message_SET_ADDITIONAL_INFO24loadERKNS1_5FrameE) refers to embot_prot_can.o(.text._ZN5embot4prot3can7Message3setERKNS1_5FrameE) for embot::prot::can::Message::set(embot::prot::can::Frame const&)
    embot_prot_can_bootloader.o(.text._ZN5embot4prot3can10bootloader28Message_SET_ADDITIONAL_INFO24loadERKNS1_5FrameE) refers to embot_prot_can.o(.text._ZN5embot4prot3can9frame2cmdERKNS1_5FrameE) for embot::prot::can::frame2cmd(embot::prot::can::Frame const&)
    embot_prot_can_bootloader.o(.text._ZN5embot4prot3can10bootloader28Message_SET_ADDITIONAL_INFO24loadERKNS1_5FrameE) refers to embot_prot_can_bootloader.o(.bss._ZN5embot4prot3can10bootloader28Message_SET_ADDITIONAL_INFO212receivedmaskE) for embot::prot::can::bootloader::Message_SET_ADDITIONAL_INFO2::receivedmask
    embot_prot_can_bootloader.o(.text._ZN5embot4prot3can10bootloader28Message_SET_ADDITIONAL_INFO24loadERKNS1_5FrameE) refers to embot_prot_can_bootloader.o(.bss._ZN5embot4prot3can10bootloader28Message_SET_ADDITIONAL_INFO216cumulativeinfo32E) for embot::prot::can::bootloader::Message_SET_ADDITIONAL_INFO2::cumulativeinfo32
    embot_prot_can_bootloader.o(.text._ZN5embot4prot3can10bootloader28Message_SET_ADDITIONAL_INFO24loadERKNS1_5FrameE) refers to embot_prot_can_skin_periodic.o(.text._ZN5embot4core6binary3bit3setIhEEvRT_h) for void embot::core::binary::bit::set<unsigned char>(unsigned char&, unsigned char)
    embot_prot_can_bootloader.o(.text._ZN5embot4prot3can10bootloader28Message_SET_ADDITIONAL_INFO24loadERKNS1_5FrameE) refers to rt_memcpy_v6.o(.text) for __aeabi_memcpy
    embot_prot_can_bootloader.o(.ARM.exidx.text._ZN5embot4prot3can10bootloader28Message_SET_ADDITIONAL_INFO24loadERKNS1_5FrameE) refers to embot_prot_can_bootloader.o(.text._ZN5embot4prot3can10bootloader28Message_SET_ADDITIONAL_INFO24loadERKNS1_5FrameE) for [Anonymous Symbol]
    embot_prot_can_bootloader.o(.ARM.exidx.text._ZN5embot4prot3can10bootloader28Message_SET_ADDITIONAL_INFO25replyEv) refers to embot_prot_can_bootloader.o(.text._ZN5embot4prot3can10bootloader28Message_SET_ADDITIONAL_INFO25replyEv) for [Anonymous Symbol]
    embot_prot_can_bootloader.o(.text._ZN5embot4prot3can10bootloader22Message_GET_TIMEOFLIFE4loadERKNS1_5FrameE) refers to embot_prot_can.o(.text._ZN5embot4prot3can7Message3setERKNS1_5FrameE) for embot::prot::can::Message::set(embot::prot::can::Frame const&)
    embot_prot_can_bootloader.o(.text._ZN5embot4prot3can10bootloader22Message_GET_TIMEOFLIFE4loadERKNS1_5FrameE) refers to embot_prot_can.o(.text._ZN5embot4prot3can9frame2cmdERKNS1_5FrameE) for embot::prot::can::frame2cmd(embot::prot::can::Frame const&)
    embot_prot_can_bootloader.o(.ARM.exidx.text._ZN5embot4prot3can10bootloader22Message_GET_TIMEOFLIFE4loadERKNS1_5FrameE) refers to embot_prot_can_bootloader.o(.text._ZN5embot4prot3can10bootloader22Message_GET_TIMEOFLIFE4loadERKNS1_5FrameE) for [Anonymous Symbol]
    embot_prot_can_bootloader.o(.text._ZN5embot4prot3can10bootloader22Message_GET_TIMEOFLIFE5replyERNS1_5FrameEhRKNS3_9ReplyInfoE) refers to embot_prot_can.o(.text._ZN5embot4prot3can16frame_set_senderERNS1_5FrameEhb) for embot::prot::can::frame_set_sender(embot::prot::can::Frame&, unsigned char, bool)
    embot_prot_can_bootloader.o(.text._ZN5embot4prot3can10bootloader22Message_GET_TIMEOFLIFE5replyERNS1_5FrameEhRKNS3_9ReplyInfoE) refers to embot_prot_can.o(.text._ZN5embot4prot3can32frame_set_clascmddestinationdataERNS1_5FrameENS1_4ClasEhhPKvhhb) for embot::prot::can::frame_set_clascmddestinationdata(embot::prot::can::Frame&, embot::prot::can::Clas, unsigned char, unsigned char, void const*, unsigned char, unsigned char, bool)
    embot_prot_can_bootloader.o(.text._ZN5embot4prot3can10bootloader22Message_GET_TIMEOFLIFE5replyERNS1_5FrameEhRKNS3_9ReplyInfoE) refers to embot_prot_can.o(.text._ZN5embot4prot3can14frame_set_sizeERNS1_5FrameEhb) for embot::prot::can::frame_set_size(embot::prot::can::Frame&, unsigned char, bool)
    embot_prot_can_bootloader.o(.ARM.exidx.text._ZN5embot4prot3can10bootloader22Message_GET_TIMEOFLIFE5replyERNS1_5FrameEhRKNS3_9ReplyInfoE) refers to embot_prot_can_bootloader.o(.text._ZN5embot4prot3can10bootloader22Message_GET_TIMEOFLIFE5replyERNS1_5FrameEhRKNS3_9ReplyInfoE) for [Anonymous Symbol]
    embot_prot_can_analog_polling.o(.ARM.exidx.text._ZN5embot4prot3can6analog14deciDeg_exportEs) refers to embot_prot_can_analog_polling.o(.text._ZN5embot4prot3can6analog14deciDeg_exportEs) for [Anonymous Symbol]
    embot_prot_can_analog_polling.o(.ARM.exidx.text._ZN5embot4prot3can6analog14deciDeg_importEf) refers to embot_prot_can_analog_polling.o(.text._ZN5embot4prot3can6analog14deciDeg_importEf) for [Anonymous Symbol]
    embot_prot_can_analog_polling.o(.text._ZN5embot4prot3can6analog7polling9supportedEh) refers to embot_prot_can_analog_polling.o(.text._ZN5embot4prot3can6analog7polling7convertEh) for embot::prot::can::analog::polling::convert(unsigned char)
    embot_prot_can_analog_polling.o(.ARM.exidx.text._ZN5embot4prot3can6analog7polling9supportedEh) refers to embot_prot_can_analog_polling.o(.text._ZN5embot4prot3can6analog7polling9supportedEh) for [Anonymous Symbol]
    embot_prot_can_analog_polling.o(.text._ZN5embot4prot3can6analog7polling7convertEh) refers to embot_prot_can_analog_polling.o(.rodata.cst32) for .L__const._ZN5embot4prot3can6analog7polling7convertEh.aspollmask256
    embot_prot_can_analog_polling.o(.text._ZN5embot4prot3can6analog7polling7convertEh) refers to embot_prot_can_motor_polling.o(.text._ZN5embot4core6binary3bit5checkIyEEbT_h) for bool embot::core::binary::bit::check<unsigned long long>(unsigned long long, unsigned char)
    embot_prot_can_analog_polling.o(.ARM.exidx.text._ZN5embot4prot3can6analog7polling7convertEh) refers to embot_prot_can_analog_polling.o(.text._ZN5embot4prot3can6analog7polling7convertEh) for [Anonymous Symbol]
    embot_prot_can_analog_polling.o(.ARM.exidx.text._ZN5embot4prot3can6analog7polling7convertENS3_3CMDE) refers to embot_prot_can_analog_polling.o(.text._ZN5embot4prot3can6analog7polling7convertENS3_3CMDE) for [Anonymous Symbol]
    embot_prot_can_analog_polling.o(.text._ZN5embot4prot3can6analog7polling18Message_SET_TXMODE4loadERKNS1_5FrameE) refers to embot_prot_can.o(.text._ZN5embot4prot3can7Message3setERKNS1_5FrameE) for embot::prot::can::Message::set(embot::prot::can::Frame const&)
    embot_prot_can_analog_polling.o(.text._ZN5embot4prot3can6analog7polling18Message_SET_TXMODE4loadERKNS1_5FrameE) refers to embot_prot_can.o(.text._ZN5embot4prot3can9frame2cmdERKNS1_5FrameE) for embot::prot::can::frame2cmd(embot::prot::can::Frame const&)
    embot_prot_can_analog_polling.o(.ARM.exidx.text._ZN5embot4prot3can6analog7polling18Message_SET_TXMODE4loadERKNS1_5FrameE) refers to embot_prot_can_analog_polling.o(.text._ZN5embot4prot3can6analog7polling18Message_SET_TXMODE4loadERKNS1_5FrameE) for [Anonymous Symbol]
    embot_prot_can_analog_polling.o(.ARM.exidx.text._ZN5embot4prot3can6analog7polling18Message_SET_TXMODE5replyEv) refers to embot_prot_can_analog_polling.o(.text._ZN5embot4prot3can6analog7polling18Message_SET_TXMODE5replyEv) for [Anonymous Symbol]
    embot_prot_can_analog_polling.o(.text._ZN5embot4prot3can6analog7polling32Message_SKIN_OBSOLETE_TACT_SETUP4loadERKNS1_5FrameE) refers to embot_prot_can.o(.text._ZN5embot4prot3can7Message3setERKNS1_5FrameE) for embot::prot::can::Message::set(embot::prot::can::Frame const&)
    embot_prot_can_analog_polling.o(.text._ZN5embot4prot3can6analog7polling32Message_SKIN_OBSOLETE_TACT_SETUP4loadERKNS1_5FrameE) refers to embot_prot_can.o(.text._ZN5embot4prot3can9frame2cmdERKNS1_5FrameE) for embot::prot::can::frame2cmd(embot::prot::can::Frame const&)
    embot_prot_can_analog_polling.o(.ARM.exidx.text._ZN5embot4prot3can6analog7polling32Message_SKIN_OBSOLETE_TACT_SETUP4loadERKNS1_5FrameE) refers to embot_prot_can_analog_polling.o(.text._ZN5embot4prot3can6analog7polling32Message_SKIN_OBSOLETE_TACT_SETUP4loadERKNS1_5FrameE) for [Anonymous Symbol]
    embot_prot_can_analog_polling.o(.ARM.exidx.text._ZN5embot4prot3can6analog7polling32Message_SKIN_OBSOLETE_TACT_SETUP5replyEv) refers to embot_prot_can_analog_polling.o(.text._ZN5embot4prot3can6analog7polling32Message_SKIN_OBSOLETE_TACT_SETUP5replyEv) for [Anonymous Symbol]
    embot_prot_can_analog_polling.o(.text._ZN5embot4prot3can6analog7polling24Message_SKIN_SET_BRD_CFG4loadERKNS1_5FrameE) refers to embot_prot_can.o(.text._ZN5embot4prot3can7Message3setERKNS1_5FrameE) for embot::prot::can::Message::set(embot::prot::can::Frame const&)
    embot_prot_can_analog_polling.o(.text._ZN5embot4prot3can6analog7polling24Message_SKIN_SET_BRD_CFG4loadERKNS1_5FrameE) refers to embot_prot_can.o(.text._ZN5embot4prot3can9frame2cmdERKNS1_5FrameE) for embot::prot::can::frame2cmd(embot::prot::can::Frame const&)
    embot_prot_can_analog_polling.o(.ARM.exidx.text._ZN5embot4prot3can6analog7polling24Message_SKIN_SET_BRD_CFG4loadERKNS1_5FrameE) refers to embot_prot_can_analog_polling.o(.text._ZN5embot4prot3can6analog7polling24Message_SKIN_SET_BRD_CFG4loadERKNS1_5FrameE) for [Anonymous Symbol]
    embot_prot_can_analog_polling.o(.ARM.exidx.text._ZN5embot4prot3can6analog7polling24Message_SKIN_SET_BRD_CFG5replyEv) refers to embot_prot_can_analog_polling.o(.text._ZN5embot4prot3can6analog7polling24Message_SKIN_SET_BRD_CFG5replyEv) for [Anonymous Symbol]
    embot_prot_can_analog_polling.o(.text._ZN5embot4prot3can6analog7polling27Message_SKIN_SET_TRIANG_CFG4loadERKNS1_5FrameE) refers to embot_prot_can.o(.text._ZN5embot4prot3can7Message3setERKNS1_5FrameE) for embot::prot::can::Message::set(embot::prot::can::Frame const&)
    embot_prot_can_analog_polling.o(.text._ZN5embot4prot3can6analog7polling27Message_SKIN_SET_TRIANG_CFG4loadERKNS1_5FrameE) refers to embot_prot_can.o(.text._ZN5embot4prot3can9frame2cmdERKNS1_5FrameE) for embot::prot::can::frame2cmd(embot::prot::can::Frame const&)
    embot_prot_can_analog_polling.o(.text._ZN5embot4prot3can6analog7polling27Message_SKIN_SET_TRIANG_CFG4loadERKNS1_5FrameE) refers to embot_prot_can_analog_polling.o(.text._ZN5embot4core6binary3bit5checkIhEEbT_h) for bool embot::core::binary::bit::check<unsigned char>(unsigned char, unsigned char)
    embot_prot_can_analog_polling.o(.ARM.exidx.text._ZN5embot4prot3can6analog7polling27Message_SKIN_SET_TRIANG_CFG4loadERKNS1_5FrameE) refers to embot_prot_can_analog_polling.o(.text._ZN5embot4prot3can6analog7polling27Message_SKIN_SET_TRIANG_CFG4loadERKNS1_5FrameE) for [Anonymous Symbol]
    embot_prot_can_analog_polling.o(.ARM.exidx.text._ZN5embot4prot3can6analog7polling27Message_SKIN_SET_TRIANG_CFG5replyEv) refers to embot_prot_can_analog_polling.o(.text._ZN5embot4prot3can6analog7polling27Message_SKIN_SET_TRIANG_CFG5replyEv) for [Anonymous Symbol]
    embot_prot_can_analog_polling.o(.text._ZN5embot4prot3can6analog7polling23Message_SET_CANDATARATE4loadERKNS1_5FrameE) refers to embot_prot_can.o(.text._ZN5embot4prot3can7Message3setERKNS1_5FrameE) for embot::prot::can::Message::set(embot::prot::can::Frame const&)
    embot_prot_can_analog_polling.o(.text._ZN5embot4prot3can6analog7polling23Message_SET_CANDATARATE4loadERKNS1_5FrameE) refers to embot_prot_can.o(.text._ZN5embot4prot3can9frame2cmdERKNS1_5FrameE) for embot::prot::can::frame2cmd(embot::prot::can::Frame const&)
    embot_prot_can_analog_polling.o(.ARM.exidx.text._ZN5embot4prot3can6analog7polling23Message_SET_CANDATARATE4loadERKNS1_5FrameE) refers to embot_prot_can_analog_polling.o(.text._ZN5embot4prot3can6analog7polling23Message_SET_CANDATARATE4loadERKNS1_5FrameE) for [Anonymous Symbol]
    embot_prot_can_analog_polling.o(.ARM.exidx.text._ZN5embot4prot3can6analog7polling23Message_SET_CANDATARATE5replyEv) refers to embot_prot_can_analog_polling.o(.text._ZN5embot4prot3can6analog7polling23Message_SET_CANDATARATE5replyEv) for [Anonymous Symbol]
    embot_prot_can_analog_polling.o(.text._ZN5embot4prot3can6analog7polling23Message_SET_FULL_SCALES4loadERKNS1_5FrameE) refers to embot_prot_can.o(.text._ZN5embot4prot3can7Message3setERKNS1_5FrameE) for embot::prot::can::Message::set(embot::prot::can::Frame const&)
    embot_prot_can_analog_polling.o(.text._ZN5embot4prot3can6analog7polling23Message_SET_FULL_SCALES4loadERKNS1_5FrameE) refers to embot_prot_can.o(.text._ZN5embot4prot3can9frame2cmdERKNS1_5FrameE) for embot::prot::can::frame2cmd(embot::prot::can::Frame const&)
    embot_prot_can_analog_polling.o(.ARM.exidx.text._ZN5embot4prot3can6analog7polling23Message_SET_FULL_SCALES4loadERKNS1_5FrameE) refers to embot_prot_can_analog_polling.o(.text._ZN5embot4prot3can6analog7polling23Message_SET_FULL_SCALES4loadERKNS1_5FrameE) for [Anonymous Symbol]
    embot_prot_can_analog_polling.o(.ARM.exidx.text._ZN5embot4prot3can6analog7polling23Message_SET_FULL_SCALES5replyEv) refers to embot_prot_can_analog_polling.o(.text._ZN5embot4prot3can6analog7polling23Message_SET_FULL_SCALES5replyEv) for [Anonymous Symbol]
    embot_prot_can_analog_polling.o(.text._ZN5embot4prot3can6analog7polling18Message_SET_CH_DAC4loadERKNS1_5FrameE) refers to embot_prot_can.o(.text._ZN5embot4prot3can7Message3setERKNS1_5FrameE) for embot::prot::can::Message::set(embot::prot::can::Frame const&)
    embot_prot_can_analog_polling.o(.text._ZN5embot4prot3can6analog7polling18Message_SET_CH_DAC4loadERKNS1_5FrameE) refers to embot_prot_can.o(.text._ZN5embot4prot3can9frame2cmdERKNS1_5FrameE) for embot::prot::can::frame2cmd(embot::prot::can::Frame const&)
    embot_prot_can_analog_polling.o(.ARM.exidx.text._ZN5embot4prot3can6analog7polling18Message_SET_CH_DAC4loadERKNS1_5FrameE) refers to embot_prot_can_analog_polling.o(.text._ZN5embot4prot3can6analog7polling18Message_SET_CH_DAC4loadERKNS1_5FrameE) for [Anonymous Symbol]
    embot_prot_can_analog_polling.o(.ARM.exidx.text._ZN5embot4prot3can6analog7polling18Message_SET_CH_DAC5replyEv) refers to embot_prot_can_analog_polling.o(.text._ZN5embot4prot3can6analog7polling18Message_SET_CH_DAC5replyEv) for [Anonymous Symbol]
    embot_prot_can_analog_polling.o(.text._ZN5embot4prot3can6analog7polling21Message_SET_MATRIX_RC4loadERKNS1_5FrameE) refers to embot_prot_can.o(.text._ZN5embot4prot3can7Message3setERKNS1_5FrameE) for embot::prot::can::Message::set(embot::prot::can::Frame const&)
    embot_prot_can_analog_polling.o(.text._ZN5embot4prot3can6analog7polling21Message_SET_MATRIX_RC4loadERKNS1_5FrameE) refers to embot_prot_can.o(.text._ZN5embot4prot3can9frame2cmdERKNS1_5FrameE) for embot::prot::can::frame2cmd(embot::prot::can::Frame const&)
    embot_prot_can_analog_polling.o(.ARM.exidx.text._ZN5embot4prot3can6analog7polling21Message_SET_MATRIX_RC4loadERKNS1_5FrameE) refers to embot_prot_can_analog_polling.o(.text._ZN5embot4prot3can6analog7polling21Message_SET_MATRIX_RC4loadERKNS1_5FrameE) for [Anonymous Symbol]
    embot_prot_can_analog_polling.o(.ARM.exidx.text._ZN5embot4prot3can6analog7polling21Message_SET_MATRIX_RC5replyEv) refers to embot_prot_can_analog_polling.o(.text._ZN5embot4prot3can6analog7polling21Message_SET_MATRIX_RC5replyEv) for [Anonymous Symbol]
    embot_prot_can_analog_polling.o(.text._ZN5embot4prot3can6analog7polling22Message_SET_CALIB_TARE4loadERKNS1_5FrameE) refers to embot_prot_can.o(.text._ZN5embot4prot3can7Message3setERKNS1_5FrameE) for embot::prot::can::Message::set(embot::prot::can::Frame const&)
    embot_prot_can_analog_polling.o(.text._ZN5embot4prot3can6analog7polling22Message_SET_CALIB_TARE4loadERKNS1_5FrameE) refers to embot_prot_can.o(.text._ZN5embot4prot3can9frame2cmdERKNS1_5FrameE) for embot::prot::can::frame2cmd(embot::prot::can::Frame const&)
    embot_prot_can_analog_polling.o(.ARM.exidx.text._ZN5embot4prot3can6analog7polling22Message_SET_CALIB_TARE4loadERKNS1_5FrameE) refers to embot_prot_can_analog_polling.o(.text._ZN5embot4prot3can6analog7polling22Message_SET_CALIB_TARE4loadERKNS1_5FrameE) for [Anonymous Symbol]
    embot_prot_can_analog_polling.o(.ARM.exidx.text._ZN5embot4prot3can6analog7polling22Message_SET_CALIB_TARE5replyEv) refers to embot_prot_can_analog_polling.o(.text._ZN5embot4prot3can6analog7polling22Message_SET_CALIB_TARE5replyEv) for [Anonymous Symbol]
    embot_prot_can_analog_polling.o(.text._ZN5embot4prot3can6analog7polling22Message_GET_CALIB_TARE4loadERKNS1_5FrameE) refers to embot_prot_can.o(.text._ZN5embot4prot3can7Message3setERKNS1_5FrameE) for embot::prot::can::Message::set(embot::prot::can::Frame const&)
    embot_prot_can_analog_polling.o(.text._ZN5embot4prot3can6analog7polling22Message_GET_CALIB_TARE4loadERKNS1_5FrameE) refers to embot_prot_can.o(.text._ZN5embot4prot3can9frame2cmdERKNS1_5FrameE) for embot::prot::can::frame2cmd(embot::prot::can::Frame const&)
    embot_prot_can_analog_polling.o(.ARM.exidx.text._ZN5embot4prot3can6analog7polling22Message_GET_CALIB_TARE4loadERKNS1_5FrameE) refers to embot_prot_can_analog_polling.o(.text._ZN5embot4prot3can6analog7polling22Message_GET_CALIB_TARE4loadERKNS1_5FrameE) for [Anonymous Symbol]
    embot_prot_can_analog_polling.o(.text._ZN5embot4prot3can6analog7polling22Message_GET_CALIB_TARE5replyERNS1_5FrameEhRKNS4_9ReplyInfoE) refers to embot_prot_can.o(.text._ZN5embot4prot3can16frame_set_senderERNS1_5FrameEhb) for embot::prot::can::frame_set_sender(embot::prot::can::Frame&, unsigned char, bool)
    embot_prot_can_analog_polling.o(.text._ZN5embot4prot3can6analog7polling22Message_GET_CALIB_TARE5replyERNS1_5FrameEhRKNS4_9ReplyInfoE) refers to embot_prot_can.o(.text._ZN5embot4prot3can32frame_set_clascmddestinationdataERNS1_5FrameENS1_4ClasEhhPKvhhb) for embot::prot::can::frame_set_clascmddestinationdata(embot::prot::can::Frame&, embot::prot::can::Clas, unsigned char, unsigned char, void const*, unsigned char, unsigned char, bool)
    embot_prot_can_analog_polling.o(.text._ZN5embot4prot3can6analog7polling22Message_GET_CALIB_TARE5replyERNS1_5FrameEhRKNS4_9ReplyInfoE) refers to embot_prot_can.o(.text._ZN5embot4prot3can14frame_set_sizeERNS1_5FrameEhb) for embot::prot::can::frame_set_size(embot::prot::can::Frame&, unsigned char, bool)
    embot_prot_can_analog_polling.o(.ARM.exidx.text._ZN5embot4prot3can6analog7polling22Message_GET_CALIB_TARE5replyERNS1_5FrameEhRKNS4_9ReplyInfoE) refers to embot_prot_can_analog_polling.o(.text._ZN5embot4prot3can6analog7polling22Message_GET_CALIB_TARE5replyERNS1_5FrameEhRKNS4_9ReplyInfoE) for [Anonymous Symbol]
    embot_prot_can_analog_polling.o(.text._ZN5embot4prot3can6analog7polling21Message_SET_CURR_TARE4loadERKNS1_5FrameE) refers to embot_prot_can.o(.text._ZN5embot4prot3can7Message3setERKNS1_5FrameE) for embot::prot::can::Message::set(embot::prot::can::Frame const&)
    embot_prot_can_analog_polling.o(.text._ZN5embot4prot3can6analog7polling21Message_SET_CURR_TARE4loadERKNS1_5FrameE) refers to embot_prot_can.o(.text._ZN5embot4prot3can9frame2cmdERKNS1_5FrameE) for embot::prot::can::frame2cmd(embot::prot::can::Frame const&)
    embot_prot_can_analog_polling.o(.ARM.exidx.text._ZN5embot4prot3can6analog7polling21Message_SET_CURR_TARE4loadERKNS1_5FrameE) refers to embot_prot_can_analog_polling.o(.text._ZN5embot4prot3can6analog7polling21Message_SET_CURR_TARE4loadERKNS1_5FrameE) for [Anonymous Symbol]
    embot_prot_can_analog_polling.o(.ARM.exidx.text._ZN5embot4prot3can6analog7polling21Message_SET_CURR_TARE5replyEv) refers to embot_prot_can_analog_polling.o(.text._ZN5embot4prot3can6analog7polling21Message_SET_CURR_TARE5replyEv) for [Anonymous Symbol]
    embot_prot_can_analog_polling.o(.text._ZN5embot4prot3can6analog7polling21Message_GET_CURR_TARE4loadERKNS1_5FrameE) refers to embot_prot_can.o(.text._ZN5embot4prot3can7Message3setERKNS1_5FrameE) for embot::prot::can::Message::set(embot::prot::can::Frame const&)
    embot_prot_can_analog_polling.o(.text._ZN5embot4prot3can6analog7polling21Message_GET_CURR_TARE4loadERKNS1_5FrameE) refers to embot_prot_can.o(.text._ZN5embot4prot3can9frame2cmdERKNS1_5FrameE) for embot::prot::can::frame2cmd(embot::prot::can::Frame const&)
    embot_prot_can_analog_polling.o(.ARM.exidx.text._ZN5embot4prot3can6analog7polling21Message_GET_CURR_TARE4loadERKNS1_5FrameE) refers to embot_prot_can_analog_polling.o(.text._ZN5embot4prot3can6analog7polling21Message_GET_CURR_TARE4loadERKNS1_5FrameE) for [Anonymous Symbol]
    embot_prot_can_analog_polling.o(.text._ZN5embot4prot3can6analog7polling21Message_GET_CURR_TARE5replyERNS1_5FrameEhRKNS4_9ReplyInfoE) refers to embot_prot_can.o(.text._ZN5embot4prot3can16frame_set_senderERNS1_5FrameEhb) for embot::prot::can::frame_set_sender(embot::prot::can::Frame&, unsigned char, bool)
    embot_prot_can_analog_polling.o(.text._ZN5embot4prot3can6analog7polling21Message_GET_CURR_TARE5replyERNS1_5FrameEhRKNS4_9ReplyInfoE) refers to embot_prot_can.o(.text._ZN5embot4prot3can32frame_set_clascmddestinationdataERNS1_5FrameENS1_4ClasEhhPKvhhb) for embot::prot::can::frame_set_clascmddestinationdata(embot::prot::can::Frame&, embot::prot::can::Clas, unsigned char, unsigned char, void const*, unsigned char, unsigned char, bool)
    embot_prot_can_analog_polling.o(.text._ZN5embot4prot3can6analog7polling21Message_GET_CURR_TARE5replyERNS1_5FrameEhRKNS4_9ReplyInfoE) refers to embot_prot_can.o(.text._ZN5embot4prot3can14frame_set_sizeERNS1_5FrameEhb) for embot::prot::can::frame_set_size(embot::prot::can::Frame&, unsigned char, bool)
    embot_prot_can_analog_polling.o(.ARM.exidx.text._ZN5embot4prot3can6analog7polling21Message_GET_CURR_TARE5replyERNS1_5FrameEhRKNS4_9ReplyInfoE) refers to embot_prot_can_analog_polling.o(.text._ZN5embot4prot3can6analog7polling21Message_GET_CURR_TARE5replyERNS1_5FrameEhRKNS4_9ReplyInfoE) for [Anonymous Symbol]
    embot_prot_can_analog_polling.o(.text._ZN5embot4prot3can6analog7polling20Message_SET_MATRIX_G4loadERKNS1_5FrameE) refers to embot_prot_can.o(.text._ZN5embot4prot3can7Message3setERKNS1_5FrameE) for embot::prot::can::Message::set(embot::prot::can::Frame const&)
    embot_prot_can_analog_polling.o(.text._ZN5embot4prot3can6analog7polling20Message_SET_MATRIX_G4loadERKNS1_5FrameE) refers to embot_prot_can.o(.text._ZN5embot4prot3can9frame2cmdERKNS1_5FrameE) for embot::prot::can::frame2cmd(embot::prot::can::Frame const&)
    embot_prot_can_analog_polling.o(.ARM.exidx.text._ZN5embot4prot3can6analog7polling20Message_SET_MATRIX_G4loadERKNS1_5FrameE) refers to embot_prot_can_analog_polling.o(.text._ZN5embot4prot3can6analog7polling20Message_SET_MATRIX_G4loadERKNS1_5FrameE) for [Anonymous Symbol]
    embot_prot_can_analog_polling.o(.ARM.exidx.text._ZN5embot4prot3can6analog7polling20Message_SET_MATRIX_G5replyEv) refers to embot_prot_can_analog_polling.o(.text._ZN5embot4prot3can6analog7polling20Message_SET_MATRIX_G5replyEv) for [Anonymous Symbol]
    embot_prot_can_analog_polling.o(.text._ZN5embot4prot3can6analog7polling21Message_SET_SERIAL_NO4loadERKNS1_5FrameE) refers to embot_prot_can.o(.text._ZN5embot4prot3can7Message3setERKNS1_5FrameE) for embot::prot::can::Message::set(embot::prot::can::Frame const&)
    embot_prot_can_analog_polling.o(.text._ZN5embot4prot3can6analog7polling21Message_SET_SERIAL_NO4loadERKNS1_5FrameE) refers to embot_prot_can.o(.text._ZN5embot4prot3can9frame2cmdERKNS1_5FrameE) for embot::prot::can::frame2cmd(embot::prot::can::Frame const&)
    embot_prot_can_analog_polling.o(.ARM.exidx.text._ZN5embot4prot3can6analog7polling21Message_SET_SERIAL_NO4loadERKNS1_5FrameE) refers to embot_prot_can_analog_polling.o(.text._ZN5embot4prot3can6analog7polling21Message_SET_SERIAL_NO4loadERKNS1_5FrameE) for [Anonymous Symbol]
    embot_prot_can_analog_polling.o(.ARM.exidx.text._ZN5embot4prot3can6analog7polling21Message_SET_SERIAL_NO5replyEv) refers to embot_prot_can_analog_polling.o(.text._ZN5embot4prot3can6analog7polling21Message_SET_SERIAL_NO5replyEv) for [Anonymous Symbol]
    embot_prot_can_analog_polling.o(.text._ZN5embot4prot3can6analog7polling21Message_GET_SERIAL_NO4loadERKNS1_5FrameE) refers to embot_prot_can.o(.text._ZN5embot4prot3can7Message3setERKNS1_5FrameE) for embot::prot::can::Message::set(embot::prot::can::Frame const&)
    embot_prot_can_analog_polling.o(.text._ZN5embot4prot3can6analog7polling21Message_GET_SERIAL_NO4loadERKNS1_5FrameE) refers to embot_prot_can.o(.text._ZN5embot4prot3can9frame2cmdERKNS1_5FrameE) for embot::prot::can::frame2cmd(embot::prot::can::Frame const&)
    embot_prot_can_analog_polling.o(.ARM.exidx.text._ZN5embot4prot3can6analog7polling21Message_GET_SERIAL_NO4loadERKNS1_5FrameE) refers to embot_prot_can_analog_polling.o(.text._ZN5embot4prot3can6analog7polling21Message_GET_SERIAL_NO4loadERKNS1_5FrameE) for [Anonymous Symbol]
    embot_prot_can_analog_polling.o(.text._ZN5embot4prot3can6analog7polling21Message_GET_SERIAL_NO5replyERNS1_5FrameEhRKNS4_9ReplyInfoE) refers to embot_prot_can.o(.text._ZN5embot4prot3can16frame_set_senderERNS1_5FrameEhb) for embot::prot::can::frame_set_sender(embot::prot::can::Frame&, unsigned char, bool)
    embot_prot_can_analog_polling.o(.text._ZN5embot4prot3can6analog7polling21Message_GET_SERIAL_NO5replyERNS1_5FrameEhRKNS4_9ReplyInfoE) refers to embot_prot_can.o(.text._ZN5embot4prot3can32frame_set_clascmddestinationdataERNS1_5FrameENS1_4ClasEhhPKvhhb) for embot::prot::can::frame_set_clascmddestinationdata(embot::prot::can::Frame&, embot::prot::can::Clas, unsigned char, unsigned char, void const*, unsigned char, unsigned char, bool)
    embot_prot_can_analog_polling.o(.text._ZN5embot4prot3can6analog7polling21Message_GET_SERIAL_NO5replyERNS1_5FrameEhRKNS4_9ReplyInfoE) refers to embot_prot_can.o(.text._ZN5embot4prot3can14frame_set_sizeERNS1_5FrameEhb) for embot::prot::can::frame_set_size(embot::prot::can::Frame&, unsigned char, bool)
    embot_prot_can_analog_polling.o(.ARM.exidx.text._ZN5embot4prot3can6analog7polling21Message_GET_SERIAL_NO5replyERNS1_5FrameEhRKNS4_9ReplyInfoE) refers to embot_prot_can_analog_polling.o(.text._ZN5embot4prot3can6analog7polling21Message_GET_SERIAL_NO5replyERNS1_5FrameEhRKNS4_9ReplyInfoE) for [Anonymous Symbol]
    embot_prot_can_analog_polling.o(.text._ZN5embot4prot3can6analog7polling23Message_GET_FULL_SCALES4loadERKNS1_5FrameE) refers to embot_prot_can.o(.text._ZN5embot4prot3can7Message3setERKNS1_5FrameE) for embot::prot::can::Message::set(embot::prot::can::Frame const&)
    embot_prot_can_analog_polling.o(.text._ZN5embot4prot3can6analog7polling23Message_GET_FULL_SCALES4loadERKNS1_5FrameE) refers to embot_prot_can.o(.text._ZN5embot4prot3can9frame2cmdERKNS1_5FrameE) for embot::prot::can::frame2cmd(embot::prot::can::Frame const&)
    embot_prot_can_analog_polling.o(.ARM.exidx.text._ZN5embot4prot3can6analog7polling23Message_GET_FULL_SCALES4loadERKNS1_5FrameE) refers to embot_prot_can_analog_polling.o(.text._ZN5embot4prot3can6analog7polling23Message_GET_FULL_SCALES4loadERKNS1_5FrameE) for [Anonymous Symbol]
    embot_prot_can_analog_polling.o(.text._ZN5embot4prot3can6analog7polling23Message_GET_FULL_SCALES5replyERNS1_5FrameEhRKNS4_9ReplyInfoE) refers to embot_prot_can.o(.text._ZN5embot4prot3can16frame_set_senderERNS1_5FrameEhb) for embot::prot::can::frame_set_sender(embot::prot::can::Frame&, unsigned char, bool)
    embot_prot_can_analog_polling.o(.text._ZN5embot4prot3can6analog7polling23Message_GET_FULL_SCALES5replyERNS1_5FrameEhRKNS4_9ReplyInfoE) refers to embot_prot_can.o(.text._ZN5embot4prot3can32frame_set_clascmddestinationdataERNS1_5FrameENS1_4ClasEhhPKvhhb) for embot::prot::can::frame_set_clascmddestinationdata(embot::prot::can::Frame&, embot::prot::can::Clas, unsigned char, unsigned char, void const*, unsigned char, unsigned char, bool)
    embot_prot_can_analog_polling.o(.text._ZN5embot4prot3can6analog7polling23Message_GET_FULL_SCALES5replyERNS1_5FrameEhRKNS4_9ReplyInfoE) refers to embot_prot_can.o(.text._ZN5embot4prot3can14frame_set_sizeERNS1_5FrameEhb) for embot::prot::can::frame_set_size(embot::prot::can::Frame&, unsigned char, bool)
    embot_prot_can_analog_polling.o(.ARM.exidx.text._ZN5embot4prot3can6analog7polling23Message_GET_FULL_SCALES5replyERNS1_5FrameEhRKNS4_9ReplyInfoE) refers to embot_prot_can_analog_polling.o(.text._ZN5embot4prot3can6analog7polling23Message_GET_FULL_SCALES5replyERNS1_5FrameEhRKNS4_9ReplyInfoE) for [Anonymous Symbol]
    embot_prot_can_analog_polling.o(.text._ZN5embot4prot3can6analog7polling18Message_GET_CH_DAC4loadERKNS1_5FrameE) refers to embot_prot_can.o(.text._ZN5embot4prot3can7Message3setERKNS1_5FrameE) for embot::prot::can::Message::set(embot::prot::can::Frame const&)
    embot_prot_can_analog_polling.o(.text._ZN5embot4prot3can6analog7polling18Message_GET_CH_DAC4loadERKNS1_5FrameE) refers to embot_prot_can.o(.text._ZN5embot4prot3can9frame2cmdERKNS1_5FrameE) for embot::prot::can::frame2cmd(embot::prot::can::Frame const&)
    embot_prot_can_analog_polling.o(.ARM.exidx.text._ZN5embot4prot3can6analog7polling18Message_GET_CH_DAC4loadERKNS1_5FrameE) refers to embot_prot_can_analog_polling.o(.text._ZN5embot4prot3can6analog7polling18Message_GET_CH_DAC4loadERKNS1_5FrameE) for [Anonymous Symbol]
    embot_prot_can_analog_polling.o(.text._ZN5embot4prot3can6analog7polling18Message_GET_CH_DAC5replyERNS1_5FrameEhRKNS4_9ReplyInfoE) refers to embot_prot_can.o(.text._ZN5embot4prot3can16frame_set_senderERNS1_5FrameEhb) for embot::prot::can::frame_set_sender(embot::prot::can::Frame&, unsigned char, bool)
    embot_prot_can_analog_polling.o(.text._ZN5embot4prot3can6analog7polling18Message_GET_CH_DAC5replyERNS1_5FrameEhRKNS4_9ReplyInfoE) refers to embot_prot_can.o(.text._ZN5embot4prot3can32frame_set_clascmddestinationdataERNS1_5FrameENS1_4ClasEhhPKvhhb) for embot::prot::can::frame_set_clascmddestinationdata(embot::prot::can::Frame&, embot::prot::can::Clas, unsigned char, unsigned char, void const*, unsigned char, unsigned char, bool)
    embot_prot_can_analog_polling.o(.text._ZN5embot4prot3can6analog7polling18Message_GET_CH_DAC5replyERNS1_5FrameEhRKNS4_9ReplyInfoE) refers to embot_prot_can.o(.text._ZN5embot4prot3can14frame_set_sizeERNS1_5FrameEhb) for embot::prot::can::frame_set_size(embot::prot::can::Frame&, unsigned char, bool)
    embot_prot_can_analog_polling.o(.ARM.exidx.text._ZN5embot4prot3can6analog7polling18Message_GET_CH_DAC5replyERNS1_5FrameEhRKNS4_9ReplyInfoE) refers to embot_prot_can_analog_polling.o(.text._ZN5embot4prot3can6analog7polling18Message_GET_CH_DAC5replyERNS1_5FrameEhRKNS4_9ReplyInfoE) for [Anonymous Symbol]
    embot_prot_can_analog_polling.o(.text._ZN5embot4prot3can6analog7polling21Message_GET_MATRIX_RC4loadERKNS1_5FrameE) refers to embot_prot_can.o(.text._ZN5embot4prot3can7Message3setERKNS1_5FrameE) for embot::prot::can::Message::set(embot::prot::can::Frame const&)
    embot_prot_can_analog_polling.o(.text._ZN5embot4prot3can6analog7polling21Message_GET_MATRIX_RC4loadERKNS1_5FrameE) refers to embot_prot_can.o(.text._ZN5embot4prot3can9frame2cmdERKNS1_5FrameE) for embot::prot::can::frame2cmd(embot::prot::can::Frame const&)
    embot_prot_can_analog_polling.o(.ARM.exidx.text._ZN5embot4prot3can6analog7polling21Message_GET_MATRIX_RC4loadERKNS1_5FrameE) refers to embot_prot_can_analog_polling.o(.text._ZN5embot4prot3can6analog7polling21Message_GET_MATRIX_RC4loadERKNS1_5FrameE) for [Anonymous Symbol]
    embot_prot_can_analog_polling.o(.text._ZN5embot4prot3can6analog7polling21Message_GET_MATRIX_RC5replyERNS1_5FrameEhRKNS4_9ReplyInfoE) refers to embot_prot_can.o(.text._ZN5embot4prot3can16frame_set_senderERNS1_5FrameEhb) for embot::prot::can::frame_set_sender(embot::prot::can::Frame&, unsigned char, bool)
    embot_prot_can_analog_polling.o(.text._ZN5embot4prot3can6analog7polling21Message_GET_MATRIX_RC5replyERNS1_5FrameEhRKNS4_9ReplyInfoE) refers to embot_prot_can.o(.text._ZN5embot4prot3can32frame_set_clascmddestinationdataERNS1_5FrameENS1_4ClasEhhPKvhhb) for embot::prot::can::frame_set_clascmddestinationdata(embot::prot::can::Frame&, embot::prot::can::Clas, unsigned char, unsigned char, void const*, unsigned char, unsigned char, bool)
    embot_prot_can_analog_polling.o(.text._ZN5embot4prot3can6analog7polling21Message_GET_MATRIX_RC5replyERNS1_5FrameEhRKNS4_9ReplyInfoE) refers to embot_prot_can.o(.text._ZN5embot4prot3can14frame_set_sizeERNS1_5FrameEhb) for embot::prot::can::frame_set_size(embot::prot::can::Frame&, unsigned char, bool)
    embot_prot_can_analog_polling.o(.ARM.exidx.text._ZN5embot4prot3can6analog7polling21Message_GET_MATRIX_RC5replyERNS1_5FrameEhRKNS4_9ReplyInfoE) refers to embot_prot_can_analog_polling.o(.text._ZN5embot4prot3can6analog7polling21Message_GET_MATRIX_RC5replyERNS1_5FrameEhRKNS4_9ReplyInfoE) for [Anonymous Symbol]
    embot_prot_can_analog_polling.o(.text._ZN5embot4prot3can6analog7polling20Message_GET_MATRIX_G4loadERKNS1_5FrameE) refers to embot_prot_can.o(.text._ZN5embot4prot3can7Message3setERKNS1_5FrameE) for embot::prot::can::Message::set(embot::prot::can::Frame const&)
    embot_prot_can_analog_polling.o(.text._ZN5embot4prot3can6analog7polling20Message_GET_MATRIX_G4loadERKNS1_5FrameE) refers to embot_prot_can.o(.text._ZN5embot4prot3can9frame2cmdERKNS1_5FrameE) for embot::prot::can::frame2cmd(embot::prot::can::Frame const&)
    embot_prot_can_analog_polling.o(.ARM.exidx.text._ZN5embot4prot3can6analog7polling20Message_GET_MATRIX_G4loadERKNS1_5FrameE) refers to embot_prot_can_analog_polling.o(.text._ZN5embot4prot3can6analog7polling20Message_GET_MATRIX_G4loadERKNS1_5FrameE) for [Anonymous Symbol]
    embot_prot_can_analog_polling.o(.text._ZN5embot4prot3can6analog7polling20Message_GET_MATRIX_G5replyERNS1_5FrameEhRKNS4_9ReplyInfoE) refers to embot_prot_can.o(.text._ZN5embot4prot3can16frame_set_senderERNS1_5FrameEhb) for embot::prot::can::frame_set_sender(embot::prot::can::Frame&, unsigned char, bool)
    embot_prot_can_analog_polling.o(.text._ZN5embot4prot3can6analog7polling20Message_GET_MATRIX_G5replyERNS1_5FrameEhRKNS4_9ReplyInfoE) refers to embot_prot_can.o(.text._ZN5embot4prot3can32frame_set_clascmddestinationdataERNS1_5FrameENS1_4ClasEhhPKvhhb) for embot::prot::can::frame_set_clascmddestinationdata(embot::prot::can::Frame&, embot::prot::can::Clas, unsigned char, unsigned char, void const*, unsigned char, unsigned char, bool)
    embot_prot_can_analog_polling.o(.text._ZN5embot4prot3can6analog7polling20Message_GET_MATRIX_G5replyERNS1_5FrameEhRKNS4_9ReplyInfoE) refers to embot_prot_can.o(.text._ZN5embot4prot3can14frame_set_sizeERNS1_5FrameEhb) for embot::prot::can::frame_set_size(embot::prot::can::Frame&, unsigned char, bool)
    embot_prot_can_analog_polling.o(.ARM.exidx.text._ZN5embot4prot3can6analog7polling20Message_GET_MATRIX_G5replyERNS1_5FrameEhRKNS4_9ReplyInfoE) refers to embot_prot_can_analog_polling.o(.text._ZN5embot4prot3can6analog7polling20Message_GET_MATRIX_G5replyERNS1_5FrameEhRKNS4_9ReplyInfoE) for [Anonymous Symbol]
    embot_prot_can_analog_polling.o(.text._ZN5embot4prot3can6analog7polling18Message_GET_CH_ADC4loadERKNS1_5FrameE) refers to embot_prot_can.o(.text._ZN5embot4prot3can7Message3setERKNS1_5FrameE) for embot::prot::can::Message::set(embot::prot::can::Frame const&)
    embot_prot_can_analog_polling.o(.text._ZN5embot4prot3can6analog7polling18Message_GET_CH_ADC4loadERKNS1_5FrameE) refers to embot_prot_can.o(.text._ZN5embot4prot3can9frame2cmdERKNS1_5FrameE) for embot::prot::can::frame2cmd(embot::prot::can::Frame const&)
    embot_prot_can_analog_polling.o(.ARM.exidx.text._ZN5embot4prot3can6analog7polling18Message_GET_CH_ADC4loadERKNS1_5FrameE) refers to embot_prot_can_analog_polling.o(.text._ZN5embot4prot3can6analog7polling18Message_GET_CH_ADC4loadERKNS1_5FrameE) for [Anonymous Symbol]
    embot_prot_can_analog_polling.o(.text._ZN5embot4prot3can6analog7polling18Message_GET_CH_ADC5replyERNS1_5FrameEhRKNS4_9ReplyInfoE) refers to embot_prot_can_analog_polling.o(.text._ZN5embot4core10tointegralINS_4prot3can6analog7polling13StrainChannelEEEDaT_) for auto embot::core::tointegral<embot::prot::can::analog::polling::StrainChannel>(embot::prot::can::analog::polling::StrainChannel)
    embot_prot_can_analog_polling.o(.text._ZN5embot4prot3can6analog7polling18Message_GET_CH_ADC5replyERNS1_5FrameEhRKNS4_9ReplyInfoE) refers to embot_prot_can.o(.text._ZN5embot4prot3can16frame_set_senderERNS1_5FrameEhb) for embot::prot::can::frame_set_sender(embot::prot::can::Frame&, unsigned char, bool)
    embot_prot_can_analog_polling.o(.text._ZN5embot4prot3can6analog7polling18Message_GET_CH_ADC5replyERNS1_5FrameEhRKNS4_9ReplyInfoE) refers to embot_prot_can.o(.text._ZN5embot4prot3can32frame_set_clascmddestinationdataERNS1_5FrameENS1_4ClasEhhPKvhhb) for embot::prot::can::frame_set_clascmddestinationdata(embot::prot::can::Frame&, embot::prot::can::Clas, unsigned char, unsigned char, void const*, unsigned char, unsigned char, bool)
    embot_prot_can_analog_polling.o(.text._ZN5embot4prot3can6analog7polling18Message_GET_CH_ADC5replyERNS1_5FrameEhRKNS4_9ReplyInfoE) refers to embot_prot_can.o(.text._ZN5embot4prot3can14frame_set_sizeERNS1_5FrameEhb) for embot::prot::can::frame_set_size(embot::prot::can::Frame&, unsigned char, bool)
    embot_prot_can_analog_polling.o(.ARM.exidx.text._ZN5embot4prot3can6analog7polling18Message_GET_CH_ADC5replyERNS1_5FrameEhRKNS4_9ReplyInfoE) refers to embot_prot_can_analog_polling.o(.text._ZN5embot4prot3can6analog7polling18Message_GET_CH_ADC5replyERNS1_5FrameEhRKNS4_9ReplyInfoE) for [Anonymous Symbol]
    embot_prot_can_analog_polling.o(.text._ZN5embot4prot3can6analog7polling25Message_GET_EEPROM_STATUS4loadERKNS1_5FrameE) refers to embot_prot_can.o(.text._ZN5embot4prot3can7Message3setERKNS1_5FrameE) for embot::prot::can::Message::set(embot::prot::can::Frame const&)
    embot_prot_can_analog_polling.o(.text._ZN5embot4prot3can6analog7polling25Message_GET_EEPROM_STATUS4loadERKNS1_5FrameE) refers to embot_prot_can.o(.text._ZN5embot4prot3can9frame2cmdERKNS1_5FrameE) for embot::prot::can::frame2cmd(embot::prot::can::Frame const&)
    embot_prot_can_analog_polling.o(.ARM.exidx.text._ZN5embot4prot3can6analog7polling25Message_GET_EEPROM_STATUS4loadERKNS1_5FrameE) refers to embot_prot_can_analog_polling.o(.text._ZN5embot4prot3can6analog7polling25Message_GET_EEPROM_STATUS4loadERKNS1_5FrameE) for [Anonymous Symbol]
    embot_prot_can_analog_polling.o(.text._ZN5embot4prot3can6analog7polling25Message_GET_EEPROM_STATUS5replyERNS1_5FrameEhRKNS4_9ReplyInfoE) refers to embot_prot_can.o(.text._ZN5embot4prot3can16frame_set_senderERNS1_5FrameEhb) for embot::prot::can::frame_set_sender(embot::prot::can::Frame&, unsigned char, bool)
    embot_prot_can_analog_polling.o(.text._ZN5embot4prot3can6analog7polling25Message_GET_EEPROM_STATUS5replyERNS1_5FrameEhRKNS4_9ReplyInfoE) refers to embot_prot_can.o(.text._ZN5embot4prot3can32frame_set_clascmddestinationdataERNS1_5FrameENS1_4ClasEhhPKvhhb) for embot::prot::can::frame_set_clascmddestinationdata(embot::prot::can::Frame&, embot::prot::can::Clas, unsigned char, unsigned char, void const*, unsigned char, unsigned char, bool)
    embot_prot_can_analog_polling.o(.text._ZN5embot4prot3can6analog7polling25Message_GET_EEPROM_STATUS5replyERNS1_5FrameEhRKNS4_9ReplyInfoE) refers to embot_prot_can.o(.text._ZN5embot4prot3can14frame_set_sizeERNS1_5FrameEhb) for embot::prot::can::frame_set_size(embot::prot::can::Frame&, unsigned char, bool)
    embot_prot_can_analog_polling.o(.ARM.exidx.text._ZN5embot4prot3can6analog7polling25Message_GET_EEPROM_STATUS5replyERNS1_5FrameEhRKNS4_9ReplyInfoE) refers to embot_prot_can_analog_polling.o(.text._ZN5embot4prot3can6analog7polling25Message_GET_EEPROM_STATUS5replyERNS1_5FrameEhRKNS4_9ReplyInfoE) for [Anonymous Symbol]
    embot_prot_can_analog_polling.o(.text._ZN5embot4prot3can6analog7polling15Message_SAVE2EE4loadERKNS1_5FrameE) refers to embot_prot_can.o(.text._ZN5embot4prot3can7Message3setERKNS1_5FrameE) for embot::prot::can::Message::set(embot::prot::can::Frame const&)
    embot_prot_can_analog_polling.o(.text._ZN5embot4prot3can6analog7polling15Message_SAVE2EE4loadERKNS1_5FrameE) refers to embot_prot_can.o(.text._ZN5embot4prot3can9frame2cmdERKNS1_5FrameE) for embot::prot::can::frame2cmd(embot::prot::can::Frame const&)
    embot_prot_can_analog_polling.o(.ARM.exidx.text._ZN5embot4prot3can6analog7polling15Message_SAVE2EE4loadERKNS1_5FrameE) refers to embot_prot_can_analog_polling.o(.text._ZN5embot4prot3can6analog7polling15Message_SAVE2EE4loadERKNS1_5FrameE) for [Anonymous Symbol]
    embot_prot_can_analog_polling.o(.text._ZN5embot4prot3can6analog7polling15Message_SAVE2EE5replyERNS1_5FrameEhRKNS4_9ReplyInfoE) refers to embot_prot_can.o(.text._ZN5embot4prot3can16frame_set_senderERNS1_5FrameEhb) for embot::prot::can::frame_set_sender(embot::prot::can::Frame&, unsigned char, bool)
    embot_prot_can_analog_polling.o(.text._ZN5embot4prot3can6analog7polling15Message_SAVE2EE5replyERNS1_5FrameEhRKNS4_9ReplyInfoE) refers to embot_prot_can.o(.text._ZN5embot4prot3can32frame_set_clascmddestinationdataERNS1_5FrameENS1_4ClasEhhPKvhhb) for embot::prot::can::frame_set_clascmddestinationdata(embot::prot::can::Frame&, embot::prot::can::Clas, unsigned char, unsigned char, void const*, unsigned char, unsigned char, bool)
    embot_prot_can_analog_polling.o(.text._ZN5embot4prot3can6analog7polling15Message_SAVE2EE5replyERNS1_5FrameEhRKNS4_9ReplyInfoE) refers to embot_prot_can.o(.text._ZN5embot4prot3can14frame_set_sizeERNS1_5FrameEhb) for embot::prot::can::frame_set_size(embot::prot::can::Frame&, unsigned char, bool)
    embot_prot_can_analog_polling.o(.ARM.exidx.text._ZN5embot4prot3can6analog7polling15Message_SAVE2EE5replyERNS1_5FrameEhRKNS4_9ReplyInfoE) refers to embot_prot_can_analog_polling.o(.text._ZN5embot4prot3can6analog7polling15Message_SAVE2EE5replyERNS1_5FrameEhRKNS4_9ReplyInfoE) for [Anonymous Symbol]
    embot_prot_can_analog_polling.o(.text._ZN5embot4prot3can6analog7polling22Message_ACC_GYRO_SETUP4loadERKNS1_5FrameE) refers to embot_prot_can.o(.text._ZN5embot4prot3can7Message3setERKNS1_5FrameE) for embot::prot::can::Message::set(embot::prot::can::Frame const&)
    embot_prot_can_analog_polling.o(.text._ZN5embot4prot3can6analog7polling22Message_ACC_GYRO_SETUP4loadERKNS1_5FrameE) refers to embot_prot_can.o(.text._ZN5embot4prot3can9frame2cmdERKNS1_5FrameE) for embot::prot::can::frame2cmd(embot::prot::can::Frame const&)
    embot_prot_can_analog_polling.o(.ARM.exidx.text._ZN5embot4prot3can6analog7polling22Message_ACC_GYRO_SETUP4loadERKNS1_5FrameE) refers to embot_prot_can_analog_polling.o(.text._ZN5embot4prot3can6analog7polling22Message_ACC_GYRO_SETUP4loadERKNS1_5FrameE) for [Anonymous Symbol]
    embot_prot_can_analog_polling.o(.ARM.exidx.text._ZN5embot4prot3can6analog7polling22Message_ACC_GYRO_SETUP5replyEv) refers to embot_prot_can_analog_polling.o(.text._ZN5embot4prot3can6analog7polling22Message_ACC_GYRO_SETUP5replyEv) for [Anonymous Symbol]
    embot_prot_can_analog_polling.o(.text._ZN5embot4prot3can6analog7polling23Message_AMPLIFIER_RESET4loadERKNS1_5FrameE) refers to embot_prot_can.o(.text._ZN5embot4prot3can7Message3setERKNS1_5FrameE) for embot::prot::can::Message::set(embot::prot::can::Frame const&)
    embot_prot_can_analog_polling.o(.text._ZN5embot4prot3can6analog7polling23Message_AMPLIFIER_RESET4loadERKNS1_5FrameE) refers to embot_prot_can.o(.text._ZN5embot4prot3can9frame2cmdERKNS1_5FrameE) for embot::prot::can::frame2cmd(embot::prot::can::Frame const&)
    embot_prot_can_analog_polling.o(.ARM.exidx.text._ZN5embot4prot3can6analog7polling23Message_AMPLIFIER_RESET4loadERKNS1_5FrameE) refers to embot_prot_can_analog_polling.o(.text._ZN5embot4prot3can6analog7polling23Message_AMPLIFIER_RESET4loadERKNS1_5FrameE) for [Anonymous Symbol]
    embot_prot_can_analog_polling.o(.ARM.exidx.text._ZN5embot4prot3can6analog7polling23Message_AMPLIFIER_RESET5replyEv) refers to embot_prot_can_analog_polling.o(.text._ZN5embot4prot3can6analog7polling23Message_AMPLIFIER_RESET5replyEv) for [Anonymous Symbol]
    embot_prot_can_analog_polling.o(.text._ZN5embot4prot3can6analog7polling33Message_AMPLIFIER_PGA308_CFG1_SET4loadERKNS1_5FrameE) refers to embot_prot_can.o(.text._ZN5embot4prot3can7Message3setERKNS1_5FrameE) for embot::prot::can::Message::set(embot::prot::can::Frame const&)
    embot_prot_can_analog_polling.o(.text._ZN5embot4prot3can6analog7polling33Message_AMPLIFIER_PGA308_CFG1_SET4loadERKNS1_5FrameE) refers to embot_prot_can.o(.text._ZN5embot4prot3can9frame2cmdERKNS1_5FrameE) for embot::prot::can::frame2cmd(embot::prot::can::Frame const&)
    embot_prot_can_analog_polling.o(.ARM.exidx.text._ZN5embot4prot3can6analog7polling33Message_AMPLIFIER_PGA308_CFG1_SET4loadERKNS1_5FrameE) refers to embot_prot_can_analog_polling.o(.text._ZN5embot4prot3can6analog7polling33Message_AMPLIFIER_PGA308_CFG1_SET4loadERKNS1_5FrameE) for [Anonymous Symbol]
    embot_prot_can_analog_polling.o(.ARM.exidx.text._ZN5embot4prot3can6analog7polling33Message_AMPLIFIER_PGA308_CFG1_SET5replyEv) refers to embot_prot_can_analog_polling.o(.text._ZN5embot4prot3can6analog7polling33Message_AMPLIFIER_PGA308_CFG1_SET5replyEv) for [Anonymous Symbol]
    embot_prot_can_analog_polling.o(.text._ZN5embot4prot3can6analog7polling33Message_AMPLIFIER_PGA308_CFG1_GET4loadERKNS1_5FrameE) refers to embot_prot_can.o(.text._ZN5embot4prot3can7Message3setERKNS1_5FrameE) for embot::prot::can::Message::set(embot::prot::can::Frame const&)
    embot_prot_can_analog_polling.o(.text._ZN5embot4prot3can6analog7polling33Message_AMPLIFIER_PGA308_CFG1_GET4loadERKNS1_5FrameE) refers to embot_prot_can.o(.text._ZN5embot4prot3can9frame2cmdERKNS1_5FrameE) for embot::prot::can::frame2cmd(embot::prot::can::Frame const&)
    embot_prot_can_analog_polling.o(.ARM.exidx.text._ZN5embot4prot3can6analog7polling33Message_AMPLIFIER_PGA308_CFG1_GET4loadERKNS1_5FrameE) refers to embot_prot_can_analog_polling.o(.text._ZN5embot4prot3can6analog7polling33Message_AMPLIFIER_PGA308_CFG1_GET4loadERKNS1_5FrameE) for [Anonymous Symbol]
    embot_prot_can_analog_polling.o(.text._ZN5embot4prot3can6analog7polling33Message_AMPLIFIER_PGA308_CFG1_GET5replyERNS1_5FrameEhRKNS4_9ReplyInfoE) refers to embot_prot_can.o(.text._ZN5embot4prot3can16frame_set_senderERNS1_5FrameEhb) for embot::prot::can::frame_set_sender(embot::prot::can::Frame&, unsigned char, bool)
    embot_prot_can_analog_polling.o(.text._ZN5embot4prot3can6analog7polling33Message_AMPLIFIER_PGA308_CFG1_GET5replyERNS1_5FrameEhRKNS4_9ReplyInfoE) refers to embot_prot_can.o(.text._ZN5embot4prot3can32frame_set_clascmddestinationdataERNS1_5FrameENS1_4ClasEhhPKvhhb) for embot::prot::can::frame_set_clascmddestinationdata(embot::prot::can::Frame&, embot::prot::can::Clas, unsigned char, unsigned char, void const*, unsigned char, unsigned char, bool)
    embot_prot_can_analog_polling.o(.text._ZN5embot4prot3can6analog7polling33Message_AMPLIFIER_PGA308_CFG1_GET5replyERNS1_5FrameEhRKNS4_9ReplyInfoE) refers to embot_prot_can.o(.text._ZN5embot4prot3can14frame_set_sizeERNS1_5FrameEhb) for embot::prot::can::frame_set_size(embot::prot::can::Frame&, unsigned char, bool)
    embot_prot_can_analog_polling.o(.ARM.exidx.text._ZN5embot4prot3can6analog7polling33Message_AMPLIFIER_PGA308_CFG1_GET5replyERNS1_5FrameEhRKNS4_9ReplyInfoE) refers to embot_prot_can_analog_polling.o(.text._ZN5embot4prot3can6analog7polling33Message_AMPLIFIER_PGA308_CFG1_GET5replyERNS1_5FrameEhRKNS4_9ReplyInfoE) for [Anonymous Symbol]
    embot_prot_can_analog_polling.o(.text._ZN5embot4prot3can6analog7polling34Message_AMPLIFIER_OFFSET_AUTOCALIB4loadERKNS1_5FrameE) refers to embot_prot_can.o(.text._ZN5embot4prot3can7Message3setERKNS1_5FrameE) for embot::prot::can::Message::set(embot::prot::can::Frame const&)
    embot_prot_can_analog_polling.o(.text._ZN5embot4prot3can6analog7polling34Message_AMPLIFIER_OFFSET_AUTOCALIB4loadERKNS1_5FrameE) refers to embot_prot_can.o(.text._ZN5embot4prot3can9frame2cmdERKNS1_5FrameE) for embot::prot::can::frame2cmd(embot::prot::can::Frame const&)
    embot_prot_can_analog_polling.o(.ARM.exidx.text._ZN5embot4prot3can6analog7polling34Message_AMPLIFIER_OFFSET_AUTOCALIB4loadERKNS1_5FrameE) refers to embot_prot_can_analog_polling.o(.text._ZN5embot4prot3can6analog7polling34Message_AMPLIFIER_OFFSET_AUTOCALIB4loadERKNS1_5FrameE) for [Anonymous Symbol]
    embot_prot_can_analog_polling.o(.text._ZN5embot4prot3can6analog7polling34Message_AMPLIFIER_OFFSET_AUTOCALIB5replyERNS1_5FrameEhRKNS4_9ReplyInfoE) refers to embot_prot_can.o(.text._ZN5embot4prot3can16frame_set_senderERNS1_5FrameEhb) for embot::prot::can::frame_set_sender(embot::prot::can::Frame&, unsigned char, bool)
    embot_prot_can_analog_polling.o(.text._ZN5embot4prot3can6analog7polling34Message_AMPLIFIER_OFFSET_AUTOCALIB5replyERNS1_5FrameEhRKNS4_9ReplyInfoE) refers to embot_prot_can.o(.text._ZN5embot4prot3can32frame_set_clascmddestinationdataERNS1_5FrameENS1_4ClasEhhPKvhhb) for embot::prot::can::frame_set_clascmddestinationdata(embot::prot::can::Frame&, embot::prot::can::Clas, unsigned char, unsigned char, void const*, unsigned char, unsigned char, bool)
    embot_prot_can_analog_polling.o(.text._ZN5embot4prot3can6analog7polling34Message_AMPLIFIER_OFFSET_AUTOCALIB5replyERNS1_5FrameEhRKNS4_9ReplyInfoE) refers to embot_prot_can.o(.text._ZN5embot4prot3can14frame_set_sizeERNS1_5FrameEhb) for embot::prot::can::frame_set_size(embot::prot::can::Frame&, unsigned char, bool)
    embot_prot_can_analog_polling.o(.ARM.exidx.text._ZN5embot4prot3can6analog7polling34Message_AMPLIFIER_OFFSET_AUTOCALIB5replyERNS1_5FrameEhRKNS4_9ReplyInfoE) refers to embot_prot_can_analog_polling.o(.text._ZN5embot4prot3can6analog7polling34Message_AMPLIFIER_OFFSET_AUTOCALIB5replyERNS1_5FrameEhRKNS4_9ReplyInfoE) for [Anonymous Symbol]
    embot_prot_can_analog_polling.o(.text._ZN5embot4prot3can6analog7polling32Message_AMPLIFIER_GAINOFFSET_SET4loadERKNS1_5FrameE) refers to embot_prot_can.o(.text._ZN5embot4prot3can7Message3setERKNS1_5FrameE) for embot::prot::can::Message::set(embot::prot::can::Frame const&)
    embot_prot_can_analog_polling.o(.text._ZN5embot4prot3can6analog7polling32Message_AMPLIFIER_GAINOFFSET_SET4loadERKNS1_5FrameE) refers to embot_prot_can.o(.text._ZN5embot4prot3can9frame2cmdERKNS1_5FrameE) for embot::prot::can::frame2cmd(embot::prot::can::Frame const&)
    embot_prot_can_analog_polling.o(.ARM.exidx.text._ZN5embot4prot3can6analog7polling32Message_AMPLIFIER_GAINOFFSET_SET4loadERKNS1_5FrameE) refers to embot_prot_can_analog_polling.o(.text._ZN5embot4prot3can6analog7polling32Message_AMPLIFIER_GAINOFFSET_SET4loadERKNS1_5FrameE) for [Anonymous Symbol]
    embot_prot_can_analog_polling.o(.ARM.exidx.text._ZN5embot4prot3can6analog7polling32Message_AMPLIFIER_GAINOFFSET_SET5replyEv) refers to embot_prot_can_analog_polling.o(.text._ZN5embot4prot3can6analog7polling32Message_AMPLIFIER_GAINOFFSET_SET5replyEv) for [Anonymous Symbol]
    embot_prot_can_analog_polling.o(.text._ZN5embot4prot3can6analog7polling32Message_AMPLIFIER_GAINOFFSET_GET4loadERKNS1_5FrameE) refers to embot_prot_can.o(.text._ZN5embot4prot3can7Message3setERKNS1_5FrameE) for embot::prot::can::Message::set(embot::prot::can::Frame const&)
    embot_prot_can_analog_polling.o(.text._ZN5embot4prot3can6analog7polling32Message_AMPLIFIER_GAINOFFSET_GET4loadERKNS1_5FrameE) refers to embot_prot_can.o(.text._ZN5embot4prot3can9frame2cmdERKNS1_5FrameE) for embot::prot::can::frame2cmd(embot::prot::can::Frame const&)
    embot_prot_can_analog_polling.o(.ARM.exidx.text._ZN5embot4prot3can6analog7polling32Message_AMPLIFIER_GAINOFFSET_GET4loadERKNS1_5FrameE) refers to embot_prot_can_analog_polling.o(.text._ZN5embot4prot3can6analog7polling32Message_AMPLIFIER_GAINOFFSET_GET4loadERKNS1_5FrameE) for [Anonymous Symbol]
    embot_prot_can_analog_polling.o(.text._ZN5embot4prot3can6analog7polling32Message_AMPLIFIER_GAINOFFSET_GET5replyERNS1_5FrameEhRKNS4_9ReplyInfoE) refers to embot_prot_can.o(.text._ZN5embot4prot3can16frame_set_senderERNS1_5FrameEhb) for embot::prot::can::frame_set_sender(embot::prot::can::Frame&, unsigned char, bool)
    embot_prot_can_analog_polling.o(.text._ZN5embot4prot3can6analog7polling32Message_AMPLIFIER_GAINOFFSET_GET5replyERNS1_5FrameEhRKNS4_9ReplyInfoE) refers to embot_prot_can.o(.text._ZN5embot4prot3can32frame_set_clascmddestinationdataERNS1_5FrameENS1_4ClasEhhPKvhhb) for embot::prot::can::frame_set_clascmddestinationdata(embot::prot::can::Frame&, embot::prot::can::Clas, unsigned char, unsigned char, void const*, unsigned char, unsigned char, bool)
    embot_prot_can_analog_polling.o(.text._ZN5embot4prot3can6analog7polling32Message_AMPLIFIER_GAINOFFSET_GET5replyERNS1_5FrameEhRKNS4_9ReplyInfoE) refers to embot_prot_can.o(.text._ZN5embot4prot3can14frame_set_sizeERNS1_5FrameEhb) for embot::prot::can::frame_set_size(embot::prot::can::Frame&, unsigned char, bool)
    embot_prot_can_analog_polling.o(.ARM.exidx.text._ZN5embot4prot3can6analog7polling32Message_AMPLIFIER_GAINOFFSET_GET5replyERNS1_5FrameEhRKNS4_9ReplyInfoE) refers to embot_prot_can_analog_polling.o(.text._ZN5embot4prot3can6analog7polling32Message_AMPLIFIER_GAINOFFSET_GET5replyERNS1_5FrameEhRKNS4_9ReplyInfoE) for [Anonymous Symbol]
    embot_prot_can_analog_polling.o(.text._ZN5embot4prot3can6analog7polling25Message_REGULATIONSET_GET4loadERKNS1_5FrameE) refers to embot_prot_can.o(.text._ZN5embot4prot3can7Message3setERKNS1_5FrameE) for embot::prot::can::Message::set(embot::prot::can::Frame const&)
    embot_prot_can_analog_polling.o(.text._ZN5embot4prot3can6analog7polling25Message_REGULATIONSET_GET4loadERKNS1_5FrameE) refers to embot_prot_can.o(.text._ZN5embot4prot3can9frame2cmdERKNS1_5FrameE) for embot::prot::can::frame2cmd(embot::prot::can::Frame const&)
    embot_prot_can_analog_polling.o(.ARM.exidx.text._ZN5embot4prot3can6analog7polling25Message_REGULATIONSET_GET4loadERKNS1_5FrameE) refers to embot_prot_can_analog_polling.o(.text._ZN5embot4prot3can6analog7polling25Message_REGULATIONSET_GET4loadERKNS1_5FrameE) for [Anonymous Symbol]
    embot_prot_can_analog_polling.o(.text._ZN5embot4prot3can6analog7polling25Message_REGULATIONSET_GET5replyERNS1_5FrameEhRKNS4_9ReplyInfoE) refers to embot_prot_can.o(.text._ZN5embot4prot3can16frame_set_senderERNS1_5FrameEhb) for embot::prot::can::frame_set_sender(embot::prot::can::Frame&, unsigned char, bool)
    embot_prot_can_analog_polling.o(.text._ZN5embot4prot3can6analog7polling25Message_REGULATIONSET_GET5replyERNS1_5FrameEhRKNS4_9ReplyInfoE) refers to embot_prot_can.o(.text._ZN5embot4prot3can32frame_set_clascmddestinationdataERNS1_5FrameENS1_4ClasEhhPKvhhb) for embot::prot::can::frame_set_clascmddestinationdata(embot::prot::can::Frame&, embot::prot::can::Clas, unsigned char, unsigned char, void const*, unsigned char, unsigned char, bool)
    embot_prot_can_analog_polling.o(.text._ZN5embot4prot3can6analog7polling25Message_REGULATIONSET_GET5replyERNS1_5FrameEhRKNS4_9ReplyInfoE) refers to embot_prot_can.o(.text._ZN5embot4prot3can14frame_set_sizeERNS1_5FrameEhb) for embot::prot::can::frame_set_size(embot::prot::can::Frame&, unsigned char, bool)
    embot_prot_can_analog_polling.o(.ARM.exidx.text._ZN5embot4prot3can6analog7polling25Message_REGULATIONSET_GET5replyERNS1_5FrameEhRKNS4_9ReplyInfoE) refers to embot_prot_can_analog_polling.o(.text._ZN5embot4prot3can6analog7polling25Message_REGULATIONSET_GET5replyERNS1_5FrameEhRKNS4_9ReplyInfoE) for [Anonymous Symbol]
    embot_prot_can_analog_polling.o(.text._ZN5embot4prot3can6analog7polling25Message_REGULATIONSET_SET4loadERKNS1_5FrameE) refers to embot_prot_can.o(.text._ZN5embot4prot3can7Message3setERKNS1_5FrameE) for embot::prot::can::Message::set(embot::prot::can::Frame const&)
    embot_prot_can_analog_polling.o(.text._ZN5embot4prot3can6analog7polling25Message_REGULATIONSET_SET4loadERKNS1_5FrameE) refers to embot_prot_can.o(.text._ZN5embot4prot3can9frame2cmdERKNS1_5FrameE) for embot::prot::can::frame2cmd(embot::prot::can::Frame const&)
    embot_prot_can_analog_polling.o(.ARM.exidx.text._ZN5embot4prot3can6analog7polling25Message_REGULATIONSET_SET4loadERKNS1_5FrameE) refers to embot_prot_can_analog_polling.o(.text._ZN5embot4prot3can6analog7polling25Message_REGULATIONSET_SET4loadERKNS1_5FrameE) for [Anonymous Symbol]
    embot_prot_can_analog_polling.o(.ARM.exidx.text._ZN5embot4prot3can6analog7polling25Message_REGULATIONSET_SET5replyEv) refers to embot_prot_can_analog_polling.o(.text._ZN5embot4prot3can6analog7polling25Message_REGULATIONSET_SET5replyEv) for [Anonymous Symbol]
    embot_prot_can_analog_polling.o(.text._ZN5embot4prot3can6analog7polling35Message_AMPLIFIER_RANGE_OF_GAIN_GET4loadERKNS1_5FrameE) refers to embot_prot_can.o(.text._ZN5embot4prot3can7Message3setERKNS1_5FrameE) for embot::prot::can::Message::set(embot::prot::can::Frame const&)
    embot_prot_can_analog_polling.o(.text._ZN5embot4prot3can6analog7polling35Message_AMPLIFIER_RANGE_OF_GAIN_GET4loadERKNS1_5FrameE) refers to embot_prot_can.o(.text._ZN5embot4prot3can9frame2cmdERKNS1_5FrameE) for embot::prot::can::frame2cmd(embot::prot::can::Frame const&)
    embot_prot_can_analog_polling.o(.ARM.exidx.text._ZN5embot4prot3can6analog7polling35Message_AMPLIFIER_RANGE_OF_GAIN_GET4loadERKNS1_5FrameE) refers to embot_prot_can_analog_polling.o(.text._ZN5embot4prot3can6analog7polling35Message_AMPLIFIER_RANGE_OF_GAIN_GET4loadERKNS1_5FrameE) for [Anonymous Symbol]
    embot_prot_can_analog_polling.o(.text._ZN5embot4prot3can6analog7polling35Message_AMPLIFIER_RANGE_OF_GAIN_GET5replyERNS1_5FrameEhRKNS4_9ReplyInfoE) refers to embot_prot_can.o(.text._ZN5embot4prot3can16frame_set_senderERNS1_5FrameEhb) for embot::prot::can::frame_set_sender(embot::prot::can::Frame&, unsigned char, bool)
    embot_prot_can_analog_polling.o(.text._ZN5embot4prot3can6analog7polling35Message_AMPLIFIER_RANGE_OF_GAIN_GET5replyERNS1_5FrameEhRKNS4_9ReplyInfoE) refers to embot_prot_can.o(.text._ZN5embot4prot3can32frame_set_clascmddestinationdataERNS1_5FrameENS1_4ClasEhhPKvhhb) for embot::prot::can::frame_set_clascmddestinationdata(embot::prot::can::Frame&, embot::prot::can::Clas, unsigned char, unsigned char, void const*, unsigned char, unsigned char, bool)
    embot_prot_can_analog_polling.o(.text._ZN5embot4prot3can6analog7polling35Message_AMPLIFIER_RANGE_OF_GAIN_GET5replyERNS1_5FrameEhRKNS4_9ReplyInfoE) refers to embot_prot_can.o(.text._ZN5embot4prot3can14frame_set_sizeERNS1_5FrameEhb) for embot::prot::can::frame_set_size(embot::prot::can::Frame&, unsigned char, bool)
    embot_prot_can_analog_polling.o(.ARM.exidx.text._ZN5embot4prot3can6analog7polling35Message_AMPLIFIER_RANGE_OF_GAIN_GET5replyERNS1_5FrameEhRKNS4_9ReplyInfoE) refers to embot_prot_can_analog_polling.o(.text._ZN5embot4prot3can6analog7polling35Message_AMPLIFIER_RANGE_OF_GAIN_GET5replyERNS1_5FrameEhRKNS4_9ReplyInfoE) for [Anonymous Symbol]
    embot_prot_can_analog_polling.o(.text._ZN5embot4prot3can6analog7polling37Message_AMPLIFIER_RANGE_OF_OFFSET_GET4loadERKNS1_5FrameE) refers to embot_prot_can.o(.text._ZN5embot4prot3can7Message3setERKNS1_5FrameE) for embot::prot::can::Message::set(embot::prot::can::Frame const&)
    embot_prot_can_analog_polling.o(.text._ZN5embot4prot3can6analog7polling37Message_AMPLIFIER_RANGE_OF_OFFSET_GET4loadERKNS1_5FrameE) refers to embot_prot_can.o(.text._ZN5embot4prot3can9frame2cmdERKNS1_5FrameE) for embot::prot::can::frame2cmd(embot::prot::can::Frame const&)
    embot_prot_can_analog_polling.o(.ARM.exidx.text._ZN5embot4prot3can6analog7polling37Message_AMPLIFIER_RANGE_OF_OFFSET_GET4loadERKNS1_5FrameE) refers to embot_prot_can_analog_polling.o(.text._ZN5embot4prot3can6analog7polling37Message_AMPLIFIER_RANGE_OF_OFFSET_GET4loadERKNS1_5FrameE) for [Anonymous Symbol]
    embot_prot_can_analog_polling.o(.text._ZN5embot4prot3can6analog7polling37Message_AMPLIFIER_RANGE_OF_OFFSET_GET5replyERNS1_5FrameEhRKNS4_9ReplyInfoE) refers to embot_prot_can.o(.text._ZN5embot4prot3can16frame_set_senderERNS1_5FrameEhb) for embot::prot::can::frame_set_sender(embot::prot::can::Frame&, unsigned char, bool)
    embot_prot_can_analog_polling.o(.text._ZN5embot4prot3can6analog7polling37Message_AMPLIFIER_RANGE_OF_OFFSET_GET5replyERNS1_5FrameEhRKNS4_9ReplyInfoE) refers to embot_prot_can.o(.text._ZN5embot4prot3can32frame_set_clascmddestinationdataERNS1_5FrameENS1_4ClasEhhPKvhhb) for embot::prot::can::frame_set_clascmddestinationdata(embot::prot::can::Frame&, embot::prot::can::Clas, unsigned char, unsigned char, void const*, unsigned char, unsigned char, bool)
    embot_prot_can_analog_polling.o(.text._ZN5embot4prot3can6analog7polling37Message_AMPLIFIER_RANGE_OF_OFFSET_GET5replyERNS1_5FrameEhRKNS4_9ReplyInfoE) refers to embot_prot_can.o(.text._ZN5embot4prot3can14frame_set_sizeERNS1_5FrameEhb) for embot::prot::can::frame_set_size(embot::prot::can::Frame&, unsigned char, bool)
    embot_prot_can_analog_polling.o(.ARM.exidx.text._ZN5embot4prot3can6analog7polling37Message_AMPLIFIER_RANGE_OF_OFFSET_GET5replyERNS1_5FrameEhRKNS4_9ReplyInfoE) refers to embot_prot_can_analog_polling.o(.text._ZN5embot4prot3can6analog7polling37Message_AMPLIFIER_RANGE_OF_OFFSET_GET5replyERNS1_5FrameEhRKNS4_9ReplyInfoE) for [Anonymous Symbol]
    embot_prot_can_analog_polling.o(.text._ZN5embot4prot3can6analog7polling22Message_IMU_CONFIG_SET4loadERKNS1_5FrameE) refers to embot_prot_can.o(.text._ZN5embot4prot3can7Message3setERKNS1_5FrameE) for embot::prot::can::Message::set(embot::prot::can::Frame const&)
    embot_prot_can_analog_polling.o(.text._ZN5embot4prot3can6analog7polling22Message_IMU_CONFIG_SET4loadERKNS1_5FrameE) refers to embot_prot_can.o(.text._ZN5embot4prot3can9frame2cmdERKNS1_5FrameE) for embot::prot::can::frame2cmd(embot::prot::can::Frame const&)
    embot_prot_can_analog_polling.o(.ARM.exidx.text._ZN5embot4prot3can6analog7polling22Message_IMU_CONFIG_SET4loadERKNS1_5FrameE) refers to embot_prot_can_analog_polling.o(.text._ZN5embot4prot3can6analog7polling22Message_IMU_CONFIG_SET4loadERKNS1_5FrameE) for [Anonymous Symbol]
    embot_prot_can_analog_polling.o(.ARM.exidx.text._ZN5embot4prot3can6analog7polling22Message_IMU_CONFIG_SET5replyEv) refers to embot_prot_can_analog_polling.o(.text._ZN5embot4prot3can6analog7polling22Message_IMU_CONFIG_SET5replyEv) for [Anonymous Symbol]
    embot_prot_can_analog_polling.o(.text._ZN5embot4prot3can6analog7polling22Message_IMU_CONFIG_GET4loadERKNS1_5FrameE) refers to embot_prot_can.o(.text._ZN5embot4prot3can7Message3setERKNS1_5FrameE) for embot::prot::can::Message::set(embot::prot::can::Frame const&)
    embot_prot_can_analog_polling.o(.text._ZN5embot4prot3can6analog7polling22Message_IMU_CONFIG_GET4loadERKNS1_5FrameE) refers to embot_prot_can.o(.text._ZN5embot4prot3can9frame2cmdERKNS1_5FrameE) for embot::prot::can::frame2cmd(embot::prot::can::Frame const&)
    embot_prot_can_analog_polling.o(.ARM.exidx.text._ZN5embot4prot3can6analog7polling22Message_IMU_CONFIG_GET4loadERKNS1_5FrameE) refers to embot_prot_can_analog_polling.o(.text._ZN5embot4prot3can6analog7polling22Message_IMU_CONFIG_GET4loadERKNS1_5FrameE) for [Anonymous Symbol]
    embot_prot_can_analog_polling.o(.text._ZN5embot4prot3can6analog7polling22Message_IMU_CONFIG_GET5replyERNS1_5FrameEhRKNS4_9ReplyInfoE) refers to embot_prot_can.o(.text._ZN5embot4prot3can16frame_set_senderERNS1_5FrameEhb) for embot::prot::can::frame_set_sender(embot::prot::can::Frame&, unsigned char, bool)
    embot_prot_can_analog_polling.o(.text._ZN5embot4prot3can6analog7polling22Message_IMU_CONFIG_GET5replyERNS1_5FrameEhRKNS4_9ReplyInfoE) refers to embot_prot_can.o(.text._ZN5embot4prot3can32frame_set_clascmddestinationdataERNS1_5FrameENS1_4ClasEhhPKvhhb) for embot::prot::can::frame_set_clascmddestinationdata(embot::prot::can::Frame&, embot::prot::can::Clas, unsigned char, unsigned char, void const*, unsigned char, unsigned char, bool)
    embot_prot_can_analog_polling.o(.text._ZN5embot4prot3can6analog7polling22Message_IMU_CONFIG_GET5replyERNS1_5FrameEhRKNS4_9ReplyInfoE) refers to embot_prot_can.o(.text._ZN5embot4prot3can14frame_set_sizeERNS1_5FrameEhb) for embot::prot::can::frame_set_size(embot::prot::can::Frame&, unsigned char, bool)
    embot_prot_can_analog_polling.o(.ARM.exidx.text._ZN5embot4prot3can6analog7polling22Message_IMU_CONFIG_GET5replyERNS1_5FrameEhRKNS4_9ReplyInfoE) refers to embot_prot_can_analog_polling.o(.text._ZN5embot4prot3can6analog7polling22Message_IMU_CONFIG_GET5replyERNS1_5FrameEhRKNS4_9ReplyInfoE) for [Anonymous Symbol]
    embot_prot_can_analog_polling.o(.text._ZN5embot4prot3can6analog7polling20Message_IMU_TRANSMIT4loadERKNS1_5FrameE) refers to embot_prot_can.o(.text._ZN5embot4prot3can7Message3setERKNS1_5FrameE) for embot::prot::can::Message::set(embot::prot::can::Frame const&)
    embot_prot_can_analog_polling.o(.text._ZN5embot4prot3can6analog7polling20Message_IMU_TRANSMIT4loadERKNS1_5FrameE) refers to embot_prot_can.o(.text._ZN5embot4prot3can9frame2cmdERKNS1_5FrameE) for embot::prot::can::frame2cmd(embot::prot::can::Frame const&)
    embot_prot_can_analog_polling.o(.ARM.exidx.text._ZN5embot4prot3can6analog7polling20Message_IMU_TRANSMIT4loadERKNS1_5FrameE) refers to embot_prot_can_analog_polling.o(.text._ZN5embot4prot3can6analog7polling20Message_IMU_TRANSMIT4loadERKNS1_5FrameE) for [Anonymous Symbol]
    embot_prot_can_analog_polling.o(.ARM.exidx.text._ZN5embot4prot3can6analog7polling20Message_IMU_TRANSMIT5replyEv) refers to embot_prot_can_analog_polling.o(.text._ZN5embot4prot3can6analog7polling20Message_IMU_TRANSMIT5replyEv) for [Anonymous Symbol]
    embot_prot_can_analog_polling.o(.text._ZN5embot4prot3can6analog7polling30Message_THERMOMETER_CONFIG_SET4loadERKNS1_5FrameE) refers to embot_prot_can.o(.text._ZN5embot4prot3can7Message3setERKNS1_5FrameE) for embot::prot::can::Message::set(embot::prot::can::Frame const&)
    embot_prot_can_analog_polling.o(.text._ZN5embot4prot3can6analog7polling30Message_THERMOMETER_CONFIG_SET4loadERKNS1_5FrameE) refers to embot_prot_can.o(.text._ZN5embot4prot3can9frame2cmdERKNS1_5FrameE) for embot::prot::can::frame2cmd(embot::prot::can::Frame const&)
    embot_prot_can_analog_polling.o(.ARM.exidx.text._ZN5embot4prot3can6analog7polling30Message_THERMOMETER_CONFIG_SET4loadERKNS1_5FrameE) refers to embot_prot_can_analog_polling.o(.text._ZN5embot4prot3can6analog7polling30Message_THERMOMETER_CONFIG_SET4loadERKNS1_5FrameE) for [Anonymous Symbol]
    embot_prot_can_analog_polling.o(.ARM.exidx.text._ZN5embot4prot3can6analog7polling30Message_THERMOMETER_CONFIG_SET5replyEv) refers to embot_prot_can_analog_polling.o(.text._ZN5embot4prot3can6analog7polling30Message_THERMOMETER_CONFIG_SET5replyEv) for [Anonymous Symbol]
    embot_prot_can_analog_polling.o(.text._ZN5embot4prot3can6analog7polling30Message_THERMOMETER_CONFIG_GET4loadERKNS1_5FrameE) refers to embot_prot_can.o(.text._ZN5embot4prot3can7Message3setERKNS1_5FrameE) for embot::prot::can::Message::set(embot::prot::can::Frame const&)
    embot_prot_can_analog_polling.o(.text._ZN5embot4prot3can6analog7polling30Message_THERMOMETER_CONFIG_GET4loadERKNS1_5FrameE) refers to embot_prot_can.o(.text._ZN5embot4prot3can9frame2cmdERKNS1_5FrameE) for embot::prot::can::frame2cmd(embot::prot::can::Frame const&)
    embot_prot_can_analog_polling.o(.ARM.exidx.text._ZN5embot4prot3can6analog7polling30Message_THERMOMETER_CONFIG_GET4loadERKNS1_5FrameE) refers to embot_prot_can_analog_polling.o(.text._ZN5embot4prot3can6analog7polling30Message_THERMOMETER_CONFIG_GET4loadERKNS1_5FrameE) for [Anonymous Symbol]
    embot_prot_can_analog_polling.o(.text._ZN5embot4prot3can6analog7polling30Message_THERMOMETER_CONFIG_GET5replyERNS1_5FrameEhRKNS4_9ReplyInfoE) refers to embot_prot_can.o(.text._ZN5embot4prot3can16frame_set_senderERNS1_5FrameEhb) for embot::prot::can::frame_set_sender(embot::prot::can::Frame&, unsigned char, bool)
    embot_prot_can_analog_polling.o(.text._ZN5embot4prot3can6analog7polling30Message_THERMOMETER_CONFIG_GET5replyERNS1_5FrameEhRKNS4_9ReplyInfoE) refers to embot_prot_can.o(.text._ZN5embot4prot3can32frame_set_clascmddestinationdataERNS1_5FrameENS1_4ClasEhhPKvhhb) for embot::prot::can::frame_set_clascmddestinationdata(embot::prot::can::Frame&, embot::prot::can::Clas, unsigned char, unsigned char, void const*, unsigned char, unsigned char, bool)
    embot_prot_can_analog_polling.o(.text._ZN5embot4prot3can6analog7polling30Message_THERMOMETER_CONFIG_GET5replyERNS1_5FrameEhRKNS4_9ReplyInfoE) refers to embot_prot_can.o(.text._ZN5embot4prot3can14frame_set_sizeERNS1_5FrameEhb) for embot::prot::can::frame_set_size(embot::prot::can::Frame&, unsigned char, bool)
    embot_prot_can_analog_polling.o(.ARM.exidx.text._ZN5embot4prot3can6analog7polling30Message_THERMOMETER_CONFIG_GET5replyERNS1_5FrameEhRKNS4_9ReplyInfoE) refers to embot_prot_can_analog_polling.o(.text._ZN5embot4prot3can6analog7polling30Message_THERMOMETER_CONFIG_GET5replyERNS1_5FrameEhRKNS4_9ReplyInfoE) for [Anonymous Symbol]
    embot_prot_can_analog_polling.o(.text._ZN5embot4prot3can6analog7polling28Message_THERMOMETER_TRANSMIT4loadERKNS1_5FrameE) refers to embot_prot_can.o(.text._ZN5embot4prot3can7Message3setERKNS1_5FrameE) for embot::prot::can::Message::set(embot::prot::can::Frame const&)
    embot_prot_can_analog_polling.o(.text._ZN5embot4prot3can6analog7polling28Message_THERMOMETER_TRANSMIT4loadERKNS1_5FrameE) refers to embot_prot_can.o(.text._ZN5embot4prot3can9frame2cmdERKNS1_5FrameE) for embot::prot::can::frame2cmd(embot::prot::can::Frame const&)
    embot_prot_can_analog_polling.o(.ARM.exidx.text._ZN5embot4prot3can6analog7polling28Message_THERMOMETER_TRANSMIT4loadERKNS1_5FrameE) refers to embot_prot_can_analog_polling.o(.text._ZN5embot4prot3can6analog7polling28Message_THERMOMETER_TRANSMIT4loadERKNS1_5FrameE) for [Anonymous Symbol]
    embot_prot_can_analog_polling.o(.ARM.exidx.text._ZN5embot4prot3can6analog7polling28Message_THERMOMETER_TRANSMIT5replyEv) refers to embot_prot_can_analog_polling.o(.text._ZN5embot4prot3can6analog7polling28Message_THERMOMETER_TRANSMIT5replyEv) for [Anonymous Symbol]
    embot_prot_can_analog_polling.o(.text._ZN5embot4prot3can6analog7polling22Message_POS_CONFIG_SET4loadERKNS1_5FrameE) refers to embot_prot_can.o(.text._ZN5embot4prot3can7Message3setERKNS1_5FrameE) for embot::prot::can::Message::set(embot::prot::can::Frame const&)
    embot_prot_can_analog_polling.o(.text._ZN5embot4prot3can6analog7polling22Message_POS_CONFIG_SET4loadERKNS1_5FrameE) refers to embot_prot_can.o(.text._ZN5embot4prot3can9frame2cmdERKNS1_5FrameE) for embot::prot::can::frame2cmd(embot::prot::can::Frame const&)
    embot_prot_can_analog_polling.o(.text._ZN5embot4prot3can6analog7polling22Message_POS_CONFIG_SET4loadERKNS1_5FrameE) refers to embot_prot_can_analog_polling.o(.text._ZN5embot4prot3can6analog7polling20deciDegPOSdescriptor4loadEPKh) for embot::prot::can::analog::polling::deciDegPOSdescriptor::load(unsigned char const*)
    embot_prot_can_analog_polling.o(.ARM.exidx.text._ZN5embot4prot3can6analog7polling22Message_POS_CONFIG_SET4loadERKNS1_5FrameE) refers to embot_prot_can_analog_polling.o(.text._ZN5embot4prot3can6analog7polling22Message_POS_CONFIG_SET4loadERKNS1_5FrameE) for [Anonymous Symbol]
    embot_prot_can_analog_polling.o(.ARM.exidx.text._ZN5embot4prot3can6analog7polling22Message_POS_CONFIG_SET5replyEv) refers to embot_prot_can_analog_polling.o(.text._ZN5embot4prot3can6analog7polling22Message_POS_CONFIG_SET5replyEv) for [Anonymous Symbol]
    embot_prot_can_analog_polling.o(.text._ZN5embot4prot3can6analog7polling22Message_POS_CONFIG_GET4loadERKNS1_5FrameE) refers to embot_prot_can.o(.text._ZN5embot4prot3can7Message3setERKNS1_5FrameE) for embot::prot::can::Message::set(embot::prot::can::Frame const&)
    embot_prot_can_analog_polling.o(.text._ZN5embot4prot3can6analog7polling22Message_POS_CONFIG_GET4loadERKNS1_5FrameE) refers to embot_prot_can.o(.text._ZN5embot4prot3can9frame2cmdERKNS1_5FrameE) for embot::prot::can::frame2cmd(embot::prot::can::Frame const&)
    embot_prot_can_analog_polling.o(.ARM.exidx.text._ZN5embot4prot3can6analog7polling22Message_POS_CONFIG_GET4loadERKNS1_5FrameE) refers to embot_prot_can_analog_polling.o(.text._ZN5embot4prot3can6analog7polling22Message_POS_CONFIG_GET4loadERKNS1_5FrameE) for [Anonymous Symbol]
    embot_prot_can_analog_polling.o(.text._ZN5embot4prot3can6analog7polling22Message_POS_CONFIG_GET5replyERNS1_5FrameEhRKNS4_9ReplyInfoE) refers to embot_prot_can_analog_polling.o(.text._ZNK5embot4prot3can6analog7polling20deciDegPOSdescriptor4fillEPh) for embot::prot::can::analog::polling::deciDegPOSdescriptor::fill(unsigned char*) const
    embot_prot_can_analog_polling.o(.text._ZN5embot4prot3can6analog7polling22Message_POS_CONFIG_GET5replyERNS1_5FrameEhRKNS4_9ReplyInfoE) refers to embot_prot_can.o(.text._ZN5embot4prot3can16frame_set_senderERNS1_5FrameEhb) for embot::prot::can::frame_set_sender(embot::prot::can::Frame&, unsigned char, bool)
    embot_prot_can_analog_polling.o(.text._ZN5embot4prot3can6analog7polling22Message_POS_CONFIG_GET5replyERNS1_5FrameEhRKNS4_9ReplyInfoE) refers to embot_prot_can.o(.text._ZN5embot4prot3can32frame_set_clascmddestinationdataERNS1_5FrameENS1_4ClasEhhPKvhhb) for embot::prot::can::frame_set_clascmddestinationdata(embot::prot::can::Frame&, embot::prot::can::Clas, unsigned char, unsigned char, void const*, unsigned char, unsigned char, bool)
    embot_prot_can_analog_polling.o(.text._ZN5embot4prot3can6analog7polling22Message_POS_CONFIG_GET5replyERNS1_5FrameEhRKNS4_9ReplyInfoE) refers to embot_prot_can.o(.text._ZN5embot4prot3can14frame_set_sizeERNS1_5FrameEhb) for embot::prot::can::frame_set_size(embot::prot::can::Frame&, unsigned char, bool)
    embot_prot_can_analog_polling.o(.ARM.exidx.text._ZN5embot4prot3can6analog7polling22Message_POS_CONFIG_GET5replyERNS1_5FrameEhRKNS4_9ReplyInfoE) refers to embot_prot_can_analog_polling.o(.text._ZN5embot4prot3can6analog7polling22Message_POS_CONFIG_GET5replyERNS1_5FrameEhRKNS4_9ReplyInfoE) for [Anonymous Symbol]
    embot_prot_can_analog_polling.o(.text._ZN5embot4prot3can6analog7polling20Message_POS_TRANSMIT4loadERKNS1_5FrameE) refers to embot_prot_can.o(.text._ZN5embot4prot3can7Message3setERKNS1_5FrameE) for embot::prot::can::Message::set(embot::prot::can::Frame const&)
    embot_prot_can_analog_polling.o(.text._ZN5embot4prot3can6analog7polling20Message_POS_TRANSMIT4loadERKNS1_5FrameE) refers to embot_prot_can.o(.text._ZN5embot4prot3can9frame2cmdERKNS1_5FrameE) for embot::prot::can::frame2cmd(embot::prot::can::Frame const&)
    embot_prot_can_analog_polling.o(.ARM.exidx.text._ZN5embot4prot3can6analog7polling20Message_POS_TRANSMIT4loadERKNS1_5FrameE) refers to embot_prot_can_analog_polling.o(.text._ZN5embot4prot3can6analog7polling20Message_POS_TRANSMIT4loadERKNS1_5FrameE) for [Anonymous Symbol]
    embot_prot_can_analog_polling.o(.ARM.exidx.text._ZN5embot4prot3can6analog7polling20Message_POS_TRANSMIT5replyEv) refers to embot_prot_can_analog_polling.o(.text._ZN5embot4prot3can6analog7polling20Message_POS_TRANSMIT5replyEv) for [Anonymous Symbol]
    embot_prot_can_analog_periodic.o(.text._ZN5embot4prot3can6analog8periodic9supportedEh) refers to embot_prot_can_analog_periodic.o(.text._ZN5embot4prot3can6analog8periodic7convertEh) for embot::prot::can::analog::periodic::convert(unsigned char)
    embot_prot_can_analog_periodic.o(.ARM.exidx.text._ZN5embot4prot3can6analog8periodic9supportedEh) refers to embot_prot_can_analog_periodic.o(.text._ZN5embot4prot3can6analog8periodic9supportedEh) for [Anonymous Symbol]
    embot_prot_can_analog_periodic.o(.text._ZN5embot4prot3can6analog8periodic7convertEh) refers to embot_hw_gpio.o(.text._ZN5embot4core6binary3bit5checkItEEbT_h) for bool embot::core::binary::bit::check<unsigned short>(unsigned short, unsigned char)
    embot_prot_can_analog_periodic.o(.ARM.exidx.text._ZN5embot4prot3can6analog8periodic7convertEh) refers to embot_prot_can_analog_periodic.o(.text._ZN5embot4prot3can6analog8periodic7convertEh) for [Anonymous Symbol]
    embot_prot_can_analog_periodic.o(.ARM.exidx.text._ZN5embot4prot3can6analog8periodic7convertENS3_3CMDE) refers to embot_prot_can_analog_periodic.o(.text._ZN5embot4prot3can6analog8periodic7convertENS3_3CMDE) for [Anonymous Symbol]
    embot_prot_can_analog_periodic.o(.text._ZN5embot4prot3can6analog8periodic20convert2protocolbyteERNS3_17ADCsaturationInfoE) refers to embot_prot_can_analog_periodic.o(.text._ZN5embot4prot3can6analog8periodic26ADCsaturationInfoFormattedC2Ev) for embot::prot::can::analog::periodic::ADCsaturationInfoFormatted::ADCsaturationInfoFormatted__sub_object()
    embot_prot_can_analog_periodic.o(.ARM.exidx.text._ZN5embot4prot3can6analog8periodic20convert2protocolbyteERNS3_17ADCsaturationInfoE) refers to embot_prot_can_analog_periodic.o(.text._ZN5embot4prot3can6analog8periodic20convert2protocolbyteERNS3_17ADCsaturationInfoE) for [Anonymous Symbol]
    embot_prot_can_analog_periodic.o(.ARM.exidx.text._ZN5embot4prot3can6analog8periodic37Message_UNCALIBFORCE_VECTOR_DEBUGMODE4loadERKNS4_4InfoE) refers to embot_prot_can_analog_periodic.o(.text._ZN5embot4prot3can6analog8periodic37Message_UNCALIBFORCE_VECTOR_DEBUGMODE4loadERKNS4_4InfoE) for [Anonymous Symbol]
    embot_prot_can_analog_periodic.o(.text._ZN5embot4prot3can6analog8periodic37Message_UNCALIBFORCE_VECTOR_DEBUGMODE3getERNS1_5FrameE) refers to embot_prot_can_analog_periodic.o(.text._ZN5embot4prot3can6analog8periodic20convert2protocolbyteERNS3_17ADCsaturationInfoE) for embot::prot::can::analog::periodic::convert2protocolbyte(embot::prot::can::analog::periodic::ADCsaturationInfo&)
    embot_prot_can_analog_periodic.o(.text._ZN5embot4prot3can6analog8periodic37Message_UNCALIBFORCE_VECTOR_DEBUGMODE3getERNS1_5FrameE) refers to embot_prot_can.o(.text._ZN5embot4prot3can7Message3setEhhNS1_4ClasEhPKvh) for embot::prot::can::Message::set(unsigned char, unsigned char, embot::prot::can::Clas, unsigned char, void const*, unsigned char)
    embot_prot_can_analog_periodic.o(.ARM.exidx.text._ZN5embot4prot3can6analog8periodic37Message_UNCALIBFORCE_VECTOR_DEBUGMODE3getERNS1_5FrameE) refers to embot_prot_can_analog_periodic.o(.text._ZN5embot4prot3can6analog8periodic37Message_UNCALIBFORCE_VECTOR_DEBUGMODE3getERNS1_5FrameE) for [Anonymous Symbol]
    embot_prot_can_analog_periodic.o(.ARM.exidx.text._ZN5embot4prot3can6analog8periodic38Message_UNCALIBTORQUE_VECTOR_DEBUGMODE4loadERKNS4_4InfoE) refers to embot_prot_can_analog_periodic.o(.text._ZN5embot4prot3can6analog8periodic38Message_UNCALIBTORQUE_VECTOR_DEBUGMODE4loadERKNS4_4InfoE) for [Anonymous Symbol]
    embot_prot_can_analog_periodic.o(.text._ZN5embot4prot3can6analog8periodic38Message_UNCALIBTORQUE_VECTOR_DEBUGMODE3getERNS1_5FrameE) refers to embot_prot_can_analog_periodic.o(.text._ZN5embot4prot3can6analog8periodic20convert2protocolbyteERNS3_17ADCsaturationInfoE) for embot::prot::can::analog::periodic::convert2protocolbyte(embot::prot::can::analog::periodic::ADCsaturationInfo&)
    embot_prot_can_analog_periodic.o(.text._ZN5embot4prot3can6analog8periodic38Message_UNCALIBTORQUE_VECTOR_DEBUGMODE3getERNS1_5FrameE) refers to embot_prot_can.o(.text._ZN5embot4prot3can7Message3setEhhNS1_4ClasEhPKvh) for embot::prot::can::Message::set(unsigned char, unsigned char, embot::prot::can::Clas, unsigned char, void const*, unsigned char)
    embot_prot_can_analog_periodic.o(.ARM.exidx.text._ZN5embot4prot3can6analog8periodic38Message_UNCALIBTORQUE_VECTOR_DEBUGMODE3getERNS1_5FrameE) refers to embot_prot_can_analog_periodic.o(.text._ZN5embot4prot3can6analog8periodic38Message_UNCALIBTORQUE_VECTOR_DEBUGMODE3getERNS1_5FrameE) for [Anonymous Symbol]
    embot_prot_can_analog_periodic.o(.ARM.exidx.text._ZN5embot4prot3can6analog8periodic20Message_FORCE_VECTOR4loadERKNS4_4InfoE) refers to embot_prot_can_analog_periodic.o(.text._ZN5embot4prot3can6analog8periodic20Message_FORCE_VECTOR4loadERKNS4_4InfoE) for [Anonymous Symbol]
    embot_prot_can_analog_periodic.o(.text._ZN5embot4prot3can6analog8periodic20Message_FORCE_VECTOR3getERNS1_5FrameE) refers to embot_prot_can_analog_periodic.o(.text._ZN5embot4prot3can6analog8periodic20convert2protocolbyteERNS3_17ADCsaturationInfoE) for embot::prot::can::analog::periodic::convert2protocolbyte(embot::prot::can::analog::periodic::ADCsaturationInfo&)
    embot_prot_can_analog_periodic.o(.text._ZN5embot4prot3can6analog8periodic20Message_FORCE_VECTOR3getERNS1_5FrameE) refers to embot_prot_can.o(.text._ZN5embot4prot3can7Message3setEhhNS1_4ClasEhPKvh) for embot::prot::can::Message::set(unsigned char, unsigned char, embot::prot::can::Clas, unsigned char, void const*, unsigned char)
    embot_prot_can_analog_periodic.o(.ARM.exidx.text._ZN5embot4prot3can6analog8periodic20Message_FORCE_VECTOR3getERNS1_5FrameE) refers to embot_prot_can_analog_periodic.o(.text._ZN5embot4prot3can6analog8periodic20Message_FORCE_VECTOR3getERNS1_5FrameE) for [Anonymous Symbol]
    embot_prot_can_analog_periodic.o(.ARM.exidx.text._ZN5embot4prot3can6analog8periodic21Message_TORQUE_VECTOR4loadERKNS4_4InfoE) refers to embot_prot_can_analog_periodic.o(.text._ZN5embot4prot3can6analog8periodic21Message_TORQUE_VECTOR4loadERKNS4_4InfoE) for [Anonymous Symbol]
    embot_prot_can_analog_periodic.o(.text._ZN5embot4prot3can6analog8periodic21Message_TORQUE_VECTOR3getERNS1_5FrameE) refers to embot_prot_can_analog_periodic.o(.text._ZN5embot4prot3can6analog8periodic20convert2protocolbyteERNS3_17ADCsaturationInfoE) for embot::prot::can::analog::periodic::convert2protocolbyte(embot::prot::can::analog::periodic::ADCsaturationInfo&)
    embot_prot_can_analog_periodic.o(.text._ZN5embot4prot3can6analog8periodic21Message_TORQUE_VECTOR3getERNS1_5FrameE) refers to embot_prot_can.o(.text._ZN5embot4prot3can7Message3setEhhNS1_4ClasEhPKvh) for embot::prot::can::Message::set(unsigned char, unsigned char, embot::prot::can::Clas, unsigned char, void const*, unsigned char)
    embot_prot_can_analog_periodic.o(.ARM.exidx.text._ZN5embot4prot3can6analog8periodic21Message_TORQUE_VECTOR3getERNS1_5FrameE) refers to embot_prot_can_analog_periodic.o(.text._ZN5embot4prot3can6analog8periodic21Message_TORQUE_VECTOR3getERNS1_5FrameE) for [Anonymous Symbol]
    embot_prot_can_analog_periodic.o(.ARM.exidx.text._ZN5embot4prot3can6analog8periodic27Message_THERMOMETER_MEASURE4loadERKNS4_4InfoE) refers to embot_prot_can_analog_periodic.o(.text._ZN5embot4prot3can6analog8periodic27Message_THERMOMETER_MEASURE4loadERKNS4_4InfoE) for [Anonymous Symbol]
    embot_prot_can_analog_periodic.o(.text._ZN5embot4prot3can6analog8periodic27Message_THERMOMETER_MEASURE3getERNS1_5FrameE) refers to embot_prot_can_analog_polling.o(.text._ZN5embot4core6binary3bit5checkIhEEbT_h) for bool embot::core::binary::bit::check<unsigned char>(unsigned char, unsigned char)
    embot_prot_can_analog_periodic.o(.text._ZN5embot4prot3can6analog8periodic27Message_THERMOMETER_MEASURE3getERNS1_5FrameE) refers to embot_prot_can.o(.text._ZN5embot4prot3can7Message3setEhhNS1_4ClasEhPKvh) for embot::prot::can::Message::set(unsigned char, unsigned char, embot::prot::can::Clas, unsigned char, void const*, unsigned char)
    embot_prot_can_analog_periodic.o(.ARM.exidx.text._ZN5embot4prot3can6analog8periodic27Message_THERMOMETER_MEASURE3getERNS1_5FrameE) refers to embot_prot_can_analog_periodic.o(.text._ZN5embot4prot3can6analog8periodic27Message_THERMOMETER_MEASURE3getERNS1_5FrameE) for [Anonymous Symbol]
    embot_prot_can_analog_periodic.o(.ARM.exidx.text._ZN5embot4prot3can6analog8periodic15Message_USERDEF4loadERKNS4_4InfoE) refers to embot_prot_can_analog_periodic.o(.text._ZN5embot4prot3can6analog8periodic15Message_USERDEF4loadERKNS4_4InfoE) for [Anonymous Symbol]
    embot_prot_can_analog_periodic.o(.text._ZN5embot4prot3can6analog8periodic15Message_USERDEF3getERNS1_5FrameE) refers to embot_prot_can.o(.text._ZN5embot4prot3can7Message3setEhhNS1_4ClasEhPKvh) for embot::prot::can::Message::set(unsigned char, unsigned char, embot::prot::can::Clas, unsigned char, void const*, unsigned char)
    embot_prot_can_analog_periodic.o(.ARM.exidx.text._ZN5embot4prot3can6analog8periodic15Message_USERDEF3getERNS1_5FrameE) refers to embot_prot_can_analog_periodic.o(.text._ZN5embot4prot3can6analog8periodic15Message_USERDEF3getERNS1_5FrameE) for [Anonymous Symbol]
    embot_prot_can_analog_periodic.o(.ARM.exidx.text._ZN5embot4prot3can6analog8periodic11Message_POS4loadERKNS4_4InfoE) refers to embot_prot_can_analog_periodic.o(.text._ZN5embot4prot3can6analog8periodic11Message_POS4loadERKNS4_4InfoE) for [Anonymous Symbol]
    embot_prot_can_analog_periodic.o(.text._ZN5embot4prot3can6analog8periodic11Message_POS3getERNS1_5FrameE) refers to embot_prot_can.o(.text._ZN5embot4prot3can7Message3setEhhNS1_4ClasEhPKvh) for embot::prot::can::Message::set(unsigned char, unsigned char, embot::prot::can::Clas, unsigned char, void const*, unsigned char)
    embot_prot_can_analog_periodic.o(.ARM.exidx.text._ZN5embot4prot3can6analog8periodic11Message_POS3getERNS1_5FrameE) refers to embot_prot_can_analog_periodic.o(.text._ZN5embot4prot3can6analog8periodic11Message_POS3getERNS1_5FrameE) for [Anonymous Symbol]
    embot_app_skeleton_os_evthreadcan.o(.text._ZN5embot3app8skeleton2os11evthreadcan3runERKNS3_3CFGE) refers to embot_app_skeleton_os_evthreadcan.o(.text._ZNK5embot3app8skeleton2os11evthreadcan3CFG7isvalidEv) for embot::app::skeleton::os::evthreadcan::CFG::isvalid() const
    embot_app_skeleton_os_evthreadcan.o(.text._ZN5embot3app8skeleton2os11evthreadcan3runERKNS3_3CFGE) refers to embot_app_skeleton_os_evthreadcan.o(.bss._ZN5embot3app8skeleton2os11evthreadcan6extCFGE) for embot::app::skeleton::os::evthreadcan::extCFG
    embot_app_skeleton_os_evthreadcan.o(.text._ZN5embot3app8skeleton2os11evthreadcan3runERKNS3_3CFGE) refers to embot_app_skeleton_os_evthreadcan.o(.text._ZN5embot3app8skeleton2os5basic3CFGC2EPKNS3_6SYSTEME) for embot::app::skeleton::os::basic::CFG::CFG__sub_object(embot::app::skeleton::os::basic::SYSTEM const*)
    embot_app_skeleton_os_evthreadcan.o(.text._ZN5embot3app8skeleton2os11evthreadcan3runERKNS3_3CFGE) refers to embot_app_skeleton_os_basic.o(.text._ZN5embot3app8skeleton2os5basic3runERKNS3_3CFGE) for embot::app::skeleton::os::basic::run(embot::app::skeleton::os::basic::CFG const&)
    embot_app_skeleton_os_evthreadcan.o(.ARM.exidx.text._ZN5embot3app8skeleton2os11evthreadcan3runERKNS3_3CFGE) refers to embot_app_skeleton_os_evthreadcan.o(.text._ZN5embot3app8skeleton2os11evthreadcan3runERKNS3_3CFGE) for [Anonymous Symbol]
    embot_app_skeleton_os_evthreadcan.o(.text._ZN5embot3app8skeleton2os11evthreadcan12getEVTthreadEv) refers to embot_app_skeleton_os_evthreadcan.o(.bss._ZN5embot3app8skeleton2os11evthreadcan10mainthreadE) for embot::app::skeleton::os::evthreadcan::mainthread
    embot_app_skeleton_os_evthreadcan.o(.ARM.exidx.text._ZN5embot3app8skeleton2os11evthreadcan12getEVTthreadEv) refers to embot_app_skeleton_os_evthreadcan.o(.text._ZN5embot3app8skeleton2os11evthreadcan12getEVTthreadEv) for [Anonymous Symbol]
    embot_app_skeleton_os_evthreadcan.o(.text._ZNK5embot3app8skeleton2os11evthreadcan12SYSTEMevtcan11userdefInitEPv) refers to embot_app_skeleton_os_evthreadcan.o(.text._ZN5embot3app8skeleton2os11evthreadcan15start_evt_basedEv) for embot::app::skeleton::os::evthreadcan::start_evt_based()
    embot_app_skeleton_os_evthreadcan.o(.text._ZNK5embot3app8skeleton2os11evthreadcan12SYSTEMevtcan11userdefInitEPv) refers to embot_app_skeleton_os_evthreadcan.o(.bss._ZN5embot3app8skeleton2os11evthreadcan10mainthreadE) for embot::app::skeleton::os::evthreadcan::mainthread
    embot_app_skeleton_os_evthreadcan.o(.text._ZNK5embot3app8skeleton2os11evthreadcan12SYSTEMevtcan11userdefInitEPv) refers to embot_app_skeleton_os_evthreadcan.o(.text._ZN5embot3app8skeleton2os11evthreadcan8can_initEPNS_2os6ThreadE) for embot::app::skeleton::os::evthreadcan::can_init(embot::os::Thread*)
    embot_app_skeleton_os_evthreadcan.o(.text._ZNK5embot3app8skeleton2os11evthreadcan12SYSTEMevtcan11userdefInitEPv) refers to embot_app_skeleton_os_evthreadcan.o(.text._ZN5embot3app8skeleton2os11evthreadcan18start_usr_servicesEPNS_2os11EventThreadEPv) for embot::app::skeleton::os::evthreadcan::start_usr_services(embot::os::EventThread*, void*)
    embot_app_skeleton_os_evthreadcan.o(.ARM.exidx.text._ZNK5embot3app8skeleton2os11evthreadcan12SYSTEMevtcan11userdefInitEPv) refers to embot_app_skeleton_os_evthreadcan.o(.text._ZNK5embot3app8skeleton2os11evthreadcan12SYSTEMevtcan11userdefInitEPv) for [Anonymous Symbol]
    embot_app_skeleton_os_evthreadcan.o(.text._ZN5embot3app8skeleton2os11evthreadcan15start_evt_basedEv) refers to embot_app_skeleton_os_evthreadcan.o(.bss._ZN5embot3app8skeleton2os11evthreadcan6extCFGE) for embot::app::skeleton::os::evthreadcan::extCFG
    embot_app_skeleton_os_evthreadcan.o(.text._ZN5embot3app8skeleton2os11evthreadcan15start_evt_basedEv) refers to embot_app_skeleton_os_evthreadcan.o(.text._ZN5embot3app8skeleton2os11evthreadcan24eventbasedthread_oneventEPNS_2os6ThreadEjPv) for embot::app::skeleton::os::evthreadcan::eventbasedthread_onevent(embot::os::Thread*, unsigned int, void*)
    embot_app_skeleton_os_evthreadcan.o(.text._ZN5embot3app8skeleton2os11evthreadcan15start_evt_basedEv) refers to embot_app_skeleton_os_evthreadcan.o(.text._ZN5embot3app8skeleton2os11evthreadcan24eventbasedthread_startupEPNS_2os6ThreadEPv) for embot::app::skeleton::os::evthreadcan::eventbasedthread_startup(embot::os::Thread*, void*)
    embot_app_skeleton_os_evthreadcan.o(.text._ZN5embot3app8skeleton2os11evthreadcan15start_evt_basedEv) refers to amcbldc-main.o(.text._ZN5embot2os11EventThread6ConfigC2EtNS0_8PriorityEPFvPNS0_6ThreadEPvES6_jPFvS5_jS6_EPKc) for embot::os::EventThread::Config::Config__sub_object(unsigned short, embot::os::Priority, void (*)(embot::os::Thread*, void*), void*, unsigned int, void (*)(embot::os::Thread*, unsigned int, void*), char const*)
    embot_app_skeleton_os_evthreadcan.o(.text._ZN5embot3app8skeleton2os11evthreadcan15start_evt_basedEv) refers to embot_os_rtos.o(.text._Znwj) for operator new(unsigned int)
    embot_app_skeleton_os_evthreadcan.o(.text._ZN5embot3app8skeleton2os11evthreadcan15start_evt_basedEv) refers to embot_os_thread.o(.text._ZN5embot2os11EventThreadC2Ev) for embot::os::EventThread::EventThread()
    embot_app_skeleton_os_evthreadcan.o(.text._ZN5embot3app8skeleton2os11evthreadcan15start_evt_basedEv) refers to embot_app_skeleton_os_evthreadcan.o(.text._Z6thrCANPv) for thrCAN(void*)
    embot_app_skeleton_os_evthreadcan.o(.text._ZN5embot3app8skeleton2os11evthreadcan15start_evt_basedEv) refers to embot_os_thread.o(.text._ZN5embot2os11EventThread5startERKNS1_6ConfigEPFvPvE) for embot::os::EventThread::start(embot::os::EventThread::Config const&, void (*)(void*))
    embot_app_skeleton_os_evthreadcan.o(.ARM.exidx.text._ZN5embot3app8skeleton2os11evthreadcan15start_evt_basedEv) refers to embot_app_skeleton_os_evthreadcan.o(.text._ZN5embot3app8skeleton2os11evthreadcan15start_evt_basedEv) for [Anonymous Symbol]
    embot_app_skeleton_os_evthreadcan.o(.text._ZN5embot3app8skeleton2os11evthreadcan8can_initEPNS_2os6ThreadE) refers to embot_app_skeleton_os_evthreadcan.o(.bss._ZZN5embot3app8skeleton2os11evthreadcan8can_initEPNS_2os6ThreadEE7initted) for embot::app::skeleton::os::evthreadcan::can_init(embot::os::Thread*)::initted
    embot_app_skeleton_os_evthreadcan.o(.text._ZN5embot3app8skeleton2os11evthreadcan8can_initEPNS_2os6ThreadE) refers to embot_app_skeleton_os_evthreadcan.o(.text._ZN5embot2hw3can6ConfigC2Ev) for embot::hw::can::Config::Config__sub_object()
    embot_app_skeleton_os_evthreadcan.o(.text._ZN5embot3app8skeleton2os11evthreadcan8can_initEPNS_2os6ThreadE) refers to embot_app_skeleton_os_evthreadcan.o(.bss._ZN5embot3app8skeleton2os11evthreadcan6extCFGE) for embot::app::skeleton::os::evthreadcan::extCFG
    embot_app_skeleton_os_evthreadcan.o(.text._ZN5embot3app8skeleton2os11evthreadcan8can_initEPNS_2os6ThreadE) refers to embot_app_skeleton_os_evthreadcan.o(.text._ZN5embot3app8skeleton2os11evthreadcan21alerteventbasedthreadEPv) for embot::app::skeleton::os::evthreadcan::alerteventbasedthread(void*)
    embot_app_skeleton_os_evthreadcan.o(.text._ZN5embot3app8skeleton2os11evthreadcan8can_initEPNS_2os6ThreadE) refers to embot_app_skeleton_os_evthreadcan.o(.text._ZN5embot4core8CallbackC2EPFvPvES2_) for embot::core::Callback::Callback__sub_object(void (*)(void*), void*)
    embot_app_skeleton_os_evthreadcan.o(.text._ZN5embot3app8skeleton2os11evthreadcan8can_initEPNS_2os6ThreadE) refers to embot_hw_can.o(.text._ZN5embot2hw3can4initENS0_3CANERKNS1_6ConfigE) for embot::hw::can::init(embot::hw::CAN, embot::hw::can::Config const&)
    embot_app_skeleton_os_evthreadcan.o(.text._ZN5embot3app8skeleton2os11evthreadcan8can_initEPNS_2os6ThreadE) refers to embot_app_thecanboardinfo.o(.text._ZN5embot3app15theCANboardInfo11getInstanceEv) for embot::app::theCANboardInfo::getInstance()
    embot_app_skeleton_os_evthreadcan.o(.text._ZN5embot3app8skeleton2os11evthreadcan8can_initEPNS_2os6ThreadE) refers to embot_app_thecanboardinfo.o(.text._ZN5embot3app15theCANboardInfo13getCANaddressEv) for embot::app::theCANboardInfo::getCANaddress()
    embot_app_skeleton_os_evthreadcan.o(.text._ZN5embot3app8skeleton2os11evthreadcan8can_initEPNS_2os6ThreadE) refers to embot_hw_can.o(.text._ZN5embot2hw3can10setfiltersENS0_3CANEh) for embot::hw::can::setfilters(embot::hw::CAN, unsigned char)
    embot_app_skeleton_os_evthreadcan.o(.text._ZN5embot3app8skeleton2os11evthreadcan8can_initEPNS_2os6ThreadE) refers to embot_app_skeleton_os_evthreadcan.o(.bss._ZN5embot3app8skeleton2os11evthreadcan9outframesE) for embot::app::skeleton::os::evthreadcan::outframes
    embot_app_skeleton_os_evthreadcan.o(.text._ZN5embot3app8skeleton2os11evthreadcan8can_initEPNS_2os6ThreadE) refers to amcbldc-main.o(.text._ZNSt3__26vectorIN5embot4prot3can5FrameENS_9allocatorIS4_EEE7reserveEj) for std::__2::vector<embot::prot::can::Frame, std::__2::allocator<embot::prot::can::Frame> >::reserve(unsigned int)
    embot_app_skeleton_os_evthreadcan.o(.text._ZN5embot3app8skeleton2os11evthreadcan8can_initEPNS_2os6ThreadE) refers to embot_app_thecanboardinfo.o(.text._ZN5embot3app15theCANboardInfo5synchERKNS1_15applicationInfoE) for embot::app::theCANboardInfo::synch(embot::app::theCANboardInfo::applicationInfo const&)
    embot_app_skeleton_os_evthreadcan.o(.ARM.exidx.text._ZN5embot3app8skeleton2os11evthreadcan8can_initEPNS_2os6ThreadE) refers to embot_app_skeleton_os_evthreadcan.o(.text._ZN5embot3app8skeleton2os11evthreadcan8can_initEPNS_2os6ThreadE) for [Anonymous Symbol]
    embot_app_skeleton_os_evthreadcan.o(.text._ZN5embot3app8skeleton2os11evthreadcan18start_usr_servicesEPNS_2os11EventThreadEPv) refers to embot_app_skeleton_os_evthreadcan.o(.bss._ZN5embot3app8skeleton2os11evthreadcan6extCFGE) for embot::app::skeleton::os::evthreadcan::extCFG
    embot_app_skeleton_os_evthreadcan.o(.ARM.exidx.text._ZN5embot3app8skeleton2os11evthreadcan18start_usr_servicesEPNS_2os11EventThreadEPv) refers to embot_app_skeleton_os_evthreadcan.o(.text._ZN5embot3app8skeleton2os11evthreadcan18start_usr_servicesEPNS_2os11EventThreadEPv) for [Anonymous Symbol]
    embot_app_skeleton_os_evthreadcan.o(.ARM.exidx.text._Z6thrCANPv) refers to embot_app_skeleton_os_evthreadcan.o(.text._Z6thrCANPv) for [Anonymous Symbol]
    embot_app_skeleton_os_evthreadcan.o(.ARM.exidx.text._ZN5embot3app8skeleton2os11evthreadcan21alerteventbasedthreadEPv) refers to embot_app_skeleton_os_evthreadcan.o(.text._ZN5embot3app8skeleton2os11evthreadcan21alerteventbasedthreadEPv) for [Anonymous Symbol]
    embot_app_skeleton_os_evthreadcan.o(.text.__cxx_global_var_init) refers to embot_app_skeleton_os_evthreadcan.o(.bss._ZN5embot3app8skeleton2os11evthreadcan9outframesE) for embot::app::skeleton::os::evthreadcan::outframes
    embot_app_skeleton_os_evthreadcan.o(.text.__cxx_global_var_init) refers to amcbldc-main.o(.text._ZNSt3__26vectorIN5embot4prot3can5FrameENS_9allocatorIS4_EEED2Ev) for std::__2::vector<embot::prot::can::Frame, std::__2::allocator<embot::prot::can::Frame> >::~vector__sub_object()
    embot_app_skeleton_os_evthreadcan.o(.text.__cxx_global_var_init) refers to cxa_atexit.o(.text) for __cxa_atexit
    embot_app_skeleton_os_evthreadcan.o(.ARM.exidx.text.__cxx_global_var_init) refers to embot_app_skeleton_os_evthreadcan.o(.text.__cxx_global_var_init) for [Anonymous Symbol]
    embot_app_skeleton_os_evthreadcan.o(.text._ZN5embot3app8skeleton2os11evthreadcan10can_enableEPNS_2os6ThreadE) refers to embot_hw_can.o(.text._ZN5embot2hw3can6enableENS0_3CANE) for embot::hw::can::enable(embot::hw::CAN)
    embot_app_skeleton_os_evthreadcan.o(.ARM.exidx.text._ZN5embot3app8skeleton2os11evthreadcan10can_enableEPNS_2os6ThreadE) refers to embot_app_skeleton_os_evthreadcan.o(.text._ZN5embot3app8skeleton2os11evthreadcan10can_enableEPNS_2os6ThreadE) for [Anonymous Symbol]
    embot_app_skeleton_os_evthreadcan.o(.text._ZN5embot3app8skeleton2os11evthreadcan24eventbasedthread_startupEPNS_2os6ThreadEPv) refers to embot_app_skeleton_os_evthreadcan.o(.bss._ZN5embot3app8skeleton2os11evthreadcan6extCFGE) for embot::app::skeleton::os::evthreadcan::extCFG
    embot_app_skeleton_os_evthreadcan.o(.text._ZN5embot3app8skeleton2os11evthreadcan24eventbasedthread_startupEPNS_2os6ThreadEPv) refers to embot_app_skeleton_os_evthreadcan.o(.text._ZN5embot3app8skeleton2os11evthreadcan10can_enableEPNS_2os6ThreadE) for embot::app::skeleton::os::evthreadcan::can_enable(embot::os::Thread*)
    embot_app_skeleton_os_evthreadcan.o(.ARM.exidx.text._ZN5embot3app8skeleton2os11evthreadcan24eventbasedthread_startupEPNS_2os6ThreadEPv) refers to embot_app_skeleton_os_evthreadcan.o(.text._ZN5embot3app8skeleton2os11evthreadcan24eventbasedthread_startupEPNS_2os6ThreadEPv) for [Anonymous Symbol]
    embot_app_skeleton_os_evthreadcan.o(.text._ZN5embot3app8skeleton2os11evthreadcan24eventbasedthread_oneventEPNS_2os6ThreadEjPv) refers to embot_app_skeleton_os_evthreadcan.o(.bss._ZN5embot3app8skeleton2os11evthreadcan9outframesE) for embot::app::skeleton::os::evthreadcan::outframes
    embot_app_skeleton_os_evthreadcan.o(.text._ZN5embot3app8skeleton2os11evthreadcan24eventbasedthread_oneventEPNS_2os6ThreadEjPv) refers to amcbldc-main.o(.text._ZN5embot4core6binary4mask5checkIjEEbT_S4_h) for bool embot::core::binary::mask::check<unsigned int>(unsigned int, unsigned int, unsigned char)
    embot_app_skeleton_os_evthreadcan.o(.text._ZN5embot3app8skeleton2os11evthreadcan24eventbasedthread_oneventEPNS_2os6ThreadEjPv) refers to embot_app_skeleton_os_evthreadcan.o(.bss._ZN5embot3app8skeleton2os11evthreadcan6extCFGE) for embot::app::skeleton::os::evthreadcan::extCFG
    embot_app_skeleton_os_evthreadcan.o(.text._ZN5embot3app8skeleton2os11evthreadcan24eventbasedthread_oneventEPNS_2os6ThreadEjPv) refers to embot_hw_can.o(.text._ZN5embot2hw3can5FrameC2Ev) for embot::hw::can::Frame::Frame__sub_object()
    embot_app_skeleton_os_evthreadcan.o(.text._ZN5embot3app8skeleton2os11evthreadcan24eventbasedthread_oneventEPNS_2os6ThreadEjPv) refers to embot_hw_can.o(.text._ZN5embot2hw3can3getENS0_3CANERNS1_5FrameERh) for embot::hw::can::get(embot::hw::CAN, embot::hw::can::Frame&, unsigned char&)
    embot_app_skeleton_os_evthreadcan.o(.text._ZN5embot3app8skeleton2os11evthreadcan24eventbasedthread_oneventEPNS_2os6ThreadEjPv) refers to embot_app_skeleton_os_evthreadcan.o(.text._ZN5embot4prot3can5FrameC2EjhPh) for embot::prot::can::Frame::Frame__sub_object(unsigned int, unsigned char, unsigned char*)
    embot_app_skeleton_os_evthreadcan.o(.text._ZN5embot3app8skeleton2os11evthreadcan24eventbasedthread_oneventEPNS_2os6ThreadEjPv) refers to embot_app_skeleton_os_evthreadcan.o(.text._ZN5embot2hw3can5FrameC2EjhPh) for embot::hw::can::Frame::Frame__sub_object(unsigned int, unsigned char, unsigned char*)
    embot_app_skeleton_os_evthreadcan.o(.text._ZN5embot3app8skeleton2os11evthreadcan24eventbasedthread_oneventEPNS_2os6ThreadEjPv) refers to embot_hw_can.o(.text._ZN5embot2hw3can3putENS0_3CANERKNS1_5FrameE) for embot::hw::can::put(embot::hw::CAN, embot::hw::can::Frame const&)
    embot_app_skeleton_os_evthreadcan.o(.text._ZN5embot3app8skeleton2os11evthreadcan24eventbasedthread_oneventEPNS_2os6ThreadEjPv) refers to embot_hw_can.o(.text._ZN5embot2hw3can8transmitENS0_3CANE) for embot::hw::can::transmit(embot::hw::CAN)
    embot_app_skeleton_os_evthreadcan.o(.ARM.exidx.text._ZN5embot3app8skeleton2os11evthreadcan24eventbasedthread_oneventEPNS_2os6ThreadEjPv) refers to embot_app_skeleton_os_evthreadcan.o(.text._ZN5embot3app8skeleton2os11evthreadcan24eventbasedthread_oneventEPNS_2os6ThreadEjPv) for [Anonymous Symbol]
    embot_app_skeleton_os_evthreadcan.o(.text._GLOBAL__sub_I_embot_app_skeleton_os_evthreadcan.cpp) refers to embot_app_skeleton_os_evthreadcan.o(.text.__cxx_global_var_init) for __cxx_global_var_init
    embot_app_skeleton_os_evthreadcan.o(.ARM.exidx.text._GLOBAL__sub_I_embot_app_skeleton_os_evthreadcan.cpp) refers to embot_app_skeleton_os_evthreadcan.o(.text._GLOBAL__sub_I_embot_app_skeleton_os_evthreadcan.cpp) for [Anonymous Symbol]
    embot_app_skeleton_os_evthreadcan.o(.rodata._ZTVN5embot3app8skeleton2os11evthreadcan12SYSTEMevtcanE) refers to amcbldc-main.o(.text._ZN5embot3app8skeleton2os5basic6SYSTEMD2Ev) for embot::app::skeleton::os::basic::SYSTEM::~SYSTEM__sub_object()
    embot_app_skeleton_os_evthreadcan.o(.rodata._ZTVN5embot3app8skeleton2os11evthreadcan12SYSTEMevtcanE) refers to embot_app_skeleton_os_evthreadcan.o(.text._ZN5embot3app8skeleton2os11evthreadcan12SYSTEMevtcanD0Ev) for embot::app::skeleton::os::evthreadcan::SYSTEMevtcan::~SYSTEMevtcan__deallocating()
    embot_app_skeleton_os_evthreadcan.o(.rodata._ZTVN5embot3app8skeleton2os11evthreadcan12SYSTEMevtcanE) refers to embot_app_skeleton_os_evthreadcan.o(.text._ZNK5embot3app8skeleton2os11evthreadcan12SYSTEMevtcan11userdefInitEPv) for embot::app::skeleton::os::evthreadcan::SYSTEMevtcan::userdefInit(void*) const
    embot_app_skeleton_os_evthreadcan.o(.rodata._ZTVN5embot3app8skeleton2os11evthreadcan12SYSTEMevtcanE) refers to embot_app_skeleton_os_evthreadcan.o(.text._ZNK5embot3app8skeleton2os11evthreadcan12SYSTEMevtcan13userdefOnIdleEPNS_2os6ThreadEPv) for embot::app::skeleton::os::evthreadcan::SYSTEMevtcan::userdefOnIdle(embot::os::Thread*, void*) const
    embot_app_skeleton_os_evthreadcan.o(.rodata._ZTVN5embot3app8skeleton2os11evthreadcan12SYSTEMevtcanE) refers to embot_app_skeleton_os_evthreadcan.o(.text._ZNK5embot3app8skeleton2os11evthreadcan12SYSTEMevtcan16userdefonOSerrorEPv) for embot::app::skeleton::os::evthreadcan::SYSTEMevtcan::userdefonOSerror(void*) const
    embot_app_skeleton_os_evthreadcan.o(.rodata._ZTVN5embot3app8skeleton2os11evthreadcan12SYSTEMevtcanE) refers to embot_app_skeleton_os_evthreadcan.o(.text._ZNK5embot3app8skeleton2os11evthreadcan12SYSTEMevtcan17userdefInit_ExtraEPNS_2os11EventThreadEPv) for embot::app::skeleton::os::evthreadcan::SYSTEMevtcan::userdefInit_Extra(embot::os::EventThread*, void*) const
    embot_app_skeleton_os_evthreadcan.o(.init_array) refers to embot_app_skeleton_os_evthreadcan.o(.text._GLOBAL__sub_I_embot_app_skeleton_os_evthreadcan.cpp) for _GLOBAL__sub_I_embot_app_skeleton_os_evthreadcan.cpp
    embot_app_skeleton_os_basic.o(.text._ZN5embot3app8skeleton2os5basic6onidleEPNS_2os6ThreadEPv) refers to embot_app_skeleton_os_basic.o(.bss._ZN5embot3app8skeleton2os5basic6extCFGE) for embot::app::skeleton::os::basic::extCFG
    embot_app_skeleton_os_basic.o(.ARM.exidx.text._ZN5embot3app8skeleton2os5basic6onidleEPNS_2os6ThreadEPv) refers to embot_app_skeleton_os_basic.o(.text._ZN5embot3app8skeleton2os5basic6onidleEPNS_2os6ThreadEPv) for [Anonymous Symbol]
    embot_app_skeleton_os_basic.o(.text._ZN5embot3app8skeleton2os5basic7onerrorEPv) refers to embot_app_skeleton_os_basic.o(.bss._ZN5embot3app8skeleton2os5basic6extCFGE) for embot::app::skeleton::os::basic::extCFG
    embot_app_skeleton_os_basic.o(.ARM.exidx.text._ZN5embot3app8skeleton2os5basic7onerrorEPv) refers to embot_app_skeleton_os_basic.o(.text._ZN5embot3app8skeleton2os5basic7onerrorEPv) for [Anonymous Symbol]
    embot_app_skeleton_os_basic.o(.text.__cxx_global_var_init) refers to embot_hw_flash.o(.text._ZN5embot2hw5flash12getpartitionENS0_5FLASHE) for embot::hw::flash::getpartition(embot::hw::FLASH)
    embot_app_skeleton_os_basic.o(.text.__cxx_global_var_init) refers to embot_app_skeleton_os_basic.o(.bss._ZN5embot3app8skeleton2os5basicL7addressE) for embot::app::skeleton::os::basic::address
    embot_app_skeleton_os_basic.o(.ARM.exidx.text.__cxx_global_var_init) refers to embot_app_skeleton_os_basic.o(.text.__cxx_global_var_init) for [Anonymous Symbol]
    embot_app_skeleton_os_basic.o(.text._ZN5embot3app8skeleton2os5basic3runERKNS3_3CFGE) refers to embot_app_skeleton_os_basic.o(.text._ZNK5embot3app8skeleton2os5basic3CFG7isvalidEv) for embot::app::skeleton::os::basic::CFG::isvalid() const
    embot_app_skeleton_os_basic.o(.text._ZN5embot3app8skeleton2os5basic3runERKNS3_3CFGE) refers to embot_app_skeleton_os_basic.o(.bss._ZN5embot3app8skeleton2os5basic6extCFGE) for embot::app::skeleton::os::basic::extCFG
    embot_app_skeleton_os_basic.o(.text._ZN5embot3app8skeleton2os5basic3runERKNS3_3CFGE) refers to embot_app_skeleton_os_basic.o(.text._ZN5embot3app8skeleton2os5basic4initEPNS_2os6ThreadEPv) for embot::app::skeleton::os::basic::init(embot::os::Thread*, void*)
    embot_app_skeleton_os_basic.o(.text._ZN5embot3app8skeleton2os5basic3runERKNS3_3CFGE) refers to embot_app_skeleton_os_basic.o(.text._ZN5embot2os10InitThread6ConfigC2EtPFvPNS0_6ThreadEPvES5_) for embot::os::InitThread::Config::Config__sub_object(unsigned short, void (*)(embot::os::Thread*, void*), void*)
    embot_app_skeleton_os_basic.o(.text._ZN5embot3app8skeleton2os5basic3runERKNS3_3CFGE) refers to embot_app_skeleton_os_basic.o(.text._ZN5embot3app8skeleton2os5basic6onidleEPNS_2os6ThreadEPv) for embot::app::skeleton::os::basic::onidle(embot::os::Thread*, void*)
    embot_app_skeleton_os_basic.o(.text._ZN5embot3app8skeleton2os5basic3runERKNS3_3CFGE) refers to embot_app_skeleton_os_basic.o(.text._ZN5embot2os10IdleThread6ConfigC2EtPFvPNS0_6ThreadEPvES5_S7_) for embot::os::IdleThread::Config::Config__sub_object(unsigned short, void (*)(embot::os::Thread*, void*), void*, void (*)(embot::os::Thread*, void*))
    embot_app_skeleton_os_basic.o(.text._ZN5embot3app8skeleton2os5basic3runERKNS3_3CFGE) refers to embot_app_skeleton_os_basic.o(.text._ZN5embot3app8skeleton2os5basic7onerrorEPv) for embot::app::skeleton::os::basic::onerror(void*)
    embot_app_skeleton_os_basic.o(.text._ZN5embot3app8skeleton2os5basic3runERKNS3_3CFGE) refers to embot_app_skeleton_os_evthreadcan.o(.text._ZN5embot4core8CallbackC2EPFvPvES2_) for embot::core::Callback::Callback__sub_object(void (*)(void*), void*)
    embot_app_skeleton_os_basic.o(.text._ZN5embot3app8skeleton2os5basic3runERKNS3_3CFGE) refers to embot_app_skeleton_os_basic.o(.bss._ZN5embot3app8skeleton2os5basicL7addressE) for embot::app::skeleton::os::basic::address
    embot_app_skeleton_os_basic.o(.text._ZN5embot3app8skeleton2os5basic3runERKNS3_3CFGE) refers to embot_os.o(.text._ZN5embot2os12theScheduler9BehaviourC2ERKNS0_10InitThread6ConfigERKNS0_10IdleThread6ConfigERKNS_4core8CallbackE) for embot::os::theScheduler::Behaviour::Behaviour__sub_object(embot::os::InitThread::Config const&, embot::os::IdleThread::Config const&, embot::core::Callback const&)
    embot_app_skeleton_os_basic.o(.text._ZN5embot3app8skeleton2os5basic3runERKNS3_3CFGE) refers to embot_app_skeleton_os_basic.o(.text._ZN5embot3app14theApplication6ConfigC2EjbjRKNS_2os12theScheduler9BehaviourE) for embot::app::theApplication::Config::Config__sub_object(unsigned int, bool, unsigned int, embot::os::theScheduler::Behaviour const&)
    embot_app_skeleton_os_basic.o(.text._ZN5embot3app8skeleton2os5basic3runERKNS3_3CFGE) refers to embot_app_theapplication.o(.text._ZN5embot3app14theApplication11getInstanceEv) for embot::app::theApplication::getInstance()
    embot_app_skeleton_os_basic.o(.text._ZN5embot3app8skeleton2os5basic3runERKNS3_3CFGE) refers to embot_app_theapplication.o(.text._ZN5embot3app14theApplication7executeERKNS1_6ConfigE) for embot::app::theApplication::execute(embot::app::theApplication::Config const&)
    embot_app_skeleton_os_basic.o(.ARM.exidx.text._ZN5embot3app8skeleton2os5basic3runERKNS3_3CFGE) refers to embot_app_skeleton_os_basic.o(.text._ZN5embot3app8skeleton2os5basic3runERKNS3_3CFGE) for [Anonymous Symbol]
    embot_app_skeleton_os_basic.o(.text._ZN5embot3app8skeleton2os5basic4initEPNS_2os6ThreadEPv) refers to embot_app_skeleton_os_basic.o(.text._ZN5embot3app8skeleton2os5basic18start_sys_servicesEv) for embot::app::skeleton::os::basic::start_sys_services()
    embot_app_skeleton_os_basic.o(.text._ZN5embot3app8skeleton2os5basic4initEPNS_2os6ThreadEPv) refers to embot_app_skeleton_os_basic.o(.bss._ZN5embot3app8skeleton2os5basic6extCFGE) for embot::app::skeleton::os::basic::extCFG
    embot_app_skeleton_os_basic.o(.ARM.exidx.text._ZN5embot3app8skeleton2os5basic4initEPNS_2os6ThreadEPv) refers to embot_app_skeleton_os_basic.o(.text._ZN5embot3app8skeleton2os5basic4initEPNS_2os6ThreadEPv) for [Anonymous Symbol]
    embot_app_skeleton_os_basic.o(.text._ZN5embot3app8skeleton2os5basic18start_sys_servicesEv) refers to embot_app_skeleton_os_basic.o(.bss._ZN5embot3app8skeleton2os5basic6extCFGE) for embot::app::skeleton::os::basic::extCFG
    embot_app_skeleton_os_basic.o(.text._ZN5embot3app8skeleton2os5basic18start_sys_servicesEv) refers to embot_app_skeleton_os_basic.o(.text._ZNK5embot2os15theTimerManager6Config7isvalidEv) for embot::os::theTimerManager::Config::isvalid() const
    embot_app_skeleton_os_basic.o(.text._ZN5embot3app8skeleton2os5basic18start_sys_servicesEv) refers to embot_app_skeleton_os_basic.o(.text._ZNK5embot2os18theCallbackManager6Config7isvalidEv) for embot::os::theCallbackManager::Config::isvalid() const
    embot_app_skeleton_os_basic.o(.text._ZN5embot3app8skeleton2os5basic18start_sys_servicesEv) refers to embot_os_thetimermanager.o(.text._ZN5embot2os15theTimerManager11getInstanceEv) for embot::os::theTimerManager::getInstance()
    embot_app_skeleton_os_basic.o(.text._ZN5embot3app8skeleton2os5basic18start_sys_servicesEv) refers to embot_os_thetimermanager.o(.text._ZN5embot2os15theTimerManager5startERKNS1_6ConfigE) for embot::os::theTimerManager::start(embot::os::theTimerManager::Config const&)
    embot_app_skeleton_os_basic.o(.text._ZN5embot3app8skeleton2os5basic18start_sys_servicesEv) refers to embot_os_thecallbackmanager.o(.text._ZN5embot2os18theCallbackManager11getInstanceEv) for embot::os::theCallbackManager::getInstance()
    embot_app_skeleton_os_basic.o(.text._ZN5embot3app8skeleton2os5basic18start_sys_servicesEv) refers to embot_os_thecallbackmanager.o(.text._ZN5embot2os18theCallbackManager5startERKNS1_6ConfigE) for embot::os::theCallbackManager::start(embot::os::theCallbackManager::Config const&)
    embot_app_skeleton_os_basic.o(.ARM.exidx.text._ZN5embot3app8skeleton2os5basic18start_sys_servicesEv) refers to embot_app_skeleton_os_basic.o(.text._ZN5embot3app8skeleton2os5basic18start_sys_servicesEv) for [Anonymous Symbol]
    embot_app_skeleton_os_basic.o(.text._GLOBAL__sub_I_embot_app_skeleton_os_basic.cpp) refers to embot_app_skeleton_os_basic.o(.text.__cxx_global_var_init) for __cxx_global_var_init
    embot_app_skeleton_os_basic.o(.ARM.exidx.text._GLOBAL__sub_I_embot_app_skeleton_os_basic.cpp) refers to embot_app_skeleton_os_basic.o(.text._GLOBAL__sub_I_embot_app_skeleton_os_basic.cpp) for [Anonymous Symbol]
    embot_app_skeleton_os_basic.o(.init_array) refers to embot_app_skeleton_os_basic.o(.text._GLOBAL__sub_I_embot_app_skeleton_os_basic.cpp) for _GLOBAL__sub_I_embot_app_skeleton_os_basic.cpp
    embot_app_theapplication.o(.text._ZN5embot3app14theApplication11getInstanceEv) refers to embot_app_theapplication.o(.bss._ZGVZN5embot3app14theApplication11getInstanceEvE1p) for guard variable for embot::app::theApplication::getInstance()::p
    embot_app_theapplication.o(.text._ZN5embot3app14theApplication11getInstanceEv) refers to embot_app_theapplication.o(.bss._ZZN5embot3app14theApplication11getInstanceEvE1p) for embot::app::theApplication::getInstance()::p
    embot_app_theapplication.o(.text._ZN5embot3app14theApplication11getInstanceEv) refers to cxa_guard.cpp.o(.text.unlikely.__cxa_guard_acquire) for __cxa_guard_acquire
    embot_app_theapplication.o(.text._ZN5embot3app14theApplication11getInstanceEv) refers to embot_os_rtos.o(.text._Znwj) for operator new(unsigned int)
    embot_app_theapplication.o(.text._ZN5embot3app14theApplication11getInstanceEv) refers to embot_app_theapplication.o(.text._ZN5embot3app14theApplicationC2Ev) for embot::app::theApplication::theApplication__sub_object()
    embot_app_theapplication.o(.text._ZN5embot3app14theApplication11getInstanceEv) refers to cxa_guard.cpp.o(.text.unlikely.__cxa_guard_release) for __cxa_guard_release
    embot_app_theapplication.o(.ARM.exidx.text._ZN5embot3app14theApplication11getInstanceEv) refers to embot_app_theapplication.o(.text._ZN5embot3app14theApplication11getInstanceEv) for [Anonymous Symbol]
    embot_app_theapplication.o(.text._ZN5embot3app14theApplicationC2Ev) refers to embot_os_rtos.o(.text._Znwj) for operator new(unsigned int)
    embot_app_theapplication.o(.text._ZN5embot3app14theApplicationC2Ev) refers to rt_memclr_w.o(.text) for __aeabi_memclr8
    embot_app_theapplication.o(.text._ZN5embot3app14theApplicationC2Ev) refers to embot_app_theapplication.o(.text._ZN5embot3app14theApplication4ImplC2Ev) for embot::app::theApplication::Impl::Impl__sub_object()
    embot_app_theapplication.o(.text._ZN5embot3app14theApplicationC2Ev) refers to embot_os_rtos.o(.text._ZdlPv) for operator delete(void*)
    embot_app_theapplication.o(.ARM.exidx.text._ZN5embot3app14theApplicationC2Ev) refers to embot_app_theapplication.o(.text._ZN5embot3app14theApplicationC2Ev) for [Anonymous Symbol]
    embot_app_theapplication.o(.text._ZN5embot3app14theApplicationD2Ev) refers to embot_os_rtos.o(.text._ZdlPv) for operator delete(void*)
    embot_app_theapplication.o(.ARM.exidx.text._ZN5embot3app14theApplicationD2Ev) refers to embot_app_theapplication.o(.text._ZN5embot3app14theApplicationD2Ev) for [Anonymous Symbol]
    embot_app_theapplication.o(.text._ZN5embot3app14theApplication7executeERKNS1_6ConfigE) refers to embot_app_theapplication.o(.text._ZNK5embot3app14theApplication6Config7isvalidEv) for embot::app::theApplication::Config::isvalid() const
    embot_app_theapplication.o(.text._ZN5embot3app14theApplication7executeERKNS1_6ConfigE) refers to embot_hw_flash.o(.text._ZN5embot2hw5flash12getpartitionENS0_5FLASHE) for embot::hw::flash::getpartition(embot::hw::FLASH)
    embot_app_theapplication.o(.text._ZN5embot3app14theApplication7executeERKNS1_6ConfigE) refers to embot_hw_sys.o(.text._ZN5embot2hw3sys19relocatevectortableEj) for embot::hw::sys::relocatevectortable(unsigned int)
    embot_app_theapplication.o(.text._ZN5embot3app14theApplication7executeERKNS1_6ConfigE) refers to rt_memclr_w.o(.text) for __aeabi_memclr8
    embot_app_theapplication.o(.text._ZN5embot3app14theApplication7executeERKNS1_6ConfigE) refers to embot_app_theapplication.o(.text._ZN5embot2os6ConfigC2Ev) for embot::os::Config::Config__sub_object()
    embot_app_theapplication.o(.text._ZN5embot3app14theApplication7executeERKNS1_6ConfigE) refers to embot_os.o(.text._ZN5embot2os4initERKNS0_6ConfigE) for embot::os::init(embot::os::Config const&)
    embot_app_theapplication.o(.text._ZN5embot3app14theApplication7executeERKNS1_6ConfigE) refers to embot_os.o(.text._ZN5embot2os12theScheduler6TimingC2Ej) for embot::os::theScheduler::Timing::Timing__sub_object(unsigned int)
    embot_app_theapplication.o(.text._ZN5embot3app14theApplication7executeERKNS1_6ConfigE) refers to embot_os.o(.text._ZN5embot2os12theScheduler6ConfigC2ERKNS1_6TimingERKNS1_9BehaviourE) for embot::os::theScheduler::Config::Config__sub_object(embot::os::theScheduler::Timing const&, embot::os::theScheduler::Behaviour const&)
    embot_app_theapplication.o(.text._ZN5embot3app14theApplication7executeERKNS1_6ConfigE) refers to embot_os_thescheduler.o(.text._ZN5embot2os12theScheduler11getInstanceEv) for embot::os::theScheduler::getInstance()
    embot_app_theapplication.o(.text._ZN5embot3app14theApplication7executeERKNS1_6ConfigE) refers to embot_os_thescheduler.o(.text._ZN5embot2os12theScheduler5startERKNS1_6ConfigE) for embot::os::theScheduler::start(embot::os::theScheduler::Config const&)
    embot_app_theapplication.o(.ARM.exidx.text._ZN5embot3app14theApplication7executeERKNS1_6ConfigE) refers to embot_app_theapplication.o(.text._ZN5embot3app14theApplication7executeERKNS1_6ConfigE) for [Anonymous Symbol]
    embot_app_thecanboardinfo.o(.text._ZN5embot3app15theCANboardInfo11getInstanceEv) refers to embot_app_thecanboardinfo.o(.bss._ZGVZN5embot3app15theCANboardInfo11getInstanceEvE1p) for guard variable for embot::app::theCANboardInfo::getInstance()::p
    embot_app_thecanboardinfo.o(.text._ZN5embot3app15theCANboardInfo11getInstanceEv) refers to embot_app_thecanboardinfo.o(.bss._ZZN5embot3app15theCANboardInfo11getInstanceEvE1p) for embot::app::theCANboardInfo::getInstance()::p
    embot_app_thecanboardinfo.o(.text._ZN5embot3app15theCANboardInfo11getInstanceEv) refers to cxa_guard.cpp.o(.text.unlikely.__cxa_guard_acquire) for __cxa_guard_acquire
    embot_app_thecanboardinfo.o(.text._ZN5embot3app15theCANboardInfo11getInstanceEv) refers to embot_os_rtos.o(.text._Znwj) for operator new(unsigned int)
    embot_app_thecanboardinfo.o(.text._ZN5embot3app15theCANboardInfo11getInstanceEv) refers to embot_app_thecanboardinfo.o(.text._ZN5embot3app15theCANboardInfoC2Ev) for embot::app::theCANboardInfo::theCANboardInfo__sub_object()
    embot_app_thecanboardinfo.o(.text._ZN5embot3app15theCANboardInfo11getInstanceEv) refers to cxa_guard.cpp.o(.text.unlikely.__cxa_guard_release) for __cxa_guard_release
    embot_app_thecanboardinfo.o(.ARM.exidx.text._ZN5embot3app15theCANboardInfo11getInstanceEv) refers to embot_app_thecanboardinfo.o(.text._ZN5embot3app15theCANboardInfo11getInstanceEv) for [Anonymous Symbol]
    embot_app_thecanboardinfo.o(.text._ZN5embot3app15theCANboardInfoC2Ev) refers to embot_os_rtos.o(.text._Znwj) for operator new(unsigned int)
    embot_app_thecanboardinfo.o(.text._ZN5embot3app15theCANboardInfoC2Ev) refers to embot_app_thecanboardinfo.o(.text._ZN5embot3app15theCANboardInfo4ImplC2Ev) for embot::app::theCANboardInfo::Impl::Impl__sub_object()
    embot_app_thecanboardinfo.o(.text._ZN5embot3app15theCANboardInfoC2Ev) refers to embot_os_rtos.o(.text._ZdlPv) for operator delete(void*)
    embot_app_thecanboardinfo.o(.ARM.exidx.text._ZN5embot3app15theCANboardInfoC2Ev) refers to embot_app_thecanboardinfo.o(.text._ZN5embot3app15theCANboardInfoC2Ev) for [Anonymous Symbol]
    embot_app_thecanboardinfo.o(.text._ZN5embot3app15theCANboardInfoD2Ev) refers to embot_os_rtos.o(.text._ZdlPv) for operator delete(void*)
    embot_app_thecanboardinfo.o(.ARM.exidx.text._ZN5embot3app15theCANboardInfoD2Ev) refers to embot_app_thecanboardinfo.o(.text._ZN5embot3app15theCANboardInfoD2Ev) for [Anonymous Symbol]
    embot_app_thecanboardinfo.o(.ARM.exidx.text._ZN5embot3app15theCANboardInfo5eraseEv) refers to embot_app_thecanboardinfo.o(.text._ZN5embot3app15theCANboardInfo5eraseEv) for [Anonymous Symbol]
    embot_app_thecanboardinfo.o(.text._ZN5embot3app15theCANboardInfo5synchERKNS1_14bootloaderInfoE) refers to embot_app_thecanboardinfo.o(.text._ZN5embot3app15theCANboardInfo5synchENS_4prot3can5BoardENS3_19versionOfBOOTLOADEREhPKc) for embot::app::theCANboardInfo::synch(embot::prot::can::Board, embot::prot::can::versionOfBOOTLOADER, unsigned char, char const*)
    embot_app_thecanboardinfo.o(.ARM.exidx.text._ZN5embot3app15theCANboardInfo5synchERKNS1_14bootloaderInfoE) refers to embot_app_thecanboardinfo.o(.text._ZN5embot3app15theCANboardInfo5synchERKNS1_14bootloaderInfoE) for [Anonymous Symbol]
    embot_app_thecanboardinfo.o(.text._ZN5embot3app15theCANboardInfo5synchENS_4prot3can5BoardENS3_19versionOfBOOTLOADEREhPKc) refers to rt_memclr_w.o(.text) for __aeabi_memclr4
    embot_app_thecanboardinfo.o(.text._ZN5embot3app15theCANboardInfo5synchENS_4prot3can5BoardENS3_19versionOfBOOTLOADEREhPKc) refers to embot_app_thecanboardinfo.o(.text._ZN5embot3app15theCANboardInfo3getERNS1_10StoredInfoE) for embot::app::theCANboardInfo::get(embot::app::theCANboardInfo::StoredInfo&)
    embot_app_thecanboardinfo.o(.text._ZN5embot3app15theCANboardInfo5synchENS_4prot3can5BoardENS3_19versionOfBOOTLOADEREhPKc) refers to rt_memcpy_v6.o(.text) for __aeabi_memcpy
    embot_app_thecanboardinfo.o(.text._ZN5embot3app15theCANboardInfo5synchENS_4prot3can5BoardENS3_19versionOfBOOTLOADEREhPKc) refers to embot_app_thecanboardinfo.o(.text._ZN5embot3app15theCANboardInfo3setERKNS1_10StoredInfoE) for embot::app::theCANboardInfo::set(embot::app::theCANboardInfo::StoredInfo const&)
    embot_app_thecanboardinfo.o(.ARM.exidx.text._ZN5embot3app15theCANboardInfo5synchENS_4prot3can5BoardENS3_19versionOfBOOTLOADEREhPKc) refers to embot_app_thecanboardinfo.o(.text._ZN5embot3app15theCANboardInfo5synchENS_4prot3can5BoardENS3_19versionOfBOOTLOADEREhPKc) for [Anonymous Symbol]
    embot_app_thecanboardinfo.o(.ARM.exidx.text._ZN5embot3app15theCANboardInfo3getERNS1_10StoredInfoE) refers to embot_app_thecanboardinfo.o(.text._ZN5embot3app15theCANboardInfo3getERNS1_10StoredInfoE) for [Anonymous Symbol]
    embot_app_thecanboardinfo.o(.ARM.exidx.text._ZN5embot3app15theCANboardInfo3setERKNS1_10StoredInfoE) refers to embot_app_thecanboardinfo.o(.text._ZN5embot3app15theCANboardInfo3setERKNS1_10StoredInfoE) for [Anonymous Symbol]
    embot_app_thecanboardinfo.o(.text._ZN5embot3app15theCANboardInfo5synchERKNS1_15applicationInfoE) refers to embot_app_thecanboardinfo.o(.text._ZN5embot3app15theCANboardInfo5synchENS_4prot3can20versionOfAPPLICATIONENS3_20versionOfCANPROTOCOLE) for embot::app::theCANboardInfo::synch(embot::prot::can::versionOfAPPLICATION, embot::prot::can::versionOfCANPROTOCOL)
    embot_app_thecanboardinfo.o(.ARM.exidx.text._ZN5embot3app15theCANboardInfo5synchERKNS1_15applicationInfoE) refers to embot_app_thecanboardinfo.o(.text._ZN5embot3app15theCANboardInfo5synchERKNS1_15applicationInfoE) for [Anonymous Symbol]
    embot_app_thecanboardinfo.o(.text._ZN5embot3app15theCANboardInfo5synchENS_4prot3can20versionOfAPPLICATIONENS3_20versionOfCANPROTOCOLE) refers to rt_memclr_w.o(.text) for __aeabi_memclr4
    embot_app_thecanboardinfo.o(.text._ZN5embot3app15theCANboardInfo5synchENS_4prot3can20versionOfAPPLICATIONENS3_20versionOfCANPROTOCOLE) refers to embot_app_thecanboardinfo.o(.text._ZN5embot3app15theCANboardInfo3getERNS1_10StoredInfoE) for embot::app::theCANboardInfo::get(embot::app::theCANboardInfo::StoredInfo&)
    embot_app_thecanboardinfo.o(.text._ZN5embot3app15theCANboardInfo5synchENS_4prot3can20versionOfAPPLICATIONENS3_20versionOfCANPROTOCOLE) refers to embot_app_thecanboardinfo.o(.text._ZN5embot3app15theCANboardInfo3setERKNS1_10StoredInfoE) for embot::app::theCANboardInfo::set(embot::app::theCANboardInfo::StoredInfo const&)
    embot_app_thecanboardinfo.o(.ARM.exidx.text._ZN5embot3app15theCANboardInfo5synchENS_4prot3can20versionOfAPPLICATIONENS3_20versionOfCANPROTOCOLE) refers to embot_app_thecanboardinfo.o(.text._ZN5embot3app15theCANboardInfo5synchENS_4prot3can20versionOfAPPLICATIONENS3_20versionOfCANPROTOCOLE) for [Anonymous Symbol]
    embot_app_thecanboardinfo.o(.text._ZN5embot3app15theCANboardInfo13getCANaddressEv) refers to rt_memclr_w.o(.text) for __aeabi_memclr4
    embot_app_thecanboardinfo.o(.text._ZN5embot3app15theCANboardInfo13getCANaddressEv) refers to embot_app_thecanboardinfo.o(.text._ZN5embot3app15theCANboardInfo3getERNS1_10StoredInfoE) for embot::app::theCANboardInfo::get(embot::app::theCANboardInfo::StoredInfo&)
    embot_app_thecanboardinfo.o(.ARM.exidx.text._ZN5embot3app15theCANboardInfo13getCANaddressEv) refers to embot_app_thecanboardinfo.o(.text._ZN5embot3app15theCANboardInfo13getCANaddressEv) for [Anonymous Symbol]
    embot_app_thecanboardinfo.o(.text._ZN5embot3app15theCANboardInfo16cachedCANaddressEv) refers to embot_app_thecanboardinfo.o(.text._ZN5embot3app15theCANboardInfo13getCANaddressEv) for embot::app::theCANboardInfo::getCANaddress()
    embot_app_thecanboardinfo.o(.ARM.exidx.text._ZN5embot3app15theCANboardInfo16cachedCANaddressEv) refers to embot_app_thecanboardinfo.o(.text._ZN5embot3app15theCANboardInfo16cachedCANaddressEv) for [Anonymous Symbol]
    embot_app_thecanboardinfo.o(.text._ZN5embot3app15theCANboardInfo13setCANaddressEh) refers to rt_memclr_w.o(.text) for __aeabi_memclr4
    embot_app_thecanboardinfo.o(.text._ZN5embot3app15theCANboardInfo13setCANaddressEh) refers to embot_app_thecanboardinfo.o(.text._ZN5embot3app15theCANboardInfo3getERNS1_10StoredInfoE) for embot::app::theCANboardInfo::get(embot::app::theCANboardInfo::StoredInfo&)
    embot_app_thecanboardinfo.o(.text._ZN5embot3app15theCANboardInfo13setCANaddressEh) refers to embot_app_thecanboardinfo.o(.text._ZN5embot3app15theCANboardInfo3setERKNS1_10StoredInfoE) for embot::app::theCANboardInfo::set(embot::app::theCANboardInfo::StoredInfo const&)
    embot_app_thecanboardinfo.o(.ARM.exidx.text._ZN5embot3app15theCANboardInfo13setCANaddressEh) refers to embot_app_thecanboardinfo.o(.text._ZN5embot3app15theCANboardInfo13setCANaddressEh) for [Anonymous Symbol]
    embot_app_thecanboardinfo.o(.ARM.exidx.text._ZN5embot3app15theCANboardInfo13userdatawriteEjjPKv) refers to embot_app_thecanboardinfo.o(.text._ZN5embot3app15theCANboardInfo13userdatawriteEjjPKv) for [Anonymous Symbol]
    embot_app_thecanboardinfo.o(.ARM.exidx.text._ZN5embot3app15theCANboardInfo12userdatareadEjjPv) refers to embot_app_thecanboardinfo.o(.text._ZN5embot3app15theCANboardInfo12userdatareadEjjPv) for [Anonymous Symbol]
    embot_app_thecanboardinfo.o(.ARM.exidx.text._ZN5embot3app15theCANboardInfo13userdataeraseEv) refers to embot_app_thecanboardinfo.o(.text._ZN5embot3app15theCANboardInfo13userdataeraseEv) for [Anonymous Symbol]
    embot_app_application_thecantracer.o(.text) refers (Special) to _printf_d.o(.ARM.Collect$$_printf_percent$$00000009) for _printf_d
    embot_app_application_thecantracer.o(.text) refers (Special) to _printf_dec.o(.text) for _printf_int_dec
    embot_app_application_thecantracer.o(.text) refers (Special) to _printf_percent.o(.ARM.Collect$$_printf_percent$$00000000) for _printf_percent
    embot_app_application_thecantracer.o(.text) refers (Special) to _printf_s.o(.ARM.Collect$$_printf_percent$$00000014) for _printf_s
    embot_app_application_thecantracer.o(.text) refers (Special) to _printf_str.o(.text) for _printf_str
    embot_app_application_thecantracer.o(.text._ZN5embot3app12theCANtracer11getInstanceEv) refers (Special) to _printf_d.o(.ARM.Collect$$_printf_percent$$00000009) for _printf_d
    embot_app_application_thecantracer.o(.text._ZN5embot3app12theCANtracer11getInstanceEv) refers (Special) to _printf_dec.o(.text) for _printf_int_dec
    embot_app_application_thecantracer.o(.text._ZN5embot3app12theCANtracer11getInstanceEv) refers (Special) to _printf_percent.o(.ARM.Collect$$_printf_percent$$00000000) for _printf_percent
    embot_app_application_thecantracer.o(.text._ZN5embot3app12theCANtracer11getInstanceEv) refers (Special) to _printf_s.o(.ARM.Collect$$_printf_percent$$00000014) for _printf_s
    embot_app_application_thecantracer.o(.text._ZN5embot3app12theCANtracer11getInstanceEv) refers (Special) to _printf_str.o(.text) for _printf_str
    embot_app_application_thecantracer.o(.text._ZN5embot3app12theCANtracer11getInstanceEv) refers to embot_app_application_thecantracer.o(.bss._ZGVZN5embot3app12theCANtracer11getInstanceEvE1p) for guard variable for embot::app::theCANtracer::getInstance()::p
    embot_app_application_thecantracer.o(.text._ZN5embot3app12theCANtracer11getInstanceEv) refers to embot_app_application_thecantracer.o(.bss._ZZN5embot3app12theCANtracer11getInstanceEvE1p) for embot::app::theCANtracer::getInstance()::p
    embot_app_application_thecantracer.o(.text._ZN5embot3app12theCANtracer11getInstanceEv) refers to cxa_guard.cpp.o(.text.unlikely.__cxa_guard_acquire) for __cxa_guard_acquire
    embot_app_application_thecantracer.o(.text._ZN5embot3app12theCANtracer11getInstanceEv) refers to embot_os_rtos.o(.text._Znwj) for operator new(unsigned int)
    embot_app_application_thecantracer.o(.text._ZN5embot3app12theCANtracer11getInstanceEv) refers to embot_app_application_thecantracer.o(.text._ZN5embot3app12theCANtracerC2Ev) for embot::app::theCANtracer::theCANtracer__sub_object()
    embot_app_application_thecantracer.o(.text._ZN5embot3app12theCANtracer11getInstanceEv) refers to cxa_guard.cpp.o(.text.unlikely.__cxa_guard_release) for __cxa_guard_release
    embot_app_application_thecantracer.o(.ARM.exidx.text._ZN5embot3app12theCANtracer11getInstanceEv) refers (Special) to _printf_d.o(.ARM.Collect$$_printf_percent$$00000009) for _printf_d
    embot_app_application_thecantracer.o(.ARM.exidx.text._ZN5embot3app12theCANtracer11getInstanceEv) refers (Special) to _printf_dec.o(.text) for _printf_int_dec
    embot_app_application_thecantracer.o(.ARM.exidx.text._ZN5embot3app12theCANtracer11getInstanceEv) refers (Special) to _printf_percent.o(.ARM.Collect$$_printf_percent$$00000000) for _printf_percent
    embot_app_application_thecantracer.o(.ARM.exidx.text._ZN5embot3app12theCANtracer11getInstanceEv) refers (Special) to _printf_s.o(.ARM.Collect$$_printf_percent$$00000014) for _printf_s
    embot_app_application_thecantracer.o(.ARM.exidx.text._ZN5embot3app12theCANtracer11getInstanceEv) refers (Special) to _printf_str.o(.text) for _printf_str
    embot_app_application_thecantracer.o(.ARM.exidx.text._ZN5embot3app12theCANtracer11getInstanceEv) refers to embot_app_application_thecantracer.o(.text._ZN5embot3app12theCANtracer11getInstanceEv) for [Anonymous Symbol]
    embot_app_application_thecantracer.o(.text._ZN5embot3app12theCANtracerC2Ev) refers (Special) to _printf_d.o(.ARM.Collect$$_printf_percent$$00000009) for _printf_d
    embot_app_application_thecantracer.o(.text._ZN5embot3app12theCANtracerC2Ev) refers (Special) to _printf_dec.o(.text) for _printf_int_dec
    embot_app_application_thecantracer.o(.text._ZN5embot3app12theCANtracerC2Ev) refers (Special) to _printf_percent.o(.ARM.Collect$$_printf_percent$$00000000) for _printf_percent
    embot_app_application_thecantracer.o(.text._ZN5embot3app12theCANtracerC2Ev) refers (Special) to _printf_s.o(.ARM.Collect$$_printf_percent$$00000014) for _printf_s
    embot_app_application_thecantracer.o(.text._ZN5embot3app12theCANtracerC2Ev) refers (Special) to _printf_str.o(.text) for _printf_str
    embot_app_application_thecantracer.o(.text._ZN5embot3app12theCANtracerC2Ev) refers to embot_os_rtos.o(.text._Znwj) for operator new(unsigned int)
    embot_app_application_thecantracer.o(.text._ZN5embot3app12theCANtracerC2Ev) refers to embot_app_application_thecantracer.o(.text._ZN5embot3app12theCANtracer4ImplC2Ev) for embot::app::theCANtracer::Impl::Impl__sub_object()
    embot_app_application_thecantracer.o(.text._ZN5embot3app12theCANtracerC2Ev) refers to embot_os_rtos.o(.text._ZdlPv) for operator delete(void*)
    embot_app_application_thecantracer.o(.ARM.exidx.text._ZN5embot3app12theCANtracerC2Ev) refers (Special) to _printf_d.o(.ARM.Collect$$_printf_percent$$00000009) for _printf_d
    embot_app_application_thecantracer.o(.ARM.exidx.text._ZN5embot3app12theCANtracerC2Ev) refers (Special) to _printf_dec.o(.text) for _printf_int_dec
    embot_app_application_thecantracer.o(.ARM.exidx.text._ZN5embot3app12theCANtracerC2Ev) refers (Special) to _printf_percent.o(.ARM.Collect$$_printf_percent$$00000000) for _printf_percent
    embot_app_application_thecantracer.o(.ARM.exidx.text._ZN5embot3app12theCANtracerC2Ev) refers (Special) to _printf_s.o(.ARM.Collect$$_printf_percent$$00000014) for _printf_s
    embot_app_application_thecantracer.o(.ARM.exidx.text._ZN5embot3app12theCANtracerC2Ev) refers (Special) to _printf_str.o(.text) for _printf_str
    embot_app_application_thecantracer.o(.ARM.exidx.text._ZN5embot3app12theCANtracerC2Ev) refers to embot_app_application_thecantracer.o(.text._ZN5embot3app12theCANtracerC2Ev) for [Anonymous Symbol]
    embot_app_application_thecantracer.o(.text._ZN5embot3app12theCANtracerD2Ev) refers (Special) to _printf_d.o(.ARM.Collect$$_printf_percent$$00000009) for _printf_d
    embot_app_application_thecantracer.o(.text._ZN5embot3app12theCANtracerD2Ev) refers (Special) to _printf_dec.o(.text) for _printf_int_dec
    embot_app_application_thecantracer.o(.text._ZN5embot3app12theCANtracerD2Ev) refers (Special) to _printf_percent.o(.ARM.Collect$$_printf_percent$$00000000) for _printf_percent
    embot_app_application_thecantracer.o(.text._ZN5embot3app12theCANtracerD2Ev) refers (Special) to _printf_s.o(.ARM.Collect$$_printf_percent$$00000014) for _printf_s
    embot_app_application_thecantracer.o(.text._ZN5embot3app12theCANtracerD2Ev) refers (Special) to _printf_str.o(.text) for _printf_str
    embot_app_application_thecantracer.o(.text._ZN5embot3app12theCANtracerD2Ev) refers to embot_os_rtos.o(.text._ZdlPv) for operator delete(void*)
    embot_app_application_thecantracer.o(.ARM.exidx.text._ZN5embot3app12theCANtracerD2Ev) refers (Special) to _printf_d.o(.ARM.Collect$$_printf_percent$$00000009) for _printf_d
    embot_app_application_thecantracer.o(.ARM.exidx.text._ZN5embot3app12theCANtracerD2Ev) refers (Special) to _printf_dec.o(.text) for _printf_int_dec
    embot_app_application_thecantracer.o(.ARM.exidx.text._ZN5embot3app12theCANtracerD2Ev) refers (Special) to _printf_percent.o(.ARM.Collect$$_printf_percent$$00000000) for _printf_percent
    embot_app_application_thecantracer.o(.ARM.exidx.text._ZN5embot3app12theCANtracerD2Ev) refers (Special) to _printf_s.o(.ARM.Collect$$_printf_percent$$00000014) for _printf_s
    embot_app_application_thecantracer.o(.ARM.exidx.text._ZN5embot3app12theCANtracerD2Ev) refers (Special) to _printf_str.o(.text) for _printf_str
    embot_app_application_thecantracer.o(.ARM.exidx.text._ZN5embot3app12theCANtracerD2Ev) refers to embot_app_application_thecantracer.o(.text._ZN5embot3app12theCANtracerD2Ev) for [Anonymous Symbol]
    embot_app_application_thecantracer.o(.text._ZN5embot3app12theCANtracer10initialiseERKNS1_6ConfigE) refers (Special) to _printf_d.o(.ARM.Collect$$_printf_percent$$00000009) for _printf_d
    embot_app_application_thecantracer.o(.text._ZN5embot3app12theCANtracer10initialiseERKNS1_6ConfigE) refers (Special) to _printf_dec.o(.text) for _printf_int_dec
    embot_app_application_thecantracer.o(.text._ZN5embot3app12theCANtracer10initialiseERKNS1_6ConfigE) refers (Special) to _printf_percent.o(.ARM.Collect$$_printf_percent$$00000000) for _printf_percent
    embot_app_application_thecantracer.o(.text._ZN5embot3app12theCANtracer10initialiseERKNS1_6ConfigE) refers (Special) to _printf_s.o(.ARM.Collect$$_printf_percent$$00000014) for _printf_s
    embot_app_application_thecantracer.o(.text._ZN5embot3app12theCANtracer10initialiseERKNS1_6ConfigE) refers (Special) to _printf_str.o(.text) for _printf_str
    embot_app_application_thecantracer.o(.ARM.exidx.text._ZN5embot3app12theCANtracer10initialiseERKNS1_6ConfigE) refers (Special) to _printf_d.o(.ARM.Collect$$_printf_percent$$00000009) for _printf_d
    embot_app_application_thecantracer.o(.ARM.exidx.text._ZN5embot3app12theCANtracer10initialiseERKNS1_6ConfigE) refers (Special) to _printf_dec.o(.text) for _printf_int_dec
    embot_app_application_thecantracer.o(.ARM.exidx.text._ZN5embot3app12theCANtracer10initialiseERKNS1_6ConfigE) refers (Special) to _printf_percent.o(.ARM.Collect$$_printf_percent$$00000000) for _printf_percent
    embot_app_application_thecantracer.o(.ARM.exidx.text._ZN5embot3app12theCANtracer10initialiseERKNS1_6ConfigE) refers (Special) to _printf_s.o(.ARM.Collect$$_printf_percent$$00000014) for _printf_s
    embot_app_application_thecantracer.o(.ARM.exidx.text._ZN5embot3app12theCANtracer10initialiseERKNS1_6ConfigE) refers (Special) to _printf_str.o(.text) for _printf_str
    embot_app_application_thecantracer.o(.ARM.exidx.text._ZN5embot3app12theCANtracer10initialiseERKNS1_6ConfigE) refers to embot_app_application_thecantracer.o(.text._ZN5embot3app12theCANtracer10initialiseERKNS1_6ConfigE) for [Anonymous Symbol]
    embot_app_application_thecantracer.o(.text._ZN5embot3app12theCANtracer5startEv) refers (Special) to _printf_d.o(.ARM.Collect$$_printf_percent$$00000009) for _printf_d
    embot_app_application_thecantracer.o(.text._ZN5embot3app12theCANtracer5startEv) refers (Special) to _printf_dec.o(.text) for _printf_int_dec
    embot_app_application_thecantracer.o(.text._ZN5embot3app12theCANtracer5startEv) refers (Special) to _printf_percent.o(.ARM.Collect$$_printf_percent$$00000000) for _printf_percent
    embot_app_application_thecantracer.o(.text._ZN5embot3app12theCANtracer5startEv) refers (Special) to _printf_s.o(.ARM.Collect$$_printf_percent$$00000014) for _printf_s
    embot_app_application_thecantracer.o(.text._ZN5embot3app12theCANtracer5startEv) refers (Special) to _printf_str.o(.text) for _printf_str
    embot_app_application_thecantracer.o(.text._ZN5embot3app12theCANtracer5startEv) refers to embot_core.o(.text._ZN5embot4core3nowEv) for embot::core::now()
    embot_app_application_thecantracer.o(.ARM.exidx.text._ZN5embot3app12theCANtracer5startEv) refers (Special) to _printf_d.o(.ARM.Collect$$_printf_percent$$00000009) for _printf_d
    embot_app_application_thecantracer.o(.ARM.exidx.text._ZN5embot3app12theCANtracer5startEv) refers (Special) to _printf_dec.o(.text) for _printf_int_dec
