	.text
	.syntax unified
	.eabi_attribute	67, "2.09"	@ Tag_conformance
	.cpu	cortex-m4
	.eabi_attribute	6, 13	@ Tag_CPU_arch
	.eabi_attribute	7, 77	@ Tag_CPU_arch_profile
	.eabi_attribute	8, 0	@ Tag_ARM_ISA_use
	.eabi_attribute	9, 2	@ Tag_THUMB_ISA_use
	.fpu	fpv4-sp-d16
	.eabi_attribute	27, 1	@ Tag_ABI_HardFP_use
	.eabi_attribute	36, 1	@ Tag_FP_HP_extension
	.eabi_attribute	34, 1	@ Tag_CPU_unaligned_access
	.eabi_attribute	17, 1	@ Tag_ABI_PCS_GOT_use
	.eabi_attribute	20, 2	@ Tag_ABI_FP_denormal
	.eabi_attribute	21, 0	@ Tag_ABI_FP_exceptions
	.eabi_attribute	23, 1	@ Tag_ABI_FP_number_model
	.eabi_attribute	24, 1	@ Tag_ABI_align_needed
	.eabi_attribute	25, 1	@ Tag_ABI_align_preserved
	.eabi_attribute	28, 1	@ Tag_ABI_VFP_args
	.eabi_attribute	38, 1	@ Tag_ABI_FP_16bit_format
	.eabi_attribute	18, 2	@ Tag_ABI_PCS_wchar_t
	.eabi_attribute	26, 1	@ Tag_ABI_enum_size
	.eabi_attribute	14, 0	@ Tag_ABI_PCS_R9_use
	.file	"adc.c"
	.file	1 "C:\\" "Keil_v5\\ARM\\ARMCLANG\\Bin\\..\\include\\stdint.h"
	.file	2 "C:\\Users\\grodriguez\\Documents\\iit\\icub-firmware\\emBODY\\eBcode\\arch-arm\\libs\\lowlevel\\stm32hal\\proj" "../src/driver/stm32g4-v120/inc/stm32g474xx.h"
	.file	3 "C:\\Users\\grodriguez\\Documents\\iit\\icub-firmware\\emBODY\\eBcode\\arch-arm\\libs\\lowlevel\\stm32hal\\proj" "../api\\../src/driver/stm32g4-v120/inc/stm32g4xx_hal_adc.h"
	.file	4 "C:\\Users\\grodriguez\\Documents\\iit\\icub-firmware\\emBODY\\eBcode\\arch-arm\\libs\\lowlevel\\stm32hal\\proj" "../src/driver/stm32g4-v120/inc/stm32g4xx.h"
	.file	5 "C:\\Users\\grodriguez\\Documents\\iit\\icub-firmware\\emBODY\\eBcode\\arch-arm\\libs\\lowlevel\\stm32hal\\proj" "../api\\../src/driver/stm32g4-v120/inc/stm32g4xx_hal_dma.h"
	.file	6 "C:\\Users\\grodriguez\\Documents\\iit\\icub-firmware\\emBODY\\eBcode\\arch-arm\\libs\\lowlevel\\stm32hal\\proj" "../src/driver/stm32g4-v120/inc/stm32g4xx_hal_def.h"
	.file	7 "C:\\Users\\grodriguez\\Documents\\iit\\icub-firmware\\emBODY\\eBcode\\arch-arm\\libs\\lowlevel\\stm32hal\\proj" "../src/board/amcbldc/v120/src/adc.c"
	.section	.text.MX_ADC1_Init,"ax",%progbits
	.hidden	MX_ADC1_Init                    @ -- Begin function MX_ADC1_Init
	.globl	MX_ADC1_Init
	.p2align	1
	.type	MX_ADC1_Init,%function
	.code	16                              @ @MX_ADC1_Init
	.thumb_func
MX_ADC1_Init:
.Lfunc_begin0:
	.loc	7 34 0                          @ ../src/board/amcbldc/v120/src/adc.c:34:0
	.fnstart
	.cfi_sections .debug_frame
	.cfi_startproc
@ %bb.0:
	.save	{r4, lr}
	push	{r4, lr}
	.cfi_def_cfa_offset 8
	.cfi_offset lr, -4
	.cfi_offset r4, -8
	.pad	#48
	sub	sp, #48
	.cfi_def_cfa_offset 56
	movs	r4, #0
	add	r0, sp, #4
.Ltmp0:
	.loc	7 36 26 prologue_end            @ ../src/board/amcbldc/v120/src/adc.c:36:26
	movs	r1, #32
	.loc	7 35 24                         @ ../src/board/amcbldc/v120/src/adc.c:35:24
	str	r4, [sp, #44]
	strd	r4, r4, [sp, #36]
	.loc	7 36 26                         @ ../src/board/amcbldc/v120/src/adc.c:36:26
	bl	__aeabi_memclr4
.Ltmp1:
	.loc	7 40 18                         @ ../src/board/amcbldc/v120/src/adc.c:40:18
	movw	r0, :lower16:hadc1
	movt	r0, :upper16:hadc1
	mov.w	r1, #1342177280
	mov.w	r2, #196608
	stm.w	r0, {r1, r2, r4}
	movs	r1, #14
	movs	r3, #1
	mov.w	r12, #4
	.loc	7 49 30                         @ ../src/board/amcbldc/v120/src/adc.c:49:30
	str	r1, [r0, #32]
	movs	r1, #2
	.loc	7 51 34                         @ ../src/board/amcbldc/v120/src/adc.c:51:34
	add.w	lr, r0, #40
	.loc	7 45 27                         @ ../src/board/amcbldc/v120/src/adc.c:45:27
	strd	r3, r12, [r0, #20]
	mov.w	r2, #1312
	mov.w	r12, #1024
	.loc	7 51 34                         @ ../src/board/amcbldc/v120/src/adc.c:51:34
	stm.w	lr, {r1, r2, r12}
	mov.w	r1, #4096
	.loc	7 43 24                         @ ../src/board/amcbldc/v120/src/adc.c:43:24
	strd	r4, r4, [r0, #12]
	.loc	7 47 31                         @ ../src/board/amcbldc/v120/src/adc.c:47:31
	strh	r4, [r0, #28]
	.loc	7 50 36                         @ ../src/board/amcbldc/v120/src/adc.c:50:36
	strb.w	r3, [r0, #36]
	.loc	7 54 36                         @ ../src/board/amcbldc/v120/src/adc.c:54:36
	strb.w	r3, [r0, #56]
	.loc	7 55 22                         @ ../src/board/amcbldc/v120/src/adc.c:55:22
	str	r1, [r0, #60]
	.loc	7 56 31                         @ ../src/board/amcbldc/v120/src/adc.c:56:31
	strb.w	r4, [r0, #64]
.Ltmp2:
	.loc	7 57 7                          @ ../src/board/amcbldc/v120/src/adc.c:57:7
	bl	HAL_ADC_Init
.Ltmp3:
	.loc	7 57 7 is_stmt 0                @ ../src/board/amcbldc/v120/src/adc.c:57:7
	cbz	r0, .LBB0_2
@ %bb.1:
.Ltmp4:
	.loc	7 59 5 is_stmt 1                @ ../src/board/amcbldc/v120/src/adc.c:59:5
	bl	Error_Handler
.Ltmp5:
.LBB0_2:
	.loc	7 64 7                          @ ../src/board/amcbldc/v120/src/adc.c:64:7
	movw	r0, :lower16:hadc1
	movt	r0, :upper16:hadc1
	add	r1, sp, #36
.Ltmp6:
	.loc	7 63 18                         @ ../src/board/amcbldc/v120/src/adc.c:63:18
	str	r4, [sp, #36]
.Ltmp7:
	.loc	7 64 7                          @ ../src/board/amcbldc/v120/src/adc.c:64:7
	bl	HAL_ADCEx_MultiModeConfigChannel
.Ltmp8:
	.loc	7 64 7 is_stmt 0                @ ../src/board/amcbldc/v120/src/adc.c:64:7
	cbz	r0, .LBB0_4
@ %bb.3:
.Ltmp9:
	.loc	7 66 5 is_stmt 1                @ ../src/board/amcbldc/v120/src/adc.c:66:5
	bl	Error_Handler
.Ltmp10:
.LBB0_4:
	.loc	7 0 5 is_stmt 0                 @ ../src/board/amcbldc/v120/src/adc.c:0:5
	movs	r0, #0
	movt	r0, #52100
	.loc	7 70 19 is_stmt 1               @ ../src/board/amcbldc/v120/src/adc.c:70:19
	str	r0, [sp, #4]
	movs	r0, #6
	.loc	7 71 16                         @ ../src/board/amcbldc/v120/src/adc.c:71:16
	str	r0, [sp, #8]
	movs	r0, #2
	.loc	7 72 24                         @ ../src/board/amcbldc/v120/src/adc.c:72:24
	str	r0, [sp, #12]
	movs	r0, #127
	.loc	7 73 22                         @ ../src/board/amcbldc/v120/src/adc.c:73:22
	str	r0, [sp, #16]
	movs	r0, #4
	.loc	7 74 24                         @ ../src/board/amcbldc/v120/src/adc.c:74:24
	str	r0, [sp, #20]
	movs	r0, #0
	.loc	7 75 18                         @ ../src/board/amcbldc/v120/src/adc.c:75:18
	str	r0, [sp, #24]
.Ltmp11:
	.loc	7 76 7                          @ ../src/board/amcbldc/v120/src/adc.c:76:7
	movw	r0, :lower16:hadc1
	movt	r0, :upper16:hadc1
	add	r1, sp, #4
	bl	HAL_ADC_ConfigChannel
.Ltmp12:
	.loc	7 76 7 is_stmt 0                @ ../src/board/amcbldc/v120/src/adc.c:76:7
	cbz	r0, .LBB0_6
@ %bb.5:
.Ltmp13:
	.loc	7 78 5 is_stmt 1                @ ../src/board/amcbldc/v120/src/adc.c:78:5
	bl	Error_Handler
.Ltmp14:
.LBB0_6:
	.loc	7 0 5 is_stmt 0                 @ ../src/board/amcbldc/v120/src/adc.c:0:5
	movs	r0, #12
	.loc	7 82 16 is_stmt 1               @ ../src/board/amcbldc/v120/src/adc.c:82:16
	str	r0, [sp, #8]
.Ltmp15:
	.loc	7 83 7                          @ ../src/board/amcbldc/v120/src/adc.c:83:7
	movw	r0, :lower16:hadc1
	movt	r0, :upper16:hadc1
	add	r1, sp, #4
	bl	HAL_ADC_ConfigChannel
.Ltmp16:
	.loc	7 83 7 is_stmt 0                @ ../src/board/amcbldc/v120/src/adc.c:83:7
	cbz	r0, .LBB0_8
@ %bb.7:
.Ltmp17:
	.loc	7 85 5 is_stmt 1                @ ../src/board/amcbldc/v120/src/adc.c:85:5
	bl	Error_Handler
.Ltmp18:
.LBB0_8:
	.loc	7 0 5 is_stmt 0                 @ ../src/board/amcbldc/v120/src/adc.c:0:5
	movs	r0, #2
	movt	r0, #1072
	.loc	7 89 19 is_stmt 1               @ ../src/board/amcbldc/v120/src/adc.c:89:19
	str	r0, [sp, #4]
	movs	r0, #18
	.loc	7 90 16                         @ ../src/board/amcbldc/v120/src/adc.c:90:16
	str	r0, [sp, #8]
.Ltmp19:
	.loc	7 91 7                          @ ../src/board/amcbldc/v120/src/adc.c:91:7
	movw	r0, :lower16:hadc1
	movt	r0, :upper16:hadc1
	add	r1, sp, #4
	bl	HAL_ADC_ConfigChannel
.Ltmp20:
	.loc	7 91 7 is_stmt 0                @ ../src/board/amcbldc/v120/src/adc.c:91:7
	cbz	r0, .LBB0_10
@ %bb.9:
.Ltmp21:
	.loc	7 93 5 is_stmt 1                @ ../src/board/amcbldc/v120/src/adc.c:93:5
	bl	Error_Handler
.Ltmp22:
.LBB0_10:
	.loc	7 0 5 is_stmt 0                 @ ../src/board/amcbldc/v120/src/adc.c:0:5
	movs	r0, #24
	.loc	7 97 16 is_stmt 1               @ ../src/board/amcbldc/v120/src/adc.c:97:16
	str	r0, [sp, #8]
.Ltmp23:
	.loc	7 98 7                          @ ../src/board/amcbldc/v120/src/adc.c:98:7
	movw	r0, :lower16:hadc1
	movt	r0, :upper16:hadc1
	add	r1, sp, #4
	bl	HAL_ADC_ConfigChannel
.Ltmp24:
	.loc	7 98 7 is_stmt 0                @ ../src/board/amcbldc/v120/src/adc.c:98:7
	cbz	r0, .LBB0_12
@ %bb.11:
.Ltmp25:
	.loc	7 100 5 is_stmt 1               @ ../src/board/amcbldc/v120/src/adc.c:100:5
	bl	Error_Handler
.Ltmp26:
.LBB0_12:
	.loc	7 0 5 is_stmt 0                 @ ../src/board/amcbldc/v120/src/adc.c:0:5
	movs	r0, #8
	movt	r0, #3216
	.loc	7 104 19 is_stmt 1              @ ../src/board/amcbldc/v120/src/adc.c:104:19
	str	r0, [sp, #4]
	mov.w	r0, #256
	.loc	7 105 16                        @ ../src/board/amcbldc/v120/src/adc.c:105:16
	str	r0, [sp, #8]
.Ltmp27:
	.loc	7 106 7                         @ ../src/board/amcbldc/v120/src/adc.c:106:7
	movw	r0, :lower16:hadc1
	movt	r0, :upper16:hadc1
	add	r1, sp, #4
	bl	HAL_ADC_ConfigChannel
.Ltmp28:
	.loc	7 106 7 is_stmt 0               @ ../src/board/amcbldc/v120/src/adc.c:106:7
	cbz	r0, .LBB0_14
@ %bb.13:
.Ltmp29:
	.loc	7 108 5 is_stmt 1               @ ../src/board/amcbldc/v120/src/adc.c:108:5
	bl	Error_Handler
.Ltmp30:
.LBB0_14:
	.loc	7 0 5 is_stmt 0                 @ ../src/board/amcbldc/v120/src/adc.c:0:5
	mov.w	r0, #262
	.loc	7 112 16 is_stmt 1              @ ../src/board/amcbldc/v120/src/adc.c:112:16
	str	r0, [sp, #8]
.Ltmp31:
	.loc	7 113 7                         @ ../src/board/amcbldc/v120/src/adc.c:113:7
	movw	r0, :lower16:hadc1
	movt	r0, :upper16:hadc1
	add	r1, sp, #4
	bl	HAL_ADC_ConfigChannel
.Ltmp32:
	.loc	7 113 7 is_stmt 0               @ ../src/board/amcbldc/v120/src/adc.c:113:7
	cbz	r0, .LBB0_16
@ %bb.15:
.Ltmp33:
	.loc	7 115 5 is_stmt 1               @ ../src/board/amcbldc/v120/src/adc.c:115:5
	bl	Error_Handler
.Ltmp34:
.LBB0_16:
	.loc	7 0 5 is_stmt 0                 @ ../src/board/amcbldc/v120/src/adc.c:0:5
	movs	r0, #16
	movt	r0, #4288
	.loc	7 119 19 is_stmt 1              @ ../src/board/amcbldc/v120/src/adc.c:119:19
	str	r0, [sp, #4]
	mov.w	r0, #268
	.loc	7 120 16                        @ ../src/board/amcbldc/v120/src/adc.c:120:16
	str	r0, [sp, #8]
.Ltmp35:
	.loc	7 121 7                         @ ../src/board/amcbldc/v120/src/adc.c:121:7
	movw	r0, :lower16:hadc1
	movt	r0, :upper16:hadc1
	add	r1, sp, #4
	bl	HAL_ADC_ConfigChannel
.Ltmp36:
	.loc	7 121 7 is_stmt 0               @ ../src/board/amcbldc/v120/src/adc.c:121:7
	cbz	r0, .LBB0_18
@ %bb.17:
.Ltmp37:
	.loc	7 123 5 is_stmt 1               @ ../src/board/amcbldc/v120/src/adc.c:123:5
	bl	Error_Handler
.Ltmp38:
.LBB0_18:
	.loc	7 0 5 is_stmt 0                 @ ../src/board/amcbldc/v120/src/adc.c:0:5
	mov.w	r0, #274
	.loc	7 127 16 is_stmt 1              @ ../src/board/amcbldc/v120/src/adc.c:127:16
	str	r0, [sp, #8]
.Ltmp39:
	.loc	7 128 7                         @ ../src/board/amcbldc/v120/src/adc.c:128:7
	movw	r0, :lower16:hadc1
	movt	r0, :upper16:hadc1
	add	r1, sp, #4
	bl	HAL_ADC_ConfigChannel
.Ltmp40:
	.loc	7 128 7 is_stmt 0               @ ../src/board/amcbldc/v120/src/adc.c:128:7
	cbz	r0, .LBB0_20
@ %bb.19:
.Ltmp41:
	.loc	7 130 5 is_stmt 1               @ ../src/board/amcbldc/v120/src/adc.c:130:5
	bl	Error_Handler
.Ltmp42:
.LBB0_20:
	.loc	7 0 5 is_stmt 0                 @ ../src/board/amcbldc/v120/src/adc.c:0:5
	movw	r0, #4096
	movt	r0, #12896
	.loc	7 134 19 is_stmt 1              @ ../src/board/amcbldc/v120/src/adc.c:134:19
	str	r0, [sp, #4]
	mov.w	r0, #280
	.loc	7 135 16                        @ ../src/board/amcbldc/v120/src/adc.c:135:16
	str	r0, [sp, #8]
.Ltmp43:
	.loc	7 136 7                         @ ../src/board/amcbldc/v120/src/adc.c:136:7
	movw	r0, :lower16:hadc1
	movt	r0, :upper16:hadc1
	add	r1, sp, #4
	bl	HAL_ADC_ConfigChannel
.Ltmp44:
	.loc	7 136 7 is_stmt 0               @ ../src/board/amcbldc/v120/src/adc.c:136:7
	cbz	r0, .LBB0_22
@ %bb.21:
.Ltmp45:
	.loc	7 138 5 is_stmt 1               @ ../src/board/amcbldc/v120/src/adc.c:138:5
	bl	Error_Handler
.Ltmp46:
.LBB0_22:
	.loc	7 0 5 is_stmt 0                 @ ../src/board/amcbldc/v120/src/adc.c:0:5
	mov.w	r0, #512
	.loc	7 142 16 is_stmt 1              @ ../src/board/amcbldc/v120/src/adc.c:142:16
	str	r0, [sp, #8]
.Ltmp47:
	.loc	7 143 7                         @ ../src/board/amcbldc/v120/src/adc.c:143:7
	movw	r0, :lower16:hadc1
	movt	r0, :upper16:hadc1
	add	r1, sp, #4
	bl	HAL_ADC_ConfigChannel
.Ltmp48:
	.loc	7 143 7 is_stmt 0               @ ../src/board/amcbldc/v120/src/adc.c:143:7
	cbz	r0, .LBB0_24
@ %bb.23:
.Ltmp49:
	.loc	7 145 5 is_stmt 1               @ ../src/board/amcbldc/v120/src/adc.c:145:5
	bl	Error_Handler
.Ltmp50:
.LBB0_24:
	.loc	7 0 5 is_stmt 0                 @ ../src/board/amcbldc/v120/src/adc.c:0:5
	movw	r0, #16384
	movt	r0, #15040
	.loc	7 149 19 is_stmt 1              @ ../src/board/amcbldc/v120/src/adc.c:149:19
	str	r0, [sp, #4]
	movw	r0, #518
	.loc	7 150 16                        @ ../src/board/amcbldc/v120/src/adc.c:150:16
	str	r0, [sp, #8]
	movs	r0, #3
	.loc	7 151 24                        @ ../src/board/amcbldc/v120/src/adc.c:151:24
	str	r0, [sp, #20]
	movw	r0, #1862
	.loc	7 152 18                        @ ../src/board/amcbldc/v120/src/adc.c:152:18
	str	r0, [sp, #24]
	movs	r0, #0
	.loc	7 153 22                        @ ../src/board/amcbldc/v120/src/adc.c:153:22
	str	r0, [sp, #28]
	.loc	7 154 28                        @ ../src/board/amcbldc/v120/src/adc.c:154:28
	strb.w	r0, [sp, #32]
.Ltmp51:
	.loc	7 155 7                         @ ../src/board/amcbldc/v120/src/adc.c:155:7
	movw	r0, :lower16:hadc1
	movt	r0, :upper16:hadc1
	add	r1, sp, #4
	bl	HAL_ADC_ConfigChannel
.Ltmp52:
	.loc	7 155 7 is_stmt 0               @ ../src/board/amcbldc/v120/src/adc.c:155:7
	cbz	r0, .LBB0_26
@ %bb.25:
.Ltmp53:
	.loc	7 157 5 is_stmt 1               @ ../src/board/amcbldc/v120/src/adc.c:157:5
	bl	Error_Handler
.Ltmp54:
.LBB0_26:
	.loc	7 0 5 is_stmt 0                 @ ../src/board/amcbldc/v120/src/adc.c:0:5
	mov.w	r0, #524
	.loc	7 161 16 is_stmt 1              @ ../src/board/amcbldc/v120/src/adc.c:161:16
	str	r0, [sp, #8]
.Ltmp55:
	.loc	7 162 7                         @ ../src/board/amcbldc/v120/src/adc.c:162:7
	movw	r0, :lower16:hadc1
	movt	r0, :upper16:hadc1
	add	r1, sp, #4
	bl	HAL_ADC_ConfigChannel
.Ltmp56:
	.loc	7 162 7 is_stmt 0               @ ../src/board/amcbldc/v120/src/adc.c:162:7
	cbz	r0, .LBB0_28
@ %bb.27:
.Ltmp57:
	.loc	7 164 5 is_stmt 1               @ ../src/board/amcbldc/v120/src/adc.c:164:5
	bl	Error_Handler
.Ltmp58:
.LBB0_28:
	.loc	7 0 5 is_stmt 0                 @ ../src/board/amcbldc/v120/src/adc.c:0:5
	movs	r0, #0
	movt	r0, #49953
	.loc	7 168 19 is_stmt 1              @ ../src/board/amcbldc/v120/src/adc.c:168:19
	str	r0, [sp, #4]
	movw	r0, #530
	.loc	7 169 16                        @ ../src/board/amcbldc/v120/src/adc.c:169:16
	str	r0, [sp, #8]
	movs	r0, #4
	.loc	7 170 24                        @ ../src/board/amcbldc/v120/src/adc.c:170:24
	str	r0, [sp, #20]
	movs	r0, #0
	.loc	7 171 18                        @ ../src/board/amcbldc/v120/src/adc.c:171:18
	str	r0, [sp, #24]
.Ltmp59:
	.loc	7 172 7                         @ ../src/board/amcbldc/v120/src/adc.c:172:7
	movw	r0, :lower16:hadc1
	movt	r0, :upper16:hadc1
	add	r1, sp, #4
	bl	HAL_ADC_ConfigChannel
.Ltmp60:
	.loc	7 172 7 is_stmt 0               @ ../src/board/amcbldc/v120/src/adc.c:172:7
	cbz	r0, .LBB0_30
@ %bb.29:
.Ltmp61:
	.loc	7 174 5 is_stmt 1               @ ../src/board/amcbldc/v120/src/adc.c:174:5
	bl	Error_Handler
.Ltmp62:
.LBB0_30:
	.loc	7 0 5 is_stmt 0                 @ ../src/board/amcbldc/v120/src/adc.c:0:5
	mov.w	r0, #536
	.loc	7 178 16 is_stmt 1              @ ../src/board/amcbldc/v120/src/adc.c:178:16
	str	r0, [sp, #8]
.Ltmp63:
	.loc	7 179 7                         @ ../src/board/amcbldc/v120/src/adc.c:179:7
	movw	r0, :lower16:hadc1
	movt	r0, :upper16:hadc1
	add	r1, sp, #4
	bl	HAL_ADC_ConfigChannel
.Ltmp64:
	.loc	7 179 7 is_stmt 0               @ ../src/board/amcbldc/v120/src/adc.c:179:7
	cbz	r0, .LBB0_32
@ %bb.31:
.Ltmp65:
	.loc	7 181 5 is_stmt 1               @ ../src/board/amcbldc/v120/src/adc.c:181:5
	bl	Error_Handler
.Ltmp66:
.LBB0_32:
	.loc	7 184 1                         @ ../src/board/amcbldc/v120/src/adc.c:184:1
	add	sp, #48
	pop	{r4, pc}
.Ltmp67:
.Lfunc_end0:
	.size	MX_ADC1_Init, .Lfunc_end0-MX_ADC1_Init
	.cfi_endproc
	.cantunwind
	.fnend
                                        @ -- End function
	.section	.text.MX_ADC2_Init,"ax",%progbits
	.hidden	MX_ADC2_Init                    @ -- Begin function MX_ADC2_Init
	.globl	MX_ADC2_Init
	.p2align	1
	.type	MX_ADC2_Init,%function
	.code	16                              @ @MX_ADC2_Init
	.thumb_func
MX_ADC2_Init:
.Lfunc_begin1:
	.loc	7 187 0                         @ ../src/board/amcbldc/v120/src/adc.c:187:0
	.fnstart
	.cfi_startproc
@ %bb.0:
	.save	{r4, r5, r6, lr}
	push	{r4, r5, r6, lr}
	.cfi_def_cfa_offset 16
	.cfi_offset lr, -4
	.cfi_offset r6, -8
	.cfi_offset r5, -12
	.cfi_offset r4, -16
	.pad	#32
	sub	sp, #32
	.cfi_def_cfa_offset 48
	mov	r0, sp
.Ltmp68:
	.loc	7 188 26 prologue_end           @ ../src/board/amcbldc/v120/src/adc.c:188:26
	movs	r1, #32
	bl	__aeabi_memclr4
.Ltmp69:
	.loc	7 192 18                        @ ../src/board/amcbldc/v120/src/adc.c:192:18
	movw	r0, :lower16:hadc2
	movw	r1, #256
	movt	r0, :upper16:hadc2
	movt	r1, #20480
	movs	r3, #1
	movs	r6, #4
	mov.w	r2, #196608
	movs	r4, #0
	stm.w	r0, {r1, r2, r4}
	.loc	7 197 27                        @ ../src/board/amcbldc/v120/src/adc.c:197:27
	strd	r3, r6, [r0, #20]
	movs	r6, #2
	mov.w	r1, #1312
	movs	r5, #6
	mov.w	r2, #1024
	.loc	7 203 34                        @ ../src/board/amcbldc/v120/src/adc.c:203:34
	strd	r6, r1, [r0, #40]
	mov.w	r1, #4096
	.loc	7 195 24                        @ ../src/board/amcbldc/v120/src/adc.c:195:24
	strd	r4, r4, [r0, #12]
	.loc	7 199 31                        @ ../src/board/amcbldc/v120/src/adc.c:199:31
	strh	r4, [r0, #28]
	.loc	7 201 30                        @ ../src/board/amcbldc/v120/src/adc.c:201:30
	str	r5, [r0, #32]
	.loc	7 202 36                        @ ../src/board/amcbldc/v120/src/adc.c:202:36
	strb.w	r3, [r0, #36]
	.loc	7 205 35                        @ ../src/board/amcbldc/v120/src/adc.c:205:35
	str	r2, [r0, #48]
	.loc	7 206 36                        @ ../src/board/amcbldc/v120/src/adc.c:206:36
	strb.w	r3, [r0, #56]
	.loc	7 207 22                        @ ../src/board/amcbldc/v120/src/adc.c:207:22
	str	r1, [r0, #60]
	.loc	7 208 31                        @ ../src/board/amcbldc/v120/src/adc.c:208:31
	strb.w	r4, [r0, #64]
.Ltmp70:
	.loc	7 209 7                         @ ../src/board/amcbldc/v120/src/adc.c:209:7
	bl	HAL_ADC_Init
.Ltmp71:
	.loc	7 209 7 is_stmt 0               @ ../src/board/amcbldc/v120/src/adc.c:209:7
	cbz	r0, .LBB1_2
@ %bb.1:
.Ltmp72:
	.loc	7 211 5 is_stmt 1               @ ../src/board/amcbldc/v120/src/adc.c:211:5
	bl	Error_Handler
.Ltmp73:
.LBB1_2:
	.loc	7 0 5 is_stmt 0                 @ ../src/board/amcbldc/v120/src/adc.c:0:5
	movs	r0, #8
	movt	r0, #3216
	.loc	7 215 19 is_stmt 1              @ ../src/board/amcbldc/v120/src/adc.c:215:19
	stm.w	sp, {r0, r5, r6}
	movs	r0, #127
	.loc	7 218 22                        @ ../src/board/amcbldc/v120/src/adc.c:218:22
	strd	r0, r4, [sp, #12]
	movw	r0, #1862
	.loc	7 220 18                        @ ../src/board/amcbldc/v120/src/adc.c:220:18
	strd	r0, r4, [sp, #20]
.Ltmp74:
	.loc	7 223 7                         @ ../src/board/amcbldc/v120/src/adc.c:223:7
	movw	r0, :lower16:hadc2
	movt	r0, :upper16:hadc2
	mov	r1, sp
.Ltmp75:
	.loc	7 222 28                        @ ../src/board/amcbldc/v120/src/adc.c:222:28
	strb.w	r4, [sp, #28]
.Ltmp76:
	.loc	7 223 7                         @ ../src/board/amcbldc/v120/src/adc.c:223:7
	bl	HAL_ADC_ConfigChannel
.Ltmp77:
	.loc	7 223 7 is_stmt 0               @ ../src/board/amcbldc/v120/src/adc.c:223:7
	cbz	r0, .LBB1_4
@ %bb.3:
.Ltmp78:
	.loc	7 225 5 is_stmt 1               @ ../src/board/amcbldc/v120/src/adc.c:225:5
	bl	Error_Handler
.Ltmp79:
.LBB1_4:
	.loc	7 0 5 is_stmt 0                 @ ../src/board/amcbldc/v120/src/adc.c:0:5
	movs	r0, #12
	.loc	7 229 16 is_stmt 1              @ ../src/board/amcbldc/v120/src/adc.c:229:16
	str	r0, [sp, #4]
.Ltmp80:
	.loc	7 230 7                         @ ../src/board/amcbldc/v120/src/adc.c:230:7
	movw	r0, :lower16:hadc2
	movt	r0, :upper16:hadc2
	mov	r1, sp
	bl	HAL_ADC_ConfigChannel
.Ltmp81:
	.loc	7 230 7 is_stmt 0               @ ../src/board/amcbldc/v120/src/adc.c:230:7
	cbz	r0, .LBB1_6
@ %bb.5:
.Ltmp82:
	.loc	7 232 5 is_stmt 1               @ ../src/board/amcbldc/v120/src/adc.c:232:5
	bl	Error_Handler
.Ltmp83:
.LBB1_6:
	.loc	7 0 5 is_stmt 0                 @ ../src/board/amcbldc/v120/src/adc.c:0:5
	movs	r0, #16
	movt	r0, #4288
	.loc	7 236 19 is_stmt 1              @ ../src/board/amcbldc/v120/src/adc.c:236:19
	str	r0, [sp]
	movs	r0, #18
	.loc	7 237 16                        @ ../src/board/amcbldc/v120/src/adc.c:237:16
	str	r0, [sp, #4]
	movs	r0, #1
	.loc	7 238 24                        @ ../src/board/amcbldc/v120/src/adc.c:238:24
	str	r0, [sp, #16]
.Ltmp84:
	.loc	7 239 7                         @ ../src/board/amcbldc/v120/src/adc.c:239:7
	movw	r0, :lower16:hadc2
	movt	r0, :upper16:hadc2
	mov	r1, sp
	bl	HAL_ADC_ConfigChannel
.Ltmp85:
	.loc	7 239 7 is_stmt 0               @ ../src/board/amcbldc/v120/src/adc.c:239:7
	cbz	r0, .LBB1_8
@ %bb.7:
.Ltmp86:
	.loc	7 241 5 is_stmt 1               @ ../src/board/amcbldc/v120/src/adc.c:241:5
	bl	Error_Handler
.Ltmp87:
.LBB1_8:
	.loc	7 0 5 is_stmt 0                 @ ../src/board/amcbldc/v120/src/adc.c:0:5
	movs	r0, #24
	.loc	7 245 16 is_stmt 1              @ ../src/board/amcbldc/v120/src/adc.c:245:16
	str	r0, [sp, #4]
.Ltmp88:
	.loc	7 246 7                         @ ../src/board/amcbldc/v120/src/adc.c:246:7
	movw	r0, :lower16:hadc2
	movt	r0, :upper16:hadc2
	mov	r1, sp
	bl	HAL_ADC_ConfigChannel
.Ltmp89:
	.loc	7 246 7 is_stmt 0               @ ../src/board/amcbldc/v120/src/adc.c:246:7
	cbz	r0, .LBB1_10
@ %bb.9:
.Ltmp90:
	.loc	7 248 5 is_stmt 1               @ ../src/board/amcbldc/v120/src/adc.c:248:5
	bl	Error_Handler
.Ltmp91:
.LBB1_10:
	.loc	7 0 5 is_stmt 0                 @ ../src/board/amcbldc/v120/src/adc.c:0:5
	movs	r0, #32
	movt	r0, #5360
	.loc	7 252 19 is_stmt 1              @ ../src/board/amcbldc/v120/src/adc.c:252:19
	str	r0, [sp]
	mov.w	r0, #256
	.loc	7 253 16                        @ ../src/board/amcbldc/v120/src/adc.c:253:16
	str	r0, [sp, #4]
	movs	r0, #2
	.loc	7 254 24                        @ ../src/board/amcbldc/v120/src/adc.c:254:24
	str	r0, [sp, #16]
.Ltmp92:
	.loc	7 255 7                         @ ../src/board/amcbldc/v120/src/adc.c:255:7
	movw	r0, :lower16:hadc2
	movt	r0, :upper16:hadc2
	mov	r1, sp
	bl	HAL_ADC_ConfigChannel
.Ltmp93:
	.loc	7 255 7 is_stmt 0               @ ../src/board/amcbldc/v120/src/adc.c:255:7
	cbz	r0, .LBB1_12
@ %bb.11:
.Ltmp94:
	.loc	7 257 5 is_stmt 1               @ ../src/board/amcbldc/v120/src/adc.c:257:5
	bl	Error_Handler
.Ltmp95:
.LBB1_12:
	.loc	7 0 5 is_stmt 0                 @ ../src/board/amcbldc/v120/src/adc.c:0:5
	mov.w	r0, #262
	.loc	7 261 16 is_stmt 1              @ ../src/board/amcbldc/v120/src/adc.c:261:16
	str	r0, [sp, #4]
.Ltmp96:
	.loc	7 262 7                         @ ../src/board/amcbldc/v120/src/adc.c:262:7
	movw	r0, :lower16:hadc2
	movt	r0, :upper16:hadc2
	mov	r1, sp
	bl	HAL_ADC_ConfigChannel
.Ltmp97:
	.loc	7 262 7 is_stmt 0               @ ../src/board/amcbldc/v120/src/adc.c:262:7
	cbz	r0, .LBB1_14
@ %bb.13:
.Ltmp98:
	.loc	7 264 5 is_stmt 1               @ ../src/board/amcbldc/v120/src/adc.c:264:5
	bl	Error_Handler
.Ltmp99:
.LBB1_14:
	.loc	7 267 1                         @ ../src/board/amcbldc/v120/src/adc.c:267:1
	add	sp, #32
	pop	{r4, r5, r6, pc}
.Ltmp100:
.Lfunc_end1:
	.size	MX_ADC2_Init, .Lfunc_end1-MX_ADC2_Init
	.cfi_endproc
	.cantunwind
	.fnend
                                        @ -- End function
	.section	.text.HAL_ADC_MspInit,"ax",%progbits
	.hidden	HAL_ADC_MspInit                 @ -- Begin function HAL_ADC_MspInit
	.globl	HAL_ADC_MspInit
	.p2align	1
	.type	HAL_ADC_MspInit,%function
	.code	16                              @ @HAL_ADC_MspInit
	.thumb_func
HAL_ADC_MspInit:
.Lfunc_begin2:
	.loc	7 272 0                         @ ../src/board/amcbldc/v120/src/adc.c:272:0
	.fnstart
	.cfi_startproc
@ %bb.0:
	@DEBUG_VALUE: HAL_ADC_MspInit:adcHandle <- $r0
	.save	{r4, r5, r6, r7, lr}
	push	{r4, r5, r6, r7, lr}
	.cfi_def_cfa_offset 20
	.cfi_offset lr, -4
	.cfi_offset r7, -8
	.cfi_offset r6, -12
	.cfi_offset r5, -16
	.cfi_offset r4, -20
	.pad	#28
	sub	sp, #28
	.cfi_def_cfa_offset 48
	mov	r4, r0
.Ltmp101:
	@DEBUG_VALUE: HAL_ADC_MspInit:adcHandle <- $r4
	@DEBUG_VALUE: HAL_ADC_MspInit:adcHandle <- $r4
	add	r0, sp, #8
.Ltmp102:
	.loc	7 274 20 prologue_end           @ ../src/board/amcbldc/v120/src/adc.c:274:20
	movs	r1, #20
	bl	__aeabi_memclr4
.Ltmp103:
	.loc	7 275 17                        @ ../src/board/amcbldc/v120/src/adc.c:275:17
	ldr	r0, [r4]
	movw	r1, #256
	movt	r1, #20480
.Ltmp104:
	.loc	7 275 6 is_stmt 0               @ ../src/board/amcbldc/v120/src/adc.c:275:6
	cmp	r0, r1
	beq	.LBB2_6
.Ltmp105:
@ %bb.1:
	@DEBUG_VALUE: HAL_ADC_MspInit:adcHandle <- $r4
	cmp.w	r0, #1342177280
	bne.w	.LBB2_11
.Ltmp106:
@ %bb.2:
	@DEBUG_VALUE: HAL_ADC_MspInit:adcHandle <- $r4
	.loc	7 281 30 is_stmt 1              @ ../src/board/amcbldc/v120/src/adc.c:281:30
	movw	r1, :lower16:HAL_RCC_ADC12_CLK_ENABLED
	movt	r1, :upper16:HAL_RCC_ADC12_CLK_ENABLED
	ldr	r2, [r1]
	movw	r0, #4172
	movt	r0, #16386
	adds	r3, r2, #1
	str	r3, [r1]
	.loc	7 282 8                         @ ../src/board/amcbldc/v120/src/adc.c:282:8
	cbnz	r2, .LBB2_4
.Ltmp107:
@ %bb.3:
	@DEBUG_VALUE: HAL_ADC_MspInit:adcHandle <- $r4
	.loc	7 283 7                         @ ../src/board/amcbldc/v120/src/adc.c:283:7
	ldr	r1, [r0]
	orr	r1, r1, #8192
	str	r1, [r0]
	ldr	r1, [r0]
	and	r1, r1, #8192
	str	r1, [sp, #4]
	ldr	r1, [sp, #4]
.Ltmp108:
.LBB2_4:
	@DEBUG_VALUE: HAL_ADC_MspInit:adcHandle <- $r4
	.loc	7 286 5                         @ ../src/board/amcbldc/v120/src/adc.c:286:5
	ldr	r1, [r0]
	add	r5, sp, #8
	orr	r1, r1, #1
	str	r1, [r0]
	ldr	r1, [r0]
	movs	r7, #3
	and	r1, r1, #1
	str	r1, [sp, #4]
	ldr	r1, [sp, #4]
.Ltmp109:
	.loc	7 287 5                         @ ../src/board/amcbldc/v120/src/adc.c:287:5
	ldr	r1, [r0]
	movs	r6, #0
	orr	r1, r1, #2
	str	r1, [r0]
	ldr	r0, [r0]
.Ltmp110:
	.loc	7 298 5                         @ ../src/board/amcbldc/v120/src/adc.c:298:5
	mov	r1, r5
.Ltmp111:
	.loc	7 287 5                         @ ../src/board/amcbldc/v120/src/adc.c:287:5
	and	r0, r0, #2
	str	r0, [sp, #4]
	ldr	r0, [sp, #4]
	movs	r0, #13
.Ltmp112:
	.loc	7 295 25                        @ ../src/board/amcbldc/v120/src/adc.c:295:25
	str	r0, [sp, #8]
	.loc	7 298 5                         @ ../src/board/amcbldc/v120/src/adc.c:298:5
	mov.w	r0, #1207959552
	.loc	7 296 26                        @ ../src/board/amcbldc/v120/src/adc.c:296:26
	str	r7, [sp, #12]
	.loc	7 297 26                        @ ../src/board/amcbldc/v120/src/adc.c:297:26
	str	r6, [sp, #16]
	.loc	7 298 5                         @ ../src/board/amcbldc/v120/src/adc.c:298:5
	bl	HAL_GPIO_Init
.Ltmp113:
	.loc	7 0 5 is_stmt 0                 @ ../src/board/amcbldc/v120/src/adc.c:0:5
	movw	r0, #2050
	.loc	7 300 25 is_stmt 1              @ ../src/board/amcbldc/v120/src/adc.c:300:25
	strd	r0, r7, [sp, #8]
	movw	r0, #1024
	movt	r0, #18432
	.loc	7 303 5                         @ ../src/board/amcbldc/v120/src/adc.c:303:5
	mov	r1, r5
	.loc	7 302 26                        @ ../src/board/amcbldc/v120/src/adc.c:302:26
	str	r6, [sp, #16]
	.loc	7 303 5                         @ ../src/board/amcbldc/v120/src/adc.c:303:5
	bl	HAL_GPIO_Init
.Ltmp114:
	.loc	7 307 24                        @ ../src/board/amcbldc/v120/src/adc.c:307:24
	movw	r5, :lower16:hdma_adc1
	movs	r0, #8
	movt	r5, :upper16:hdma_adc1
	movt	r0, #16386
	movs	r1, #5
	mov.w	r3, #256
	stm.w	r5, {r0, r1, r6}
	.loc	7 312 40                        @ ../src/board/amcbldc/v120/src/adc.c:312:40
	add.w	r0, r5, #20
	mov.w	r7, #1024
	mov.w	r12, #32
	stm.w	r0, {r3, r7, r12}
	mov.w	r0, #8192
	movs	r2, #128
	.loc	7 315 29                        @ ../src/board/amcbldc/v120/src/adc.c:315:29
	str	r0, [r5, #32]
.Ltmp115:
	.loc	7 316 9                         @ ../src/board/amcbldc/v120/src/adc.c:316:9
	mov	r0, r5
.Ltmp116:
	.loc	7 310 30                        @ ../src/board/amcbldc/v120/src/adc.c:310:30
	strd	r6, r2, [r5, #12]
.Ltmp117:
	.loc	7 316 9                         @ ../src/board/amcbldc/v120/src/adc.c:316:9
	bl	HAL_DMA_Init
.Ltmp118:
	.loc	7 316 9 is_stmt 0               @ ../src/board/amcbldc/v120/src/adc.c:316:9
	cmp	r0, #0
	beq	.LBB2_10
.Ltmp119:
@ %bb.5:
	@DEBUG_VALUE: HAL_ADC_MspInit:adcHandle <- $r4
	.loc	7 318 7 is_stmt 1               @ ../src/board/amcbldc/v120/src/adc.c:318:7
	bl	Error_Handler
.Ltmp120:
	.loc	7 0 7 is_stmt 0                 @ ../src/board/amcbldc/v120/src/adc.c:0:7
	movw	r5, :lower16:hdma_adc1
	movt	r5, :upper16:hdma_adc1
	b	.LBB2_10
.Ltmp121:
.LBB2_6:
	@DEBUG_VALUE: HAL_ADC_MspInit:adcHandle <- $r4
	.loc	7 336 30 is_stmt 1              @ ../src/board/amcbldc/v120/src/adc.c:336:30
	movw	r1, :lower16:HAL_RCC_ADC12_CLK_ENABLED
	movt	r1, :upper16:HAL_RCC_ADC12_CLK_ENABLED
	ldr	r2, [r1]
	movw	r0, #4172
	movt	r0, #16386
	adds	r3, r2, #1
	str	r3, [r1]
	.loc	7 337 8                         @ ../src/board/amcbldc/v120/src/adc.c:337:8
	cbnz	r2, .LBB2_8
.Ltmp122:
@ %bb.7:
	@DEBUG_VALUE: HAL_ADC_MspInit:adcHandle <- $r4
	.loc	7 338 7                         @ ../src/board/amcbldc/v120/src/adc.c:338:7
	ldr	r1, [r0]
	orr	r1, r1, #8192
	str	r1, [r0]
	ldr	r1, [r0]
	and	r1, r1, #8192
	str	r1, [sp, #4]
	ldr	r1, [sp, #4]
.Ltmp123:
.LBB2_8:
	@DEBUG_VALUE: HAL_ADC_MspInit:adcHandle <- $r4
	.loc	7 341 5                         @ ../src/board/amcbldc/v120/src/adc.c:341:5
	ldr	r1, [r0]
	add	r5, sp, #8
	orr	r1, r1, #1
	str	r1, [r0]
	ldr	r1, [r0]
	movs	r7, #3
	and	r1, r1, #1
	str	r1, [sp, #4]
	ldr	r1, [sp, #4]
.Ltmp124:
	.loc	7 342 5                         @ ../src/board/amcbldc/v120/src/adc.c:342:5
	ldr	r1, [r0]
	movs	r6, #0
	orr	r1, r1, #4
	str	r1, [r0]
	ldr	r0, [r0]
.Ltmp125:
	.loc	7 351 5                         @ ../src/board/amcbldc/v120/src/adc.c:351:5
	mov	r1, r5
.Ltmp126:
	.loc	7 342 5                         @ ../src/board/amcbldc/v120/src/adc.c:342:5
	and	r0, r0, #4
	str	r0, [sp, #4]
	ldr	r0, [sp, #4]
	movs	r0, #192
.Ltmp127:
	.loc	7 348 25                        @ ../src/board/amcbldc/v120/src/adc.c:348:25
	str	r0, [sp, #8]
	.loc	7 351 5                         @ ../src/board/amcbldc/v120/src/adc.c:351:5
	mov.w	r0, #1207959552
	.loc	7 349 26                        @ ../src/board/amcbldc/v120/src/adc.c:349:26
	str	r7, [sp, #12]
	.loc	7 350 26                        @ ../src/board/amcbldc/v120/src/adc.c:350:26
	str	r6, [sp, #16]
	.loc	7 351 5                         @ ../src/board/amcbldc/v120/src/adc.c:351:5
	bl	HAL_GPIO_Init
.Ltmp128:
	.loc	7 0 5 is_stmt 0                 @ ../src/board/amcbldc/v120/src/adc.c:0:5
	movs	r0, #16
	.loc	7 353 25 is_stmt 1              @ ../src/board/amcbldc/v120/src/adc.c:353:25
	strd	r0, r7, [sp, #8]
	movw	r0, #1024
	movt	r0, #18432
	.loc	7 356 5                         @ ../src/board/amcbldc/v120/src/adc.c:356:5
	add.w	r0, r0, #1024
	mov	r1, r5
	.loc	7 355 26                        @ ../src/board/amcbldc/v120/src/adc.c:355:26
	str	r6, [sp, #16]
	.loc	7 356 5                         @ ../src/board/amcbldc/v120/src/adc.c:356:5
	bl	HAL_GPIO_Init
.Ltmp129:
	.loc	7 0 5 is_stmt 0                 @ ../src/board/amcbldc/v120/src/adc.c:0:5
	movs	r0, #8
	movt	r0, #16386
	.loc	7 360 24 is_stmt 1              @ ../src/board/amcbldc/v120/src/adc.c:360:24
	movw	r5, :lower16:hdma_adc2
	adds	r0, #20
	movt	r5, :upper16:hdma_adc2
	movs	r1, #36
	mov.w	r3, #256
	stm.w	r5, {r0, r1, r6}
	.loc	7 365 40                        @ ../src/board/amcbldc/v120/src/adc.c:365:40
	add.w	r0, r5, #20
	mov.w	r7, #1024
	mov.w	r12, #32
	stm.w	r0, {r3, r7, r12}
	mov.w	r0, #12288
	movs	r2, #128
	.loc	7 368 29                        @ ../src/board/amcbldc/v120/src/adc.c:368:29
	str	r0, [r5, #32]
.Ltmp130:
	.loc	7 369 9                         @ ../src/board/amcbldc/v120/src/adc.c:369:9
	mov	r0, r5
.Ltmp131:
	.loc	7 363 30                        @ ../src/board/amcbldc/v120/src/adc.c:363:30
	strd	r6, r2, [r5, #12]
.Ltmp132:
	.loc	7 369 9                         @ ../src/board/amcbldc/v120/src/adc.c:369:9
	bl	HAL_DMA_Init
.Ltmp133:
	.loc	7 369 9 is_stmt 0               @ ../src/board/amcbldc/v120/src/adc.c:369:9
	cbz	r0, .LBB2_10
.Ltmp134:
@ %bb.9:
	@DEBUG_VALUE: HAL_ADC_MspInit:adcHandle <- $r4
	.loc	7 371 7 is_stmt 1               @ ../src/board/amcbldc/v120/src/adc.c:371:7
	bl	Error_Handler
.Ltmp135:
	.loc	7 0 7 is_stmt 0                 @ ../src/board/amcbldc/v120/src/adc.c:0:7
	movw	r5, :lower16:hdma_adc2
	movt	r5, :upper16:hdma_adc2
.Ltmp136:
.LBB2_10:
	@DEBUG_VALUE: HAL_ADC_MspInit:adcHandle <- $r4
	movs	r0, #18
	movs	r1, #0
	movs	r2, #0
	str	r5, [r4, #84]
	str	r4, [r5, #40]
	bl	HAL_NVIC_SetPriority
.Ltmp137:
	movs	r0, #18
	bl	HAL_NVIC_EnableIRQ
.Ltmp138:
.LBB2_11:
	@DEBUG_VALUE: HAL_ADC_MspInit:adcHandle <- $r4
	.loc	7 383 1 is_stmt 1               @ ../src/board/amcbldc/v120/src/adc.c:383:1
	add	sp, #28
	pop	{r4, r5, r6, r7, pc}
.Ltmp139:
.Lfunc_end2:
	.size	HAL_ADC_MspInit, .Lfunc_end2-HAL_ADC_MspInit
	.cfi_endproc
	.cantunwind
	.fnend
                                        @ -- End function
	.section	.text.HAL_ADC_MspDeInit,"ax",%progbits
	.hidden	HAL_ADC_MspDeInit               @ -- Begin function HAL_ADC_MspDeInit
	.globl	HAL_ADC_MspDeInit
	.p2align	1
	.type	HAL_ADC_MspDeInit,%function
	.code	16                              @ @HAL_ADC_MspDeInit
	.thumb_func
HAL_ADC_MspDeInit:
.Lfunc_begin3:
	.loc	7 386 0                         @ ../src/board/amcbldc/v120/src/adc.c:386:0
	.fnstart
	.cfi_startproc
@ %bb.0:
	@DEBUG_VALUE: HAL_ADC_MspDeInit:adcHandle <- $r0
	.save	{r4, lr}
	push	{r4, lr}
	.cfi_def_cfa_offset 8
	.cfi_offset lr, -4
	.cfi_offset r4, -8
	mov	r4, r0
.Ltmp140:
	@DEBUG_VALUE: HAL_ADC_MspDeInit:adcHandle <- $r4
	.loc	7 388 17 prologue_end           @ ../src/board/amcbldc/v120/src/adc.c:388:17
	ldr	r0, [r0]
	movw	r1, #256
	movt	r1, #20480
.Ltmp141:
	.loc	7 388 6 is_stmt 0               @ ../src/board/amcbldc/v120/src/adc.c:388:6
	cmp	r0, r1
	beq	.LBB3_5
.Ltmp142:
@ %bb.1:
	@DEBUG_VALUE: HAL_ADC_MspDeInit:adcHandle <- $r4
	cmp.w	r0, #1342177280
	.loc	7 462 1 is_stmt 1               @ ../src/board/amcbldc/v120/src/adc.c:462:1
	it	ne
	popne	{r4, pc}
.Ltmp143:
.LBB3_2:
	.loc	7 394 30                        @ ../src/board/amcbldc/v120/src/adc.c:394:30
	movw	r0, :lower16:HAL_RCC_ADC12_CLK_ENABLED
	movt	r0, :upper16:HAL_RCC_ADC12_CLK_ENABLED
	ldr	r1, [r0]
	subs	r1, #1
	str	r1, [r0]
	.loc	7 395 8                         @ ../src/board/amcbldc/v120/src/adc.c:395:8
	bne	.LBB3_4
@ %bb.3:
	.loc	7 0 8 is_stmt 0                 @ ../src/board/amcbldc/v120/src/adc.c:0:8
	movw	r0, #4172
	movt	r0, #16386
.Ltmp144:
	.loc	7 396 7 is_stmt 1               @ ../src/board/amcbldc/v120/src/adc.c:396:7
	ldr	r1, [r0]
	bic	r1, r1, #8192
	str	r1, [r0]
.Ltmp145:
.LBB3_4:
	.loc	7 406 5                         @ ../src/board/amcbldc/v120/src/adc.c:406:5
	mov.w	r0, #1207959552
	movs	r1, #13
	bl	HAL_GPIO_DeInit
.Ltmp146:
	.loc	7 0 5 is_stmt 0                 @ ../src/board/amcbldc/v120/src/adc.c:0:5
	movw	r0, #1024
	movt	r0, #18432
	.loc	7 408 5 is_stmt 1               @ ../src/board/amcbldc/v120/src/adc.c:408:5
	movw	r1, #2050
	b	.LBB3_8
.Ltmp147:
.LBB3_5:
	@DEBUG_VALUE: HAL_ADC_MspDeInit:adcHandle <- $r4
	.loc	7 432 30                        @ ../src/board/amcbldc/v120/src/adc.c:432:30
	movw	r0, :lower16:HAL_RCC_ADC12_CLK_ENABLED
	movt	r0, :upper16:HAL_RCC_ADC12_CLK_ENABLED
	ldr	r1, [r0]
	subs	r1, #1
	str	r1, [r0]
	.loc	7 433 8                         @ ../src/board/amcbldc/v120/src/adc.c:433:8
	bne	.LBB3_7
.Ltmp148:
@ %bb.6:
	@DEBUG_VALUE: HAL_ADC_MspDeInit:adcHandle <- $r4
	.loc	7 0 8 is_stmt 0                 @ ../src/board/amcbldc/v120/src/adc.c:0:8
	movw	r0, #4172
	movt	r0, #16386
.Ltmp149:
	.loc	7 434 7 is_stmt 1               @ ../src/board/amcbldc/v120/src/adc.c:434:7
	ldr	r1, [r0]
	bic	r1, r1, #8192
	str	r1, [r0]
.Ltmp150:
.LBB3_7:
	@DEBUG_VALUE: HAL_ADC_MspDeInit:adcHandle <- $r4
	.loc	7 442 5                         @ ../src/board/amcbldc/v120/src/adc.c:442:5
	mov.w	r0, #1207959552
	movs	r1, #192
	bl	HAL_GPIO_DeInit
.Ltmp151:
	.loc	7 0 5 is_stmt 0                 @ ../src/board/amcbldc/v120/src/adc.c:0:5
	movw	r0, #1024
	movt	r0, #18432
	.loc	7 444 5 is_stmt 1               @ ../src/board/amcbldc/v120/src/adc.c:444:5
	add.w	r0, r0, #1024
	movs	r1, #16
.Ltmp152:
.LBB3_8:
	.loc	7 0 0 is_stmt 0                 @ ../src/board/amcbldc/v120/src/adc.c:0:0
	bl	HAL_GPIO_DeInit
.Ltmp153:
	ldr	r0, [r4, #84]
	pop.w	{r4, lr}
.Ltmp154:
	b	HAL_DMA_DeInit
.Ltmp155:
.Lfunc_end3:
	.size	HAL_ADC_MspDeInit, .Lfunc_end3-HAL_ADC_MspDeInit
	.cfi_endproc
	.cantunwind
	.fnend
                                        @ -- End function
	.hidden	hadc1                           @ @hadc1
	.type	hadc1,%object
	.section	.bss.hadc1,"aw",%nobits
	.globl	hadc1
	.p2align	2
hadc1:
	.zero	152
	.size	hadc1, 152

	.hidden	hadc2                           @ @hadc2
	.type	hadc2,%object
	.section	.bss.hadc2,"aw",%nobits
	.globl	hadc2
	.p2align	2
hadc2:
	.zero	152
	.size	hadc2, 152

	.type	HAL_RCC_ADC12_CLK_ENABLED,%object @ @HAL_RCC_ADC12_CLK_ENABLED
	.section	.bss.HAL_RCC_ADC12_CLK_ENABLED,"aw",%nobits
	.p2align	2
HAL_RCC_ADC12_CLK_ENABLED:
	.long	0                               @ 0x0
	.size	HAL_RCC_ADC12_CLK_ENABLED, 4

	.hidden	hdma_adc1                       @ @hdma_adc1
	.type	hdma_adc1,%object
	.section	.bss.hdma_adc1,"aw",%nobits
	.globl	hdma_adc1
	.p2align	2
hdma_adc1:
	.zero	96
	.size	hdma_adc1, 96

	.hidden	hdma_adc2                       @ @hdma_adc2
	.type	hdma_adc2,%object
	.section	.bss.hdma_adc2,"aw",%nobits
	.globl	hdma_adc2
	.p2align	2
hdma_adc2:
	.zero	96
	.size	hdma_adc2, 96

	.file	8 "C:\\Users\\grodriguez\\Documents\\iit\\icub-firmware\\emBODY\\eBcode\\arch-arm\\libs\\lowlevel\\stm32hal\\proj" "../src/driver/stm32g4-v120/inc/stm32g4xx_hal_adc_ex.h"
	.file	9 "C:\\Users\\grodriguez\\Documents\\iit\\icub-firmware\\emBODY\\eBcode\\arch-arm\\libs\\lowlevel\\stm32hal\\proj" "../api\\../src/driver/stm32g4-v120/inc/stm32g4xx_hal_gpio.h"
	.section	".note.GNU-stack","",%progbits
	.eabi_attribute	30, 3	@ Tag_ABI_optimization_goals
	.ARM_attribute	16, 1	@ Tag_AV_eba