	.text
	.syntax unified
	.eabi_attribute	67, "2.09"	@ Tag_conformance
	.cpu	cortex-m4
	.eabi_attribute	6, 13	@ Tag_CPU_arch
	.eabi_attribute	7, 77	@ Tag_CPU_arch_profile
	.eabi_attribute	8, 0	@ Tag_ARM_ISA_use
	.eabi_attribute	9, 2	@ Tag_THUMB_ISA_use
	.fpu	fpv4-sp-d16
	.eabi_attribute	27, 1	@ Tag_ABI_HardFP_use
	.eabi_attribute	36, 1	@ Tag_FP_HP_extension
	.eabi_attribute	34, 1	@ Tag_CPU_unaligned_access
	.eabi_attribute	17, 1	@ Tag_ABI_PCS_GOT_use
	.eabi_attribute	20, 2	@ Tag_ABI_FP_denormal
	.eabi_attribute	21, 0	@ Tag_ABI_FP_exceptions
	.eabi_attribute	23, 1	@ Tag_ABI_FP_number_model
	.eabi_attribute	24, 1	@ Tag_ABI_align_needed
	.eabi_attribute	25, 1	@ Tag_ABI_align_preserved
	.eabi_attribute	28, 1	@ Tag_ABI_VFP_args
	.eabi_attribute	38, 1	@ Tag_ABI_FP_16bit_format
	.eabi_attribute	18, 2	@ Tag_ABI_PCS_wchar_t
	.eabi_attribute	26, 1	@ Tag_ABI_enum_size
	.eabi_attribute	14, 0	@ Tag_ABI_PCS_R9_use
	.file	"board_amcbldc_v120.c"
	.file	1 "C:\\Users\\grodriguez\\Documents\\iit\\icub-firmware\\emBODY\\eBcode\\arch-arm\\libs\\lowlevel\\stm32hal\\proj" "../src/driver/stm32g4-v120/inc/stm32g4xx_hal_def.h"
	.file	2 "C:\\Users\\grodriguez\\Documents\\iit\\icub-firmware\\emBODY\\eBcode\\arch-arm\\libs\\lowlevel\\stm32hal\\proj" "../api\\../src/driver/stm32g4-v120/inc/stm32g4xx_hal_gpio.h"
	.file	3 "C:\\" "Keil_v5\\ARM\\ARMCLANG\\Bin\\..\\include\\stdint.h"
	.file	4 "C:\\Users\\grodriguez\\Documents\\iit\\icub-firmware\\emBODY\\eBcode\\arch-arm\\libs\\lowlevel\\stm32hal\\proj" "../src/driver/stm32g4-v120/inc/stm32g474xx.h"
	.section	.text.stm32hal_board_init,"ax",%progbits
	.hidden	stm32hal_board_init             @ -- Begin function stm32hal_board_init
	.globl	stm32hal_board_init
	.p2align	1
	.type	stm32hal_board_init,%function
	.code	16                              @ @stm32hal_board_init
	.thumb_func
stm32hal_board_init:
.Lfunc_begin0:
	.file	5 "C:\\Users\\grodriguez\\Documents\\iit\\icub-firmware\\emBODY\\eBcode\\arch-arm\\libs\\lowlevel\\stm32hal\\proj" "../src/board/amcbldc/v120/src/board_amcbldc_v120.c"
	.loc	5 69 0                          @ ../src/board/amcbldc/v120/src/board_amcbldc_v120.c:69:0
	.fnstart
	.cfi_sections .debug_frame
	.cfi_startproc
@ %bb.0:
	.save	{r4, r5, r6, r7, lr}
	push	{r4, r5, r6, r7, lr}
	.cfi_def_cfa_offset 20
	.cfi_offset lr, -4
	.cfi_offset r7, -8
	.cfi_offset r6, -12
	.cfi_offset r5, -16
	.cfi_offset r4, -20
	.pad	#164
	sub	sp, #164
	.cfi_def_cfa_offset 184
.Ltmp0:
	.loc	5 79 3 prologue_end             @ ../src/board/amcbldc/v120/src/board_amcbldc_v120.c:79:3
	bl	HAL_Init
.Ltmp1:
	.loc	5 0 3 is_stmt 0                 @ ../src/board/amcbldc/v120/src/board_amcbldc_v120.c:0:3
	add	r5, sp, #88
	movs	r6, #0
.Ltmp2:
	.loc	5 142 22 is_stmt 1              @ ../src/board/amcbldc/v120/src/board_amcbldc_v120.c:142:22
	mov	r0, r5
	movs	r1, #20
	.loc	5 141 22                        @ ../src/board/amcbldc/v120/src/board_amcbldc_v120.c:141:22
	strd	r6, r6, [sp, #124]
	strd	r6, r6, [sp, #116]
	.loc	5 142 22                        @ ../src/board/amcbldc/v120/src/board_amcbldc_v120.c:142:22
	bl	__aeabi_memclr4
.Ltmp3:
	.loc	5 0 22 is_stmt 0                @ ../src/board/amcbldc/v120/src/board_amcbldc_v120.c:0:22
	add	r4, sp, #4
	.loc	5 143 28 is_stmt 1              @ ../src/board/amcbldc/v120/src/board_amcbldc_v120.c:143:28
	mov	r0, r4
	movs	r1, #84
	bl	__aeabi_memclr4
.Ltmp4:
	.loc	5 147 3                         @ ../src/board/amcbldc/v120/src/board_amcbldc_v120.c:147:3
	movs	r0, #0
	bl	HAL_PWREx_ControlVoltageScaling
.Ltmp5:
	.loc	5 0 3 is_stmt 0                 @ ../src/board/amcbldc/v120/src/board_amcbldc_v120.c:0:3
	movs	r0, #33
	.loc	5 151 36 is_stmt 1              @ ../src/board/amcbldc/v120/src/board_amcbldc_v120.c:151:36
	str	r0, [sp, #108]
	mov.w	r0, #65536
	.loc	5 152 30                        @ ../src/board/amcbldc/v120/src/board_amcbldc_v120.c:152:30
	str	r0, [sp, #112]
	movs	r0, #1
	movs	r7, #3
	.loc	5 153 32                        @ ../src/board/amcbldc/v120/src/board_amcbldc_v120.c:153:32
	str	r0, [sp, #132]
	movs	r1, #2
	.loc	5 155 35                        @ ../src/board/amcbldc/v120/src/board_amcbldc_v120.c:155:35
	strd	r7, r0, [sp, #140]
	movs	r0, #21
	.loc	5 157 30                        @ ../src/board/amcbldc/v120/src/board_amcbldc_v120.c:157:30
	strd	r0, r1, [sp, #148]
	add	r0, sp, #108
	.loc	5 154 34                        @ ../src/board/amcbldc/v120/src/board_amcbldc_v120.c:154:34
	str	r1, [sp, #136]
	.loc	5 159 30                        @ ../src/board/amcbldc/v120/src/board_amcbldc_v120.c:159:30
	strd	r1, r1, [sp, #156]
.Ltmp6:
	.loc	5 161 7                         @ ../src/board/amcbldc/v120/src/board_amcbldc_v120.c:161:7
	bl	HAL_RCC_OscConfig
.Ltmp7:
	.loc	5 0 7 is_stmt 0                 @ ../src/board/amcbldc/v120/src/board_amcbldc_v120.c:0:7
	movs	r0, #15
.Ltmp8:
	.loc	5 167 31 is_stmt 1              @ ../src/board/amcbldc/v120/src/board_amcbldc_v120.c:167:31
	strd	r0, r7, [sp, #88]
	mov.w	r0, #1024
	.loc	5 171 36                        @ ../src/board/amcbldc/v120/src/board_amcbldc_v120.c:171:36
	strd	r0, r0, [sp, #100]
.Ltmp9:
	.loc	5 174 7                         @ ../src/board/amcbldc/v120/src/board_amcbldc_v120.c:174:7
	mov	r0, r5
	movs	r1, #4
.Ltmp10:
	.loc	5 170 35                        @ ../src/board/amcbldc/v120/src/board_amcbldc_v120.c:170:35
	str	r6, [sp, #96]
.Ltmp11:
	.loc	5 174 7                         @ ../src/board/amcbldc/v120/src/board_amcbldc_v120.c:174:7
	bl	HAL_RCC_ClockConfig
.Ltmp12:
	.loc	5 0 7 is_stmt 0                 @ ../src/board/amcbldc/v120/src/board_amcbldc_v120.c:0:7
	mov.w	r0, #192512
.Ltmp13:
	.loc	5 180 38 is_stmt 1              @ ../src/board/amcbldc/v120/src/board_amcbldc_v120.c:180:38
	str	r0, [sp, #4]
	mov.w	r0, #16777216
	.loc	5 184 37                        @ ../src/board/amcbldc/v120/src/board_amcbldc_v120.c:184:37
	strd	r0, r6, [sp, #60]
	mov.w	r0, #536870912
	.loc	5 187 37                        @ ../src/board/amcbldc/v120/src/board_amcbldc_v120.c:187:37
	str	r0, [sp, #72]
.Ltmp14:
	.loc	5 188 7                         @ ../src/board/amcbldc/v120/src/board_amcbldc_v120.c:188:7
	mov	r0, r4
.Ltmp15:
	.loc	5 183 36                        @ ../src/board/amcbldc/v120/src/board_amcbldc_v120.c:183:36
	str	r6, [sp, #44]
	.loc	5 185 35                        @ ../src/board/amcbldc/v120/src/board_amcbldc_v120.c:185:35
	str	r6, [sp, #68]
.Ltmp16:
	.loc	5 188 7                         @ ../src/board/amcbldc/v120/src/board_amcbldc_v120.c:188:7
	bl	HAL_RCCEx_PeriphCLKConfig
.Ltmp17:
	.loc	5 93 3                          @ ../src/board/amcbldc/v120/src/board_amcbldc_v120.c:93:3
	bl	MX_GPIO_Init
.Ltmp18:
	.loc	5 94 3                          @ ../src/board/amcbldc/v120/src/board_amcbldc_v120.c:94:3
	bl	MX_DMA_Init
.Ltmp19:
	.loc	5 104 3                         @ ../src/board/amcbldc/v120/src/board_amcbldc_v120.c:104:3
	bl	MX_RNG_Init
.Ltmp20:
	.loc	5 0 3 is_stmt 0                 @ ../src/board/amcbldc/v120/src/board_amcbldc_v120.c:0:3
	movw	r0, #1024
	movt	r0, #18432
	.loc	5 109 3 is_stmt 1               @ ../src/board/amcbldc/v120/src/board_amcbldc_v120.c:109:3
	movw	r1, #32804
	movs	r2, #1
	bl	HAL_GPIO_WritePin
.Ltmp21:
	.loc	5 110 1                         @ ../src/board/amcbldc/v120/src/board_amcbldc_v120.c:110:1
	add	sp, #164
	pop	{r4, r5, r6, r7, pc}
.Ltmp22:
.Lfunc_end0:
	.size	stm32hal_board_init, .Lfunc_end0-stm32hal_board_init
	.cfi_endproc
	.file	6 "C:\\Users\\grodriguez\\Documents\\iit\\icub-firmware\\emBODY\\eBcode\\arch-arm\\libs\\lowlevel\\stm32hal\\proj" "../api\\../src/driver/stm32g4-v120/inc/stm32g4xx_hal_rcc.h"
	.file	7 "C:\\Users\\grodriguez\\Documents\\iit\\icub-firmware\\emBODY\\eBcode\\arch-arm\\libs\\lowlevel\\stm32hal\\proj" "../src/driver/stm32g4-v120/inc/stm32g4xx_hal_rcc_ex.h"
	.cantunwind
	.fnend
                                        @ -- End function
	.section	.text.Error_Handler,"ax",%progbits
	.hidden	Error_Handler                   @ -- Begin function Error_Handler
	.globl	Error_Handler
	.p2align	1
	.type	Error_Handler,%function
	.code	16                              @ @Error_Handler
	.thumb_func
Error_Handler:
.Lfunc_begin1:
	.loc	5 122 0                         @ ../src/board/amcbldc/v120/src/board_amcbldc_v120.c:122:0
	.fnstart
	.cfi_startproc
@ %bb.0:
	.loc	5 127 1 prologue_end            @ ../src/board/amcbldc/v120/src/board_amcbldc_v120.c:127:1
	bx	lr
.Ltmp23:
.Lfunc_end1:
	.size	Error_Handler, .Lfunc_end1-Error_Handler
	.cfi_endproc
	.cantunwind
	.fnend
                                        @ -- End function
	.section	".note.GNU-stack","",%progbits
	.eabi_attribute	30, 3	@ Tag_ABI_optimization_goals
	.ARM_attribute	16, 1	@ Tag_AV_eba