	.text
	.syntax unified
	.eabi_attribute	67, "2.09"	@ Tag_conformance
	.cpu	cortex-m4
	.eabi_attribute	6, 13	@ Tag_CPU_arch
	.eabi_attribute	7, 77	@ Tag_CPU_arch_profile
	.eabi_attribute	8, 0	@ Tag_ARM_ISA_use
	.eabi_attribute	9, 2	@ Tag_THUMB_ISA_use
	.fpu	fpv4-sp-d16
	.eabi_attribute	27, 1	@ Tag_ABI_HardFP_use
	.eabi_attribute	36, 1	@ Tag_FP_HP_extension
	.eabi_attribute	34, 1	@ Tag_CPU_unaligned_access
	.eabi_attribute	17, 1	@ Tag_ABI_PCS_GOT_use
	.eabi_attribute	20, 2	@ Tag_ABI_FP_denormal
	.eabi_attribute	21, 0	@ Tag_ABI_FP_exceptions
	.eabi_attribute	23, 1	@ Tag_ABI_FP_number_model
	.eabi_attribute	24, 1	@ Tag_ABI_align_needed
	.eabi_attribute	25, 1	@ Tag_ABI_align_preserved
	.eabi_attribute	28, 1	@ Tag_ABI_VFP_args
	.eabi_attribute	38, 1	@ Tag_ABI_FP_16bit_format
	.eabi_attribute	18, 2	@ Tag_ABI_PCS_wchar_t
	.eabi_attribute	26, 1	@ Tag_ABI_enum_size
	.eabi_attribute	14, 0	@ Tag_ABI_PCS_R9_use
	.file	"fdcan.c"
	.file	1 "C:\\" "Keil_v5\\ARM\\ARMCLANG\\Bin\\..\\include\\stdint.h"
	.file	2 "C:\\Users\\grodriguez\\Documents\\iit\\icub-firmware\\emBODY\\eBcode\\arch-arm\\libs\\lowlevel\\stm32hal\\proj" "../src/driver/stm32g4-v120/inc/stm32g474xx.h"
	.file	3 "C:\\Users\\grodriguez\\Documents\\iit\\icub-firmware\\emBODY\\eBcode\\arch-arm\\libs\\lowlevel\\stm32hal\\proj" "../api\\../src/driver/stm32g4-v120/inc/stm32g4xx_hal_fdcan.h"
	.file	4 "C:\\Users\\grodriguez\\Documents\\iit\\icub-firmware\\emBODY\\eBcode\\arch-arm\\libs\\lowlevel\\stm32hal\\proj" "../src/driver/stm32g4-v120/inc/stm32g4xx.h"
	.file	5 "C:\\Users\\grodriguez\\Documents\\iit\\icub-firmware\\emBODY\\eBcode\\arch-arm\\libs\\lowlevel\\stm32hal\\proj" "../src/driver/stm32g4-v120/inc/stm32g4xx_hal_def.h"
	.file	6 "C:\\Users\\grodriguez\\Documents\\iit\\icub-firmware\\emBODY\\eBcode\\arch-arm\\libs\\lowlevel\\stm32hal\\proj" "../src/board/amcbldc/v120/src/fdcan.c"
	.section	.text.MX_FDCAN2_Init_160mhz,"ax",%progbits
	.hidden	MX_FDCAN2_Init_160mhz           @ -- Begin function MX_FDCAN2_Init_160mhz
	.globl	MX_FDCAN2_Init_160mhz
	.p2align	1
	.type	MX_FDCAN2_Init_160mhz,%function
	.code	16                              @ @MX_FDCAN2_Init_160mhz
	.thumb_func
MX_FDCAN2_Init_160mhz:
.Lfunc_begin0:
	.loc	6 31 0                          @ ../src/board/amcbldc/v120/src/fdcan.c:31:0
	.fnstart
	.cfi_sections .debug_frame
	.cfi_startproc
@ %bb.0:
	.save	{r4, r5, r7, lr}
	push	{r4, r5, r7, lr}
	.cfi_def_cfa_offset 16
	.cfi_offset lr, -4
	.cfi_offset r7, -8
	.cfi_offset r5, -12
	.cfi_offset r4, -16
.Ltmp0:
	.loc	6 33 20 prologue_end            @ ../src/board/amcbldc/v120/src/fdcan.c:33:20
	movw	r0, :lower16:hfdcan2
	movw	r1, #26624
	movt	r0, :upper16:hfdcan2
	movt	r1, #16384
	str	r1, [r0]
	mov.w	r1, #768
	movs	r2, #0
	.loc	6 34 28                         @ ../src/board/amcbldc/v120/src/fdcan.c:34:28
	strd	r1, r2, [r0, #8]
	movw	r1, #257
	mov.w	lr, #2
	movs	r3, #16
	mov.w	r12, #63
	.loc	6 36 35                         @ ../src/board/amcbldc/v120/src/fdcan.c:36:35
	strh	r1, [r0, #16]
	movs	r1, #1
	movs	r4, #4
	.loc	6 39 33                         @ ../src/board/amcbldc/v120/src/fdcan.c:39:33
	strd	lr, r3, [r0, #20]
	.loc	6 41 32                         @ ../src/board/amcbldc/v120/src/fdcan.c:41:32
	strd	r12, r3, [r0, #28]
	.loc	6 43 30                         @ ../src/board/amcbldc/v120/src/fdcan.c:43:30
	add.w	r3, r0, #36
	.loc	6 38 34                         @ ../src/board/amcbldc/v120/src/fdcan.c:38:34
	strb	r2, [r0, #18]
	movs	r5, #5
	.loc	6 43 30                         @ ../src/board/amcbldc/v120/src/fdcan.c:43:30
	stm	r3!, {r1, r4, r5}
	.loc	6 46 29                         @ ../src/board/amcbldc/v120/src/fdcan.c:46:29
	strd	r4, r1, [r0, #48]
	.loc	6 48 30                         @ ../src/board/amcbldc/v120/src/fdcan.c:48:30
	strd	r2, r2, [r0, #56]
.Ltmp1:
	.loc	6 50 7                          @ ../src/board/amcbldc/v120/src/fdcan.c:50:7
	bl	HAL_FDCAN_Init
.Ltmp2:
	.loc	6 50 7 is_stmt 0                @ ../src/board/amcbldc/v120/src/fdcan.c:50:7
	cbz	r0, .LBB0_2
@ %bb.1:
.Ltmp3:
	.loc	6 52 5 is_stmt 1                @ ../src/board/amcbldc/v120/src/fdcan.c:52:5
	pop.w	{r4, r5, r7, lr}
.Ltmp4:
	b	Error_Handler
.Ltmp5:
.LBB0_2:
	.loc	6 55 1                          @ ../src/board/amcbldc/v120/src/fdcan.c:55:1
	pop	{r4, r5, r7, pc}
.Ltmp6:
.Lfunc_end0:
	.size	MX_FDCAN2_Init_160mhz, .Lfunc_end0-MX_FDCAN2_Init_160mhz
	.cfi_endproc
	.file	7 "C:\\Users\\grodriguez\\Documents\\iit\\icub-firmware\\emBODY\\eBcode\\arch-arm\\libs\\lowlevel\\stm32hal\\proj" "../api/../src/board/amcbldc/v120/inc/main.h"
	.cantunwind
	.fnend
                                        @ -- End function
	.section	.text.MX_FDCAN2_Init,"ax",%progbits
	.hidden	MX_FDCAN2_Init                  @ -- Begin function MX_FDCAN2_Init
	.globl	MX_FDCAN2_Init
	.p2align	1
	.type	MX_FDCAN2_Init,%function
	.code	16                              @ @MX_FDCAN2_Init
	.thumb_func
MX_FDCAN2_Init:
.Lfunc_begin1:
	.loc	6 59 0                          @ ../src/board/amcbldc/v120/src/fdcan.c:59:0
	.fnstart
	.cfi_startproc
@ %bb.0:
	.save	{r7, lr}
	push	{r7, lr}
	.cfi_def_cfa_offset 8
	.cfi_offset lr, -4
	.cfi_offset r7, -8
.Ltmp7:
	.loc	6 61 20 prologue_end            @ ../src/board/amcbldc/v120/src/fdcan.c:61:20
	movw	r0, :lower16:hfdcan2
	movt	r0, :upper16:hfdcan2
	movw	r1, #26624
	movw	r2, #257
	movt	r1, #16384
	.loc	6 64 35                         @ ../src/board/amcbldc/v120/src/fdcan.c:64:35
	strh	r2, [r0, #16]
	movs	r2, #7
	movs	r3, #10
	.loc	6 67 33                         @ ../src/board/amcbldc/v120/src/fdcan.c:67:33
	add.w	lr, r0, #20
	.loc	6 61 20                         @ ../src/board/amcbldc/v120/src/fdcan.c:61:20
	str	r1, [r0]
	movs	r1, #0
	mov.w	r12, #13
	.loc	6 67 33                         @ ../src/board/amcbldc/v120/src/fdcan.c:67:33
	stm.w	lr, {r2, r3, r12}
	.loc	6 70 32                         @ ../src/board/amcbldc/v120/src/fdcan.c:70:32
	strd	r3, r2, [r0, #32]
	movs	r2, #1
	.loc	6 62 28                         @ ../src/board/amcbldc/v120/src/fdcan.c:62:28
	strd	r1, r1, [r0, #8]
	.loc	6 66 34                         @ ../src/board/amcbldc/v120/src/fdcan.c:66:34
	strb	r1, [r0, #18]
	.loc	6 72 34                         @ ../src/board/amcbldc/v120/src/fdcan.c:72:34
	strd	r3, r12, [r0, #40]
	.loc	6 74 29                         @ ../src/board/amcbldc/v120/src/fdcan.c:74:29
	str	r3, [r0, #48]
	.loc	6 75 30                         @ ../src/board/amcbldc/v120/src/fdcan.c:75:30
	strd	r2, r1, [r0, #52]
	.loc	6 77 32                         @ ../src/board/amcbldc/v120/src/fdcan.c:77:32
	str	r1, [r0, #60]
.Ltmp8:
	.loc	6 78 7                          @ ../src/board/amcbldc/v120/src/fdcan.c:78:7
	bl	HAL_FDCAN_Init
.Ltmp9:
	.loc	6 78 7 is_stmt 0                @ ../src/board/amcbldc/v120/src/fdcan.c:78:7
	cbz	r0, .LBB1_2
@ %bb.1:
.Ltmp10:
	.loc	6 80 5 is_stmt 1                @ ../src/board/amcbldc/v120/src/fdcan.c:80:5
	pop.w	{r7, lr}
.Ltmp11:
	b	Error_Handler
.Ltmp12:
.LBB1_2:
	.loc	6 83 1                          @ ../src/board/amcbldc/v120/src/fdcan.c:83:1
	pop	{r7, pc}
.Ltmp13:
.Lfunc_end1:
	.size	MX_FDCAN2_Init, .Lfunc_end1-MX_FDCAN2_Init
	.cfi_endproc
	.cantunwind
	.fnend
                                        @ -- End function
	.section	.text.HAL_FDCAN_MspInit,"ax",%progbits
	.hidden	HAL_FDCAN_MspInit               @ -- Begin function HAL_FDCAN_MspInit
	.globl	HAL_FDCAN_MspInit
	.p2align	1
	.type	HAL_FDCAN_MspInit,%function
	.code	16                              @ @HAL_FDCAN_MspInit
	.thumb_func
HAL_FDCAN_MspInit:
.Lfunc_begin2:
	.loc	6 88 0                          @ ../src/board/amcbldc/v120/src/fdcan.c:88:0
	.fnstart
	.cfi_startproc
@ %bb.0:
	@DEBUG_VALUE: HAL_FDCAN_MspInit:fdcanHandle <- $r0
	@DEBUG_VALUE: HAL_FDCAN_MspInit:fdcanHandle <- $r0
	.save	{r7, lr}
	push	{r7, lr}
	.cfi_def_cfa_offset 8
	.cfi_offset lr, -4
	.cfi_offset r7, -8
	.pad	#24
	sub	sp, #24
	.cfi_def_cfa_offset 32
.Ltmp14:
	.loc	6 91 19 prologue_end            @ ../src/board/amcbldc/v120/src/fdcan.c:91:19
	ldr	r0, [r0]
.Ltmp15:
	@DEBUG_VALUE: HAL_FDCAN_MspInit:fdcanHandle <- [DW_OP_LLVM_entry_value 1] $r0
	.loc	6 0 19 is_stmt 0                @ ../src/board/amcbldc/v120/src/fdcan.c:0:19
	movw	r1, #26624
	movt	r1, #16384
.Ltmp16:
	.loc	6 91 6                          @ ../src/board/amcbldc/v120/src/fdcan.c:91:6
	cmp	r0, r1
	bne	.LBB2_2
.Ltmp17:
@ %bb.1:
	@DEBUG_VALUE: HAL_FDCAN_MspInit:fdcanHandle <- [DW_OP_LLVM_entry_value 1] $r0
	.loc	6 0 6                           @ ../src/board/amcbldc/v120/src/fdcan.c:0:6
	movw	r0, #4172
	movt	r0, #16386
.Ltmp18:
	.loc	6 97 5 is_stmt 1                @ ../src/board/amcbldc/v120/src/fdcan.c:97:5
	ldr	r1, [r0, #12]
	orr	r1, r1, #33554432
	str	r1, [r0, #12]
	ldr	r1, [r0, #12]
	and	r1, r1, #33554432
	str	r1, [sp, #4]
	ldr	r1, [sp, #4]
.Ltmp19:
	.loc	6 99 5                          @ ../src/board/amcbldc/v120/src/fdcan.c:99:5
	ldr	r1, [r0]
	orr	r1, r1, #2
	str	r1, [r0]
	ldr	r0, [r0]
	add	r1, sp, #4
	and	r0, r0, #2
	str	r0, [sp, #4]
	ldr	r0, [sp, #4]
	mov.w	r0, #12288
.Ltmp20:
	.loc	6 104 25                        @ ../src/board/amcbldc/v120/src/fdcan.c:104:25
	str	r0, [sp, #4]
	movs	r0, #2
	.loc	6 105 26                        @ ../src/board/amcbldc/v120/src/fdcan.c:105:26
	str	r0, [sp, #8]
	movs	r0, #0
	.loc	6 106 26                        @ ../src/board/amcbldc/v120/src/fdcan.c:106:26
	str	r0, [sp, #12]
	movs	r0, #3
	.loc	6 107 27                        @ ../src/board/amcbldc/v120/src/fdcan.c:107:27
	str	r0, [sp, #16]
	movs	r0, #9
	.loc	6 108 31                        @ ../src/board/amcbldc/v120/src/fdcan.c:108:31
	str	r0, [sp, #20]
	movw	r0, #1024
	movt	r0, #18432
	.loc	6 109 5                         @ ../src/board/amcbldc/v120/src/fdcan.c:109:5
	bl	HAL_GPIO_Init
.Ltmp21:
	.loc	6 112 5                         @ ../src/board/amcbldc/v120/src/fdcan.c:112:5
	movs	r0, #86
	movs	r1, #0
	movs	r2, #0
	bl	HAL_NVIC_SetPriority
.Ltmp22:
	.loc	6 113 5                         @ ../src/board/amcbldc/v120/src/fdcan.c:113:5
	movs	r0, #86
	bl	HAL_NVIC_EnableIRQ
.Ltmp23:
	.loc	6 114 5                         @ ../src/board/amcbldc/v120/src/fdcan.c:114:5
	movs	r0, #87
	movs	r1, #0
	movs	r2, #0
	bl	HAL_NVIC_SetPriority
.Ltmp24:
	.loc	6 115 5                         @ ../src/board/amcbldc/v120/src/fdcan.c:115:5
	movs	r0, #87
	bl	HAL_NVIC_EnableIRQ
.Ltmp25:
.LBB2_2:
	@DEBUG_VALUE: HAL_FDCAN_MspInit:fdcanHandle <- [DW_OP_LLVM_entry_value 1] $r0
	.loc	6 120 1                         @ ../src/board/amcbldc/v120/src/fdcan.c:120:1
	add	sp, #24
	pop	{r7, pc}
.Ltmp26:
.Lfunc_end2:
	.size	HAL_FDCAN_MspInit, .Lfunc_end2-HAL_FDCAN_MspInit
	.cfi_endproc
	.cantunwind
	.fnend
                                        @ -- End function
	.section	.text.HAL_FDCAN_MspDeInit,"ax",%progbits
	.hidden	HAL_FDCAN_MspDeInit             @ -- Begin function HAL_FDCAN_MspDeInit
	.globl	HAL_FDCAN_MspDeInit
	.p2align	1
	.type	HAL_FDCAN_MspDeInit,%function
	.code	16                              @ @HAL_FDCAN_MspDeInit
	.thumb_func
HAL_FDCAN_MspDeInit:
.Lfunc_begin3:
	.loc	6 123 0                         @ ../src/board/amcbldc/v120/src/fdcan.c:123:0
	.fnstart
	.cfi_startproc
@ %bb.0:
	@DEBUG_VALUE: HAL_FDCAN_MspDeInit:fdcanHandle <- $r0
	@DEBUG_VALUE: HAL_FDCAN_MspDeInit:fdcanHandle <- $r0
	.save	{r7, lr}
	push	{r7, lr}
	.cfi_def_cfa_offset 8
	.cfi_offset lr, -4
	.cfi_offset r7, -8
.Ltmp27:
	.loc	6 125 19 prologue_end           @ ../src/board/amcbldc/v120/src/fdcan.c:125:19
	ldr	r0, [r0]
.Ltmp28:
	@DEBUG_VALUE: HAL_FDCAN_MspDeInit:fdcanHandle <- [DW_OP_LLVM_entry_value 1] $r0
	.loc	6 0 19 is_stmt 0                @ ../src/board/amcbldc/v120/src/fdcan.c:0:19
	movw	r1, #26624
	movt	r1, #16384
.Ltmp29:
	.loc	6 125 6                         @ ../src/board/amcbldc/v120/src/fdcan.c:125:6
	cmp	r0, r1
	.loc	6 146 1 is_stmt 1               @ ../src/board/amcbldc/v120/src/fdcan.c:146:1
	it	ne
	popne	{r7, pc}
.Ltmp30:
.LBB3_1:
	@DEBUG_VALUE: HAL_FDCAN_MspDeInit:fdcanHandle <- [DW_OP_LLVM_entry_value 1] $r0
	.loc	6 0 1 is_stmt 0                 @ ../src/board/amcbldc/v120/src/fdcan.c:0:1
	movw	r0, #4184
	movt	r0, #16386
.Ltmp31:
	.loc	6 131 5 is_stmt 1               @ ../src/board/amcbldc/v120/src/fdcan.c:131:5
	ldr	r1, [r0]
	bic	r1, r1, #33554432
	str	r1, [r0]
	movw	r0, #1024
	movt	r0, #18432
	.loc	6 137 5                         @ ../src/board/amcbldc/v120/src/fdcan.c:137:5
	mov.w	r1, #12288
	bl	HAL_GPIO_DeInit
.Ltmp32:
	.loc	6 140 5                         @ ../src/board/amcbldc/v120/src/fdcan.c:140:5
	movs	r0, #86
	bl	HAL_NVIC_DisableIRQ
.Ltmp33:
	.loc	6 141 5                         @ ../src/board/amcbldc/v120/src/fdcan.c:141:5
	movs	r0, #87
	pop.w	{r7, lr}
.Ltmp34:
	b	HAL_NVIC_DisableIRQ
.Ltmp35:
.Lfunc_end3:
	.size	HAL_FDCAN_MspDeInit, .Lfunc_end3-HAL_FDCAN_MspDeInit
	.cfi_endproc
	.file	8 "C:\\Users\\grodriguez\\Documents\\iit\\icub-firmware\\emBODY\\eBcode\\arch-arm\\libs\\lowlevel\\stm32hal\\proj" "../api\\../src/driver/stm32g4-v120/inc/stm32g4xx_hal_cortex.h"
	.cantunwind
	.fnend
                                        @ -- End function
	.hidden	hfdcan2                         @ @hfdcan2
	.type	hfdcan2,%object
	.section	.bss.hfdcan2,"aw",%nobits
	.globl	hfdcan2
	.p2align	2
hfdcan2:
	.zero	152
	.size	hfdcan2, 152

	.file	9 "C:\\Users\\grodriguez\\Documents\\iit\\icub-firmware\\emBODY\\eBcode\\arch-arm\\libs\\lowlevel\\stm32hal\\proj" "../api\\../src/driver/stm32g4-v120/inc/stm32g4xx_hal_gpio.h"
	.section	".note.GNU-stack","",%progbits
	.eabi_attribute	30, 3	@ Tag_ABI_optimization_goals
	.ARM_attribute	16, 1	@ Tag_AV_eba