	.text
	.syntax unified
	.eabi_attribute	67, "2.09"	@ Tag_conformance
	.cpu	cortex-m4
	.eabi_attribute	6, 13	@ Tag_CPU_arch
	.eabi_attribute	7, 77	@ Tag_CPU_arch_profile
	.eabi_attribute	8, 0	@ Tag_ARM_ISA_use
	.eabi_attribute	9, 2	@ Tag_THUMB_ISA_use
	.fpu	fpv4-sp-d16
	.eabi_attribute	27, 1	@ Tag_ABI_HardFP_use
	.eabi_attribute	36, 1	@ Tag_FP_HP_extension
	.eabi_attribute	34, 1	@ Tag_CPU_unaligned_access
	.eabi_attribute	17, 1	@ Tag_ABI_PCS_GOT_use
	.eabi_attribute	20, 2	@ Tag_ABI_FP_denormal
	.eabi_attribute	21, 0	@ Tag_ABI_FP_exceptions
	.eabi_attribute	23, 1	@ Tag_ABI_FP_number_model
	.eabi_attribute	24, 1	@ Tag_ABI_align_needed
	.eabi_attribute	25, 1	@ Tag_ABI_align_preserved
	.eabi_attribute	28, 1	@ Tag_ABI_VFP_args
	.eabi_attribute	38, 1	@ Tag_ABI_FP_16bit_format
	.eabi_attribute	18, 2	@ Tag_ABI_PCS_wchar_t
	.eabi_attribute	26, 1	@ Tag_ABI_enum_size
	.eabi_attribute	14, 0	@ Tag_ABI_PCS_R9_use
	.file	"stm32g4xx_hal_rcc.c"
	.file	1 "C:\\Users\\grodriguez\\Documents\\iit\\icub-firmware\\emBODY\\eBcode\\arch-arm\\libs\\lowlevel\\stm32hal\\proj" "../src/driver/stm32g4-v120/inc/stm32g4xx_hal_def.h"
	.file	2 "C:\\Users\\grodriguez\\Documents\\iit\\icub-firmware\\emBODY\\eBcode\\arch-arm\\libs\\lowlevel\\stm32hal\\proj" "../src/driver/stm32g4-v120/inc/stm32g4xx.h"
	.file	3 "C:\\" "Keil_v5\\ARM\\ARMCLANG\\Bin\\..\\include\\stdint.h"
	.file	4 "C:\\Users\\grodriguez\\Documents\\iit\\icub-firmware\\emBODY\\eBcode\\arch-arm\\libs\\lowlevel\\stm32hal\\proj" "../src/driver/stm32g4-v120/inc/stm32g474xx.h"
	.section	.text.HAL_RCC_DeInit,"ax",%progbits
	.hidden	HAL_RCC_DeInit                  @ -- Begin function HAL_RCC_DeInit
	.globl	HAL_RCC_DeInit
	.p2align	1
	.type	HAL_RCC_DeInit,%function
	.code	16                              @ @HAL_RCC_DeInit
	.thumb_func
HAL_RCC_DeInit:
.Lfunc_begin0:
	.file	5 "C:\\Users\\grodriguez\\Documents\\iit\\icub-firmware\\emBODY\\eBcode\\arch-arm\\libs\\lowlevel\\stm32hal\\proj" "../src/driver/stm32g4-v120/src/stm32g4xx_hal_rcc.c"
	.loc	5 218 0                         @ ../src/driver/stm32g4-v120/src/stm32g4xx_hal_rcc.c:218:0
	.fnstart
	.cfi_sections .debug_frame
	.cfi_startproc
@ %bb.0:
	.save	{r4, r5, r6, lr}
	push	{r4, r5, r6, lr}
	.cfi_def_cfa_offset 16
	.cfi_offset lr, -4
	.cfi_offset r6, -8
	.cfi_offset r5, -12
	.cfi_offset r4, -16
	movw	r5, #4096
	movt	r5, #16386
.Ltmp0:
	.loc	5 222 15 prologue_end           @ ../src/driver/stm32g4-v120/src/stm32g4xx_hal_rcc.c:222:15
	bl	HAL_GetTick
.Ltmp1:
	.loc	5 225 3                         @ ../src/driver/stm32g4-v120/src/stm32g4xx_hal_rcc.c:225:3
	ldr	r1, [r5]
	.loc	5 222 15                        @ ../src/driver/stm32g4-v120/src/stm32g4xx_hal_rcc.c:222:15
	mov	r4, r0
.Ltmp2:
	@DEBUG_VALUE: HAL_RCC_DeInit:tickstart <- $r4
	.loc	5 225 3                         @ ../src/driver/stm32g4-v120/src/stm32g4xx_hal_rcc.c:225:3
	orr	r0, r1, #256
	str	r0, [r5]
.Ltmp3:
	.p2align	2
.LBB0_1:                                @ =>This Inner Loop Header: Depth=1
	@DEBUG_VALUE: HAL_RCC_DeInit:tickstart <- $r4
	.loc	5 228 10                        @ ../src/driver/stm32g4-v120/src/stm32g4xx_hal_rcc.c:228:10
	ldr	r0, [r5]
	.loc	5 228 3 is_stmt 0               @ ../src/driver/stm32g4-v120/src/stm32g4xx_hal_rcc.c:228:3
	lsls	r0, r0, #21
	bmi	.LBB0_3
.Ltmp4:
@ %bb.2:                                @   in Loop: Header=BB0_1 Depth=1
	@DEBUG_VALUE: HAL_RCC_DeInit:tickstart <- $r4
	.loc	5 230 10 is_stmt 1              @ ../src/driver/stm32g4-v120/src/stm32g4xx_hal_rcc.c:230:10
	bl	HAL_GetTick
.Ltmp5:
	.loc	5 230 24 is_stmt 0              @ ../src/driver/stm32g4-v120/src/stm32g4xx_hal_rcc.c:230:24
	subs	r0, r0, r4
.Ltmp6:
	.loc	5 230 9                         @ ../src/driver/stm32g4-v120/src/stm32g4xx_hal_rcc.c:230:9
	cmp	r0, #2
	bls	.LBB0_1
	b	.LBB0_6
.Ltmp7:
.LBB0_3:
	@DEBUG_VALUE: HAL_RCC_DeInit:tickstart <- $r4
	.loc	5 237 3 is_stmt 1               @ ../src/driver/stm32g4-v120/src/stm32g4xx_hal_rcc.c:237:3
	ldr	r0, [r5, #4]
	orr	r0, r0, #1073741824
	str	r0, [r5, #4]
	.loc	5 240 15                        @ ../src/driver/stm32g4-v120/src/stm32g4xx_hal_rcc.c:240:15
	bl	HAL_GetTick
.Ltmp8:
	mov	r4, r0
.Ltmp9:
	@DEBUG_VALUE: HAL_RCC_DeInit:tickstart <- $r4
	.loc	5 0 15 is_stmt 0                @ ../src/driver/stm32g4-v120/src/stm32g4xx_hal_rcc.c:0:15
	movs	r0, #1
	movw	r6, #5000
	.loc	5 243 13 is_stmt 1              @ ../src/driver/stm32g4-v120/src/stm32g4xx_hal_rcc.c:243:13
	str	r0, [r5, #8]
.Ltmp10:
	.p2align	2
.LBB0_4:                                @ =>This Inner Loop Header: Depth=1
	@DEBUG_VALUE: HAL_RCC_DeInit:tickstart <- $r4
	.loc	5 246 10                        @ ../src/driver/stm32g4-v120/src/stm32g4xx_hal_rcc.c:246:10
	ldr	r0, [r5, #8]
	and	r0, r0, #12
	.loc	5 246 3 is_stmt 0               @ ../src/driver/stm32g4-v120/src/stm32g4xx_hal_rcc.c:246:3
	cmp	r0, #4
	beq	.LBB0_7
.Ltmp11:
@ %bb.5:                                @   in Loop: Header=BB0_4 Depth=1
	@DEBUG_VALUE: HAL_RCC_DeInit:tickstart <- $r4
	.loc	5 248 10 is_stmt 1              @ ../src/driver/stm32g4-v120/src/stm32g4xx_hal_rcc.c:248:10
	bl	HAL_GetTick
.Ltmp12:
	.loc	5 248 24 is_stmt 0              @ ../src/driver/stm32g4-v120/src/stm32g4xx_hal_rcc.c:248:24
	subs	r0, r0, r4
.Ltmp13:
	.loc	5 248 9                         @ ../src/driver/stm32g4-v120/src/stm32g4xx_hal_rcc.c:248:9
	cmp	r0, r6
	bls	.LBB0_4
.Ltmp14:
.LBB0_6:
	@DEBUG_VALUE: HAL_RCC_DeInit:tickstart <- $r4
	.loc	5 0 9                           @ ../src/driver/stm32g4-v120/src/stm32g4xx_hal_rcc.c:0:9
	movs	r0, #3
	.loc	5 294 1 is_stmt 1               @ ../src/driver/stm32g4-v120/src/stm32g4xx_hal_rcc.c:294:1
	pop	{r4, r5, r6, pc}
.Ltmp15:
.LBB0_7:
	@DEBUG_VALUE: HAL_RCC_DeInit:tickstart <- $r4
	.loc	5 258 20                        @ ../src/driver/stm32g4-v120/src/stm32g4xx_hal_rcc.c:258:20
	movw	r0, :lower16:uwTickPrio
	movt	r0, :upper16:uwTickPrio
.Ltmp16:
	.loc	5 255 19                        @ ../src/driver/stm32g4-v120/src/stm32g4xx_hal_rcc.c:255:19
	movw	r1, :lower16:SystemCoreClock
	movw	r2, #9216
.Ltmp17:
	.loc	5 258 20                        @ ../src/driver/stm32g4-v120/src/stm32g4xx_hal_rcc.c:258:20
	ldr	r0, [r0]
.Ltmp18:
	.loc	5 255 19                        @ ../src/driver/stm32g4-v120/src/stm32g4xx_hal_rcc.c:255:19
	movt	r1, :upper16:SystemCoreClock
	movt	r2, #244
	str	r2, [r1]
.Ltmp19:
	.loc	5 258 7                         @ ../src/driver/stm32g4-v120/src/stm32g4xx_hal_rcc.c:258:7
	bl	HAL_InitTick
.Ltmp20:
	.loc	5 258 7 is_stmt 0               @ ../src/driver/stm32g4-v120/src/stm32g4xx_hal_rcc.c:258:7
	cbz	r0, .LBB0_9
.Ltmp21:
@ %bb.8:
	@DEBUG_VALUE: HAL_RCC_DeInit:tickstart <- $r4
	.loc	5 0 7                           @ ../src/driver/stm32g4-v120/src/stm32g4xx_hal_rcc.c:0:7
	movs	r0, #1
	.loc	5 294 1 is_stmt 1               @ ../src/driver/stm32g4-v120/src/stm32g4xx_hal_rcc.c:294:1
	pop	{r4, r5, r6, pc}
.Ltmp22:
.LBB0_9:
	@DEBUG_VALUE: HAL_RCC_DeInit:tickstart <- $r4
	.loc	5 0 1 is_stmt 0                 @ ../src/driver/stm32g4-v120/src/stm32g4xx_hal_rcc.c:0:1
	mov.w	r0, #256
	.loc	5 264 11 is_stmt 1              @ ../src/driver/stm32g4-v120/src/stm32g4xx_hal_rcc.c:264:11
	str	r0, [r5]
	.loc	5 267 11                        @ ../src/driver/stm32g4-v120/src/stm32g4xx_hal_rcc.c:267:11
	str	r0, [r5]
	.loc	5 270 15                        @ ../src/driver/stm32g4-v120/src/stm32g4xx_hal_rcc.c:270:15
	bl	HAL_GetTick
.Ltmp23:
	mov	r4, r0
.Ltmp24:
	@DEBUG_VALUE: HAL_RCC_DeInit:tickstart <- $r4
	.p2align	2
.LBB0_10:                               @ =>This Inner Loop Header: Depth=1
	@DEBUG_VALUE: HAL_RCC_DeInit:tickstart <- $r4
	.loc	5 273 10                        @ ../src/driver/stm32g4-v120/src/stm32g4xx_hal_rcc.c:273:10
	ldr	r0, [r5]
	.loc	5 273 3 is_stmt 0               @ ../src/driver/stm32g4-v120/src/stm32g4xx_hal_rcc.c:273:3
	lsls	r0, r0, #6
	bpl	.LBB0_12
.Ltmp25:
@ %bb.11:                               @   in Loop: Header=BB0_10 Depth=1
	@DEBUG_VALUE: HAL_RCC_DeInit:tickstart <- $r4
	.loc	5 275 10 is_stmt 1              @ ../src/driver/stm32g4-v120/src/stm32g4xx_hal_rcc.c:275:10
	bl	HAL_GetTick
.Ltmp26:
	.loc	5 275 24 is_stmt 0              @ ../src/driver/stm32g4-v120/src/stm32g4xx_hal_rcc.c:275:24
	subs	r0, r0, r4
.Ltmp27:
	.loc	5 275 9                         @ ../src/driver/stm32g4-v120/src/stm32g4xx_hal_rcc.c:275:9
	cmp	r0, #2
	bls	.LBB0_10
	b	.LBB0_6
.Ltmp28:
.LBB0_12:
	@DEBUG_VALUE: HAL_RCC_DeInit:tickstart <- $r4
	.loc	5 0 9                           @ ../src/driver/stm32g4-v120/src/stm32g4xx_hal_rcc.c:0:9
	mov.w	r0, #4096
	.loc	5 282 16 is_stmt 1              @ ../src/driver/stm32g4-v120/src/stm32g4xx_hal_rcc.c:282:16
	str	r0, [r5, #12]
	movs	r0, #0
	mov.w	r1, #-1
	.loc	5 285 3                         @ ../src/driver/stm32g4-v120/src/stm32g4xx_hal_rcc.c:285:3
	str	r0, [r5, #24]
	.loc	5 288 3                         @ ../src/driver/stm32g4-v120/src/stm32g4xx_hal_rcc.c:288:3
	str	r1, [r5, #32]
	.loc	5 291 3                         @ ../src/driver/stm32g4-v120/src/stm32g4xx_hal_rcc.c:291:3
	ldr.w	r1, [r5, #148]
	orr	r1, r1, #8388608
	str.w	r1, [r5, #148]
	.loc	5 294 1                         @ ../src/driver/stm32g4-v120/src/stm32g4xx_hal_rcc.c:294:1
	pop	{r4, r5, r6, pc}
.Ltmp29:
.Lfunc_end0:
	.size	HAL_RCC_DeInit, .Lfunc_end0-HAL_RCC_DeInit
	.cfi_endproc
	.cantunwind
	.fnend
                                        @ -- End function
	.section	.text.HAL_RCC_OscConfig,"ax",%progbits
	.hidden	HAL_RCC_OscConfig               @ -- Begin function HAL_RCC_OscConfig
	.globl	HAL_RCC_OscConfig
	.p2align	1
	.type	HAL_RCC_OscConfig,%function
	.code	16                              @ @HAL_RCC_OscConfig
	.thumb_func
HAL_RCC_OscConfig:
.Lfunc_begin1:
	.loc	5 311 0                         @ ../src/driver/stm32g4-v120/src/stm32g4xx_hal_rcc.c:311:0
	.fnstart
	.cfi_startproc
@ %bb.0:
	@DEBUG_VALUE: HAL_RCC_OscConfig:RCC_OscInitStruct <- $r0
	@DEBUG_VALUE: HAL_RCC_OscConfig:RCC_OscInitStruct <- $r0
	.save	{r4, r5, r6, r7, r8, lr}
	push.w	{r4, r5, r6, r7, r8, lr}
	.cfi_def_cfa_offset 24
	.cfi_offset lr, -4
	.cfi_offset r8, -8
	.cfi_offset r7, -12
	.cfi_offset r6, -16
	.cfi_offset r5, -20
	.cfi_offset r4, -24
	.pad	#8
	sub	sp, #8
	.cfi_def_cfa_offset 32
.Ltmp30:
	.loc	5 317 7 prologue_end            @ ../src/driver/stm32g4-v120/src/stm32g4xx_hal_rcc.c:317:7
	cmp	r0, #0
	beq.w	.LBB1_43
.Ltmp31:
@ %bb.1:
	@DEBUG_VALUE: HAL_RCC_OscConfig:RCC_OscInitStruct <- $r0
	.loc	5 0 7 is_stmt 0                 @ ../src/driver/stm32g4-v120/src/stm32g4xx_hal_rcc.c:0:7
	mov	r4, r0
.Ltmp32:
	@DEBUG_VALUE: HAL_RCC_OscConfig:RCC_OscInitStruct <- $r4
	.loc	5 326 7 is_stmt 1               @ ../src/driver/stm32g4-v120/src/stm32g4xx_hal_rcc.c:326:7
	ldrb	r0, [r0]
	movw	r6, #4096
	lsls	r0, r0, #31
	movt	r6, #16386
	bne	.LBB1_16
.Ltmp33:
.LBB1_2:
	@DEBUG_VALUE: HAL_RCC_OscConfig:RCC_OscInitStruct <- $r4
	.loc	5 379 7                         @ ../src/driver/stm32g4-v120/src/stm32g4xx_hal_rcc.c:379:7
	ldrb	r0, [r4]
	lsls	r0, r0, #30
	bmi	.LBB1_22
.Ltmp34:
.LBB1_3:
	@DEBUG_VALUE: HAL_RCC_OscConfig:RCC_OscInitStruct <- $r4
	.loc	5 451 7                         @ ../src/driver/stm32g4-v120/src/stm32g4xx_hal_rcc.c:451:7
	ldrb	r0, [r4]
	lsls	r0, r0, #28
	bmi.w	.LBB1_28
.Ltmp35:
.LBB1_4:
	@DEBUG_VALUE: HAL_RCC_OscConfig:RCC_OscInitStruct <- $r4
	.loc	5 493 7                         @ ../src/driver/stm32g4-v120/src/stm32g4xx_hal_rcc.c:493:7
	ldrb	r0, [r4]
	lsls	r0, r0, #29
	bmi.w	.LBB1_34
.Ltmp36:
.LBB1_5:
	@DEBUG_VALUE: HAL_RCC_OscConfig:RCC_OscInitStruct <- $r4
	.loc	5 566 6                         @ ../src/driver/stm32g4-v120/src/stm32g4xx_hal_rcc.c:566:6
	ldrb	r0, [r4]
	lsls	r0, r0, #26
	bmi.w	.LBB1_48
.Ltmp37:
.LBB1_6:
	@DEBUG_VALUE: HAL_RCC_OscConfig:RCC_OscInitStruct <- $r4
	.loc	5 612 30                        @ ../src/driver/stm32g4-v120/src/stm32g4xx_hal_rcc.c:612:30
	ldr	r0, [r4, #28]
.Ltmp38:
	.loc	5 612 7 is_stmt 0               @ ../src/driver/stm32g4-v120/src/stm32g4xx_hal_rcc.c:612:7
	cmp	r0, #0
	beq	.LBB1_15
.Ltmp39:
@ %bb.7:
	@DEBUG_VALUE: HAL_RCC_OscConfig:RCC_OscInitStruct <- $r4
	.loc	5 615 9 is_stmt 1               @ ../src/driver/stm32g4-v120/src/stm32g4xx_hal_rcc.c:615:9
	ldr	r1, [r6, #8]
	and	r1, r1, #12
.Ltmp40:
	.loc	5 615 9 is_stmt 0               @ ../src/driver/stm32g4-v120/src/stm32g4xx_hal_rcc.c:615:9
	cmp	r1, #12
	bne.w	.LBB1_62
.Ltmp41:
@ %bb.8:
	@DEBUG_VALUE: HAL_RCC_OscConfig:RCC_OscInitStruct <- $r4
	.loc	5 693 10 is_stmt 1              @ ../src/driver/stm32g4-v120/src/stm32g4xx_hal_rcc.c:693:10
	cmp	r0, #1
	beq.w	.LBB1_43
.Ltmp42:
@ %bb.9:
	@DEBUG_VALUE: HAL_RCC_OscConfig:RCC_OscInitStruct <- $r4
	.loc	5 700 28                        @ ../src/driver/stm32g4-v120/src/stm32g4xx_hal_rcc.c:700:28
	ldr	r0, [r6, #12]
.Ltmp43:
	@DEBUG_VALUE: HAL_RCC_OscConfig:temp_pllckcfg <- $r0
	.loc	5 701 81                        @ ../src/driver/stm32g4-v120/src/stm32g4xx_hal_rcc.c:701:81
	ldr	r1, [r4, #32]
	.loc	5 701 11 is_stmt 0              @ ../src/driver/stm32g4-v120/src/stm32g4xx_hal_rcc.c:701:11
	and	r2, r0, #3
	.loc	5 701 92                        @ ../src/driver/stm32g4-v120/src/stm32g4xx_hal_rcc.c:701:92
	cmp	r2, r1
	bne.w	.LBB1_43
.Ltmp44:
@ %bb.10:
	@DEBUG_VALUE: HAL_RCC_OscConfig:RCC_OscInitStruct <- $r4
	@DEBUG_VALUE: HAL_RCC_OscConfig:temp_pllckcfg <- $r0
	.loc	5 702 82 is_stmt 1              @ ../src/driver/stm32g4-v120/src/stm32g4xx_hal_rcc.c:702:82
	ldr	r2, [r4, #36]
	mvn	r3, #15
	.loc	5 702 11 is_stmt 0              @ ../src/driver/stm32g4-v120/src/stm32g4xx_hal_rcc.c:702:11
	and	r1, r0, #240
	.loc	5 702 94                        @ ../src/driver/stm32g4-v120/src/stm32g4xx_hal_rcc.c:702:94
	add.w	r2, r3, r2, lsl #4
	.loc	5 702 120                       @ ../src/driver/stm32g4-v120/src/stm32g4xx_hal_rcc.c:702:120
	cmp	r1, r2
	bne.w	.LBB1_43
.Ltmp45:
@ %bb.11:
	@DEBUG_VALUE: HAL_RCC_OscConfig:RCC_OscInitStruct <- $r4
	@DEBUG_VALUE: HAL_RCC_OscConfig:temp_pllckcfg <- $r0
	.loc	5 703 81 is_stmt 1              @ ../src/driver/stm32g4-v120/src/stm32g4xx_hal_rcc.c:703:81
	ldr	r1, [r4, #40]
	.loc	5 703 11 is_stmt 0              @ ../src/driver/stm32g4-v120/src/stm32g4xx_hal_rcc.c:703:11
	and	r2, r0, #32512
	.loc	5 703 113                       @ ../src/driver/stm32g4-v120/src/stm32g4xx_hal_rcc.c:703:113
	cmp.w	r2, r1, lsl #8
	bne.w	.LBB1_43
.Ltmp46:
@ %bb.12:
	@DEBUG_VALUE: HAL_RCC_OscConfig:RCC_OscInitStruct <- $r4
	@DEBUG_VALUE: HAL_RCC_OscConfig:temp_pllckcfg <- $r0
	.loc	5 704 84 is_stmt 1              @ ../src/driver/stm32g4-v120/src/stm32g4xx_hal_rcc.c:704:84
	ldr	r1, [r4, #44]
	.loc	5 704 11 is_stmt 0              @ ../src/driver/stm32g4-v120/src/stm32g4xx_hal_rcc.c:704:11
	and	r2, r0, #-134217728
	.loc	5 704 119                       @ ../src/driver/stm32g4-v120/src/stm32g4xx_hal_rcc.c:704:119
	cmp.w	r2, r1, lsl #27
	bne.w	.LBB1_43
.Ltmp47:
@ %bb.13:
	@DEBUG_VALUE: HAL_RCC_OscConfig:RCC_OscInitStruct <- $r4
	@DEBUG_VALUE: HAL_RCC_OscConfig:temp_pllckcfg <- $r0
	.loc	5 705 83 is_stmt 1              @ ../src/driver/stm32g4-v120/src/stm32g4xx_hal_rcc.c:705:83
	ldr	r2, [r4, #48]
	movs	r3, #0
	movt	r3, #65504
	.loc	5 705 102 is_stmt 0             @ ../src/driver/stm32g4-v120/src/stm32g4xx_hal_rcc.c:705:102
	add.w	r2, r3, r2, lsl #20
	.loc	5 705 11                        @ ../src/driver/stm32g4-v120/src/stm32g4xx_hal_rcc.c:705:11
	and	r1, r0, #6291456
	.loc	5 705 102                       @ ../src/driver/stm32g4-v120/src/stm32g4xx_hal_rcc.c:705:102
	bfc	r2, #0, #21
	.loc	5 705 128                       @ ../src/driver/stm32g4-v120/src/stm32g4xx_hal_rcc.c:705:128
	cmp	r1, r2
	bne.w	.LBB1_43
.Ltmp48:
@ %bb.14:
	@DEBUG_VALUE: HAL_RCC_OscConfig:RCC_OscInitStruct <- $r4
	@DEBUG_VALUE: HAL_RCC_OscConfig:temp_pllckcfg <- $r0
	.loc	5 706 83 is_stmt 1              @ ../src/driver/stm32g4-v120/src/stm32g4xx_hal_rcc.c:706:83
	ldr	r1, [r4, #52]
	mov.w	r2, #-33554432
	.loc	5 706 102 is_stmt 0             @ ../src/driver/stm32g4-v120/src/stm32g4xx_hal_rcc.c:706:102
	add.w	r1, r2, r1, lsl #24
	.loc	5 706 11                        @ ../src/driver/stm32g4-v120/src/stm32g4xx_hal_rcc.c:706:11
	and	r0, r0, #100663296
.Ltmp49:
	.loc	5 706 102                       @ ../src/driver/stm32g4-v120/src/stm32g4xx_hal_rcc.c:706:102
	and	r1, r1, #-33554432
.Ltmp50:
	.loc	5 701 10 is_stmt 1              @ ../src/driver/stm32g4-v120/src/stm32g4xx_hal_rcc.c:701:10
	cmp	r0, r1
	bne.w	.LBB1_43
.Ltmp51:
.LBB1_15:
	.loc	5 0 10 is_stmt 0                @ ../src/driver/stm32g4-v120/src/stm32g4xx_hal_rcc.c:0:10
	movs	r0, #0
	b	.LBB1_75
.LBB1_16:
.Ltmp52:
	@DEBUG_VALUE: HAL_RCC_OscConfig:RCC_OscInitStruct <- $r4
	.loc	5 331 22 is_stmt 1              @ ../src/driver/stm32g4-v120/src/stm32g4xx_hal_rcc.c:331:22
	ldr	r0, [r6, #8]
	and	r1, r0, #12
.Ltmp53:
	@DEBUG_VALUE: HAL_RCC_OscConfig:temp_sysclksrc <- $r1
	.loc	5 332 21                        @ ../src/driver/stm32g4-v120/src/stm32g4xx_hal_rcc.c:332:21
	ldr	r0, [r6, #12]
.Ltmp54:
	@DEBUG_VALUE: HAL_RCC_OscConfig:temp_pllckcfg <- undef
	.loc	5 335 47                        @ ../src/driver/stm32g4-v120/src/stm32g4xx_hal_rcc.c:335:47
	cmp	r1, #8
	beq	.LBB1_32
.Ltmp55:
@ %bb.17:
	@DEBUG_VALUE: HAL_RCC_OscConfig:RCC_OscInitStruct <- $r4
	@DEBUG_VALUE: HAL_RCC_OscConfig:temp_sysclksrc <- $r1
	.loc	5 0 47 is_stmt 0                @ ../src/driver/stm32g4-v120/src/stm32g4xx_hal_rcc.c:0:47
	movs	r2, #3
	eor	r1, r1, #12
.Ltmp56:
	bic.w	r0, r2, r0
	.loc	5 335 47                        @ ../src/driver/stm32g4-v120/src/stm32g4xx_hal_rcc.c:335:47
	add	r0, r1
	clz	r0, r0
	lsrs	r0, r0, #5
	bne	.LBB1_32
.Ltmp57:
@ %bb.18:
	@DEBUG_VALUE: HAL_RCC_OscConfig:RCC_OscInitStruct <- $r4
	.loc	5 345 7 is_stmt 1               @ ../src/driver/stm32g4-v120/src/stm32g4xx_hal_rcc.c:345:7
	ldr	r0, [r4, #4]
.Ltmp58:
	.loc	5 345 7 is_stmt 0               @ ../src/driver/stm32g4-v120/src/stm32g4xx_hal_rcc.c:345:7
	cmp.w	r0, #65536
	beq	.LBB1_21
.Ltmp59:
@ %bb.19:
	@DEBUG_VALUE: HAL_RCC_OscConfig:RCC_OscInitStruct <- $r4
	cmp.w	r0, #327680
	bne.w	.LBB1_55
.Ltmp60:
@ %bb.20:
	@DEBUG_VALUE: HAL_RCC_OscConfig:RCC_OscInitStruct <- $r4
	.loc	5 345 7                         @ ../src/driver/stm32g4-v120/src/stm32g4xx_hal_rcc.c:345:7
	ldr	r0, [r6]
	orr	r0, r0, #262144
	str	r0, [r6]
.Ltmp61:
.LBB1_21:
	@DEBUG_VALUE: HAL_RCC_OscConfig:RCC_OscInitStruct <- $r4
	.loc	5 0 0                           @ ../src/driver/stm32g4-v120/src/stm32g4xx_hal_rcc.c:0:0
	ldr	r0, [r6]
	orr	r0, r0, #65536
	str	r0, [r6]
	b	.LBB1_56
.Ltmp62:
.LBB1_22:
	@DEBUG_VALUE: HAL_RCC_OscConfig:RCC_OscInitStruct <- $r4
	.loc	5 386 22 is_stmt 1              @ ../src/driver/stm32g4-v120/src/stm32g4xx_hal_rcc.c:386:22
	ldr	r0, [r6, #8]
	.loc	5 387 21                        @ ../src/driver/stm32g4-v120/src/stm32g4xx_hal_rcc.c:387:21
	ldr	r1, [r6, #12]
.Ltmp63:
	@DEBUG_VALUE: HAL_RCC_OscConfig:temp_pllckcfg <- undef
	.loc	5 386 22                        @ ../src/driver/stm32g4-v120/src/stm32g4xx_hal_rcc.c:386:22
	and	r0, r0, #12
.Ltmp64:
	@DEBUG_VALUE: HAL_RCC_OscConfig:temp_sysclksrc <- $r0
	.loc	5 388 47                        @ ../src/driver/stm32g4-v120/src/stm32g4xx_hal_rcc.c:388:47
	cmp	r0, #4
	beq	.LBB1_40
.Ltmp65:
@ %bb.23:
	@DEBUG_VALUE: HAL_RCC_OscConfig:RCC_OscInitStruct <- $r4
	@DEBUG_VALUE: HAL_RCC_OscConfig:temp_sysclksrc <- $r0
	.loc	5 0 47 is_stmt 0                @ ../src/driver/stm32g4-v120/src/stm32g4xx_hal_rcc.c:0:47
	and	r1, r1, #3
.Ltmp66:
	@DEBUG_VALUE: HAL_RCC_OscConfig:temp_pllckcfg <- $r1
	eor	r0, r0, #12
.Ltmp67:
	eor	r1, r1, #2
.Ltmp68:
	.loc	5 388 47                        @ ../src/driver/stm32g4-v120/src/stm32g4xx_hal_rcc.c:388:47
	add	r0, r1
	clz	r0, r0
	lsrs	r0, r0, #5
	bne	.LBB1_40
.Ltmp69:
@ %bb.24:
	@DEBUG_VALUE: HAL_RCC_OscConfig:RCC_OscInitStruct <- $r4
	.loc	5 411 30 is_stmt 1              @ ../src/driver/stm32g4-v120/src/stm32g4xx_hal_rcc.c:411:30
	ldr	r1, [r4, #12]
	.loc	5 0 0 is_stmt 0                 @ ../src/driver/stm32g4-v120/src/stm32g4xx_hal_rcc.c:0:0
	ldr	r0, [r6]
.Ltmp70:
	.loc	5 411 11                        @ ../src/driver/stm32g4-v120/src/stm32g4xx_hal_rcc.c:411:11
	cmp	r1, #0
	beq.w	.LBB1_59
.Ltmp71:
@ %bb.25:
	@DEBUG_VALUE: HAL_RCC_OscConfig:RCC_OscInitStruct <- $r4
	.loc	5 414 9 is_stmt 1               @ ../src/driver/stm32g4-v120/src/stm32g4xx_hal_rcc.c:414:9
	orr	r0, r0, #256
	str	r0, [r6]
	.loc	5 417 21                        @ ../src/driver/stm32g4-v120/src/stm32g4xx_hal_rcc.c:417:21
	bl	HAL_GetTick
.Ltmp72:
	mov	r5, r0
.Ltmp73:
	@DEBUG_VALUE: HAL_RCC_OscConfig:tickstart <- $r5
	.p2align	2
.LBB1_26:                               @ =>This Inner Loop Header: Depth=1
	@DEBUG_VALUE: HAL_RCC_OscConfig:tickstart <- $r5
	@DEBUG_VALUE: HAL_RCC_OscConfig:RCC_OscInitStruct <- $r4
	.loc	5 420 16                        @ ../src/driver/stm32g4-v120/src/stm32g4xx_hal_rcc.c:420:16
	ldr	r0, [r6]
	.loc	5 420 9 is_stmt 0               @ ../src/driver/stm32g4-v120/src/stm32g4xx_hal_rcc.c:420:9
	lsls	r0, r0, #21
	bmi.w	.LBB1_66
.Ltmp74:
@ %bb.27:                               @   in Loop: Header=BB1_26 Depth=1
	@DEBUG_VALUE: HAL_RCC_OscConfig:tickstart <- $r5
	@DEBUG_VALUE: HAL_RCC_OscConfig:RCC_OscInitStruct <- $r4
	.loc	5 422 16 is_stmt 1              @ ../src/driver/stm32g4-v120/src/stm32g4xx_hal_rcc.c:422:16
	bl	HAL_GetTick
.Ltmp75:
	.loc	5 422 30 is_stmt 0              @ ../src/driver/stm32g4-v120/src/stm32g4xx_hal_rcc.c:422:30
	subs	r0, r0, r5
.Ltmp76:
	.loc	5 422 15                        @ ../src/driver/stm32g4-v120/src/stm32g4xx_hal_rcc.c:422:15
	cmp	r0, #2
	bls	.LBB1_26
	b	.LBB1_74
.Ltmp77:
.LBB1_28:
	@DEBUG_VALUE: HAL_RCC_OscConfig:RCC_OscInitStruct <- $r4
	.loc	5 457 27 is_stmt 1              @ ../src/driver/stm32g4-v120/src/stm32g4xx_hal_rcc.c:457:27
	ldr	r1, [r4, #20]
	.loc	5 0 0 is_stmt 0                 @ ../src/driver/stm32g4-v120/src/stm32g4xx_hal_rcc.c:0:0
	ldr.w	r0, [r6, #148]
.Ltmp78:
	.loc	5 457 8                         @ ../src/driver/stm32g4-v120/src/stm32g4xx_hal_rcc.c:457:8
	cmp	r1, #0
	beq.w	.LBB1_52
.Ltmp79:
@ %bb.29:
	@DEBUG_VALUE: HAL_RCC_OscConfig:RCC_OscInitStruct <- $r4
	.loc	5 460 7 is_stmt 1               @ ../src/driver/stm32g4-v120/src/stm32g4xx_hal_rcc.c:460:7
	orr	r0, r0, #1
	str.w	r0, [r6, #148]
	.loc	5 463 19                        @ ../src/driver/stm32g4-v120/src/stm32g4xx_hal_rcc.c:463:19
	bl	HAL_GetTick
.Ltmp80:
	mov	r5, r0
.Ltmp81:
	@DEBUG_VALUE: HAL_RCC_OscConfig:tickstart <- $r5
	.p2align	2
.LBB1_30:                               @ =>This Inner Loop Header: Depth=1
	@DEBUG_VALUE: HAL_RCC_OscConfig:tickstart <- $r5
	@DEBUG_VALUE: HAL_RCC_OscConfig:RCC_OscInitStruct <- $r4
	.loc	5 466 14                        @ ../src/driver/stm32g4-v120/src/stm32g4xx_hal_rcc.c:466:14
	ldr.w	r0, [r6, #148]
	.loc	5 466 7 is_stmt 0               @ ../src/driver/stm32g4-v120/src/stm32g4xx_hal_rcc.c:466:7
	lsls	r0, r0, #30
	bmi.w	.LBB1_4
.Ltmp82:
@ %bb.31:                               @   in Loop: Header=BB1_30 Depth=1
	@DEBUG_VALUE: HAL_RCC_OscConfig:tickstart <- $r5
	@DEBUG_VALUE: HAL_RCC_OscConfig:RCC_OscInitStruct <- $r4
	.loc	5 468 14 is_stmt 1              @ ../src/driver/stm32g4-v120/src/stm32g4xx_hal_rcc.c:468:14
	bl	HAL_GetTick
.Ltmp83:
	.loc	5 468 28 is_stmt 0              @ ../src/driver/stm32g4-v120/src/stm32g4xx_hal_rcc.c:468:28
	subs	r0, r0, r5
.Ltmp84:
	.loc	5 468 13                        @ ../src/driver/stm32g4-v120/src/stm32g4xx_hal_rcc.c:468:13
	cmp	r0, #2
	bls	.LBB1_30
	b	.LBB1_74
.Ltmp85:
.LBB1_32:
	@DEBUG_VALUE: HAL_RCC_OscConfig:RCC_OscInitStruct <- $r4
	.loc	5 337 12 is_stmt 1              @ ../src/driver/stm32g4-v120/src/stm32g4xx_hal_rcc.c:337:12
	ldr	r0, [r6]
	.loc	5 337 52 is_stmt 0              @ ../src/driver/stm32g4-v120/src/stm32g4xx_hal_rcc.c:337:52
	lsls	r0, r0, #14
	bpl.w	.LBB1_2
.Ltmp86:
@ %bb.33:
	@DEBUG_VALUE: HAL_RCC_OscConfig:RCC_OscInitStruct <- $r4
	.loc	5 337 75                        @ ../src/driver/stm32g4-v120/src/stm32g4xx_hal_rcc.c:337:75
	ldr	r0, [r4, #4]
.Ltmp87:
	.loc	5 337 11                        @ ../src/driver/stm32g4-v120/src/stm32g4xx_hal_rcc.c:337:11
	cmp	r0, #0
	bne.w	.LBB1_2
	b	.LBB1_43
.Ltmp88:
.LBB1_34:
	@DEBUG_VALUE: HAL_RCC_OscConfig:RCC_OscInitStruct <- $r4
	@DEBUG_VALUE: pwrclkchanged <- 0
	.loc	5 502 9 is_stmt 1               @ ../src/driver/stm32g4-v120/src/stm32g4xx_hal_rcc.c:502:9
	ldr	r0, [r6, #88]
	ands	r8, r0, #268435456
.Ltmp89:
	.loc	5 502 9 is_stmt 0               @ ../src/driver/stm32g4-v120/src/stm32g4xx_hal_rcc.c:502:9
	bne	.LBB1_36
.Ltmp90:
@ %bb.35:
	@DEBUG_VALUE: HAL_RCC_OscConfig:RCC_OscInitStruct <- $r4
	@DEBUG_VALUE: pwrclkchanged <- 0
	.loc	5 504 7 is_stmt 1               @ ../src/driver/stm32g4-v120/src/stm32g4xx_hal_rcc.c:504:7
	ldr	r0, [r6, #88]
	orr	r0, r0, #268435456
	str	r0, [r6, #88]
	ldr	r0, [r6, #88]
	and	r0, r0, #268435456
	str	r0, [sp, #4]
	ldr	r0, [sp, #4]
.Ltmp91:
	@DEBUG_VALUE: pwrclkchanged <- 1
.LBB1_36:
	@DEBUG_VALUE: HAL_RCC_OscConfig:RCC_OscInitStruct <- $r4
	.loc	5 0 7 is_stmt 0                 @ ../src/driver/stm32g4-v120/src/stm32g4xx_hal_rcc.c:0:7
	movw	r7, #28672
	movt	r7, #16384
.Ltmp92:
	@DEBUG_VALUE: pwrclkchanged <- undef
	.loc	5 508 9 is_stmt 1               @ ../src/driver/stm32g4-v120/src/stm32g4xx_hal_rcc.c:508:9
	ldr	r0, [r7]
.Ltmp93:
	.loc	5 508 9 is_stmt 0               @ ../src/driver/stm32g4-v120/src/stm32g4xx_hal_rcc.c:508:9
	lsls	r0, r0, #23
	bmi	.LBB1_44
.Ltmp94:
@ %bb.37:
	@DEBUG_VALUE: HAL_RCC_OscConfig:RCC_OscInitStruct <- $r4
	.loc	5 511 7 is_stmt 1               @ ../src/driver/stm32g4-v120/src/stm32g4xx_hal_rcc.c:511:7
	ldr	r0, [r7]
	orr	r0, r0, #256
	str	r0, [r7]
	.loc	5 514 19                        @ ../src/driver/stm32g4-v120/src/stm32g4xx_hal_rcc.c:514:19
	bl	HAL_GetTick
.Ltmp95:
	mov	r5, r0
.Ltmp96:
	@DEBUG_VALUE: HAL_RCC_OscConfig:tickstart <- $r5
	.p2align	2
.LBB1_38:                               @ =>This Inner Loop Header: Depth=1
	@DEBUG_VALUE: HAL_RCC_OscConfig:tickstart <- $r5
	@DEBUG_VALUE: HAL_RCC_OscConfig:RCC_OscInitStruct <- $r4
	.loc	5 516 14                        @ ../src/driver/stm32g4-v120/src/stm32g4xx_hal_rcc.c:516:14
	ldr	r0, [r7]
	.loc	5 516 7 is_stmt 0               @ ../src/driver/stm32g4-v120/src/stm32g4xx_hal_rcc.c:516:7
	lsls	r0, r0, #23
	bmi	.LBB1_44
.Ltmp97:
@ %bb.39:                               @   in Loop: Header=BB1_38 Depth=1
	@DEBUG_VALUE: HAL_RCC_OscConfig:tickstart <- $r5
	@DEBUG_VALUE: HAL_RCC_OscConfig:RCC_OscInitStruct <- $r4
	.loc	5 518 14 is_stmt 1              @ ../src/driver/stm32g4-v120/src/stm32g4xx_hal_rcc.c:518:14
	bl	HAL_GetTick
.Ltmp98:
	.loc	5 518 28 is_stmt 0              @ ../src/driver/stm32g4-v120/src/stm32g4xx_hal_rcc.c:518:28
	subs	r0, r0, r5
.Ltmp99:
	.loc	5 518 13                        @ ../src/driver/stm32g4-v120/src/stm32g4xx_hal_rcc.c:518:13
	cmp	r0, #2
	bls	.LBB1_38
	b	.LBB1_74
.Ltmp100:
.LBB1_40:
	@DEBUG_VALUE: HAL_RCC_OscConfig:RCC_OscInitStruct <- $r4
	.loc	5 391 12 is_stmt 1              @ ../src/driver/stm32g4-v120/src/stm32g4xx_hal_rcc.c:391:12
	ldr	r0, [r6]
	.loc	5 391 52 is_stmt 0              @ ../src/driver/stm32g4-v120/src/stm32g4xx_hal_rcc.c:391:52
	lsls	r0, r0, #21
	bpl	.LBB1_42
.Ltmp101:
@ %bb.41:
	@DEBUG_VALUE: HAL_RCC_OscConfig:RCC_OscInitStruct <- $r4
	.loc	5 391 75                        @ ../src/driver/stm32g4-v120/src/stm32g4xx_hal_rcc.c:391:75
	ldr	r0, [r4, #12]
	cbz	r0, .LBB1_43
.Ltmp102:
.LBB1_42:
	@DEBUG_VALUE: HAL_RCC_OscConfig:RCC_OscInitStruct <- $r4
	.loc	5 399 9 is_stmt 1               @ ../src/driver/stm32g4-v120/src/stm32g4xx_hal_rcc.c:399:9
	ldr	r0, [r6, #4]
	ldr	r1, [r4, #16]
	bic	r0, r0, #2130706432
	orr.w	r0, r0, r1, lsl #24
	str	r0, [r6, #4]
.Ltmp103:
	.loc	5 402 26                        @ ../src/driver/stm32g4-v120/src/stm32g4xx_hal_rcc.c:402:26
	movw	r0, :lower16:uwTickPrio
	movt	r0, :upper16:uwTickPrio
	ldr	r0, [r0]
	.loc	5 402 13 is_stmt 0              @ ../src/driver/stm32g4-v120/src/stm32g4xx_hal_rcc.c:402:13
	bl	HAL_InitTick
.Ltmp104:
	.loc	5 402 13                        @ ../src/driver/stm32g4-v120/src/stm32g4xx_hal_rcc.c:402:13
	cmp	r0, #0
	beq.w	.LBB1_3
.Ltmp105:
.LBB1_43:
	.loc	5 0 13                          @ ../src/driver/stm32g4-v120/src/stm32g4xx_hal_rcc.c:0:13
	movs	r0, #1
	b	.LBB1_75
.LBB1_44:
.Ltmp106:
	@DEBUG_VALUE: HAL_RCC_OscConfig:RCC_OscInitStruct <- $r4
	.loc	5 526 5 is_stmt 1               @ ../src/driver/stm32g4-v120/src/stm32g4xx_hal_rcc.c:526:5
	ldr	r0, [r4, #8]
.Ltmp107:
	.loc	5 526 5 is_stmt 0               @ ../src/driver/stm32g4-v120/src/stm32g4xx_hal_rcc.c:526:5
	cmp	r0, #1
	beq	.LBB1_47
.Ltmp108:
@ %bb.45:
	@DEBUG_VALUE: HAL_RCC_OscConfig:RCC_OscInitStruct <- $r4
	cmp	r0, #5
	bne.w	.LBB1_70
.Ltmp109:
@ %bb.46:
	@DEBUG_VALUE: HAL_RCC_OscConfig:RCC_OscInitStruct <- $r4
	.loc	5 526 5                         @ ../src/driver/stm32g4-v120/src/stm32g4xx_hal_rcc.c:526:5
	ldr.w	r0, [r6, #144]
	orr	r0, r0, #4
	str.w	r0, [r6, #144]
.Ltmp110:
.LBB1_47:
	@DEBUG_VALUE: HAL_RCC_OscConfig:RCC_OscInitStruct <- $r4
	.loc	5 0 0                           @ ../src/driver/stm32g4-v120/src/stm32g4xx_hal_rcc.c:0:0
	ldr.w	r0, [r6, #144]
	orr	r0, r0, #1
	str.w	r0, [r6, #144]
	b	.LBB1_71
.Ltmp111:
.LBB1_48:
	@DEBUG_VALUE: HAL_RCC_OscConfig:RCC_OscInitStruct <- $r4
	.loc	5 572 27 is_stmt 1              @ ../src/driver/stm32g4-v120/src/stm32g4xx_hal_rcc.c:572:27
	ldr	r1, [r4, #24]
	.loc	5 0 0 is_stmt 0                 @ ../src/driver/stm32g4-v120/src/stm32g4xx_hal_rcc.c:0:0
	ldr.w	r0, [r6, #152]
.Ltmp112:
	.loc	5 572 8                         @ ../src/driver/stm32g4-v120/src/stm32g4xx_hal_rcc.c:572:8
	cmp	r1, #0
	beq	.LBB1_67
.Ltmp113:
@ %bb.49:
	@DEBUG_VALUE: HAL_RCC_OscConfig:RCC_OscInitStruct <- $r4
	.loc	5 575 7 is_stmt 1               @ ../src/driver/stm32g4-v120/src/stm32g4xx_hal_rcc.c:575:7
	orr	r0, r0, #1
	str.w	r0, [r6, #152]
	.loc	5 578 19                        @ ../src/driver/stm32g4-v120/src/stm32g4xx_hal_rcc.c:578:19
	bl	HAL_GetTick
.Ltmp114:
	mov	r5, r0
.Ltmp115:
	@DEBUG_VALUE: HAL_RCC_OscConfig:tickstart <- $r5
	.p2align	2
.LBB1_50:                               @ =>This Inner Loop Header: Depth=1
	@DEBUG_VALUE: HAL_RCC_OscConfig:tickstart <- $r5
	@DEBUG_VALUE: HAL_RCC_OscConfig:RCC_OscInitStruct <- $r4
	.loc	5 581 13                        @ ../src/driver/stm32g4-v120/src/stm32g4xx_hal_rcc.c:581:13
	ldr.w	r0, [r6, #152]
	.loc	5 581 7 is_stmt 0               @ ../src/driver/stm32g4-v120/src/stm32g4xx_hal_rcc.c:581:7
	lsls	r0, r0, #30
	bmi.w	.LBB1_6
.Ltmp116:
@ %bb.51:                               @   in Loop: Header=BB1_50 Depth=1
	@DEBUG_VALUE: HAL_RCC_OscConfig:tickstart <- $r5
	@DEBUG_VALUE: HAL_RCC_OscConfig:RCC_OscInitStruct <- $r4
	.loc	5 583 13 is_stmt 1              @ ../src/driver/stm32g4-v120/src/stm32g4xx_hal_rcc.c:583:13
	bl	HAL_GetTick
.Ltmp117:
	.loc	5 583 27 is_stmt 0              @ ../src/driver/stm32g4-v120/src/stm32g4xx_hal_rcc.c:583:27
	subs	r0, r0, r5
.Ltmp118:
	.loc	5 583 12                        @ ../src/driver/stm32g4-v120/src/stm32g4xx_hal_rcc.c:583:12
	cmp	r0, #2
	mov.w	r0, #3
	bls	.LBB1_50
	b	.LBB1_75
.Ltmp119:
.LBB1_52:
	@DEBUG_VALUE: HAL_RCC_OscConfig:RCC_OscInitStruct <- $r4
	.loc	5 477 7 is_stmt 1               @ ../src/driver/stm32g4-v120/src/stm32g4xx_hal_rcc.c:477:7
	bic	r0, r0, #1
	str.w	r0, [r6, #148]
	.loc	5 480 19                        @ ../src/driver/stm32g4-v120/src/stm32g4xx_hal_rcc.c:480:19
	bl	HAL_GetTick
.Ltmp120:
	mov	r5, r0
.Ltmp121:
	@DEBUG_VALUE: HAL_RCC_OscConfig:tickstart <- $r5
	.p2align	2
.LBB1_53:                               @ =>This Inner Loop Header: Depth=1
	@DEBUG_VALUE: HAL_RCC_OscConfig:tickstart <- $r5
	@DEBUG_VALUE: HAL_RCC_OscConfig:RCC_OscInitStruct <- $r4
	.loc	5 483 13                        @ ../src/driver/stm32g4-v120/src/stm32g4xx_hal_rcc.c:483:13
	ldr.w	r0, [r6, #148]
	.loc	5 483 7 is_stmt 0               @ ../src/driver/stm32g4-v120/src/stm32g4xx_hal_rcc.c:483:7
	lsls	r0, r0, #30
	bpl.w	.LBB1_4
.Ltmp122:
@ %bb.54:                               @   in Loop: Header=BB1_53 Depth=1
	@DEBUG_VALUE: HAL_RCC_OscConfig:tickstart <- $r5
	@DEBUG_VALUE: HAL_RCC_OscConfig:RCC_OscInitStruct <- $r4
	.loc	5 485 13 is_stmt 1              @ ../src/driver/stm32g4-v120/src/stm32g4xx_hal_rcc.c:485:13
	bl	HAL_GetTick
.Ltmp123:
	.loc	5 485 27 is_stmt 0              @ ../src/driver/stm32g4-v120/src/stm32g4xx_hal_rcc.c:485:27
	subs	r0, r0, r5
.Ltmp124:
	.loc	5 485 12                        @ ../src/driver/stm32g4-v120/src/stm32g4xx_hal_rcc.c:485:12
	cmp	r0, #2
	bls	.LBB1_53
	b	.LBB1_74
.Ltmp125:
.LBB1_55:
	@DEBUG_VALUE: HAL_RCC_OscConfig:RCC_OscInitStruct <- $r4
	.loc	5 345 7 is_stmt 1               @ ../src/driver/stm32g4-v120/src/stm32g4xx_hal_rcc.c:345:7
	ldr	r1, [r6]
.Ltmp126:
	.loc	5 348 11                        @ ../src/driver/stm32g4-v120/src/stm32g4xx_hal_rcc.c:348:11
	cmp	r0, #0
.Ltmp127:
	.loc	5 345 7                         @ ../src/driver/stm32g4-v120/src/stm32g4xx_hal_rcc.c:345:7
	bic	r1, r1, #65536
	str	r1, [r6]
	ldr	r1, [r6]
	bic	r1, r1, #262144
	str	r1, [r6]
.Ltmp128:
	.loc	5 348 11                        @ ../src/driver/stm32g4-v120/src/stm32g4xx_hal_rcc.c:348:11
	beq.w	.LBB1_79
.Ltmp129:
.LBB1_56:
	@DEBUG_VALUE: HAL_RCC_OscConfig:RCC_OscInitStruct <- $r4
	.loc	5 351 21                        @ ../src/driver/stm32g4-v120/src/stm32g4xx_hal_rcc.c:351:21
	bl	HAL_GetTick
.Ltmp130:
	mov	r5, r0
.Ltmp131:
	@DEBUG_VALUE: HAL_RCC_OscConfig:tickstart <- $r5
	.p2align	2
.LBB1_57:                               @ =>This Inner Loop Header: Depth=1
	@DEBUG_VALUE: HAL_RCC_OscConfig:tickstart <- $r5
	@DEBUG_VALUE: HAL_RCC_OscConfig:RCC_OscInitStruct <- $r4
	.loc	5 354 16                        @ ../src/driver/stm32g4-v120/src/stm32g4xx_hal_rcc.c:354:16
	ldr	r0, [r6]
	.loc	5 354 9 is_stmt 0               @ ../src/driver/stm32g4-v120/src/stm32g4xx_hal_rcc.c:354:9
	lsls	r0, r0, #14
	bmi.w	.LBB1_2
.Ltmp132:
@ %bb.58:                               @   in Loop: Header=BB1_57 Depth=1
	@DEBUG_VALUE: HAL_RCC_OscConfig:tickstart <- $r5
	@DEBUG_VALUE: HAL_RCC_OscConfig:RCC_OscInitStruct <- $r4
	.loc	5 356 16 is_stmt 1              @ ../src/driver/stm32g4-v120/src/stm32g4xx_hal_rcc.c:356:16
	bl	HAL_GetTick
.Ltmp133:
	.loc	5 356 30 is_stmt 0              @ ../src/driver/stm32g4-v120/src/stm32g4xx_hal_rcc.c:356:30
	subs	r0, r0, r5
.Ltmp134:
	.loc	5 356 15                        @ ../src/driver/stm32g4-v120/src/stm32g4xx_hal_rcc.c:356:15
	cmp	r0, #100
	bls	.LBB1_57
	b	.LBB1_74
.Ltmp135:
.LBB1_59:
	@DEBUG_VALUE: HAL_RCC_OscConfig:RCC_OscInitStruct <- $r4
	.loc	5 434 9 is_stmt 1               @ ../src/driver/stm32g4-v120/src/stm32g4xx_hal_rcc.c:434:9
	bic	r0, r0, #256
	str	r0, [r6]
	.loc	5 437 21                        @ ../src/driver/stm32g4-v120/src/stm32g4xx_hal_rcc.c:437:21
	bl	HAL_GetTick
.Ltmp136:
	mov	r5, r0
.Ltmp137:
	@DEBUG_VALUE: HAL_RCC_OscConfig:tickstart <- $r5
	.p2align	2
.LBB1_60:                               @ =>This Inner Loop Header: Depth=1
	@DEBUG_VALUE: HAL_RCC_OscConfig:tickstart <- $r5
	@DEBUG_VALUE: HAL_RCC_OscConfig:RCC_OscInitStruct <- $r4
	.loc	5 440 16                        @ ../src/driver/stm32g4-v120/src/stm32g4xx_hal_rcc.c:440:16
	ldr	r0, [r6]
	.loc	5 440 9 is_stmt 0               @ ../src/driver/stm32g4-v120/src/stm32g4xx_hal_rcc.c:440:9
	lsls	r0, r0, #21
	bpl.w	.LBB1_3
.Ltmp138:
@ %bb.61:                               @   in Loop: Header=BB1_60 Depth=1
	@DEBUG_VALUE: HAL_RCC_OscConfig:tickstart <- $r5
	@DEBUG_VALUE: HAL_RCC_OscConfig:RCC_OscInitStruct <- $r4
	.loc	5 442 16 is_stmt 1              @ ../src/driver/stm32g4-v120/src/stm32g4xx_hal_rcc.c:442:16
	bl	HAL_GetTick
.Ltmp139:
	.loc	5 442 30 is_stmt 0              @ ../src/driver/stm32g4-v120/src/stm32g4xx_hal_rcc.c:442:30
	subs	r0, r0, r5
.Ltmp140:
	.loc	5 442 15                        @ ../src/driver/stm32g4-v120/src/stm32g4xx_hal_rcc.c:442:15
	cmp	r0, #2
	mov.w	r0, #3
	bls	.LBB1_60
	b	.LBB1_75
.Ltmp141:
.LBB1_62:
	@DEBUG_VALUE: HAL_RCC_OscConfig:RCC_OscInitStruct <- $r4
	.loc	5 0 0                           @ ../src/driver/stm32g4-v120/src/stm32g4xx_hal_rcc.c:0:0
	ldr	r1, [r6]
.Ltmp142:
	.loc	5 617 11 is_stmt 1              @ ../src/driver/stm32g4-v120/src/stm32g4xx_hal_rcc.c:617:11
	cmp	r0, #2
.Ltmp143:
	.loc	5 0 0 is_stmt 0                 @ ../src/driver/stm32g4-v120/src/stm32g4xx_hal_rcc.c:0:0
	bic	r1, r1, #16777216
	str	r1, [r6]
.Ltmp144:
	.loc	5 617 11                        @ ../src/driver/stm32g4-v120/src/stm32g4xx_hal_rcc.c:617:11
	bne	.LBB1_76
.Ltmp145:
@ %bb.63:
	@DEBUG_VALUE: HAL_RCC_OscConfig:RCC_OscInitStruct <- $r4
	.loc	5 631 21 is_stmt 1              @ ../src/driver/stm32g4-v120/src/stm32g4xx_hal_rcc.c:631:21
	bl	HAL_GetTick
.Ltmp146:
	mov	r5, r0
.Ltmp147:
	@DEBUG_VALUE: HAL_RCC_OscConfig:tickstart <- $r5
	.p2align	2
.LBB1_64:                               @ =>This Inner Loop Header: Depth=1
	@DEBUG_VALUE: HAL_RCC_OscConfig:tickstart <- $r5
	@DEBUG_VALUE: HAL_RCC_OscConfig:RCC_OscInitStruct <- $r4
	.loc	5 634 16                        @ ../src/driver/stm32g4-v120/src/stm32g4xx_hal_rcc.c:634:16
	ldr	r0, [r6]
	.loc	5 634 9 is_stmt 0               @ ../src/driver/stm32g4-v120/src/stm32g4xx_hal_rcc.c:634:9
	lsls	r0, r0, #6
	bpl.w	.LBB1_87
.Ltmp148:
@ %bb.65:                               @   in Loop: Header=BB1_64 Depth=1
	@DEBUG_VALUE: HAL_RCC_OscConfig:tickstart <- $r5
	@DEBUG_VALUE: HAL_RCC_OscConfig:RCC_OscInitStruct <- $r4
	.loc	5 636 16 is_stmt 1              @ ../src/driver/stm32g4-v120/src/stm32g4xx_hal_rcc.c:636:16
	bl	HAL_GetTick
.Ltmp149:
	.loc	5 636 30 is_stmt 0              @ ../src/driver/stm32g4-v120/src/stm32g4xx_hal_rcc.c:636:30
	subs	r0, r0, r5
.Ltmp150:
	.loc	5 636 15                        @ ../src/driver/stm32g4-v120/src/stm32g4xx_hal_rcc.c:636:15
	cmp	r0, #2
	mov.w	r0, #3
	bls	.LBB1_64
	b	.LBB1_75
.Ltmp151:
.LBB1_66:
	@DEBUG_VALUE: HAL_RCC_OscConfig:tickstart <- $r5
	@DEBUG_VALUE: HAL_RCC_OscConfig:RCC_OscInitStruct <- $r4
	.loc	5 429 9 is_stmt 1               @ ../src/driver/stm32g4-v120/src/stm32g4xx_hal_rcc.c:429:9
	ldr	r0, [r6, #4]
	ldr	r1, [r4, #16]
	bic	r0, r0, #2130706432
	orr.w	r0, r0, r1, lsl #24
	str	r0, [r6, #4]
	b	.LBB1_3
.Ltmp152:
.LBB1_67:
	@DEBUG_VALUE: HAL_RCC_OscConfig:RCC_OscInitStruct <- $r4
	.loc	5 592 7                         @ ../src/driver/stm32g4-v120/src/stm32g4xx_hal_rcc.c:592:7
	bic	r0, r0, #1
	str.w	r0, [r6, #152]
	.loc	5 595 19                        @ ../src/driver/stm32g4-v120/src/stm32g4xx_hal_rcc.c:595:19
	bl	HAL_GetTick
.Ltmp153:
	mov	r5, r0
.Ltmp154:
	@DEBUG_VALUE: HAL_RCC_OscConfig:tickstart <- $r5
	.p2align	2
.LBB1_68:                               @ =>This Inner Loop Header: Depth=1
	@DEBUG_VALUE: HAL_RCC_OscConfig:tickstart <- $r5
	@DEBUG_VALUE: HAL_RCC_OscConfig:RCC_OscInitStruct <- $r4
	.loc	5 598 13                        @ ../src/driver/stm32g4-v120/src/stm32g4xx_hal_rcc.c:598:13
	ldr.w	r0, [r6, #152]
	.loc	5 598 7 is_stmt 0               @ ../src/driver/stm32g4-v120/src/stm32g4xx_hal_rcc.c:598:7
	lsls	r0, r0, #30
	bpl.w	.LBB1_6
.Ltmp155:
@ %bb.69:                               @   in Loop: Header=BB1_68 Depth=1
	@DEBUG_VALUE: HAL_RCC_OscConfig:tickstart <- $r5
	@DEBUG_VALUE: HAL_RCC_OscConfig:RCC_OscInitStruct <- $r4
	.loc	5 600 13 is_stmt 1              @ ../src/driver/stm32g4-v120/src/stm32g4xx_hal_rcc.c:600:13
	bl	HAL_GetTick
.Ltmp156:
	.loc	5 600 27 is_stmt 0              @ ../src/driver/stm32g4-v120/src/stm32g4xx_hal_rcc.c:600:27
	subs	r0, r0, r5
.Ltmp157:
	.loc	5 600 12                        @ ../src/driver/stm32g4-v120/src/stm32g4xx_hal_rcc.c:600:12
	cmp	r0, #2
	mov.w	r0, #3
	bls	.LBB1_68
	b	.LBB1_75
.Ltmp158:
.LBB1_70:
	@DEBUG_VALUE: HAL_RCC_OscConfig:RCC_OscInitStruct <- $r4
	.loc	5 526 5 is_stmt 1               @ ../src/driver/stm32g4-v120/src/stm32g4xx_hal_rcc.c:526:5
	ldr.w	r1, [r6, #144]
	bic	r1, r1, #1
	str.w	r1, [r6, #144]
	ldr.w	r1, [r6, #144]
	bic	r1, r1, #4
	str.w	r1, [r6, #144]
.Ltmp159:
	.loc	5 529 9                         @ ../src/driver/stm32g4-v120/src/stm32g4xx_hal_rcc.c:529:9
	cbz	r0, .LBB1_82
.Ltmp160:
.LBB1_71:
	@DEBUG_VALUE: HAL_RCC_OscConfig:RCC_OscInitStruct <- $r4
	.loc	5 532 19                        @ ../src/driver/stm32g4-v120/src/stm32g4xx_hal_rcc.c:532:19
	bl	HAL_GetTick
.Ltmp161:
	mov	r5, r0
.Ltmp162:
	@DEBUG_VALUE: HAL_RCC_OscConfig:tickstart <- $r5
	.loc	5 0 19 is_stmt 0                @ ../src/driver/stm32g4-v120/src/stm32g4xx_hal_rcc.c:0:19
	movw	r7, #5000
.Ltmp163:
	.p2align	2
.LBB1_72:                               @ =>This Inner Loop Header: Depth=1
	@DEBUG_VALUE: HAL_RCC_OscConfig:tickstart <- $r5
	@DEBUG_VALUE: HAL_RCC_OscConfig:RCC_OscInitStruct <- $r4
	.loc	5 535 14 is_stmt 1              @ ../src/driver/stm32g4-v120/src/stm32g4xx_hal_rcc.c:535:14
	ldr.w	r0, [r6, #144]
	.loc	5 535 7 is_stmt 0               @ ../src/driver/stm32g4-v120/src/stm32g4xx_hal_rcc.c:535:7
	lsls	r0, r0, #30
	bmi	.LBB1_85
.Ltmp164:
@ %bb.73:                               @   in Loop: Header=BB1_72 Depth=1
	@DEBUG_VALUE: HAL_RCC_OscConfig:tickstart <- $r5
	@DEBUG_VALUE: HAL_RCC_OscConfig:RCC_OscInitStruct <- $r4
	.loc	5 537 13 is_stmt 1              @ ../src/driver/stm32g4-v120/src/stm32g4xx_hal_rcc.c:537:13
	bl	HAL_GetTick
.Ltmp165:
	.loc	5 537 27 is_stmt 0              @ ../src/driver/stm32g4-v120/src/stm32g4xx_hal_rcc.c:537:27
	subs	r0, r0, r5
.Ltmp166:
	.loc	5 537 12                        @ ../src/driver/stm32g4-v120/src/stm32g4xx_hal_rcc.c:537:12
	cmp	r0, r7
	bls	.LBB1_72
.Ltmp167:
.LBB1_74:
	@DEBUG_VALUE: HAL_RCC_OscConfig:tickstart <- $r5
	@DEBUG_VALUE: HAL_RCC_OscConfig:RCC_OscInitStruct <- $r4
	.loc	5 0 12                          @ ../src/driver/stm32g4-v120/src/stm32g4xx_hal_rcc.c:0:12
	movs	r0, #3
.Ltmp168:
.LBB1_75:
	.loc	5 715 1 is_stmt 1               @ ../src/driver/stm32g4-v120/src/stm32g4xx_hal_rcc.c:715:1
	add	sp, #8
	pop.w	{r4, r5, r6, r7, r8, pc}
.LBB1_76:
.Ltmp169:
	@DEBUG_VALUE: HAL_RCC_OscConfig:RCC_OscInitStruct <- $r4
	.loc	5 674 11                        @ ../src/driver/stm32g4-v120/src/stm32g4xx_hal_rcc.c:674:11
	ldr	r0, [r6, #12]
	movw	r1, #65535
	bic	r0, r0, #3
	str	r0, [r6, #12]
	.loc	5 675 9                         @ ../src/driver/stm32g4-v120/src/stm32g4xx_hal_rcc.c:675:9
	ldr	r0, [r6, #12]
	movt	r1, #65262
	ands	r0, r1
	str	r0, [r6, #12]
	.loc	5 678 21                        @ ../src/driver/stm32g4-v120/src/stm32g4xx_hal_rcc.c:678:21
	bl	HAL_GetTick
.Ltmp170:
	mov	r4, r0
.Ltmp171:
	@DEBUG_VALUE: HAL_RCC_OscConfig:RCC_OscInitStruct <- [DW_OP_LLVM_entry_value 1] $r0
	@DEBUG_VALUE: HAL_RCC_OscConfig:tickstart <- $r4
	.p2align	2
.LBB1_77:                               @ =>This Inner Loop Header: Depth=1
	@DEBUG_VALUE: HAL_RCC_OscConfig:tickstart <- $r4
	@DEBUG_VALUE: HAL_RCC_OscConfig:RCC_OscInitStruct <- [DW_OP_LLVM_entry_value 1] $r0
	.loc	5 681 16                        @ ../src/driver/stm32g4-v120/src/stm32g4xx_hal_rcc.c:681:16
	ldr	r0, [r6]
	.loc	5 681 9 is_stmt 0               @ ../src/driver/stm32g4-v120/src/stm32g4xx_hal_rcc.c:681:9
	lsls	r0, r0, #6
	bpl.w	.LBB1_15
.Ltmp172:
@ %bb.78:                               @   in Loop: Header=BB1_77 Depth=1
	@DEBUG_VALUE: HAL_RCC_OscConfig:tickstart <- $r4
	@DEBUG_VALUE: HAL_RCC_OscConfig:RCC_OscInitStruct <- [DW_OP_LLVM_entry_value 1] $r0
	.loc	5 683 16 is_stmt 1              @ ../src/driver/stm32g4-v120/src/stm32g4xx_hal_rcc.c:683:16
	bl	HAL_GetTick
.Ltmp173:
	.loc	5 683 30 is_stmt 0              @ ../src/driver/stm32g4-v120/src/stm32g4xx_hal_rcc.c:683:30
	subs	r0, r0, r4
.Ltmp174:
	.loc	5 683 15                        @ ../src/driver/stm32g4-v120/src/stm32g4xx_hal_rcc.c:683:15
	cmp	r0, #2
	mov.w	r0, #3
	bls	.LBB1_77
	b	.LBB1_75
.Ltmp175:
.LBB1_79:
	@DEBUG_VALUE: HAL_RCC_OscConfig:RCC_OscInitStruct <- $r4
	.loc	5 365 21 is_stmt 1              @ ../src/driver/stm32g4-v120/src/stm32g4xx_hal_rcc.c:365:21
	bl	HAL_GetTick
.Ltmp176:
	mov	r5, r0
.Ltmp177:
	@DEBUG_VALUE: HAL_RCC_OscConfig:tickstart <- $r5
	.p2align	2
.LBB1_80:                               @ =>This Inner Loop Header: Depth=1
	@DEBUG_VALUE: HAL_RCC_OscConfig:tickstart <- $r5
	@DEBUG_VALUE: HAL_RCC_OscConfig:RCC_OscInitStruct <- $r4
	.loc	5 368 16                        @ ../src/driver/stm32g4-v120/src/stm32g4xx_hal_rcc.c:368:16
	ldr	r0, [r6]
	.loc	5 368 9 is_stmt 0               @ ../src/driver/stm32g4-v120/src/stm32g4xx_hal_rcc.c:368:9
	lsls	r0, r0, #14
	bpl.w	.LBB1_2
.Ltmp178:
@ %bb.81:                               @   in Loop: Header=BB1_80 Depth=1
	@DEBUG_VALUE: HAL_RCC_OscConfig:tickstart <- $r5
	@DEBUG_VALUE: HAL_RCC_OscConfig:RCC_OscInitStruct <- $r4
	.loc	5 370 16 is_stmt 1              @ ../src/driver/stm32g4-v120/src/stm32g4xx_hal_rcc.c:370:16
	bl	HAL_GetTick
.Ltmp179:
	.loc	5 370 30 is_stmt 0              @ ../src/driver/stm32g4-v120/src/stm32g4xx_hal_rcc.c:370:30
	subs	r0, r0, r5
.Ltmp180:
	.loc	5 370 15                        @ ../src/driver/stm32g4-v120/src/stm32g4xx_hal_rcc.c:370:15
	cmp	r0, #100
	mov.w	r0, #3
	bls	.LBB1_80
	b	.LBB1_75
.Ltmp181:
.LBB1_82:
	@DEBUG_VALUE: HAL_RCC_OscConfig:RCC_OscInitStruct <- $r4
	.loc	5 546 19 is_stmt 1              @ ../src/driver/stm32g4-v120/src/stm32g4xx_hal_rcc.c:546:19
	bl	HAL_GetTick
.Ltmp182:
	mov	r5, r0
.Ltmp183:
	@DEBUG_VALUE: HAL_RCC_OscConfig:tickstart <- $r5
	.loc	5 0 19 is_stmt 0                @ ../src/driver/stm32g4-v120/src/stm32g4xx_hal_rcc.c:0:19
	movw	r7, #5000
.Ltmp184:
	.p2align	2
.LBB1_83:                               @ =>This Inner Loop Header: Depth=1
	@DEBUG_VALUE: HAL_RCC_OscConfig:tickstart <- $r5
	@DEBUG_VALUE: HAL_RCC_OscConfig:RCC_OscInitStruct <- $r4
	.loc	5 549 14 is_stmt 1              @ ../src/driver/stm32g4-v120/src/stm32g4xx_hal_rcc.c:549:14
	ldr.w	r0, [r6, #144]
	.loc	5 549 7 is_stmt 0               @ ../src/driver/stm32g4-v120/src/stm32g4xx_hal_rcc.c:549:7
	lsls	r0, r0, #30
	bpl	.LBB1_85
.Ltmp185:
@ %bb.84:                               @   in Loop: Header=BB1_83 Depth=1
	@DEBUG_VALUE: HAL_RCC_OscConfig:tickstart <- $r5
	@DEBUG_VALUE: HAL_RCC_OscConfig:RCC_OscInitStruct <- $r4
	.loc	5 551 13 is_stmt 1              @ ../src/driver/stm32g4-v120/src/stm32g4xx_hal_rcc.c:551:13
	bl	HAL_GetTick
.Ltmp186:
	.loc	5 551 27 is_stmt 0              @ ../src/driver/stm32g4-v120/src/stm32g4xx_hal_rcc.c:551:27
	subs	r0, r0, r5
.Ltmp187:
	.loc	5 551 12                        @ ../src/driver/stm32g4-v120/src/stm32g4xx_hal_rcc.c:551:12
	cmp	r0, r7
	mov.w	r0, #3
	bls	.LBB1_83
	b	.LBB1_75
.Ltmp188:
.LBB1_85:
	@DEBUG_VALUE: HAL_RCC_OscConfig:tickstart <- $r5
	@DEBUG_VALUE: HAL_RCC_OscConfig:RCC_OscInitStruct <- $r4
	.loc	5 559 9 is_stmt 1               @ ../src/driver/stm32g4-v120/src/stm32g4xx_hal_rcc.c:559:9
	cmp.w	r8, #0
	bne.w	.LBB1_5
.Ltmp189:
@ %bb.86:
	@DEBUG_VALUE: HAL_RCC_OscConfig:tickstart <- $r5
	@DEBUG_VALUE: HAL_RCC_OscConfig:RCC_OscInitStruct <- $r4
	.loc	5 561 7                         @ ../src/driver/stm32g4-v120/src/stm32g4xx_hal_rcc.c:561:7
	ldr	r0, [r6, #88]
	bic	r0, r0, #268435456
	str	r0, [r6, #88]
	b	.LBB1_5
.Ltmp190:
.LBB1_87:
	@DEBUG_VALUE: HAL_RCC_OscConfig:tickstart <- $r5
	@DEBUG_VALUE: HAL_RCC_OscConfig:RCC_OscInitStruct <- $r4
	.loc	5 643 9                         @ ../src/driver/stm32g4-v120/src/stm32g4xx_hal_rcc.c:643:9
	ldr	r0, [r6, #12]
	movw	r1, #32780
	movt	r1, #415
	add.w	r7, r4, #32
	and.w	r12, r0, r1
	ldm	r7, {r1, r2, r3, r7}
	mvn	r0, #15
	ldrd	r5, r4, [r4, #48]
.Ltmp191:
	@DEBUG_VALUE: HAL_RCC_OscConfig:RCC_OscInitStruct <- [DW_OP_LLVM_entry_value 1] $r0
	add.w	r0, r0, r2, lsl #4
	movs	r2, #0
	movt	r2, #65504
	orr.w	r1, r1, r12
	add.w	r2, r2, r5, lsl #20
	orrs	r0, r1
	bfc	r2, #0, #21
	mov.w	r5, #-33554432
	orr.w	r0, r0, r3, lsl #8
	add.w	r5, r5, r4, lsl #24
	orrs	r0, r2
	and	r5, r5, #-33554432
	orr.w	r0, r0, r7, lsl #27
	orrs	r0, r5
	str	r0, [r6, #12]
	.loc	5 651 9                         @ ../src/driver/stm32g4-v120/src/stm32g4xx_hal_rcc.c:651:9
	ldr	r0, [r6]
	orr	r0, r0, #16777216
	str	r0, [r6]
	.loc	5 654 10                        @ ../src/driver/stm32g4-v120/src/stm32g4xx_hal_rcc.c:654:10
	ldr	r0, [r6, #12]
	orr	r0, r0, #16777216
	str	r0, [r6, #12]
	.loc	5 657 21                        @ ../src/driver/stm32g4-v120/src/stm32g4xx_hal_rcc.c:657:21
	bl	HAL_GetTick
.Ltmp192:
	mov	r4, r0
.Ltmp193:
	@DEBUG_VALUE: HAL_RCC_OscConfig:tickstart <- $r4
.LBB1_88:                               @ =>This Inner Loop Header: Depth=1
	@DEBUG_VALUE: HAL_RCC_OscConfig:tickstart <- $r4
	@DEBUG_VALUE: HAL_RCC_OscConfig:RCC_OscInitStruct <- [DW_OP_LLVM_entry_value 1] $r0
	.loc	5 660 16                        @ ../src/driver/stm32g4-v120/src/stm32g4xx_hal_rcc.c:660:16
	ldr	r0, [r6]
	.loc	5 660 9 is_stmt 0               @ ../src/driver/stm32g4-v120/src/stm32g4xx_hal_rcc.c:660:9
	lsls	r0, r0, #6
	bmi.w	.LBB1_15
.Ltmp194:
@ %bb.89:                               @   in Loop: Header=BB1_88 Depth=1
	@DEBUG_VALUE: HAL_RCC_OscConfig:tickstart <- $r4
	@DEBUG_VALUE: HAL_RCC_OscConfig:RCC_OscInitStruct <- [DW_OP_LLVM_entry_value 1] $r0
	.loc	5 662 16 is_stmt 1              @ ../src/driver/stm32g4-v120/src/stm32g4xx_hal_rcc.c:662:16
	bl	HAL_GetTick
.Ltmp195:
	.loc	5 662 30 is_stmt 0              @ ../src/driver/stm32g4-v120/src/stm32g4xx_hal_rcc.c:662:30
	subs	r0, r0, r4
.Ltmp196:
	.loc	5 662 15                        @ ../src/driver/stm32g4-v120/src/stm32g4xx_hal_rcc.c:662:15
	cmp	r0, #2
	mov.w	r0, #3
	bls	.LBB1_88
	b	.LBB1_75
.Ltmp197:
.Lfunc_end1:
	.size	HAL_RCC_OscConfig, .Lfunc_end1-HAL_RCC_OscConfig
	.cfi_endproc
	.cantunwind
	.fnend
                                        @ -- End function
	.section	.text.HAL_RCC_ClockConfig,"ax",%progbits
	.hidden	HAL_RCC_ClockConfig             @ -- Begin function HAL_RCC_ClockConfig
	.globl	HAL_RCC_ClockConfig
	.p2align	1
	.type	HAL_RCC_ClockConfig,%function
	.code	16                              @ @HAL_RCC_ClockConfig
	.thumb_func
HAL_RCC_ClockConfig:
.Lfunc_begin2:
	.loc	5 766 0 is_stmt 1               @ ../src/driver/stm32g4-v120/src/stm32g4xx_hal_rcc.c:766:0
	.fnstart
	.cfi_startproc
@ %bb.0:
	@DEBUG_VALUE: HAL_RCC_ClockConfig:RCC_ClkInitStruct <- $r0
	@DEBUG_VALUE: HAL_RCC_ClockConfig:FLatency <- $r1
	@DEBUG_VALUE: HAL_RCC_ClockConfig:RCC_ClkInitStruct <- $r0
	.save	{r4, r5, r6, r7, r8, r9, r10, lr}
	push.w	{r4, r5, r6, r7, r8, r9, r10, lr}
	.cfi_def_cfa_offset 32
	.cfi_offset lr, -4
	.cfi_offset r10, -8
	.cfi_offset r9, -12
	.cfi_offset r8, -16
	.cfi_offset r7, -20
	.cfi_offset r6, -24
	.cfi_offset r5, -28
	.cfi_offset r4, -32
.Ltmp198:
	@DEBUG_VALUE: HAL_RCC_ClockConfig:hpre <- 0
	.loc	5 772 7 prologue_end            @ ../src/driver/stm32g4-v120/src/stm32g4xx_hal_rcc.c:772:7
	cmp	r0, #0
	@DEBUG_VALUE: HAL_RCC_ClockConfig:FLatency <- $r1
	beq	.LBB2_14
.Ltmp199:
@ %bb.1:
	@DEBUG_VALUE: HAL_RCC_ClockConfig:FLatency <- $r1
	@DEBUG_VALUE: HAL_RCC_ClockConfig:RCC_ClkInitStruct <- $r0
	@DEBUG_VALUE: HAL_RCC_ClockConfig:hpre <- 0
	.loc	5 0 7 is_stmt 0                 @ ../src/driver/stm32g4-v120/src/stm32g4xx_hal_rcc.c:0:7
	movw	r10, #8192
	movt	r10, #16386
	mov	r4, r0
.Ltmp200:
	@DEBUG_VALUE: HAL_RCC_ClockConfig:RCC_ClkInitStruct <- $r4
	@DEBUG_VALUE: HAL_RCC_ClockConfig:RCC_ClkInitStruct <- $r4
	.loc	5 786 18 is_stmt 1              @ ../src/driver/stm32g4-v120/src/stm32g4xx_hal_rcc.c:786:18
	ldr.w	r0, [r10]
	mov	r5, r1
.Ltmp201:
	@DEBUG_VALUE: HAL_RCC_ClockConfig:FLatency <- $r5
	and	r0, r0, #15
.Ltmp202:
	.loc	5 786 7 is_stmt 0               @ ../src/driver/stm32g4-v120/src/stm32g4xx_hal_rcc.c:786:7
	cmp	r0, r1
	bhs	.LBB2_3
.Ltmp203:
@ %bb.2:
	@DEBUG_VALUE: HAL_RCC_ClockConfig:FLatency <- $r5
	@DEBUG_VALUE: HAL_RCC_ClockConfig:RCC_ClkInitStruct <- $r4
	@DEBUG_VALUE: HAL_RCC_ClockConfig:hpre <- 0
	.loc	5 789 5 is_stmt 1               @ ../src/driver/stm32g4-v120/src/stm32g4xx_hal_rcc.c:789:5
	ldr.w	r0, [r10]
	bic	r0, r0, #15
	orrs	r0, r5
	str.w	r0, [r10]
.Ltmp204:
	.loc	5 793 9                         @ ../src/driver/stm32g4-v120/src/stm32g4xx_hal_rcc.c:793:9
	ldr.w	r0, [r10]
	and	r0, r0, #15
.Ltmp205:
	.loc	5 793 9 is_stmt 0               @ ../src/driver/stm32g4-v120/src/stm32g4xx_hal_rcc.c:793:9
	cmp	r0, r5
	bne	.LBB2_14
.Ltmp206:
.LBB2_3:
	@DEBUG_VALUE: HAL_RCC_ClockConfig:FLatency <- $r5
	@DEBUG_VALUE: HAL_RCC_ClockConfig:RCC_ClkInitStruct <- $r4
	@DEBUG_VALUE: HAL_RCC_ClockConfig:hpre <- 0
	.loc	5 800 27 is_stmt 1              @ ../src/driver/stm32g4-v120/src/stm32g4xx_hal_rcc.c:800:27
	ldr	r0, [r4]
	movw	r8, #4104
.Ltmp207:
	.loc	5 800 6 is_stmt 0               @ ../src/driver/stm32g4-v120/src/stm32g4xx_hal_rcc.c:800:6
	lsls	r1, r0, #31
	movt	r8, #16386
	bne	.LBB2_5
.Ltmp208:
@ %bb.4:
	@DEBUG_VALUE: HAL_RCC_ClockConfig:FLatency <- $r5
	@DEBUG_VALUE: HAL_RCC_ClockConfig:RCC_ClkInitStruct <- $r4
	@DEBUG_VALUE: HAL_RCC_ClockConfig:hpre <- 0
	@DEBUG_VALUE: HAL_RCC_ClockConfig:hpre <- undef
	.loc	5 875 7 is_stmt 1               @ ../src/driver/stm32g4-v120/src/stm32g4xx_hal_rcc.c:875:7
	lsls	r1, r0, #30
	bmi	.LBB2_24
	b	.LBB2_30
.Ltmp209:
.LBB2_5:
	@DEBUG_VALUE: HAL_RCC_ClockConfig:FLatency <- $r5
	@DEBUG_VALUE: HAL_RCC_ClockConfig:RCC_ClkInitStruct <- $r4
	@DEBUG_VALUE: HAL_RCC_ClockConfig:hpre <- 0
	.loc	5 805 28                        @ ../src/driver/stm32g4-v120/src/stm32g4xx_hal_rcc.c:805:28
	ldr	r1, [r4, #4]
.Ltmp210:
	.loc	5 805 9 is_stmt 0               @ ../src/driver/stm32g4-v120/src/stm32g4xx_hal_rcc.c:805:9
	cmp	r1, #2
	beq	.LBB2_13
.Ltmp211:
@ %bb.6:
	@DEBUG_VALUE: HAL_RCC_ClockConfig:FLatency <- $r5
	@DEBUG_VALUE: HAL_RCC_ClockConfig:RCC_ClkInitStruct <- $r4
	@DEBUG_VALUE: HAL_RCC_ClockConfig:hpre <- 0
	cmp	r1, #3
	bne	.LBB2_15
.Ltmp212:
@ %bb.7:
	@DEBUG_VALUE: HAL_RCC_ClockConfig:FLatency <- $r5
	@DEBUG_VALUE: HAL_RCC_ClockConfig:RCC_ClkInitStruct <- $r4
	@DEBUG_VALUE: HAL_RCC_ClockConfig:hpre <- 0
	.loc	5 808 11 is_stmt 1              @ ../src/driver/stm32g4-v120/src/stm32g4xx_hal_rcc.c:808:11
	ldr	r1, [r8, #-8]
.Ltmp213:
	.loc	5 808 11 is_stmt 0              @ ../src/driver/stm32g4-v120/src/stm32g4xx_hal_rcc.c:808:11
	lsls	r1, r1, #6
	bpl	.LBB2_14
.Ltmp214:
@ %bb.8:
	@DEBUG_VALUE: HAL_RCC_ClockConfig:FLatency <- $r5
	@DEBUG_VALUE: HAL_RCC_ClockConfig:RCC_ClkInitStruct <- $r4
	@DEBUG_VALUE: HAL_RCC_ClockConfig:hpre <- 0
	.loc	5 1349 15 is_stmt 1             @ ../src/driver/stm32g4-v120/src/stm32g4xx_hal_rcc.c:1349:15
	ldr.w	r1, [r8, #4]
.Ltmp215:
	@DEBUG_VALUE: RCC_GetSysClockFreqFromPLLSource:pllsource <- [DW_OP_constu 3, DW_OP_and, DW_OP_stack_value] $r1
	.loc	5 1350 11                       @ ../src/driver/stm32g4-v120/src/stm32g4xx_hal_rcc.c:1350:11
	ldr.w	r1, [r8, #4]
.Ltmp216:
	.loc	5 0 11 is_stmt 0                @ ../src/driver/stm32g4-v120/src/stm32g4xx_hal_rcc.c:0:11
	movw	r2, #9216
	.loc	5 1350 52                       @ ../src/driver/stm32g4-v120/src/stm32g4xx_hal_rcc.c:1350:52
	ubfx	r1, r1, #4, #4
.Ltmp217:
	.loc	5 0 0                           @ ../src/driver/stm32g4-v120/src/stm32g4xx_hal_rcc.c:0:0
	ldr.w	r3, [r8, #4]
.Ltmp218:
	.loc	5 1350 77                       @ ../src/driver/stm32g4-v120/src/stm32g4xx_hal_rcc.c:1350:77
	adds	r1, #1
.Ltmp219:
	@DEBUG_VALUE: RCC_GetSysClockFreqFromPLLSource:pllm <- $r1
	.loc	5 0 77                          @ ../src/driver/stm32g4-v120/src/stm32g4xx_hal_rcc.c:0:77
	movt	r2, #244
.Ltmp220:
	udiv	r1, r2, r1
.Ltmp221:
	ubfx	r2, r3, #8, #7
.Ltmp222:
	.loc	5 1364 12 is_stmt 1             @ ../src/driver/stm32g4-v120/src/stm32g4xx_hal_rcc.c:1364:12
	ldr.w	r3, [r8, #4]
.Ltmp223:
	.loc	5 0 0 is_stmt 0                 @ ../src/driver/stm32g4-v120/src/stm32g4xx_hal_rcc.c:0:0
	muls	r1, r2, r1
.Ltmp224:
	@DEBUG_VALUE: RCC_GetSysClockFreqFromPLLSource:pllvco <- $r1
	.loc	5 1364 85                       @ ../src/driver/stm32g4-v120/src/stm32g4xx_hal_rcc.c:1364:85
	ubfx	r2, r3, #25, #2
	movs	r3, #2
	add.w	r2, r3, r2, lsl #1
.Ltmp225:
	@DEBUG_VALUE: RCC_GetSysClockFreqFromPLLSource:pllr <- $r2
	.loc	5 1365 24 is_stmt 1             @ ../src/driver/stm32g4-v120/src/stm32g4xx_hal_rcc.c:1365:24
	udiv	r1, r1, r2
.Ltmp226:
	@DEBUG_VALUE: HAL_RCC_ClockConfig:pllfreq <- $r1
	@DEBUG_VALUE: RCC_GetSysClockFreqFromPLLSource:sysclockfreq <- $r1
	.loc	5 0 24 is_stmt 0                @ ../src/driver/stm32g4-v120/src/stm32g4xx_hal_rcc.c:0:24
	movw	r2, #46080
.Ltmp227:
	movt	r2, #1220
.Ltmp228:
	.loc	5 817 10 is_stmt 1              @ ../src/driver/stm32g4-v120/src/stm32g4xx_hal_rcc.c:817:10
	cmp	r1, r2
	bls	.LBB2_12
.Ltmp229:
@ %bb.9:
	@DEBUG_VALUE: HAL_RCC_ClockConfig:FLatency <- $r5
	@DEBUG_VALUE: HAL_RCC_ClockConfig:RCC_ClkInitStruct <- $r4
	@DEBUG_VALUE: HAL_RCC_ClockConfig:pllfreq <- $r1
	@DEBUG_VALUE: HAL_RCC_ClockConfig:hpre <- 0
	.loc	5 819 15                        @ ../src/driver/stm32g4-v120/src/stm32g4xx_hal_rcc.c:819:15
	ldr.w	r1, [r8]
.Ltmp230:
	.loc	5 819 71 is_stmt 0              @ ../src/driver/stm32g4-v120/src/stm32g4xx_hal_rcc.c:819:71
	tst.w	r1, #240
	beq	.LBB2_17
.Ltmp231:
@ %bb.10:
	@DEBUG_VALUE: HAL_RCC_ClockConfig:FLatency <- $r5
	@DEBUG_VALUE: HAL_RCC_ClockConfig:RCC_ClkInitStruct <- $r4
	@DEBUG_VALUE: HAL_RCC_ClockConfig:hpre <- 0
	.loc	5 820 93 is_stmt 1              @ ../src/driver/stm32g4-v120/src/stm32g4xx_hal_rcc.c:820:93
	lsls	r0, r0, #30
	bpl	.LBB2_12
.Ltmp232:
@ %bb.11:
	@DEBUG_VALUE: HAL_RCC_ClockConfig:FLatency <- $r5
	@DEBUG_VALUE: HAL_RCC_ClockConfig:RCC_ClkInitStruct <- $r4
	@DEBUG_VALUE: HAL_RCC_ClockConfig:hpre <- 0
	.loc	5 821 35                        @ ../src/driver/stm32g4-v120/src/stm32g4xx_hal_rcc.c:821:35
	ldr	r0, [r4, #8]
.Ltmp233:
	.loc	5 819 13                        @ ../src/driver/stm32g4-v120/src/stm32g4xx_hal_rcc.c:819:13
	cbz	r0, .LBB2_17
.Ltmp234:
.LBB2_12:
	@DEBUG_VALUE: HAL_RCC_ClockConfig:FLatency <- $r5
	@DEBUG_VALUE: HAL_RCC_ClockConfig:RCC_ClkInitStruct <- $r4
	@DEBUG_VALUE: HAL_RCC_ClockConfig:hpre <- 0
	.loc	5 0 13 is_stmt 0                @ ../src/driver/stm32g4-v120/src/stm32g4xx_hal_rcc.c:0:13
	mov.w	r9, #0
	b	.LBB2_18
.Ltmp235:
.LBB2_13:
	@DEBUG_VALUE: HAL_RCC_ClockConfig:FLatency <- $r5
	@DEBUG_VALUE: HAL_RCC_ClockConfig:RCC_ClkInitStruct <- $r4
	@DEBUG_VALUE: HAL_RCC_ClockConfig:hpre <- 0
	.loc	5 834 12 is_stmt 1              @ ../src/driver/stm32g4-v120/src/stm32g4xx_hal_rcc.c:834:12
	ldr	r0, [r8, #-8]
.Ltmp236:
	.loc	5 834 12 is_stmt 0              @ ../src/driver/stm32g4-v120/src/stm32g4xx_hal_rcc.c:834:12
	lsls	r0, r0, #14
	bmi	.LBB2_16
.Ltmp237:
.LBB2_14:
	@DEBUG_VALUE: HAL_RCC_ClockConfig:hpre <- 0
	.loc	5 0 12                          @ ../src/driver/stm32g4-v120/src/stm32g4xx_hal_rcc.c:0:12
	movs	r0, #1
	.loc	5 939 1 is_stmt 1               @ ../src/driver/stm32g4-v120/src/stm32g4xx_hal_rcc.c:939:1
	pop.w	{r4, r5, r6, r7, r8, r9, r10, pc}
.Ltmp238:
.LBB2_15:
	@DEBUG_VALUE: HAL_RCC_ClockConfig:FLatency <- $r5
	@DEBUG_VALUE: HAL_RCC_ClockConfig:RCC_ClkInitStruct <- $r4
	@DEBUG_VALUE: HAL_RCC_ClockConfig:hpre <- 0
	.loc	5 843 12                        @ ../src/driver/stm32g4-v120/src/stm32g4xx_hal_rcc.c:843:12
	ldr	r0, [r8, #-8]
.Ltmp239:
	.loc	5 843 12 is_stmt 0              @ ../src/driver/stm32g4-v120/src/stm32g4xx_hal_rcc.c:843:12
	lsls	r0, r0, #21
	bpl	.LBB2_14
.Ltmp240:
.LBB2_16:
	@DEBUG_VALUE: HAL_RCC_ClockConfig:FLatency <- $r5
	@DEBUG_VALUE: HAL_RCC_ClockConfig:RCC_ClkInitStruct <- $r4
	@DEBUG_VALUE: HAL_RCC_ClockConfig:hpre <- 0
	.loc	5 849 17 is_stmt 1              @ ../src/driver/stm32g4-v120/src/stm32g4xx_hal_rcc.c:849:17
	bl	HAL_RCC_GetSysClockFreq
.Ltmp241:
	@DEBUG_VALUE: HAL_RCC_ClockConfig:pllfreq <- $r0
	.loc	5 0 17 is_stmt 0                @ ../src/driver/stm32g4-v120/src/stm32g4xx_hal_rcc.c:0:17
	movw	r1, #46080
	movt	r1, #1220
	.loc	5 852 10 is_stmt 1              @ ../src/driver/stm32g4-v120/src/stm32g4xx_hal_rcc.c:852:10
	cmp	r0, r1
	bls	.LBB2_12
.Ltmp242:
.LBB2_17:
	@DEBUG_VALUE: HAL_RCC_ClockConfig:FLatency <- $r5
	@DEBUG_VALUE: HAL_RCC_ClockConfig:RCC_ClkInitStruct <- $r4
	@DEBUG_VALUE: HAL_RCC_ClockConfig:hpre <- 0
	.loc	5 0 0 is_stmt 0                 @ ../src/driver/stm32g4-v120/src/stm32g4xx_hal_rcc.c:0:0
	ldr.w	r0, [r8]
	movs	r1, #8
	bfi	r0, r1, #4, #4
	mov.w	r9, #1
.Ltmp243:
	@DEBUG_VALUE: HAL_RCC_ClockConfig:hpre <- 128
	str.w	r0, [r8]
.Ltmp244:
.LBB2_18:
	@DEBUG_VALUE: HAL_RCC_ClockConfig:FLatency <- $r5
	@DEBUG_VALUE: HAL_RCC_ClockConfig:RCC_ClkInitStruct <- $r4
	@DEBUG_VALUE: HAL_RCC_ClockConfig:hpre <- undef
	.loc	5 860 5 is_stmt 1               @ ../src/driver/stm32g4-v120/src/stm32g4xx_hal_rcc.c:860:5
	ldr.w	r0, [r8]
	ldr	r1, [r4, #4]
	bic	r0, r0, #3
	orrs	r0, r1
	str.w	r0, [r8]
	.loc	5 863 17                        @ ../src/driver/stm32g4-v120/src/stm32g4xx_hal_rcc.c:863:17
	bl	HAL_GetTick
.Ltmp245:
	mov	r6, r0
.Ltmp246:
	@DEBUG_VALUE: HAL_RCC_ClockConfig:tickstart <- $r6
	.loc	5 0 17 is_stmt 0                @ ../src/driver/stm32g4-v120/src/stm32g4xx_hal_rcc.c:0:17
	movw	r7, #5000
.Ltmp247:
	.p2align	2
.LBB2_19:                               @ =>This Inner Loop Header: Depth=1
	@DEBUG_VALUE: HAL_RCC_ClockConfig:tickstart <- $r6
	@DEBUG_VALUE: HAL_RCC_ClockConfig:FLatency <- $r5
	@DEBUG_VALUE: HAL_RCC_ClockConfig:RCC_ClkInitStruct <- $r4
	.loc	5 865 12 is_stmt 1              @ ../src/driver/stm32g4-v120/src/stm32g4xx_hal_rcc.c:865:12
	ldr.w	r0, [r8]
	.loc	5 865 65 is_stmt 0              @ ../src/driver/stm32g4-v120/src/stm32g4xx_hal_rcc.c:865:65
	ldr	r1, [r4, #4]
	.loc	5 865 12                        @ ../src/driver/stm32g4-v120/src/stm32g4xx_hal_rcc.c:865:12
	and	r0, r0, #12
	.loc	5 865 5                         @ ../src/driver/stm32g4-v120/src/stm32g4xx_hal_rcc.c:865:5
	cmp.w	r0, r1, lsl #2
	beq	.LBB2_21
.Ltmp248:
@ %bb.20:                               @   in Loop: Header=BB2_19 Depth=1
	@DEBUG_VALUE: HAL_RCC_ClockConfig:tickstart <- $r6
	@DEBUG_VALUE: HAL_RCC_ClockConfig:FLatency <- $r5
	@DEBUG_VALUE: HAL_RCC_ClockConfig:RCC_ClkInitStruct <- $r4
	.loc	5 867 12 is_stmt 1              @ ../src/driver/stm32g4-v120/src/stm32g4xx_hal_rcc.c:867:12
	bl	HAL_GetTick
.Ltmp249:
	.loc	5 867 26 is_stmt 0              @ ../src/driver/stm32g4-v120/src/stm32g4xx_hal_rcc.c:867:26
	subs	r0, r0, r6
.Ltmp250:
	.loc	5 867 11                        @ ../src/driver/stm32g4-v120/src/stm32g4xx_hal_rcc.c:867:11
	cmp	r0, r7
	bls	.LBB2_19
	b	.LBB2_34
.Ltmp251:
.LBB2_21:
	@DEBUG_VALUE: HAL_RCC_ClockConfig:tickstart <- $r6
	@DEBUG_VALUE: HAL_RCC_ClockConfig:FLatency <- $r5
	@DEBUG_VALUE: HAL_RCC_ClockConfig:RCC_ClkInitStruct <- $r4
	@DEBUG_VALUE: HAL_RCC_ClockConfig:hpre <- undef
	.loc	5 875 28 is_stmt 1              @ ../src/driver/stm32g4-v120/src/stm32g4xx_hal_rcc.c:875:28
	ldr	r0, [r4]
.Ltmp252:
	.loc	5 875 7 is_stmt 0               @ ../src/driver/stm32g4-v120/src/stm32g4xx_hal_rcc.c:875:7
	lsls	r1, r0, #30
	bmi	.LBB2_24
.Ltmp253:
@ %bb.22:
	@DEBUG_VALUE: HAL_RCC_ClockConfig:tickstart <- $r6
	@DEBUG_VALUE: HAL_RCC_ClockConfig:FLatency <- $r5
	@DEBUG_VALUE: HAL_RCC_ClockConfig:RCC_ClkInitStruct <- $r4
	.loc	5 895 8 is_stmt 1               @ ../src/driver/stm32g4-v120/src/stm32g4xx_hal_rcc.c:895:8
	cmp.w	r9, #0
	beq	.LBB2_30
.Ltmp254:
@ %bb.23:
	@DEBUG_VALUE: HAL_RCC_ClockConfig:tickstart <- $r6
	@DEBUG_VALUE: HAL_RCC_ClockConfig:FLatency <- $r5
	@DEBUG_VALUE: HAL_RCC_ClockConfig:RCC_ClkInitStruct <- $r4
	.loc	5 897 7                         @ ../src/driver/stm32g4-v120/src/stm32g4xx_hal_rcc.c:897:7
	ldr.w	r1, [r8]
	bic	r1, r1, #240
	b	.LBB2_29
.Ltmp255:
.LBB2_24:
	@DEBUG_VALUE: HAL_RCC_ClockConfig:FLatency <- $r5
	@DEBUG_VALUE: HAL_RCC_ClockConfig:RCC_ClkInitStruct <- $r4
	.loc	5 879 9                         @ ../src/driver/stm32g4-v120/src/stm32g4xx_hal_rcc.c:879:9
	lsls	r1, r0, #29
	bpl	.LBB2_26
.Ltmp256:
@ %bb.25:
	@DEBUG_VALUE: HAL_RCC_ClockConfig:FLatency <- $r5
	@DEBUG_VALUE: HAL_RCC_ClockConfig:RCC_ClkInitStruct <- $r4
	.loc	5 881 7                         @ ../src/driver/stm32g4-v120/src/stm32g4xx_hal_rcc.c:881:7
	ldr.w	r1, [r8]
	orr	r1, r1, #1792
	str.w	r1, [r8]
.Ltmp257:
.LBB2_26:
	@DEBUG_VALUE: HAL_RCC_ClockConfig:FLatency <- $r5
	@DEBUG_VALUE: HAL_RCC_ClockConfig:RCC_ClkInitStruct <- $r4
	.loc	5 883 9                         @ ../src/driver/stm32g4-v120/src/stm32g4xx_hal_rcc.c:883:9
	lsls	r1, r0, #28
	bpl	.LBB2_28
.Ltmp258:
@ %bb.27:
	@DEBUG_VALUE: HAL_RCC_ClockConfig:FLatency <- $r5
	@DEBUG_VALUE: HAL_RCC_ClockConfig:RCC_ClkInitStruct <- $r4
	.loc	5 885 7                         @ ../src/driver/stm32g4-v120/src/stm32g4xx_hal_rcc.c:885:7
	ldr.w	r1, [r8]
	movs	r2, #7
	bfi	r1, r2, #8, #6
	str.w	r1, [r8]
.Ltmp259:
.LBB2_28:
	@DEBUG_VALUE: HAL_RCC_ClockConfig:FLatency <- $r5
	@DEBUG_VALUE: HAL_RCC_ClockConfig:RCC_ClkInitStruct <- $r4
	.loc	5 890 5                         @ ../src/driver/stm32g4-v120/src/stm32g4xx_hal_rcc.c:890:5
	ldr.w	r1, [r8]
	ldr	r2, [r4, #8]
	bic	r1, r1, #240
	orrs	r1, r2
.Ltmp260:
.LBB2_29:
	@DEBUG_VALUE: HAL_RCC_ClockConfig:FLatency <- $r5
	@DEBUG_VALUE: HAL_RCC_ClockConfig:RCC_ClkInitStruct <- $r4
	.loc	5 0 0 is_stmt 0                 @ ../src/driver/stm32g4-v120/src/stm32g4xx_hal_rcc.c:0:0
	str.w	r1, [r8]
.Ltmp261:
.LBB2_30:
	@DEBUG_VALUE: HAL_RCC_ClockConfig:FLatency <- $r5
	@DEBUG_VALUE: HAL_RCC_ClockConfig:RCC_ClkInitStruct <- $r4
	.loc	5 902 18 is_stmt 1              @ ../src/driver/stm32g4-v120/src/stm32g4xx_hal_rcc.c:902:18
	ldr.w	r1, [r10]
	and	r1, r1, #15
.Ltmp262:
	.loc	5 902 7 is_stmt 0               @ ../src/driver/stm32g4-v120/src/stm32g4xx_hal_rcc.c:902:7
	cmp	r1, r5
	bls	.LBB2_36
.Ltmp263:
@ %bb.31:
	@DEBUG_VALUE: HAL_RCC_ClockConfig:FLatency <- $r5
	@DEBUG_VALUE: HAL_RCC_ClockConfig:RCC_ClkInitStruct <- $r4
	.loc	5 905 5 is_stmt 1               @ ../src/driver/stm32g4-v120/src/stm32g4xx_hal_rcc.c:905:5
	ldr.w	r0, [r10]
	bic	r0, r0, #15
	orrs	r0, r5
	str.w	r0, [r10]
	.loc	5 909 17                        @ ../src/driver/stm32g4-v120/src/stm32g4xx_hal_rcc.c:909:17
	bl	HAL_GetTick
.Ltmp264:
	mov	r6, r0
.Ltmp265:
	@DEBUG_VALUE: HAL_RCC_ClockConfig:tickstart <- $r6
	.loc	5 0 17 is_stmt 0                @ ../src/driver/stm32g4-v120/src/stm32g4xx_hal_rcc.c:0:17
	movw	r7, #5000
.Ltmp266:
	.p2align	2
.LBB2_32:                               @ =>This Inner Loop Header: Depth=1
	@DEBUG_VALUE: HAL_RCC_ClockConfig:tickstart <- $r6
	@DEBUG_VALUE: HAL_RCC_ClockConfig:FLatency <- $r5
	@DEBUG_VALUE: HAL_RCC_ClockConfig:RCC_ClkInitStruct <- $r4
	.loc	5 911 12 is_stmt 1              @ ../src/driver/stm32g4-v120/src/stm32g4xx_hal_rcc.c:911:12
	ldr.w	r0, [r10]
	and	r0, r0, #15
	.loc	5 911 5 is_stmt 0               @ ../src/driver/stm32g4-v120/src/stm32g4xx_hal_rcc.c:911:5
	cmp	r0, r5
	beq	.LBB2_35
.Ltmp267:
@ %bb.33:                               @   in Loop: Header=BB2_32 Depth=1
	@DEBUG_VALUE: HAL_RCC_ClockConfig:tickstart <- $r6
	@DEBUG_VALUE: HAL_RCC_ClockConfig:FLatency <- $r5
	@DEBUG_VALUE: HAL_RCC_ClockConfig:RCC_ClkInitStruct <- $r4
	.loc	5 913 12 is_stmt 1              @ ../src/driver/stm32g4-v120/src/stm32g4xx_hal_rcc.c:913:12
	bl	HAL_GetTick
.Ltmp268:
	.loc	5 913 26 is_stmt 0              @ ../src/driver/stm32g4-v120/src/stm32g4xx_hal_rcc.c:913:26
	subs	r0, r0, r6
.Ltmp269:
	.loc	5 913 11                        @ ../src/driver/stm32g4-v120/src/stm32g4xx_hal_rcc.c:913:11
	cmp	r0, r7
	bls	.LBB2_32
.Ltmp270:
.LBB2_34:
	@DEBUG_VALUE: HAL_RCC_ClockConfig:tickstart <- $r6
	@DEBUG_VALUE: HAL_RCC_ClockConfig:FLatency <- $r5
	@DEBUG_VALUE: HAL_RCC_ClockConfig:RCC_ClkInitStruct <- $r4
	.loc	5 0 11                          @ ../src/driver/stm32g4-v120/src/stm32g4xx_hal_rcc.c:0:11
	movs	r0, #3
	.loc	5 939 1 is_stmt 1               @ ../src/driver/stm32g4-v120/src/stm32g4xx_hal_rcc.c:939:1
	pop.w	{r4, r5, r6, r7, r8, r9, r10, pc}
.Ltmp271:
.LBB2_35:
	@DEBUG_VALUE: HAL_RCC_ClockConfig:tickstart <- $r6
	@DEBUG_VALUE: HAL_RCC_ClockConfig:FLatency <- $r5
	@DEBUG_VALUE: HAL_RCC_ClockConfig:RCC_ClkInitStruct <- $r4
	.loc	5 921 28                        @ ../src/driver/stm32g4-v120/src/stm32g4xx_hal_rcc.c:921:28
	ldr	r0, [r4]
.Ltmp272:
.LBB2_36:
	@DEBUG_VALUE: HAL_RCC_ClockConfig:FLatency <- $r5
	@DEBUG_VALUE: HAL_RCC_ClockConfig:RCC_ClkInitStruct <- $r4
	.loc	5 921 7 is_stmt 0               @ ../src/driver/stm32g4-v120/src/stm32g4xx_hal_rcc.c:921:7
	lsls	r1, r0, #29
	bpl	.LBB2_38
.Ltmp273:
@ %bb.37:
	@DEBUG_VALUE: HAL_RCC_ClockConfig:FLatency <- $r5
	@DEBUG_VALUE: HAL_RCC_ClockConfig:RCC_ClkInitStruct <- $r4
	.loc	5 924 5 is_stmt 1               @ ../src/driver/stm32g4-v120/src/stm32g4xx_hal_rcc.c:924:5
	ldr.w	r1, [r8]
	ldr	r2, [r4, #12]
	bic	r1, r1, #1792
	orrs	r1, r2
	str.w	r1, [r8]
.Ltmp274:
.LBB2_38:
	@DEBUG_VALUE: HAL_RCC_ClockConfig:FLatency <- $r5
	@DEBUG_VALUE: HAL_RCC_ClockConfig:RCC_ClkInitStruct <- $r4
	.loc	5 928 6                         @ ../src/driver/stm32g4-v120/src/stm32g4xx_hal_rcc.c:928:6
	lsls	r0, r0, #28
	bpl	.LBB2_40
.Ltmp275:
@ %bb.39:
	@DEBUG_VALUE: HAL_RCC_ClockConfig:FLatency <- $r5
	@DEBUG_VALUE: HAL_RCC_ClockConfig:RCC_ClkInitStruct <- $r4
	.loc	5 931 5                         @ ../src/driver/stm32g4-v120/src/stm32g4xx_hal_rcc.c:931:5
	ldr.w	r0, [r8]
	ldr	r1, [r4, #16]
	bic	r0, r0, #14336
	orr.w	r0, r0, r1, lsl #3
	str.w	r0, [r8]
.Ltmp276:
.LBB2_40:
	@DEBUG_VALUE: HAL_RCC_ClockConfig:FLatency <- $r5
	@DEBUG_VALUE: HAL_RCC_ClockConfig:RCC_ClkInitStruct <- $r4
	.loc	5 935 21                        @ ../src/driver/stm32g4-v120/src/stm32g4xx_hal_rcc.c:935:21
	bl	HAL_RCC_GetSysClockFreq
.Ltmp277:
	.loc	5 935 65 is_stmt 0              @ ../src/driver/stm32g4-v120/src/stm32g4xx_hal_rcc.c:935:65
	ldr.w	r1, [r8]
	.loc	5 935 51                        @ ../src/driver/stm32g4-v120/src/stm32g4xx_hal_rcc.c:935:51
	movw	r2, :lower16:AHBPrescTable
	.loc	5 935 100                       @ ../src/driver/stm32g4-v120/src/stm32g4xx_hal_rcc.c:935:100
	ubfx	r1, r1, #4, #4
	.loc	5 935 51                        @ ../src/driver/stm32g4-v120/src/stm32g4xx_hal_rcc.c:935:51
	movt	r2, :upper16:AHBPrescTable
	ldrb	r1, [r2, r1]
	.loc	5 935 19                        @ ../src/driver/stm32g4-v120/src/stm32g4xx_hal_rcc.c:935:19
	movw	r2, :lower16:SystemCoreClock
	.loc	5 935 122                       @ ../src/driver/stm32g4-v120/src/stm32g4xx_hal_rcc.c:935:122
	and	r1, r1, #31
	.loc	5 935 47                        @ ../src/driver/stm32g4-v120/src/stm32g4xx_hal_rcc.c:935:47
	lsr.w	r1, r0, r1
	.loc	5 938 23 is_stmt 1              @ ../src/driver/stm32g4-v120/src/stm32g4xx_hal_rcc.c:938:23
	movw	r0, :lower16:uwTickPrio
	movt	r0, :upper16:uwTickPrio
	ldr	r0, [r0]
	.loc	5 935 19                        @ ../src/driver/stm32g4-v120/src/stm32g4xx_hal_rcc.c:935:19
	movt	r2, :upper16:SystemCoreClock
	str	r1, [r2]
	.loc	5 938 10                        @ ../src/driver/stm32g4-v120/src/stm32g4xx_hal_rcc.c:938:10
	pop.w	{r4, r5, r6, r7, r8, r9, r10, lr}
.Ltmp278:
	@DEBUG_VALUE: HAL_RCC_ClockConfig:FLatency <- [DW_OP_LLVM_entry_value 1] $r1
	@DEBUG_VALUE: HAL_RCC_ClockConfig:RCC_ClkInitStruct <- [DW_OP_LLVM_entry_value 1] $r0
	b	HAL_InitTick
.Ltmp279:
.Lfunc_end2:
	.size	HAL_RCC_ClockConfig, .Lfunc_end2-HAL_RCC_ClockConfig
	.cfi_endproc
	.file	6 "C:\\Users\\grodriguez\\Documents\\iit\\icub-firmware\\emBODY\\eBcode\\arch-arm\\libs\\lowlevel\\stm32hal\\proj" "../src/driver/stm32g4-v120/inc/stm32g4xx_hal.h"
	.cantunwind
	.fnend
                                        @ -- End function
	.section	.text.HAL_RCC_GetSysClockFreq,"ax",%progbits
	.hidden	HAL_RCC_GetSysClockFreq         @ -- Begin function HAL_RCC_GetSysClockFreq
	.globl	HAL_RCC_GetSysClockFreq
	.p2align	1
	.type	HAL_RCC_GetSysClockFreq,%function
	.code	16                              @ @HAL_RCC_GetSysClockFreq
	.thumb_func
HAL_RCC_GetSysClockFreq:
.Lfunc_begin3:
	.loc	5 1046 0                        @ ../src/driver/stm32g4-v120/src/stm32g4xx_hal_rcc.c:1046:0
	.fnstart
	.cfi_startproc
@ %bb.0:
	movw	r1, #4104
	movt	r1, #16386
.Ltmp280:
	.loc	5 1050 7 prologue_end           @ ../src/driver/stm32g4-v120/src/stm32g4xx_hal_rcc.c:1050:7
	ldr	r0, [r1]
	and	r0, r0, #12
.Ltmp281:
	.loc	5 1050 7 is_stmt 0              @ ../src/driver/stm32g4-v120/src/stm32g4xx_hal_rcc.c:1050:7
	cmp	r0, #4
	movw	r0, #9216
	movt	r0, #244
.Ltmp282:
	@DEBUG_VALUE: HAL_RCC_GetSysClockFreq:sysclockfreq <- $r0
	.loc	5 1089 3 is_stmt 1              @ ../src/driver/stm32g4-v120/src/stm32g4xx_hal_rcc.c:1089:3
	it	eq
	bxeq	lr
.Ltmp283:
.LBB3_1:
	@DEBUG_VALUE: HAL_RCC_GetSysClockFreq:sysclockfreq <- $r0
	.loc	5 1055 12                       @ ../src/driver/stm32g4-v120/src/stm32g4xx_hal_rcc.c:1055:12
	ldr	r2, [r1]
	and	r2, r2, #12
.Ltmp284:
	.loc	5 1055 12 is_stmt 0             @ ../src/driver/stm32g4-v120/src/stm32g4xx_hal_rcc.c:1055:12
	cmp	r2, #8
	beq	.LBB3_4
.Ltmp285:
@ %bb.2:
	@DEBUG_VALUE: HAL_RCC_GetSysClockFreq:sysclockfreq <- $r0
	.loc	5 1060 12 is_stmt 1             @ ../src/driver/stm32g4-v120/src/stm32g4xx_hal_rcc.c:1060:12
	ldr	r2, [r1]
	and	r2, r2, #12
.Ltmp286:
	.loc	5 1060 12 is_stmt 0             @ ../src/driver/stm32g4-v120/src/stm32g4xx_hal_rcc.c:1060:12
	cmp	r2, #12
	itt	ne
	movne	r0, #0
.Ltmp287:
	@DEBUG_VALUE: HAL_RCC_GetSysClockFreq:sysclockfreq <- $r0
	.loc	5 1089 3 is_stmt 1              @ ../src/driver/stm32g4-v120/src/stm32g4xx_hal_rcc.c:1089:3
	bxne	lr
.Ltmp288:
.LBB3_3:
	@DEBUG_VALUE: HAL_RCC_GetSysClockFreq:sysclockfreq <- $r0
	.loc	5 1067 17                       @ ../src/driver/stm32g4-v120/src/stm32g4xx_hal_rcc.c:1067:17
	ldr	r2, [r1, #4]
.Ltmp289:
	@DEBUG_VALUE: HAL_RCC_GetSysClockFreq:pllsource <- [DW_OP_constu 3, DW_OP_and, DW_OP_stack_value] $r2
	.loc	5 1068 13                       @ ../src/driver/stm32g4-v120/src/stm32g4xx_hal_rcc.c:1068:13
	ldr	r2, [r1, #4]
.Ltmp290:
	.loc	5 0 0 is_stmt 0                 @ ../src/driver/stm32g4-v120/src/stm32g4xx_hal_rcc.c:0:0
	ldr	r3, [r1, #4]
.Ltmp291:
	.loc	5 1068 54                       @ ../src/driver/stm32g4-v120/src/stm32g4xx_hal_rcc.c:1068:54
	ubfx	r2, r2, #4, #4
	.loc	5 1068 79                       @ ../src/driver/stm32g4-v120/src/stm32g4xx_hal_rcc.c:1068:79
	adds	r2, #1
.Ltmp292:
	@DEBUG_VALUE: HAL_RCC_GetSysClockFreq:pllm <- $r2
	.loc	5 0 0                           @ ../src/driver/stm32g4-v120/src/stm32g4xx_hal_rcc.c:0:0
	udiv	r0, r0, r2
.Ltmp293:
	.loc	5 1081 14 is_stmt 1             @ ../src/driver/stm32g4-v120/src/stm32g4xx_hal_rcc.c:1081:14
	ldr	r1, [r1, #4]
.Ltmp294:
	.loc	5 0 0 is_stmt 0                 @ ../src/driver/stm32g4-v120/src/stm32g4xx_hal_rcc.c:0:0
	ubfx	r2, r3, #8, #7
.Ltmp295:
	muls	r0, r2, r0
.Ltmp296:
	@DEBUG_VALUE: HAL_RCC_GetSysClockFreq:pllvco <- $r0
	.loc	5 1081 87                       @ ../src/driver/stm32g4-v120/src/stm32g4xx_hal_rcc.c:1081:87
	ubfx	r1, r1, #25, #2
	movs	r2, #2
	add.w	r1, r2, r1, lsl #1
.Ltmp297:
	@DEBUG_VALUE: HAL_RCC_GetSysClockFreq:pllr <- $r1
	.loc	5 1082 26 is_stmt 1             @ ../src/driver/stm32g4-v120/src/stm32g4xx_hal_rcc.c:1082:26
	udiv	r0, r0, r1
.Ltmp298:
	@DEBUG_VALUE: HAL_RCC_GetSysClockFreq:sysclockfreq <- $r0
.LBB3_4:
	@DEBUG_VALUE: HAL_RCC_GetSysClockFreq:sysclockfreq <- $r0
	@DEBUG_VALUE: HAL_RCC_GetSysClockFreq:sysclockfreq <- $r0
	.loc	5 1089 3                        @ ../src/driver/stm32g4-v120/src/stm32g4xx_hal_rcc.c:1089:3
	bx	lr
.Ltmp299:
.Lfunc_end3:
	.size	HAL_RCC_GetSysClockFreq, .Lfunc_end3-HAL_RCC_GetSysClockFreq
	.cfi_endproc
	.cantunwind
	.fnend
                                        @ -- End function
	.section	.text.HAL_RCC_MCOConfig,"ax",%progbits
	.hidden	HAL_RCC_MCOConfig               @ -- Begin function HAL_RCC_MCOConfig
	.globl	HAL_RCC_MCOConfig
	.p2align	1
	.type	HAL_RCC_MCOConfig,%function
	.code	16                              @ @HAL_RCC_MCOConfig
	.thumb_func
HAL_RCC_MCOConfig:
.Lfunc_begin4:
	.loc	5 989 0                         @ ../src/driver/stm32g4-v120/src/stm32g4xx_hal_rcc.c:989:0
	.fnstart
	.cfi_startproc
@ %bb.0:
	@DEBUG_VALUE: HAL_RCC_MCOConfig:RCC_MCOx <- $r0
	@DEBUG_VALUE: HAL_RCC_MCOConfig:RCC_MCOSource <- $r1
	@DEBUG_VALUE: HAL_RCC_MCOConfig:RCC_MCODiv <- $r2
	.save	{r4, r5, r6, lr}
	push	{r4, r5, r6, lr}
	.cfi_def_cfa_offset 16
	.cfi_offset lr, -4
	.cfi_offset r6, -8
	.cfi_offset r5, -12
	.cfi_offset r4, -16
	.pad	#24
	sub	sp, #24
	.cfi_def_cfa_offset 40
	movw	r6, #4104
	movt	r6, #16386
.Ltmp300:
	.loc	5 1001 3 prologue_end           @ ../src/driver/stm32g4-v120/src/stm32g4xx_hal_rcc.c:1001:3
	ldr	r0, [r6, #68]
.Ltmp301:
	@DEBUG_VALUE: HAL_RCC_MCOConfig:RCC_MCOx <- [DW_OP_LLVM_entry_value 1] $r0
	.loc	5 0 3 is_stmt 0                 @ ../src/driver/stm32g4-v120/src/stm32g4xx_hal_rcc.c:0:3
	mov	r5, r1
.Ltmp302:
	@DEBUG_VALUE: HAL_RCC_MCOConfig:RCC_MCOSource <- $r5
	@DEBUG_VALUE: HAL_RCC_MCOConfig:RCC_MCOSource <- $r5
	.loc	5 1001 3                        @ ../src/driver/stm32g4-v120/src/stm32g4xx_hal_rcc.c:1001:3
	orr	r0, r0, #1
	str	r0, [r6, #68]
	ldr	r0, [r6, #68]
	add	r1, sp, #4
	and	r0, r0, #1
	str	r0, [sp, #4]
	ldr	r0, [sp, #4]
	mov.w	r0, #256
.Ltmp303:
	.loc	5 1004 23 is_stmt 1             @ ../src/driver/stm32g4-v120/src/stm32g4xx_hal_rcc.c:1004:23
	str	r0, [sp, #4]
	movs	r0, #2
	.loc	5 1005 24                       @ ../src/driver/stm32g4-v120/src/stm32g4xx_hal_rcc.c:1005:24
	str	r0, [sp, #8]
	movs	r0, #3
	.loc	5 1006 25                       @ ../src/driver/stm32g4-v120/src/stm32g4xx_hal_rcc.c:1006:25
	str	r0, [sp, #16]
	movs	r0, #0
	.loc	5 1007 24                       @ ../src/driver/stm32g4-v120/src/stm32g4xx_hal_rcc.c:1007:24
	str	r0, [sp, #12]
	.loc	5 1008 29                       @ ../src/driver/stm32g4-v120/src/stm32g4xx_hal_rcc.c:1008:29
	str	r0, [sp, #20]
	.loc	5 1009 3                        @ ../src/driver/stm32g4-v120/src/stm32g4xx_hal_rcc.c:1009:3
	mov.w	r0, #1207959552
	mov	r4, r2
.Ltmp304:
	@DEBUG_VALUE: HAL_RCC_MCOConfig:RCC_MCODiv <- $r4
	@DEBUG_VALUE: HAL_RCC_MCOConfig:RCC_MCODiv <- $r4
	bl	HAL_GPIO_Init
.Ltmp305:
	.loc	5 1012 3                        @ ../src/driver/stm32g4-v120/src/stm32g4xx_hal_rcc.c:1012:3
	ldr	r0, [r6]
	orr.w	r1, r4, r5
	bic	r0, r0, #2130706432
	orrs	r0, r1
	str	r0, [r6]
	.loc	5 1013 1                        @ ../src/driver/stm32g4-v120/src/stm32g4xx_hal_rcc.c:1013:1
	add	sp, #24
	pop	{r4, r5, r6, pc}
.Ltmp306:
.Lfunc_end4:
	.size	HAL_RCC_MCOConfig, .Lfunc_end4-HAL_RCC_MCOConfig
	.cfi_endproc
	.cantunwind
	.fnend
                                        @ -- End function
	.section	.text.HAL_RCC_GetHCLKFreq,"ax",%progbits
	.hidden	HAL_RCC_GetHCLKFreq             @ -- Begin function HAL_RCC_GetHCLKFreq
	.globl	HAL_RCC_GetHCLKFreq
	.p2align	1
	.type	HAL_RCC_GetHCLKFreq,%function
	.code	16                              @ @HAL_RCC_GetHCLKFreq
	.thumb_func
HAL_RCC_GetHCLKFreq:
.Lfunc_begin5:
	.loc	5 1101 0                        @ ../src/driver/stm32g4-v120/src/stm32g4xx_hal_rcc.c:1101:0
	.fnstart
	.cfi_startproc
@ %bb.0:
	.loc	5 1102 10 prologue_end          @ ../src/driver/stm32g4-v120/src/stm32g4xx_hal_rcc.c:1102:10
	movw	r0, :lower16:SystemCoreClock
	movt	r0, :upper16:SystemCoreClock
	ldr	r0, [r0]
	.loc	5 1102 3 is_stmt 0              @ ../src/driver/stm32g4-v120/src/stm32g4xx_hal_rcc.c:1102:3
	bx	lr
.Ltmp307:
.Lfunc_end5:
	.size	HAL_RCC_GetHCLKFreq, .Lfunc_end5-HAL_RCC_GetHCLKFreq
	.cfi_endproc
	.cantunwind
	.fnend
                                        @ -- End function
	.section	.text.HAL_RCC_GetPCLK1Freq,"ax",%progbits
	.hidden	HAL_RCC_GetPCLK1Freq            @ -- Begin function HAL_RCC_GetPCLK1Freq
	.globl	HAL_RCC_GetPCLK1Freq
	.p2align	1
	.type	HAL_RCC_GetPCLK1Freq,%function
	.code	16                              @ @HAL_RCC_GetPCLK1Freq
	.thumb_func
HAL_RCC_GetPCLK1Freq:
.Lfunc_begin6:
	.loc	5 1112 0 is_stmt 1              @ ../src/driver/stm32g4-v120/src/stm32g4xx_hal_rcc.c:1112:0
	.fnstart
	.cfi_startproc
@ %bb.0:
	.loc	5 1102 10 prologue_end          @ ../src/driver/stm32g4-v120/src/stm32g4xx_hal_rcc.c:1102:10
	movw	r0, :lower16:SystemCoreClock
	movw	r1, #4104
	movt	r0, :upper16:SystemCoreClock
	movt	r1, #16386
	ldr	r0, [r0]
.Ltmp308:
	.loc	5 1114 51                       @ ../src/driver/stm32g4-v120/src/stm32g4xx_hal_rcc.c:1114:51
	ldr	r1, [r1]
	.loc	5 1114 37 is_stmt 0             @ ../src/driver/stm32g4-v120/src/stm32g4xx_hal_rcc.c:1114:37
	movw	r2, :lower16:APBPrescTable
	.loc	5 1114 87                       @ ../src/driver/stm32g4-v120/src/stm32g4xx_hal_rcc.c:1114:87
	ubfx	r1, r1, #8, #3
	.loc	5 1114 37                       @ ../src/driver/stm32g4-v120/src/stm32g4xx_hal_rcc.c:1114:37
	movt	r2, :upper16:APBPrescTable
	ldrb	r1, [r2, r1]
	.loc	5 1114 110                      @ ../src/driver/stm32g4-v120/src/stm32g4xx_hal_rcc.c:1114:110
	and	r1, r1, #31
	.loc	5 1114 33                       @ ../src/driver/stm32g4-v120/src/stm32g4xx_hal_rcc.c:1114:33
	lsrs	r0, r1
	.loc	5 1114 3                        @ ../src/driver/stm32g4-v120/src/stm32g4xx_hal_rcc.c:1114:3
	bx	lr
.Ltmp309:
.Lfunc_end6:
	.size	HAL_RCC_GetPCLK1Freq, .Lfunc_end6-HAL_RCC_GetPCLK1Freq
	.cfi_endproc
	.cantunwind
	.fnend
                                        @ -- End function
	.section	.text.HAL_RCC_GetPCLK2Freq,"ax",%progbits
	.hidden	HAL_RCC_GetPCLK2Freq            @ -- Begin function HAL_RCC_GetPCLK2Freq
	.globl	HAL_RCC_GetPCLK2Freq
	.p2align	1
	.type	HAL_RCC_GetPCLK2Freq,%function
	.code	16                              @ @HAL_RCC_GetPCLK2Freq
	.thumb_func
HAL_RCC_GetPCLK2Freq:
.Lfunc_begin7:
	.loc	5 1124 0 is_stmt 1              @ ../src/driver/stm32g4-v120/src/stm32g4xx_hal_rcc.c:1124:0
	.fnstart
	.cfi_startproc
@ %bb.0:
	.loc	5 1102 10 prologue_end          @ ../src/driver/stm32g4-v120/src/stm32g4xx_hal_rcc.c:1102:10
	movw	r0, :lower16:SystemCoreClock
	movw	r1, #4104
	movt	r0, :upper16:SystemCoreClock
	movt	r1, #16386
	ldr	r0, [r0]
.Ltmp310:
	.loc	5 1126 50                       @ ../src/driver/stm32g4-v120/src/stm32g4xx_hal_rcc.c:1126:50
	ldr	r1, [r1]
	.loc	5 1126 36 is_stmt 0             @ ../src/driver/stm32g4-v120/src/stm32g4xx_hal_rcc.c:1126:36
	movw	r2, :lower16:APBPrescTable
	.loc	5 1126 86                       @ ../src/driver/stm32g4-v120/src/stm32g4xx_hal_rcc.c:1126:86
	ubfx	r1, r1, #11, #3
	.loc	5 1126 36                       @ ../src/driver/stm32g4-v120/src/stm32g4xx_hal_rcc.c:1126:36
	movt	r2, :upper16:APBPrescTable
	ldrb	r1, [r2, r1]
	.loc	5 1126 109                      @ ../src/driver/stm32g4-v120/src/stm32g4xx_hal_rcc.c:1126:109
	and	r1, r1, #31
	.loc	5 1126 32                       @ ../src/driver/stm32g4-v120/src/stm32g4xx_hal_rcc.c:1126:32
	lsrs	r0, r1
	.loc	5 1126 3                        @ ../src/driver/stm32g4-v120/src/stm32g4xx_hal_rcc.c:1126:3
	bx	lr
.Ltmp311:
.Lfunc_end7:
	.size	HAL_RCC_GetPCLK2Freq, .Lfunc_end7-HAL_RCC_GetPCLK2Freq
	.cfi_endproc
	.cantunwind
	.fnend
                                        @ -- End function
	.section	.text.HAL_RCC_GetOscConfig,"ax",%progbits
	.hidden	HAL_RCC_GetOscConfig            @ -- Begin function HAL_RCC_GetOscConfig
	.globl	HAL_RCC_GetOscConfig
	.p2align	1
	.type	HAL_RCC_GetOscConfig,%function
	.code	16                              @ @HAL_RCC_GetOscConfig
	.thumb_func
HAL_RCC_GetOscConfig:
.Lfunc_begin8:
	.loc	5 1137 0 is_stmt 1              @ ../src/driver/stm32g4-v120/src/stm32g4xx_hal_rcc.c:1137:0
	.fnstart
	.cfi_startproc
@ %bb.0:
	@DEBUG_VALUE: HAL_RCC_GetOscConfig:RCC_OscInitStruct <- $r0
	movw	r1, #4096
	movs	r2, #47
	@DEBUG_VALUE: HAL_RCC_GetOscConfig:RCC_OscInitStruct <- $r0
	movt	r1, #16386
.Ltmp312:
	.loc	5 1142 37 prologue_end          @ ../src/driver/stm32g4-v120/src/stm32g4xx_hal_rcc.c:1142:37
	str	r2, [r0]
.Ltmp313:
	.loc	5 1146 6                        @ ../src/driver/stm32g4-v120/src/stm32g4xx_hal_rcc.c:1146:6
	ldr	r2, [r1]
.Ltmp314:
	.loc	5 1146 6 is_stmt 0              @ ../src/driver/stm32g4-v120/src/stm32g4xx_hal_rcc.c:1146:6
	lsls	r2, r2, #13
	bmi	.LBB8_2
.Ltmp315:
@ %bb.1:
	@DEBUG_VALUE: HAL_RCC_GetOscConfig:RCC_OscInitStruct <- $r0
	.loc	5 1150 11 is_stmt 1             @ ../src/driver/stm32g4-v120/src/stm32g4xx_hal_rcc.c:1150:11
	ldr	r2, [r1]
.Ltmp316:
	.loc	5 1150 11 is_stmt 0             @ ../src/driver/stm32g4-v120/src/stm32g4xx_hal_rcc.c:1150:11
	lsls	r2, r2, #15
	ite	pl
	movpl	r2, #0
	movmi.w	r2, #65536
	b	.LBB8_3
.Ltmp317:
.LBB8_2:
	@DEBUG_VALUE: HAL_RCC_GetOscConfig:RCC_OscInitStruct <- $r0
	.loc	5 0 11                          @ ../src/driver/stm32g4-v120/src/stm32g4xx_hal_rcc.c:0:11
	mov.w	r2, #327680
.Ltmp318:
.LBB8_3:
	@DEBUG_VALUE: HAL_RCC_GetOscConfig:RCC_OscInitStruct <- $r0
	str	r2, [r0, #4]
.Ltmp319:
	.loc	5 1160 6 is_stmt 1              @ ../src/driver/stm32g4-v120/src/stm32g4xx_hal_rcc.c:1160:6
	ldr	r2, [r1]
	and	r2, r2, #256
.Ltmp320:
	.loc	5 1166 33                       @ ../src/driver/stm32g4-v120/src/stm32g4xx_hal_rcc.c:1166:33
	str	r2, [r0, #12]
.Ltmp321:
	.loc	5 1169 44                       @ ../src/driver/stm32g4-v120/src/stm32g4xx_hal_rcc.c:1169:44
	ldr	r2, [r1, #4]
	.loc	5 1169 84 is_stmt 0             @ ../src/driver/stm32g4-v120/src/stm32g4xx_hal_rcc.c:1169:84
	ubfx	r2, r2, #24, #7
	.loc	5 1169 42                       @ ../src/driver/stm32g4-v120/src/stm32g4xx_hal_rcc.c:1169:42
	str	r2, [r0, #16]
.Ltmp322:
	.loc	5 1172 6 is_stmt 1              @ ../src/driver/stm32g4-v120/src/stm32g4xx_hal_rcc.c:1172:6
	ldr.w	r2, [r1, #144]
.Ltmp323:
	.loc	5 1172 6 is_stmt 0              @ ../src/driver/stm32g4-v120/src/stm32g4xx_hal_rcc.c:1172:6
	lsls	r2, r2, #29
	bmi	.LBB8_5
.Ltmp324:
@ %bb.4:
	@DEBUG_VALUE: HAL_RCC_GetOscConfig:RCC_OscInitStruct <- $r0
	.loc	5 1176 11 is_stmt 1             @ ../src/driver/stm32g4-v120/src/stm32g4xx_hal_rcc.c:1176:11
	ldr.w	r2, [r1, #144]
.Ltmp325:
	.loc	5 1176 11 is_stmt 0             @ ../src/driver/stm32g4-v120/src/stm32g4xx_hal_rcc.c:1176:11
	lsls	r2, r2, #31
	ite	eq
	moveq	r2, #0
	movne	r2, #1
	b	.LBB8_6
.Ltmp326:
.LBB8_5:
	@DEBUG_VALUE: HAL_RCC_GetOscConfig:RCC_OscInitStruct <- $r0
	.loc	5 0 11                          @ ../src/driver/stm32g4-v120/src/stm32g4xx_hal_rcc.c:0:11
	movs	r2, #5
.Ltmp327:
.LBB8_6:
	@DEBUG_VALUE: HAL_RCC_GetOscConfig:RCC_OscInitStruct <- $r0
	str	r2, [r0, #8]
.Ltmp328:
	.loc	5 1186 6 is_stmt 1              @ ../src/driver/stm32g4-v120/src/stm32g4xx_hal_rcc.c:1186:6
	ldr.w	r2, [r1, #148]
	movs	r3, #2
	and	r2, r2, #1
.Ltmp329:
	.loc	5 1192 33                       @ ../src/driver/stm32g4-v120/src/stm32g4xx_hal_rcc.c:1192:33
	str	r2, [r0, #20]
.Ltmp330:
	.loc	5 1196 6                        @ ../src/driver/stm32g4-v120/src/stm32g4xx_hal_rcc.c:1196:6
	ldr.w	r2, [r1, #152]
	and	r2, r2, #1
.Ltmp331:
	.loc	5 1202 35                       @ ../src/driver/stm32g4-v120/src/stm32g4xx_hal_rcc.c:1202:35
	str	r2, [r0, #24]
.Ltmp332:
	.loc	5 1206 6                        @ ../src/driver/stm32g4-v120/src/stm32g4xx_hal_rcc.c:1206:6
	ldr	r2, [r1]
.Ltmp333:
	.loc	5 1206 6 is_stmt 0              @ ../src/driver/stm32g4-v120/src/stm32g4xx_hal_rcc.c:1206:6
	lsls	r2, r2, #7
	mov.w	r2, #2
	it	pl
	movpl	r2, #1
.Ltmp334:
	.loc	5 1212 37 is_stmt 1             @ ../src/driver/stm32g4-v120/src/stm32g4xx_hal_rcc.c:1212:37
	str	r2, [r0, #28]
.Ltmp335:
	.loc	5 1214 38                       @ ../src/driver/stm32g4-v120/src/stm32g4xx_hal_rcc.c:1214:38
	ldr	r2, [r1, #12]
	and	r2, r2, #3
	.loc	5 1214 36 is_stmt 0             @ ../src/driver/stm32g4-v120/src/stm32g4xx_hal_rcc.c:1214:36
	str	r2, [r0, #32]
	.loc	5 1215 34 is_stmt 1             @ ../src/driver/stm32g4-v120/src/stm32g4xx_hal_rcc.c:1215:34
	ldr	r2, [r1, #12]
	.loc	5 1215 75 is_stmt 0             @ ../src/driver/stm32g4-v120/src/stm32g4xx_hal_rcc.c:1215:75
	ubfx	r2, r2, #4, #4
	.loc	5 1215 100                      @ ../src/driver/stm32g4-v120/src/stm32g4xx_hal_rcc.c:1215:100
	adds	r2, #1
	.loc	5 1215 31                       @ ../src/driver/stm32g4-v120/src/stm32g4xx_hal_rcc.c:1215:31
	str	r2, [r0, #36]
	.loc	5 1216 33 is_stmt 1             @ ../src/driver/stm32g4-v120/src/stm32g4xx_hal_rcc.c:1216:33
	ldr	r2, [r1, #12]
	.loc	5 1216 74 is_stmt 0             @ ../src/driver/stm32g4-v120/src/stm32g4xx_hal_rcc.c:1216:74
	ubfx	r2, r2, #8, #7
	.loc	5 1216 31                       @ ../src/driver/stm32g4-v120/src/stm32g4xx_hal_rcc.c:1216:31
	str	r2, [r0, #40]
	.loc	5 1217 36 is_stmt 1             @ ../src/driver/stm32g4-v120/src/stm32g4xx_hal_rcc.c:1217:36
	ldr	r2, [r1, #12]
	.loc	5 1217 108 is_stmt 0            @ ../src/driver/stm32g4-v120/src/stm32g4xx_hal_rcc.c:1217:108
	ubfx	r2, r2, #21, #2
	add.w	r2, r3, r2, lsl #1
	.loc	5 1217 31                       @ ../src/driver/stm32g4-v120/src/stm32g4xx_hal_rcc.c:1217:31
	str	r2, [r0, #48]
	.loc	5 1218 36 is_stmt 1             @ ../src/driver/stm32g4-v120/src/stm32g4xx_hal_rcc.c:1218:36
	ldr	r2, [r1, #12]
	.loc	5 1218 108 is_stmt 0            @ ../src/driver/stm32g4-v120/src/stm32g4xx_hal_rcc.c:1218:108
	ubfx	r2, r2, #25, #2
	add.w	r2, r3, r2, lsl #1
	.loc	5 1218 31                       @ ../src/driver/stm32g4-v120/src/stm32g4xx_hal_rcc.c:1218:31
	str	r2, [r0, #52]
	.loc	5 1219 33 is_stmt 1             @ ../src/driver/stm32g4-v120/src/stm32g4xx_hal_rcc.c:1219:33
	ldr	r1, [r1, #12]
	.loc	5 1219 77 is_stmt 0             @ ../src/driver/stm32g4-v120/src/stm32g4xx_hal_rcc.c:1219:77
	lsrs	r1, r1, #27
	.loc	5 1219 31                       @ ../src/driver/stm32g4-v120/src/stm32g4xx_hal_rcc.c:1219:31
	str	r1, [r0, #44]
	.loc	5 1220 1 is_stmt 1              @ ../src/driver/stm32g4-v120/src/stm32g4xx_hal_rcc.c:1220:1
	bx	lr
.Ltmp336:
.Lfunc_end8:
	.size	HAL_RCC_GetOscConfig, .Lfunc_end8-HAL_RCC_GetOscConfig
	.cfi_endproc
	.cantunwind
	.fnend
                                        @ -- End function
	.section	.text.HAL_RCC_GetClockConfig,"ax",%progbits
	.hidden	HAL_RCC_GetClockConfig          @ -- Begin function HAL_RCC_GetClockConfig
	.globl	HAL_RCC_GetClockConfig
	.p2align	1
	.type	HAL_RCC_GetClockConfig,%function
	.code	16                              @ @HAL_RCC_GetClockConfig
	.thumb_func
HAL_RCC_GetClockConfig:
.Lfunc_begin9:
	.loc	5 1231 0                        @ ../src/driver/stm32g4-v120/src/stm32g4xx_hal_rcc.c:1231:0
	.fnstart
	.cfi_startproc
@ %bb.0:
	@DEBUG_VALUE: HAL_RCC_GetClockConfig:RCC_ClkInitStruct <- $r0
	@DEBUG_VALUE: HAL_RCC_GetClockConfig:pFLatency <- $r1
	movs	r2, #15
	@DEBUG_VALUE: HAL_RCC_GetClockConfig:RCC_ClkInitStruct <- $r0
.Ltmp337:
	.loc	5 1237 32 prologue_end          @ ../src/driver/stm32g4-v120/src/stm32g4xx_hal_rcc.c:1237:32
	str	r2, [r0]
	movw	r2, #4104
	movt	r2, #16386
	.loc	5 1240 37                       @ ../src/driver/stm32g4-v120/src/stm32g4xx_hal_rcc.c:1240:37
	ldr	r3, [r2]
	and	r3, r3, #3
	.loc	5 1240 35 is_stmt 0             @ ../src/driver/stm32g4-v120/src/stm32g4xx_hal_rcc.c:1240:35
	str	r3, [r0, #4]
	.loc	5 1243 38 is_stmt 1             @ ../src/driver/stm32g4-v120/src/stm32g4xx_hal_rcc.c:1243:38
	ldr	r3, [r2]
	and	r3, r3, #240
	.loc	5 1243 36 is_stmt 0             @ ../src/driver/stm32g4-v120/src/stm32g4xx_hal_rcc.c:1243:36
	str	r3, [r0, #8]
	.loc	5 1246 39 is_stmt 1             @ ../src/driver/stm32g4-v120/src/stm32g4xx_hal_rcc.c:1246:39
	ldr	r3, [r2]
	and	r3, r3, #1792
	.loc	5 1246 37 is_stmt 0             @ ../src/driver/stm32g4-v120/src/stm32g4xx_hal_rcc.c:1246:37
	str	r3, [r0, #12]
	.loc	5 1249 40 is_stmt 1             @ ../src/driver/stm32g4-v120/src/stm32g4xx_hal_rcc.c:1249:40
	ldr	r2, [r2]
	mov.w	r3, #1792
	.loc	5 1249 76 is_stmt 0             @ ../src/driver/stm32g4-v120/src/stm32g4xx_hal_rcc.c:1249:76
	and.w	r2, r3, r2, lsr #3
	.loc	5 1249 37                       @ ../src/driver/stm32g4-v120/src/stm32g4xx_hal_rcc.c:1249:37
	str	r2, [r0, #16]
	movw	r0, #8192
.Ltmp338:
	@DEBUG_VALUE: HAL_RCC_GetClockConfig:RCC_ClkInitStruct <- [DW_OP_LLVM_entry_value 1] $r0
	.loc	5 0 37                          @ ../src/driver/stm32g4-v120/src/stm32g4xx_hal_rcc.c:0:37
	movt	r0, #16386
	.loc	5 1252 16 is_stmt 1             @ ../src/driver/stm32g4-v120/src/stm32g4xx_hal_rcc.c:1252:16
	ldr	r0, [r0]
	@DEBUG_VALUE: HAL_RCC_GetClockConfig:pFLatency <- $r1
	and	r0, r0, #15
	.loc	5 1252 14 is_stmt 0             @ ../src/driver/stm32g4-v120/src/stm32g4xx_hal_rcc.c:1252:14
	str	r0, [r1]
	.loc	5 1253 1 is_stmt 1              @ ../src/driver/stm32g4-v120/src/stm32g4xx_hal_rcc.c:1253:1
	bx	lr
.Ltmp339:
.Lfunc_end9:
	.size	HAL_RCC_GetClockConfig, .Lfunc_end9-HAL_RCC_GetClockConfig
	.cfi_endproc
	.cantunwind
	.fnend
                                        @ -- End function
	.section	.text.HAL_RCC_EnableCSS,"ax",%progbits
	.hidden	HAL_RCC_EnableCSS               @ -- Begin function HAL_RCC_EnableCSS
	.globl	HAL_RCC_EnableCSS
	.p2align	1
	.type	HAL_RCC_EnableCSS,%function
	.code	16                              @ @HAL_RCC_EnableCSS
	.thumb_func
HAL_RCC_EnableCSS:
.Lfunc_begin10:
	.loc	5 1266 0                        @ ../src/driver/stm32g4-v120/src/stm32g4xx_hal_rcc.c:1266:0
	.fnstart
	.cfi_startproc
@ %bb.0:
	movw	r0, #4096
	movt	r0, #16386
.Ltmp340:
	.loc	5 1267 3 prologue_end           @ ../src/driver/stm32g4-v120/src/stm32g4xx_hal_rcc.c:1267:3
	ldr	r1, [r0]
	orr	r1, r1, #524288
	str	r1, [r0]
	.loc	5 1268 1                        @ ../src/driver/stm32g4-v120/src/stm32g4xx_hal_rcc.c:1268:1
	bx	lr
.Ltmp341:
.Lfunc_end10:
	.size	HAL_RCC_EnableCSS, .Lfunc_end10-HAL_RCC_EnableCSS
	.cfi_endproc
	.cantunwind
	.fnend
                                        @ -- End function
	.section	.text.HAL_RCC_EnableLSECSS,"ax",%progbits
	.hidden	HAL_RCC_EnableLSECSS            @ -- Begin function HAL_RCC_EnableLSECSS
	.globl	HAL_RCC_EnableLSECSS
	.p2align	1
	.type	HAL_RCC_EnableLSECSS,%function
	.code	16                              @ @HAL_RCC_EnableLSECSS
	.thumb_func
HAL_RCC_EnableLSECSS:
.Lfunc_begin11:
	.loc	5 1280 0                        @ ../src/driver/stm32g4-v120/src/stm32g4xx_hal_rcc.c:1280:0
	.fnstart
	.cfi_startproc
@ %bb.0:
	movw	r0, #4240
	movt	r0, #16386
.Ltmp342:
	.loc	5 1281 3 prologue_end           @ ../src/driver/stm32g4-v120/src/stm32g4xx_hal_rcc.c:1281:3
	ldr	r1, [r0]
	orr	r1, r1, #32
	str	r1, [r0]
	.loc	5 1282 1                        @ ../src/driver/stm32g4-v120/src/stm32g4xx_hal_rcc.c:1282:1
	bx	lr
.Ltmp343:
.Lfunc_end11:
	.size	HAL_RCC_EnableLSECSS, .Lfunc_end11-HAL_RCC_EnableLSECSS
	.cfi_endproc
	.cantunwind
	.fnend
                                        @ -- End function
	.section	.text.HAL_RCC_DisableLSECSS,"ax",%progbits
	.hidden	HAL_RCC_DisableLSECSS           @ -- Begin function HAL_RCC_DisableLSECSS
	.globl	HAL_RCC_DisableLSECSS
	.p2align	1
	.type	HAL_RCC_DisableLSECSS,%function
	.code	16                              @ @HAL_RCC_DisableLSECSS
	.thumb_func
HAL_RCC_DisableLSECSS:
.Lfunc_begin12:
	.loc	5 1291 0                        @ ../src/driver/stm32g4-v120/src/stm32g4xx_hal_rcc.c:1291:0
	.fnstart
	.cfi_startproc
@ %bb.0:
	movw	r0, #4240
	movt	r0, #16386
.Ltmp344:
	.loc	5 1292 3 prologue_end           @ ../src/driver/stm32g4-v120/src/stm32g4xx_hal_rcc.c:1292:3
	ldr	r1, [r0]
	bic	r1, r1, #32
	str	r1, [r0]
	.loc	5 1293 1                        @ ../src/driver/stm32g4-v120/src/stm32g4xx_hal_rcc.c:1293:1
	bx	lr
.Ltmp345:
.Lfunc_end12:
	.size	HAL_RCC_DisableLSECSS, .Lfunc_end12-HAL_RCC_DisableLSECSS
	.cfi_endproc
	.cantunwind
	.fnend
                                        @ -- End function
	.section	.text.HAL_RCC_NMI_IRQHandler,"ax",%progbits
	.hidden	HAL_RCC_NMI_IRQHandler          @ -- Begin function HAL_RCC_NMI_IRQHandler
	.globl	HAL_RCC_NMI_IRQHandler
	.p2align	1
	.type	HAL_RCC_NMI_IRQHandler,%function
	.code	16                              @ @HAL_RCC_NMI_IRQHandler
	.thumb_func
HAL_RCC_NMI_IRQHandler:
.Lfunc_begin13:
	.loc	5 1301 0                        @ ../src/driver/stm32g4-v120/src/stm32g4xx_hal_rcc.c:1301:0
	.fnstart
	.cfi_startproc
@ %bb.0:
	.save	{r4, lr}
	push	{r4, lr}
	.cfi_def_cfa_offset 8
	.cfi_offset lr, -4
	.cfi_offset r4, -8
	movw	r4, #4124
	movt	r4, #16386
.Ltmp346:
	.loc	5 1303 6 prologue_end           @ ../src/driver/stm32g4-v120/src/stm32g4xx_hal_rcc.c:1303:6
	ldr	r0, [r4]
.Ltmp347:
	.loc	5 1303 6 is_stmt 0              @ ../src/driver/stm32g4-v120/src/stm32g4xx_hal_rcc.c:1303:6
	lsls	r0, r0, #23
	.loc	5 1311 1 is_stmt 1              @ ../src/driver/stm32g4-v120/src/stm32g4xx_hal_rcc.c:1311:1
	it	pl
	poppl	{r4, pc}
.LBB13_1:
.Ltmp348:
	.loc	5 1306 5                        @ ../src/driver/stm32g4-v120/src/stm32g4xx_hal_rcc.c:1306:5
	bl	HAL_RCC_CSSCallback
.Ltmp349:
	.loc	5 0 5 is_stmt 0                 @ ../src/driver/stm32g4-v120/src/stm32g4xx_hal_rcc.c:0:5
	mov.w	r0, #256
	.loc	5 1309 5 is_stmt 1              @ ../src/driver/stm32g4-v120/src/stm32g4xx_hal_rcc.c:1309:5
	str	r0, [r4, #4]
.Ltmp350:
	.loc	5 1311 1                        @ ../src/driver/stm32g4-v120/src/stm32g4xx_hal_rcc.c:1311:1
	pop	{r4, pc}
.Ltmp351:
.Lfunc_end13:
	.size	HAL_RCC_NMI_IRQHandler, .Lfunc_end13-HAL_RCC_NMI_IRQHandler
	.cfi_endproc
	.cantunwind
	.fnend
                                        @ -- End function
	.section	.text.HAL_RCC_CSSCallback,"ax",%progbits
	.hidden	HAL_RCC_CSSCallback             @ -- Begin function HAL_RCC_CSSCallback
	.weak	HAL_RCC_CSSCallback
	.p2align	1
	.type	HAL_RCC_CSSCallback,%function
	.code	16                              @ @HAL_RCC_CSSCallback
	.thumb_func
HAL_RCC_CSSCallback:
.Lfunc_begin14:
	.loc	5 1318 0                        @ ../src/driver/stm32g4-v120/src/stm32g4xx_hal_rcc.c:1318:0
	.fnstart
	.cfi_startproc
@ %bb.0:
	.loc	5 1322 1 prologue_end           @ ../src/driver/stm32g4-v120/src/stm32g4xx_hal_rcc.c:1322:1
	bx	lr
.Ltmp352:
.Lfunc_end14:
	.size	HAL_RCC_CSSCallback, .Lfunc_end14-HAL_RCC_CSSCallback
	.cfi_endproc
	.cantunwind
	.fnend
                                        @ -- End function
	.file	7 "C:\\Users\\grodriguez\\Documents\\iit\\icub-firmware\\emBODY\\eBcode\\arch-arm\\libs\\lowlevel\\stm32hal\\proj" "../api\\../src/driver/stm32g4-v120/inc/stm32g4xx_hal_rcc.h"
	.file	8 "C:\\Users\\grodriguez\\Documents\\iit\\icub-firmware\\emBODY\\eBcode\\arch-arm\\libs\\lowlevel\\stm32hal\\proj" "../api\\../src/driver/stm32g4-v120/inc/stm32g4xx_hal_gpio.h"
	.section	".note.GNU-stack","",%progbits
	.eabi_attribute	30, 3	@ Tag_ABI_optimization_goals
	.ARM_attribute	16, 1	@ Tag_AV_eba