	.text
	.syntax unified
	.eabi_attribute	67, "2.09"	@ Tag_conformance
	.cpu	cortex-m4
	.eabi_attribute	6, 13	@ Tag_CPU_arch
	.eabi_attribute	7, 77	@ Tag_CPU_arch_profile
	.eabi_attribute	8, 0	@ Tag_ARM_ISA_use
	.eabi_attribute	9, 2	@ Tag_THUMB_ISA_use
	.fpu	fpv4-sp-d16
	.eabi_attribute	27, 1	@ Tag_ABI_HardFP_use
	.eabi_attribute	36, 1	@ Tag_FP_HP_extension
	.eabi_attribute	34, 1	@ Tag_CPU_unaligned_access
	.eabi_attribute	17, 1	@ Tag_ABI_PCS_GOT_use
	.eabi_attribute	20, 2	@ Tag_ABI_FP_denormal
	.eabi_attribute	21, 0	@ Tag_ABI_FP_exceptions
	.eabi_attribute	23, 1	@ Tag_ABI_FP_number_model
	.eabi_attribute	24, 1	@ Tag_ABI_align_needed
	.eabi_attribute	25, 1	@ Tag_ABI_align_preserved
	.eabi_attribute	28, 1	@ Tag_ABI_VFP_args
	.eabi_attribute	38, 1	@ Tag_ABI_FP_16bit_format
	.eabi_attribute	18, 2	@ Tag_ABI_PCS_wchar_t
	.eabi_attribute	26, 1	@ Tag_ABI_enum_size
	.eabi_attribute	14, 0	@ Tag_ABI_PCS_R9_use
	.file	"stm32g4xx_hal_rng.c"
	.file	1 "C:\\Users\\grodriguez\\Documents\\iit\\icub-firmware\\emBODY\\eBcode\\arch-arm\\libs\\lowlevel\\stm32hal\\proj" "../src/driver/stm32g4-v120/inc/stm32g4xx_hal_def.h"
	.file	2 "C:\\Users\\grodriguez\\Documents\\iit\\icub-firmware\\emBODY\\eBcode\\arch-arm\\libs\\lowlevel\\stm32hal\\proj" "../api\\../src/driver/stm32g4-v120/inc/stm32g4xx_hal_rng.h"
	.file	3 "C:\\Users\\grodriguez\\Documents\\iit\\icub-firmware\\emBODY\\eBcode\\arch-arm\\libs\\lowlevel\\stm32hal\\proj" "../src/driver/stm32g4-v120/inc/stm32g4xx.h"
	.section	.text.HAL_RNG_Init,"ax",%progbits
	.hidden	HAL_RNG_Init                    @ -- Begin function HAL_RNG_Init
	.globl	HAL_RNG_Init
	.p2align	1
	.type	HAL_RNG_Init,%function
	.code	16                              @ @HAL_RNG_Init
	.thumb_func
HAL_RNG_Init:
.Lfunc_begin0:
	.file	4 "C:\\Users\\grodriguez\\Documents\\iit\\icub-firmware\\emBODY\\eBcode\\arch-arm\\libs\\lowlevel\\stm32hal\\proj" "../src/driver/stm32g4-v120/src/stm32g4xx_hal_rng.c"
	.loc	4 156 0                         @ ../src/driver/stm32g4-v120/src/stm32g4xx_hal_rng.c:156:0
	.fnstart
	.cfi_sections .debug_frame
	.cfi_startproc
@ %bb.0:
	@DEBUG_VALUE: HAL_RNG_Init:hrng <- $r0
	@DEBUG_VALUE: HAL_RNG_Init:hrng <- $r0
	.loc	4 158 7 prologue_end            @ ../src/driver/stm32g4-v120/src/stm32g4xx_hal_rng.c:158:7
	cbz	r0, .LBB0_4
.Ltmp0:
@ %bb.1:
	@DEBUG_VALUE: HAL_RNG_Init:hrng <- $r0
	.save	{r4, lr}
	push	{r4, lr}
	.cfi_def_cfa_offset 8
	.cfi_offset lr, -4
	.cfi_offset r4, -8
	mov	r4, r0
.Ltmp1:
	@DEBUG_VALUE: HAL_RNG_Init:hrng <- $r4
	.loc	4 184 13                        @ ../src/driver/stm32g4-v120/src/stm32g4xx_hal_rng.c:184:13
	ldrb	r0, [r0, #9]
.Ltmp2:
	.loc	4 184 7 is_stmt 0               @ ../src/driver/stm32g4-v120/src/stm32g4xx_hal_rng.c:184:7
	cbnz	r0, .LBB0_3
.Ltmp3:
@ %bb.2:
	@DEBUG_VALUE: HAL_RNG_Init:hrng <- $r4
	.loc	4 0 7                           @ ../src/driver/stm32g4-v120/src/stm32g4xx_hal_rng.c:0:7
	movs	r0, #0
.Ltmp4:
	.loc	4 187 16 is_stmt 1              @ ../src/driver/stm32g4-v120/src/stm32g4xx_hal_rng.c:187:16
	strb	r0, [r4, #8]
	.loc	4 190 5                         @ ../src/driver/stm32g4-v120/src/stm32g4xx_hal_rng.c:190:5
	mov	r0, r4
	bl	HAL_RNG_MspInit
.Ltmp5:
.LBB0_3:
	@DEBUG_VALUE: HAL_RNG_Init:hrng <- $r4
	.loc	4 0 5 is_stmt 0                 @ ../src/driver/stm32g4-v120/src/stm32g4xx_hal_rng.c:0:5
	movs	r0, #2
	.loc	4 195 15 is_stmt 1              @ ../src/driver/stm32g4-v120/src/stm32g4xx_hal_rng.c:195:15
	strb	r0, [r4, #9]
	.loc	4 198 3                         @ ../src/driver/stm32g4-v120/src/stm32g4xx_hal_rng.c:198:3
	ldrd	r0, r1, [r4]
	ldr	r2, [r0]
	bic	r2, r2, #8
	orrs	r1, r2
	str	r1, [r0]
	.loc	4 201 3                         @ ../src/driver/stm32g4-v120/src/stm32g4xx_hal_rng.c:201:3
	ldr	r1, [r0]
	orr	r1, r1, #4
	str	r1, [r0]
	movs	r0, #1
	.loc	4 204 15                        @ ../src/driver/stm32g4-v120/src/stm32g4xx_hal_rng.c:204:15
	strb	r0, [r4, #9]
	movs	r0, #0
	.loc	4 207 19                        @ ../src/driver/stm32g4-v120/src/stm32g4xx_hal_rng.c:207:19
	str	r0, [r4, #12]
	pop	{r4, pc}
.Ltmp6:
.LBB0_4:
	@DEBUG_VALUE: HAL_RNG_Init:hrng <- $r0
	.loc	4 0 19 is_stmt 0                @ ../src/driver/stm32g4-v120/src/stm32g4xx_hal_rng.c:0:19
	movs	r0, #1
.Ltmp7:
	@DEBUG_VALUE: HAL_RNG_Init:hrng <- [DW_OP_LLVM_entry_value 1] $r0
	.loc	4 211 1 is_stmt 1               @ ../src/driver/stm32g4-v120/src/stm32g4xx_hal_rng.c:211:1
	bx	lr
.Ltmp8:
.Lfunc_end0:
	.size	HAL_RNG_Init, .Lfunc_end0-HAL_RNG_Init
	.cfi_endproc
	.cantunwind
	.fnend
                                        @ -- End function
	.section	.text.HAL_RNG_MspInit,"ax",%progbits
	.hidden	HAL_RNG_MspInit                 @ -- Begin function HAL_RNG_MspInit
	.weak	HAL_RNG_MspInit
	.p2align	1
	.type	HAL_RNG_MspInit,%function
	.code	16                              @ @HAL_RNG_MspInit
	.thumb_func
HAL_RNG_MspInit:
.Lfunc_begin1:
	.loc	4 268 0                         @ ../src/driver/stm32g4-v120/src/stm32g4xx_hal_rng.c:268:0
	.fnstart
	.cfi_startproc
@ %bb.0:
	@DEBUG_VALUE: HAL_RNG_MspInit:hrng <- $r0
	.loc	4 274 1 prologue_end            @ ../src/driver/stm32g4-v120/src/stm32g4xx_hal_rng.c:274:1
	bx	lr
.Ltmp9:
.Lfunc_end1:
	.size	HAL_RNG_MspInit, .Lfunc_end1-HAL_RNG_MspInit
	.cfi_endproc
	.cantunwind
	.fnend
                                        @ -- End function
	.section	.text.HAL_RNG_DeInit,"ax",%progbits
	.hidden	HAL_RNG_DeInit                  @ -- Begin function HAL_RNG_DeInit
	.globl	HAL_RNG_DeInit
	.p2align	1
	.type	HAL_RNG_DeInit,%function
	.code	16                              @ @HAL_RNG_DeInit
	.thumb_func
HAL_RNG_DeInit:
.Lfunc_begin2:
	.loc	4 220 0                         @ ../src/driver/stm32g4-v120/src/stm32g4xx_hal_rng.c:220:0
	.fnstart
	.cfi_startproc
@ %bb.0:
	@DEBUG_VALUE: HAL_RNG_DeInit:hrng <- $r0
	@DEBUG_VALUE: HAL_RNG_DeInit:hrng <- $r0
	.loc	4 222 7 prologue_end            @ ../src/driver/stm32g4-v120/src/stm32g4xx_hal_rng.c:222:7
	cbz	r0, .LBB2_2
.Ltmp10:
@ %bb.1:
	@DEBUG_VALUE: HAL_RNG_DeInit:hrng <- $r0
	.save	{r4, lr}
	push	{r4, lr}
	.cfi_def_cfa_offset 8
	.cfi_offset lr, -4
	.cfi_offset r4, -8
	mov	r4, r0
.Ltmp11:
	@DEBUG_VALUE: HAL_RNG_DeInit:hrng <- $r4
	.loc	4 228 3                         @ ../src/driver/stm32g4-v120/src/stm32g4xx_hal_rng.c:228:3
	ldr	r0, [r0]
	ldr	r1, [r0]
	bic	r1, r1, #8
	str	r1, [r0]
	.loc	4 230 3                         @ ../src/driver/stm32g4-v120/src/stm32g4xx_hal_rng.c:230:3
	ldr	r1, [r0]
	bic	r1, r1, #12
	str	r1, [r0]
	.loc	4 233 3                         @ ../src/driver/stm32g4-v120/src/stm32g4xx_hal_rng.c:233:3
	ldr	r1, [r0, #4]
	bic	r1, r1, #96
	str	r1, [r0, #4]
	.loc	4 245 3                         @ ../src/driver/stm32g4-v120/src/stm32g4xx_hal_rng.c:245:3
	mov	r0, r4
	bl	HAL_RNG_MspDeInit
.Ltmp12:
	.loc	4 0 3 is_stmt 0                 @ ../src/driver/stm32g4-v120/src/stm32g4xx_hal_rng.c:0:3
	movs	r0, #0
	.loc	4 249 15 is_stmt 1              @ ../src/driver/stm32g4-v120/src/stm32g4xx_hal_rng.c:249:15
	strb	r0, [r4, #9]
	.loc	4 252 19                        @ ../src/driver/stm32g4-v120/src/stm32g4xx_hal_rng.c:252:19
	str	r0, [r4, #12]
.Ltmp13:
	.loc	4 255 3                         @ ../src/driver/stm32g4-v120/src/stm32g4xx_hal_rng.c:255:3
	strb	r0, [r4, #8]
	pop	{r4, pc}
.Ltmp14:
.LBB2_2:
	@DEBUG_VALUE: HAL_RNG_DeInit:hrng <- $r0
	.loc	4 0 3 is_stmt 0                 @ ../src/driver/stm32g4-v120/src/stm32g4xx_hal_rng.c:0:3
	movs	r0, #1
.Ltmp15:
	@DEBUG_VALUE: HAL_RNG_DeInit:hrng <- [DW_OP_LLVM_entry_value 1] $r0
	.loc	4 259 1 is_stmt 1               @ ../src/driver/stm32g4-v120/src/stm32g4xx_hal_rng.c:259:1
	bx	lr
.Ltmp16:
.Lfunc_end2:
	.size	HAL_RNG_DeInit, .Lfunc_end2-HAL_RNG_DeInit
	.cfi_endproc
	.cantunwind
	.fnend
                                        @ -- End function
	.section	.text.HAL_RNG_MspDeInit,"ax",%progbits
	.hidden	HAL_RNG_MspDeInit               @ -- Begin function HAL_RNG_MspDeInit
	.weak	HAL_RNG_MspDeInit
	.p2align	1
	.type	HAL_RNG_MspDeInit,%function
	.code	16                              @ @HAL_RNG_MspDeInit
	.thumb_func
HAL_RNG_MspDeInit:
.Lfunc_begin3:
	.loc	4 283 0                         @ ../src/driver/stm32g4-v120/src/stm32g4xx_hal_rng.c:283:0
	.fnstart
	.cfi_startproc
@ %bb.0:
	@DEBUG_VALUE: HAL_RNG_MspDeInit:hrng <- $r0
	.loc	4 289 1 prologue_end            @ ../src/driver/stm32g4-v120/src/stm32g4xx_hal_rng.c:289:1
	bx	lr
.Ltmp17:
.Lfunc_end3:
	.size	HAL_RNG_MspDeInit, .Lfunc_end3-HAL_RNG_MspDeInit
	.cfi_endproc
	.cantunwind
	.fnend
                                        @ -- End function
	.section	.text.HAL_RNG_GenerateRandomNumber,"ax",%progbits
	.hidden	HAL_RNG_GenerateRandomNumber    @ -- Begin function HAL_RNG_GenerateRandomNumber
	.globl	HAL_RNG_GenerateRandomNumber
	.p2align	1
	.type	HAL_RNG_GenerateRandomNumber,%function
	.code	16                              @ @HAL_RNG_GenerateRandomNumber
	.thumb_func
HAL_RNG_GenerateRandomNumber:
.Lfunc_begin4:
	.loc	4 557 0                         @ ../src/driver/stm32g4-v120/src/stm32g4xx_hal_rng.c:557:0
	.fnstart
	.cfi_startproc
@ %bb.0:
	@DEBUG_VALUE: HAL_RNG_GenerateRandomNumber:hrng <- $r0
	@DEBUG_VALUE: HAL_RNG_GenerateRandomNumber:random32bit <- $r1
	.save	{r4, r5, r6, lr}
	push	{r4, r5, r6, lr}
	.cfi_def_cfa_offset 16
	.cfi_offset lr, -4
	.cfi_offset r6, -8
	.cfi_offset r5, -12
	.cfi_offset r4, -16
	mov	r4, r0
.Ltmp18:
	@DEBUG_VALUE: HAL_RNG_GenerateRandomNumber:status <- 0
	@DEBUG_VALUE: HAL_RNG_GenerateRandomNumber:hrng <- $r4
	.loc	4 562 3 prologue_end            @ ../src/driver/stm32g4-v120/src/stm32g4xx_hal_rng.c:562:3
	ldrb	r0, [r0, #8]
.Ltmp19:
	.loc	4 562 3 is_stmt 0               @ ../src/driver/stm32g4-v120/src/stm32g4xx_hal_rng.c:562:3
	cmp	r0, #1
	@DEBUG_VALUE: HAL_RNG_GenerateRandomNumber:random32bit <- $r1
	itt	eq
	moveq	r0, #2
.Ltmp20:
	.loc	4 602 1 is_stmt 1               @ ../src/driver/stm32g4-v120/src/stm32g4xx_hal_rng.c:602:1
	popeq	{r4, r5, r6, pc}
.Ltmp21:
.LBB4_1:
	@DEBUG_VALUE: HAL_RNG_GenerateRandomNumber:random32bit <- $r1
	@DEBUG_VALUE: HAL_RNG_GenerateRandomNumber:status <- 0
	@DEBUG_VALUE: HAL_RNG_GenerateRandomNumber:random32bit <- $r1
	.loc	4 0 1 is_stmt 0                 @ ../src/driver/stm32g4-v120/src/stm32g4xx_hal_rng.c:0:1
	movs	r0, #1
.Ltmp22:
	.loc	4 562 3 is_stmt 1               @ ../src/driver/stm32g4-v120/src/stm32g4xx_hal_rng.c:562:3
	strb	r0, [r4, #8]
.Ltmp23:
	.loc	4 565 13                        @ ../src/driver/stm32g4-v120/src/stm32g4xx_hal_rng.c:565:13
	ldrb	r0, [r4, #9]
.Ltmp24:
	.loc	4 565 7 is_stmt 0               @ ../src/driver/stm32g4-v120/src/stm32g4xx_hal_rng.c:565:7
	cmp	r0, #1
	bne	.LBB4_6
.Ltmp25:
@ %bb.2:
	@DEBUG_VALUE: HAL_RNG_GenerateRandomNumber:random32bit <- $r1
	@DEBUG_VALUE: HAL_RNG_GenerateRandomNumber:status <- 0
	.loc	4 0 7                           @ ../src/driver/stm32g4-v120/src/stm32g4xx_hal_rng.c:0:7
	movs	r0, #2
	mov	r5, r1
.Ltmp26:
	@DEBUG_VALUE: HAL_RNG_GenerateRandomNumber:random32bit <- $r5
	@DEBUG_VALUE: HAL_RNG_GenerateRandomNumber:random32bit <- $r5
	.loc	4 568 17 is_stmt 1              @ ../src/driver/stm32g4-v120/src/stm32g4xx_hal_rng.c:568:17
	strb	r0, [r4, #9]
	.loc	4 571 17                        @ ../src/driver/stm32g4-v120/src/stm32g4xx_hal_rng.c:571:17
	bl	HAL_GetTick
.Ltmp27:
	mov	r6, r0
.Ltmp28:
	@DEBUG_VALUE: HAL_RNG_GenerateRandomNumber:tickstart <- $r6
	.p2align	2
.LBB4_3:                                @ =>This Inner Loop Header: Depth=1
	@DEBUG_VALUE: HAL_RNG_GenerateRandomNumber:tickstart <- $r6
	@DEBUG_VALUE: HAL_RNG_GenerateRandomNumber:random32bit <- $r5
	@DEBUG_VALUE: HAL_RNG_GenerateRandomNumber:status <- 0
	.loc	4 574 12                        @ ../src/driver/stm32g4-v120/src/stm32g4xx_hal_rng.c:574:12
	ldr	r0, [r4]
	ldr	r1, [r0, #4]
	.loc	4 574 5 is_stmt 0               @ ../src/driver/stm32g4-v120/src/stm32g4xx_hal_rng.c:574:5
	lsls	r1, r1, #31
	bne	.LBB4_7
.Ltmp29:
@ %bb.4:                                @   in Loop: Header=BB4_3 Depth=1
	@DEBUG_VALUE: HAL_RNG_GenerateRandomNumber:tickstart <- $r6
	@DEBUG_VALUE: HAL_RNG_GenerateRandomNumber:random32bit <- $r5
	@DEBUG_VALUE: HAL_RNG_GenerateRandomNumber:status <- 0
	.loc	4 576 12 is_stmt 1              @ ../src/driver/stm32g4-v120/src/stm32g4xx_hal_rng.c:576:12
	bl	HAL_GetTick
.Ltmp30:
	.loc	4 576 26 is_stmt 0              @ ../src/driver/stm32g4-v120/src/stm32g4xx_hal_rng.c:576:26
	subs	r0, r0, r6
.Ltmp31:
	.loc	4 576 11                        @ ../src/driver/stm32g4-v120/src/stm32g4xx_hal_rng.c:576:11
	cmp	r0, #3
	blo	.LBB4_3
.Ltmp32:
@ %bb.5:
	@DEBUG_VALUE: HAL_RNG_GenerateRandomNumber:tickstart <- $r6
	@DEBUG_VALUE: HAL_RNG_GenerateRandomNumber:random32bit <- $r5
	@DEBUG_VALUE: HAL_RNG_GenerateRandomNumber:status <- 0
	.loc	4 0 11                          @ ../src/driver/stm32g4-v120/src/stm32g4xx_hal_rng.c:0:11
	movs	r0, #1
	movs	r1, #2
.Ltmp33:
	.loc	4 578 21 is_stmt 1              @ ../src/driver/stm32g4-v120/src/stm32g4xx_hal_rng.c:578:21
	strb	r0, [r4, #9]
	.loc	4 579 25                        @ ../src/driver/stm32g4-v120/src/stm32g4xx_hal_rng.c:579:25
	str	r1, [r4, #12]
	b	.LBB4_8
.Ltmp34:
.LBB4_6:
	@DEBUG_VALUE: HAL_RNG_GenerateRandomNumber:random32bit <- $r1
	@DEBUG_VALUE: HAL_RNG_GenerateRandomNumber:status <- 0
	.loc	4 0 25 is_stmt 0                @ ../src/driver/stm32g4-v120/src/stm32g4xx_hal_rng.c:0:25
	movs	r0, #4
.Ltmp35:
	.loc	4 594 21 is_stmt 1              @ ../src/driver/stm32g4-v120/src/stm32g4xx_hal_rng.c:594:21
	str	r0, [r4, #12]
	movs	r0, #1
.Ltmp36:
	@DEBUG_VALUE: HAL_RNG_GenerateRandomNumber:status <- 1
	.loc	4 0 21 is_stmt 0                @ ../src/driver/stm32g4-v120/src/stm32g4xx_hal_rng.c:0:21
	b	.LBB4_8
.Ltmp37:
.LBB4_7:
	@DEBUG_VALUE: HAL_RNG_GenerateRandomNumber:tickstart <- $r6
	@DEBUG_VALUE: HAL_RNG_GenerateRandomNumber:random32bit <- $r5
	@DEBUG_VALUE: HAL_RNG_GenerateRandomNumber:status <- 0
	.loc	4 587 42 is_stmt 1              @ ../src/driver/stm32g4-v120/src/stm32g4xx_hal_rng.c:587:42
	ldr	r0, [r0, #8]
	.loc	4 587 24 is_stmt 0              @ ../src/driver/stm32g4-v120/src/stm32g4xx_hal_rng.c:587:24
	str	r0, [r4, #16]
	.loc	4 588 18 is_stmt 1              @ ../src/driver/stm32g4-v120/src/stm32g4xx_hal_rng.c:588:18
	str	r0, [r5]
	movs	r0, #1
	.loc	4 590 17                        @ ../src/driver/stm32g4-v120/src/stm32g4xx_hal_rng.c:590:17
	strb	r0, [r4, #9]
	movs	r0, #0
.Ltmp38:
.LBB4_8:
	.loc	4 0 17 is_stmt 0                @ ../src/driver/stm32g4-v120/src/stm32g4xx_hal_rng.c:0:17
	movs	r1, #0
	strb	r1, [r4, #8]
	.loc	4 602 1 is_stmt 1               @ ../src/driver/stm32g4-v120/src/stm32g4xx_hal_rng.c:602:1
	pop	{r4, r5, r6, pc}
.Ltmp39:
.Lfunc_end4:
	.size	HAL_RNG_GenerateRandomNumber, .Lfunc_end4-HAL_RNG_GenerateRandomNumber
	.cfi_endproc
	.cantunwind
	.fnend
                                        @ -- End function
	.section	.text.HAL_RNG_GenerateRandomNumber_IT,"ax",%progbits
	.hidden	HAL_RNG_GenerateRandomNumber_IT @ -- Begin function HAL_RNG_GenerateRandomNumber_IT
	.globl	HAL_RNG_GenerateRandomNumber_IT
	.p2align	1
	.type	HAL_RNG_GenerateRandomNumber_IT,%function
	.code	16                              @ @HAL_RNG_GenerateRandomNumber_IT
	.thumb_func
HAL_RNG_GenerateRandomNumber_IT:
.Lfunc_begin5:
	.loc	4 611 0                         @ ../src/driver/stm32g4-v120/src/stm32g4xx_hal_rng.c:611:0
	.fnstart
	.cfi_startproc
@ %bb.0:
	@DEBUG_VALUE: HAL_RNG_GenerateRandomNumber_IT:hrng <- $r0
	@DEBUG_VALUE: HAL_RNG_GenerateRandomNumber_IT:hrng <- $r0
	@DEBUG_VALUE: HAL_RNG_GenerateRandomNumber_IT:status <- 0
	.loc	4 615 3 prologue_end            @ ../src/driver/stm32g4-v120/src/stm32g4xx_hal_rng.c:615:3
	ldrb	r1, [r0, #8]
.Ltmp40:
	.loc	4 615 3 is_stmt 0               @ ../src/driver/stm32g4-v120/src/stm32g4xx_hal_rng.c:615:3
	cmp	r1, #1
	itt	eq
	moveq	r0, #2
.Ltmp41:
	@DEBUG_VALUE: HAL_RNG_GenerateRandomNumber_IT:hrng <- [DW_OP_LLVM_entry_value 1] $r0
	.loc	4 636 1 is_stmt 1               @ ../src/driver/stm32g4-v120/src/stm32g4xx_hal_rng.c:636:1
	bxeq	lr
.Ltmp42:
.LBB5_1:
	@DEBUG_VALUE: HAL_RNG_GenerateRandomNumber_IT:hrng <- [DW_OP_LLVM_entry_value 1] $r0
	@DEBUG_VALUE: HAL_RNG_GenerateRandomNumber_IT:status <- 0
	.loc	4 0 1 is_stmt 0                 @ ../src/driver/stm32g4-v120/src/stm32g4xx_hal_rng.c:0:1
	movs	r1, #1
.Ltmp43:
	.loc	4 615 3 is_stmt 1               @ ../src/driver/stm32g4-v120/src/stm32g4xx_hal_rng.c:615:3
	strb	r1, [r0, #8]
.Ltmp44:
	.loc	4 618 13                        @ ../src/driver/stm32g4-v120/src/stm32g4xx_hal_rng.c:618:13
	ldrb	r1, [r0, #9]
.Ltmp45:
	.loc	4 618 7 is_stmt 0               @ ../src/driver/stm32g4-v120/src/stm32g4xx_hal_rng.c:618:7
	cmp	r1, #1
	bne	.LBB5_3
.Ltmp46:
@ %bb.2:
	@DEBUG_VALUE: HAL_RNG_GenerateRandomNumber_IT:hrng <- [DW_OP_LLVM_entry_value 1] $r0
	@DEBUG_VALUE: HAL_RNG_GenerateRandomNumber_IT:status <- 0
	.loc	4 0 7                           @ ../src/driver/stm32g4-v120/src/stm32g4xx_hal_rng.c:0:7
	movs	r1, #2
.Ltmp47:
	.loc	4 621 17 is_stmt 1              @ ../src/driver/stm32g4-v120/src/stm32g4xx_hal_rng.c:621:17
	strb	r1, [r0, #9]
	.loc	4 624 5                         @ ../src/driver/stm32g4-v120/src/stm32g4xx_hal_rng.c:624:5
	ldr	r0, [r0]
	ldr	r1, [r0]
	orr	r1, r1, #8
	str	r1, [r0]
	movs	r0, #0
.Ltmp48:
	.loc	4 636 1                         @ ../src/driver/stm32g4-v120/src/stm32g4xx_hal_rng.c:636:1
	bx	lr
.Ltmp49:
.LBB5_3:
	@DEBUG_VALUE: HAL_RNG_GenerateRandomNumber_IT:hrng <- [DW_OP_LLVM_entry_value 1] $r0
	@DEBUG_VALUE: HAL_RNG_GenerateRandomNumber_IT:status <- 0
	.loc	4 0 1 is_stmt 0                 @ ../src/driver/stm32g4-v120/src/stm32g4xx_hal_rng.c:0:1
	movs	r1, #0
.Ltmp50:
	.loc	4 629 5 is_stmt 1               @ ../src/driver/stm32g4-v120/src/stm32g4xx_hal_rng.c:629:5
	strb	r1, [r0, #8]
	movs	r1, #4
.Ltmp51:
	.loc	4 631 21                        @ ../src/driver/stm32g4-v120/src/stm32g4xx_hal_rng.c:631:21
	str	r1, [r0, #12]
	movs	r0, #1
.Ltmp52:
	@DEBUG_VALUE: HAL_RNG_GenerateRandomNumber_IT:status <- 1
	.loc	4 636 1                         @ ../src/driver/stm32g4-v120/src/stm32g4xx_hal_rng.c:636:1
	bx	lr
.Ltmp53:
.Lfunc_end5:
	.size	HAL_RNG_GenerateRandomNumber_IT, .Lfunc_end5-HAL_RNG_GenerateRandomNumber_IT
	.cfi_endproc
	.cantunwind
	.fnend
                                        @ -- End function
	.section	.text.HAL_RNG_IRQHandler,"ax",%progbits
	.hidden	HAL_RNG_IRQHandler              @ -- Begin function HAL_RNG_IRQHandler
	.globl	HAL_RNG_IRQHandler
	.p2align	1
	.type	HAL_RNG_IRQHandler,%function
	.code	16                              @ @HAL_RNG_IRQHandler
	.thumb_func
HAL_RNG_IRQHandler:
.Lfunc_begin6:
	.loc	4 660 0                         @ ../src/driver/stm32g4-v120/src/stm32g4xx_hal_rng.c:660:0
	.fnstart
	.cfi_startproc
@ %bb.0:
	@DEBUG_VALUE: HAL_RNG_IRQHandler:hrng <- $r0
	.save	{r4, lr}
	push	{r4, lr}
	.cfi_def_cfa_offset 8
	.cfi_offset lr, -4
	.cfi_offset r4, -8
	mov	r4, r0
.Ltmp54:
	@DEBUG_VALUE: HAL_RNG_IRQHandler:rngclockerror <- 0
	@DEBUG_VALUE: HAL_RNG_IRQHandler:hrng <- $r4
	.loc	4 664 7 prologue_end            @ ../src/driver/stm32g4-v120/src/stm32g4xx_hal_rng.c:664:7
	ldr	r0, [r0]
	ldr	r1, [r0, #4]
.Ltmp55:
	.loc	4 664 7 is_stmt 0               @ ../src/driver/stm32g4-v120/src/stm32g4xx_hal_rng.c:664:7
	lsls	r1, r1, #26
	bmi	.LBB6_3
.Ltmp56:
@ %bb.1:
	@DEBUG_VALUE: HAL_RNG_IRQHandler:hrng <- $r4
	@DEBUG_VALUE: HAL_RNG_IRQHandler:rngclockerror <- 0
	.loc	4 670 12 is_stmt 1              @ ../src/driver/stm32g4-v120/src/stm32g4xx_hal_rng.c:670:12
	ldr	r1, [r0, #4]
.Ltmp57:
	.loc	4 670 12 is_stmt 0              @ ../src/driver/stm32g4-v120/src/stm32g4xx_hal_rng.c:670:12
	lsls	r1, r1, #25
	bpl	.LBB6_5
.Ltmp58:
@ %bb.2:
	@DEBUG_VALUE: HAL_RNG_IRQHandler:hrng <- $r4
	@DEBUG_VALUE: HAL_RNG_IRQHandler:rngclockerror <- 0
	.loc	4 0 12                          @ ../src/driver/stm32g4-v120/src/stm32g4xx_hal_rng.c:0:12
	movs	r0, #8
	b	.LBB6_4
.Ltmp59:
.LBB6_3:
	@DEBUG_VALUE: HAL_RNG_IRQHandler:hrng <- $r4
	@DEBUG_VALUE: HAL_RNG_IRQHandler:rngclockerror <- 0
	movs	r0, #16
.Ltmp60:
.LBB6_4:
	@DEBUG_VALUE: HAL_RNG_IRQHandler:hrng <- $r4
	@DEBUG_VALUE: HAL_RNG_IRQHandler:rngclockerror <- 0
	str	r0, [r4, #12]
	movs	r0, #4
.Ltmp61:
	.loc	4 684 17 is_stmt 1              @ ../src/driver/stm32g4-v120/src/stm32g4xx_hal_rng.c:684:17
	strb	r0, [r4, #9]
	.loc	4 691 5                         @ ../src/driver/stm32g4-v120/src/stm32g4xx_hal_rng.c:691:5
	mov	r0, r4
	bl	HAL_RNG_ErrorCallback
.Ltmp62:
	.loc	4 695 5                         @ ../src/driver/stm32g4-v120/src/stm32g4xx_hal_rng.c:695:5
	ldr	r0, [r4]
	mvn	r1, #96
	str	r1, [r0, #4]
.Ltmp63:
.LBB6_5:
	@DEBUG_VALUE: HAL_RNG_IRQHandler:hrng <- $r4
	@DEBUG_VALUE: HAL_RNG_IRQHandler:rngclockerror <- 0
	.loc	4 699 7                         @ ../src/driver/stm32g4-v120/src/stm32g4xx_hal_rng.c:699:7
	ldr	r1, [r0, #4]
.Ltmp64:
	.loc	4 699 7 is_stmt 0               @ ../src/driver/stm32g4-v120/src/stm32g4xx_hal_rng.c:699:7
	lsls	r1, r1, #31
	.loc	4 723 1 is_stmt 1               @ ../src/driver/stm32g4-v120/src/stm32g4xx_hal_rng.c:723:1
	it	eq
	popeq	{r4, pc}
.Ltmp65:
.LBB6_6:
	@DEBUG_VALUE: HAL_RNG_IRQHandler:rngclockerror <- 0
	.loc	4 702 5                         @ ../src/driver/stm32g4-v120/src/stm32g4xx_hal_rng.c:702:5
	ldr	r1, [r0]
	bic	r1, r1, #8
	str	r1, [r0]
	.loc	4 705 42                        @ ../src/driver/stm32g4-v120/src/stm32g4xx_hal_rng.c:705:42
	ldr	r1, [r0, #8]
	.loc	4 705 24 is_stmt 0              @ ../src/driver/stm32g4-v120/src/stm32g4xx_hal_rng.c:705:24
	str	r1, [r4, #16]
.Ltmp66:
	.loc	4 707 15 is_stmt 1              @ ../src/driver/stm32g4-v120/src/stm32g4xx_hal_rng.c:707:15
	ldrb	r0, [r4, #9]
.Ltmp67:
	.loc	4 707 9 is_stmt 0               @ ../src/driver/stm32g4-v120/src/stm32g4xx_hal_rng.c:707:9
	cmp	r0, #4
	bne	.LBB6_8
.Ltmp68:
@ %bb.7:
	@DEBUG_VALUE: HAL_RNG_IRQHandler:rngclockerror <- 0
	.loc	4 723 1 is_stmt 1               @ ../src/driver/stm32g4-v120/src/stm32g4xx_hal_rng.c:723:1
	pop	{r4, pc}
.Ltmp69:
.LBB6_8:
	@DEBUG_VALUE: HAL_RNG_IRQHandler:rngclockerror <- 0
	.loc	4 0 1 is_stmt 0                 @ ../src/driver/stm32g4-v120/src/stm32g4xx_hal_rng.c:0:1
	movs	r0, #1
	movs	r2, #0
.Ltmp70:
	.loc	4 710 19 is_stmt 1              @ ../src/driver/stm32g4-v120/src/stm32g4xx_hal_rng.c:710:19
	strb	r0, [r4, #9]
	.loc	4 719 7                         @ ../src/driver/stm32g4-v120/src/stm32g4xx_hal_rng.c:719:7
	mov	r0, r4
.Ltmp71:
	.loc	4 712 7                         @ ../src/driver/stm32g4-v120/src/stm32g4xx_hal_rng.c:712:7
	strb	r2, [r4, #8]
.Ltmp72:
	.loc	4 719 7                         @ ../src/driver/stm32g4-v120/src/stm32g4xx_hal_rng.c:719:7
	pop.w	{r4, lr}
.Ltmp73:
	b	HAL_RNG_ReadyDataCallback
.Ltmp74:
.Lfunc_end6:
	.size	HAL_RNG_IRQHandler, .Lfunc_end6-HAL_RNG_IRQHandler
	.cfi_endproc
	.cantunwind
	.fnend
                                        @ -- End function
	.section	.text.HAL_RNG_ErrorCallback,"ax",%progbits
	.hidden	HAL_RNG_ErrorCallback           @ -- Begin function HAL_RNG_ErrorCallback
	.weak	HAL_RNG_ErrorCallback
	.p2align	1
	.type	HAL_RNG_ErrorCallback,%function
	.code	16                              @ @HAL_RNG_ErrorCallback
	.thumb_func
HAL_RNG_ErrorCallback:
.Lfunc_begin7:
	.loc	4 765 0                         @ ../src/driver/stm32g4-v120/src/stm32g4xx_hal_rng.c:765:0
	.fnstart
	.cfi_startproc
@ %bb.0:
	@DEBUG_VALUE: HAL_RNG_ErrorCallback:hrng <- $r0
	.loc	4 771 1 prologue_end            @ ../src/driver/stm32g4-v120/src/stm32g4xx_hal_rng.c:771:1
	bx	lr
.Ltmp75:
.Lfunc_end7:
	.size	HAL_RNG_ErrorCallback, .Lfunc_end7-HAL_RNG_ErrorCallback
	.cfi_endproc
	.cantunwind
	.fnend
                                        @ -- End function
	.section	.text.HAL_RNG_ReadyDataCallback,"ax",%progbits
	.hidden	HAL_RNG_ReadyDataCallback       @ -- Begin function HAL_RNG_ReadyDataCallback
	.weak	HAL_RNG_ReadyDataCallback
	.p2align	1
	.type	HAL_RNG_ReadyDataCallback,%function
	.code	16                              @ @HAL_RNG_ReadyDataCallback
	.thumb_func
HAL_RNG_ReadyDataCallback:
.Lfunc_begin8:
	.loc	4 749 0                         @ ../src/driver/stm32g4-v120/src/stm32g4xx_hal_rng.c:749:0
	.fnstart
	.cfi_startproc
@ %bb.0:
	@DEBUG_VALUE: HAL_RNG_ReadyDataCallback:hrng <- $r0
	@DEBUG_VALUE: HAL_RNG_ReadyDataCallback:random32bit <- $r1
	.loc	4 756 1 prologue_end            @ ../src/driver/stm32g4-v120/src/stm32g4xx_hal_rng.c:756:1
	bx	lr
.Ltmp76:
.Lfunc_end8:
	.size	HAL_RNG_ReadyDataCallback, .Lfunc_end8-HAL_RNG_ReadyDataCallback
	.cfi_endproc
	.cantunwind
	.fnend
                                        @ -- End function
	.section	.text.HAL_RNG_ReadLastRandomNumber,"ax",%progbits
	.hidden	HAL_RNG_ReadLastRandomNumber    @ -- Begin function HAL_RNG_ReadLastRandomNumber
	.globl	HAL_RNG_ReadLastRandomNumber
	.p2align	1
	.type	HAL_RNG_ReadLastRandomNumber,%function
	.code	16                              @ @HAL_RNG_ReadLastRandomNumber
	.thumb_func
HAL_RNG_ReadLastRandomNumber:
.Lfunc_begin9:
	.loc	4 732 0                         @ ../src/driver/stm32g4-v120/src/stm32g4xx_hal_rng.c:732:0
	.fnstart
	.cfi_startproc
@ %bb.0:
	@DEBUG_VALUE: HAL_RNG_ReadLastRandomNumber:hrng <- $r0
	@DEBUG_VALUE: HAL_RNG_ReadLastRandomNumber:hrng <- $r0
	.loc	4 733 17 prologue_end           @ ../src/driver/stm32g4-v120/src/stm32g4xx_hal_rng.c:733:17
	ldr	r0, [r0, #16]
.Ltmp77:
	@DEBUG_VALUE: HAL_RNG_ReadLastRandomNumber:hrng <- [DW_OP_LLVM_entry_value 1] $r0
	.loc	4 733 3 is_stmt 0               @ ../src/driver/stm32g4-v120/src/stm32g4xx_hal_rng.c:733:3
	bx	lr
.Ltmp78:
.Lfunc_end9:
	.size	HAL_RNG_ReadLastRandomNumber, .Lfunc_end9-HAL_RNG_ReadLastRandomNumber
	.cfi_endproc
	.cantunwind
	.fnend
                                        @ -- End function
	.section	.text.HAL_RNG_GetState,"ax",%progbits
	.hidden	HAL_RNG_GetState                @ -- Begin function HAL_RNG_GetState
	.globl	HAL_RNG_GetState
	.p2align	1
	.type	HAL_RNG_GetState,%function
	.code	16                              @ @HAL_RNG_GetState
	.thumb_func
HAL_RNG_GetState:
.Lfunc_begin10:
	.loc	4 799 0 is_stmt 1               @ ../src/driver/stm32g4-v120/src/stm32g4xx_hal_rng.c:799:0
	.fnstart
	.cfi_startproc
@ %bb.0:
	@DEBUG_VALUE: HAL_RNG_GetState:hrng <- $r0
	@DEBUG_VALUE: HAL_RNG_GetState:hrng <- $r0
	.loc	4 800 16 prologue_end           @ ../src/driver/stm32g4-v120/src/stm32g4xx_hal_rng.c:800:16
	ldrb	r0, [r0, #9]
.Ltmp79:
	@DEBUG_VALUE: HAL_RNG_GetState:hrng <- [DW_OP_LLVM_entry_value 1] $r0
	.loc	4 800 3 is_stmt 0               @ ../src/driver/stm32g4-v120/src/stm32g4xx_hal_rng.c:800:3
	bx	lr
.Ltmp80:
.Lfunc_end10:
	.size	HAL_RNG_GetState, .Lfunc_end10-HAL_RNG_GetState
	.cfi_endproc
	.cantunwind
	.fnend
                                        @ -- End function
	.section	.text.HAL_RNG_GetError,"ax",%progbits
	.hidden	HAL_RNG_GetError                @ -- Begin function HAL_RNG_GetError
	.globl	HAL_RNG_GetError
	.p2align	1
	.type	HAL_RNG_GetError,%function
	.code	16                              @ @HAL_RNG_GetError
	.thumb_func
HAL_RNG_GetError:
.Lfunc_begin11:
	.loc	4 809 0 is_stmt 1               @ ../src/driver/stm32g4-v120/src/stm32g4xx_hal_rng.c:809:0
	.fnstart
	.cfi_startproc
@ %bb.0:
	@DEBUG_VALUE: HAL_RNG_GetError:hrng <- $r0
	@DEBUG_VALUE: HAL_RNG_GetError:hrng <- $r0
	.loc	4 811 16 prologue_end           @ ../src/driver/stm32g4-v120/src/stm32g4xx_hal_rng.c:811:16
	ldr	r0, [r0, #12]
.Ltmp81:
	@DEBUG_VALUE: HAL_RNG_GetError:hrng <- [DW_OP_LLVM_entry_value 1] $r0
	.loc	4 811 3 is_stmt 0               @ ../src/driver/stm32g4-v120/src/stm32g4xx_hal_rng.c:811:3
	bx	lr
.Ltmp82:
.Lfunc_end11:
	.size	HAL_RNG_GetError, .Lfunc_end11-HAL_RNG_GetError
	.cfi_endproc
	.cantunwind
	.fnend
                                        @ -- End function
	.file	5 "C:\\" "Keil_v5\\ARM\\ARMCLANG\\Bin\\..\\include\\stdint.h"
	.file	6 "C:\\Users\\grodriguez\\Documents\\iit\\icub-firmware\\emBODY\\eBcode\\arch-arm\\libs\\lowlevel\\stm32hal\\proj" "../src/driver/stm32g4-v120/inc/stm32g474xx.h"
	.section	".note.GNU-stack","",%progbits
	.eabi_attribute	30, 3	@ Tag_ABI_optimization_goals
	.ARM_attribute	16, 1	@ Tag_AV_eba