	.text
	.syntax unified
	.eabi_attribute	67, "2.09"	@ Tag_conformance
	.cpu	cortex-m4
	.eabi_attribute	6, 13	@ Tag_CPU_arch
	.eabi_attribute	7, 77	@ Tag_CPU_arch_profile
	.eabi_attribute	8, 0	@ Tag_ARM_ISA_use
	.eabi_attribute	9, 2	@ Tag_THUMB_ISA_use
	.fpu	fpv4-sp-d16
	.eabi_attribute	27, 1	@ Tag_ABI_HardFP_use
	.eabi_attribute	36, 1	@ Tag_FP_HP_extension
	.eabi_attribute	34, 1	@ Tag_CPU_unaligned_access
	.eabi_attribute	17, 1	@ Tag_ABI_PCS_GOT_use
	.eabi_attribute	20, 2	@ Tag_ABI_FP_denormal
	.eabi_attribute	21, 0	@ Tag_ABI_FP_exceptions
	.eabi_attribute	23, 1	@ Tag_ABI_FP_number_model
	.eabi_attribute	24, 1	@ Tag_ABI_align_needed
	.eabi_attribute	25, 1	@ Tag_ABI_align_preserved
	.eabi_attribute	28, 1	@ Tag_ABI_VFP_args
	.eabi_attribute	38, 1	@ Tag_ABI_FP_16bit_format
	.eabi_attribute	18, 2	@ Tag_ABI_PCS_wchar_t
	.eabi_attribute	26, 1	@ Tag_ABI_enum_size
	.eabi_attribute	14, 0	@ Tag_ABI_PCS_R9_use
	.file	"stm32g4xx_hal_tim_ex.c"
	.file	1 "C:\\Users\\grodriguez\\Documents\\iit\\icub-firmware\\emBODY\\eBcode\\arch-arm\\libs\\lowlevel\\stm32hal\\proj" "../src/driver/stm32g4-v120/inc/stm32g4xx_hal_def.h"
	.file	2 "C:\\Users\\grodriguez\\Documents\\iit\\icub-firmware\\emBODY\\eBcode\\arch-arm\\libs\\lowlevel\\stm32hal\\proj" "../api\\../src/driver/stm32g4-v120/inc/stm32g4xx_hal_tim.h"
	.file	3 "C:\\Users\\grodriguez\\Documents\\iit\\icub-firmware\\emBODY\\eBcode\\arch-arm\\libs\\lowlevel\\stm32hal\\proj" "../api\\../src/driver/stm32g4-v120/inc/stm32g4xx_hal_dma.h"
	.file	4 "C:\\Users\\grodriguez\\Documents\\iit\\icub-firmware\\emBODY\\eBcode\\arch-arm\\libs\\lowlevel\\stm32hal\\proj" "../src/driver/stm32g4-v120/inc/stm32g4xx.h"
	.file	5 "C:\\" "Keil_v5\\ARM\\ARMCLANG\\Bin\\..\\include\\stdint.h"
	.file	6 "C:\\Users\\grodriguez\\Documents\\iit\\icub-firmware\\emBODY\\eBcode\\arch-arm\\libs\\lowlevel\\stm32hal\\proj" "../src/driver/stm32g4-v120/inc/stm32g474xx.h"
	.section	.text.HAL_TIMEx_HallSensor_Init,"ax",%progbits
	.hidden	HAL_TIMEx_HallSensor_Init       @ -- Begin function HAL_TIMEx_HallSensor_Init
	.globl	HAL_TIMEx_HallSensor_Init
	.p2align	1
	.type	HAL_TIMEx_HallSensor_Init,%function
	.code	16                              @ @HAL_TIMEx_HallSensor_Init
	.thumb_func
HAL_TIMEx_HallSensor_Init:
.Lfunc_begin0:
	.file	7 "C:\\Users\\grodriguez\\Documents\\iit\\icub-firmware\\emBODY\\eBcode\\arch-arm\\libs\\lowlevel\\stm32hal\\proj" "../src/driver/stm32g4-v120/src/stm32g4xx_hal_tim_ex.c"
	.loc	7 155 0                         @ ../src/driver/stm32g4-v120/src/stm32g4xx_hal_tim_ex.c:155:0
	.fnstart
	.cfi_sections .debug_frame
	.cfi_startproc
@ %bb.0:
	@DEBUG_VALUE: HAL_TIMEx_HallSensor_Init:htim <- $r0
	@DEBUG_VALUE: HAL_TIMEx_HallSensor_Init:sConfig <- $r1
	@DEBUG_VALUE: HAL_TIMEx_HallSensor_Init:htim <- $r0
	.save	{r4, r5, r6, r7, lr}
	push	{r4, r5, r6, r7, lr}
	.cfi_def_cfa_offset 20
	.cfi_offset lr, -4
	.cfi_offset r7, -8
	.cfi_offset r6, -12
	.cfi_offset r5, -16
	.cfi_offset r4, -20
	.pad	#28
	sub	sp, #28
	.cfi_def_cfa_offset 48
.Ltmp0:
	.loc	7 159 7 prologue_end            @ ../src/driver/stm32g4-v120/src/stm32g4xx_hal_tim_ex.c:159:7
	cmp	r0, #0
	@DEBUG_VALUE: HAL_TIMEx_HallSensor_Init:sConfig <- $r1
	beq	.LBB0_6
.Ltmp1:
@ %bb.1:
	@DEBUG_VALUE: HAL_TIMEx_HallSensor_Init:sConfig <- $r1
	@DEBUG_VALUE: HAL_TIMEx_HallSensor_Init:htim <- $r0
	.loc	7 0 7 is_stmt 0                 @ ../src/driver/stm32g4-v120/src/stm32g4xx_hal_tim_ex.c:0:7
	mov	r4, r0
.Ltmp2:
	@DEBUG_VALUE: HAL_TIMEx_HallSensor_Init:htim <- $r4
	.loc	7 173 13 is_stmt 1              @ ../src/driver/stm32g4-v120/src/stm32g4xx_hal_tim_ex.c:173:13
	ldrb.w	r0, [r0, #61]
	mov	r5, r1
.Ltmp3:
	@DEBUG_VALUE: HAL_TIMEx_HallSensor_Init:sConfig <- $r5
	@DEBUG_VALUE: HAL_TIMEx_HallSensor_Init:sConfig <- $r5
	.loc	7 173 7 is_stmt 0               @ ../src/driver/stm32g4-v120/src/stm32g4xx_hal_tim_ex.c:173:7
	cbnz	r0, .LBB0_5
.Ltmp4:
@ %bb.2:
	@DEBUG_VALUE: HAL_TIMEx_HallSensor_Init:sConfig <- $r5
	@DEBUG_VALUE: HAL_TIMEx_HallSensor_Init:htim <- $r4
	.loc	7 0 7                           @ ../src/driver/stm32g4-v120/src/stm32g4xx_hal_tim_ex.c:0:7
	movs	r0, #0
.Ltmp5:
	.loc	7 176 16 is_stmt 1              @ ../src/driver/stm32g4-v120/src/stm32g4xx_hal_tim_ex.c:176:16
	strb.w	r0, [r4, #60]
	.loc	7 180 5                         @ ../src/driver/stm32g4-v120/src/stm32g4xx_hal_tim_ex.c:180:5
	mov	r0, r4
	bl	TIM_ResetCallback
.Ltmp6:
	.loc	7 182 15                        @ ../src/driver/stm32g4-v120/src/stm32g4xx_hal_tim_ex.c:182:15
	ldr	r1, [r4, #124]
.Ltmp7:
	.loc	7 182 9 is_stmt 0               @ ../src/driver/stm32g4-v120/src/stm32g4xx_hal_tim_ex.c:182:9
	cbnz	r1, .LBB0_4
.Ltmp8:
@ %bb.3:
	@DEBUG_VALUE: HAL_TIMEx_HallSensor_Init:sConfig <- $r5
	@DEBUG_VALUE: HAL_TIMEx_HallSensor_Init:htim <- $r4
	.loc	7 184 40 is_stmt 1              @ ../src/driver/stm32g4-v120/src/stm32g4xx_hal_tim_ex.c:184:40
	movw	r1, :lower16:HAL_TIMEx_HallSensor_MspInit
	movt	r1, :upper16:HAL_TIMEx_HallSensor_MspInit
	str	r1, [r4, #124]
.Ltmp9:
.LBB0_4:
	@DEBUG_VALUE: HAL_TIMEx_HallSensor_Init:sConfig <- $r5
	@DEBUG_VALUE: HAL_TIMEx_HallSensor_Init:htim <- $r4
	.loc	7 187 5                         @ ../src/driver/stm32g4-v120/src/stm32g4xx_hal_tim_ex.c:187:5
	mov	r0, r4
	blx	r1
.Ltmp10:
.LBB0_5:
	@DEBUG_VALUE: HAL_TIMEx_HallSensor_Init:sConfig <- $r5
	@DEBUG_VALUE: HAL_TIMEx_HallSensor_Init:htim <- $r4
	.loc	7 0 5 is_stmt 0                 @ ../src/driver/stm32g4-v120/src/stm32g4xx_hal_tim_ex.c:0:5
	movs	r0, #2
	.loc	7 195 15 is_stmt 1              @ ../src/driver/stm32g4-v120/src/stm32g4xx_hal_tim_ex.c:195:15
	strb.w	r0, [r4, #61]
	.loc	7 198 28                        @ ../src/driver/stm32g4-v120/src/stm32g4xx_hal_tim_ex.c:198:28
	ldr	r0, [r4]
	.loc	7 198 45 is_stmt 0              @ ../src/driver/stm32g4-v120/src/stm32g4xx_hal_tim_ex.c:198:45
	adds	r1, r4, #4
	.loc	7 198 3                         @ ../src/driver/stm32g4-v120/src/stm32g4xx_hal_tim_ex.c:198:3
	bl	TIM_Base_SetConfig
.Ltmp11:
	.loc	7 201 27 is_stmt 1              @ ../src/driver/stm32g4-v120/src/stm32g4xx_hal_tim_ex.c:201:27
	ldr	r0, [r4]
	.loc	7 201 46 is_stmt 0              @ ../src/driver/stm32g4-v120/src/stm32g4xx_hal_tim_ex.c:201:46
	ldr	r1, [r5]
	.loc	7 201 89                        @ ../src/driver/stm32g4-v120/src/stm32g4xx_hal_tim_ex.c:201:89
	ldr	r3, [r5, #8]
	.loc	7 201 3                         @ ../src/driver/stm32g4-v120/src/stm32g4xx_hal_tim_ex.c:201:3
	movs	r2, #3
	bl	TIM_TI1_SetConfig
.Ltmp12:
	.loc	7 204 9 is_stmt 1               @ ../src/driver/stm32g4-v120/src/stm32g4xx_hal_tim_ex.c:204:9
	ldr	r0, [r4]
	movw	r7, #65423
	.loc	7 204 25 is_stmt 0              @ ../src/driver/stm32g4-v120/src/stm32g4xx_hal_tim_ex.c:204:25
	ldr	r1, [r0, #24]
	movt	r7, #65023
	bic	r1, r1, #12
	str	r1, [r0, #24]
	.loc	7 206 37 is_stmt 1              @ ../src/driver/stm32g4-v120/src/stm32g4xx_hal_tim_ex.c:206:37
	ldr	r1, [r5, #4]
	.loc	7 206 25 is_stmt 0              @ ../src/driver/stm32g4-v120/src/stm32g4xx_hal_tim_ex.c:206:25
	ldr	r2, [r0, #24]
	movs	r6, #0
	orrs	r1, r2
	str	r1, [r0, #24]
	.loc	7 209 23 is_stmt 1              @ ../src/driver/stm32g4-v120/src/stm32g4xx_hal_tim_ex.c:209:23
	ldr	r1, [r0, #4]
	.loc	7 212 24                        @ ../src/driver/stm32g4-v120/src/stm32g4xx_hal_tim_ex.c:212:24
	add.w	r2, r7, #30408704
	.loc	7 209 23                        @ ../src/driver/stm32g4-v120/src/stm32g4xx_hal_tim_ex.c:209:23
	orr	r1, r1, #128
	str	r1, [r0, #4]
	.loc	7 212 24                        @ ../src/driver/stm32g4-v120/src/stm32g4xx_hal_tim_ex.c:212:24
	ldr	r1, [r0, #8]
	ands	r1, r2
	str	r1, [r0, #8]
	.loc	7 213 24                        @ ../src/driver/stm32g4-v120/src/stm32g4xx_hal_tim_ex.c:213:24
	ldr	r1, [r0, #8]
	movw	r2, #65528
	orr	r1, r1, #64
	str	r1, [r0, #8]
	.loc	7 216 24                        @ ../src/driver/stm32g4-v120/src/stm32g4xx_hal_tim_ex.c:216:24
	ldr	r1, [r0, #8]
	movt	r2, #65534
	ands	r1, r2
	str	r1, [r0, #8]
	.loc	7 217 24                        @ ../src/driver/stm32g4-v120/src/stm32g4xx_hal_tim_ex.c:217:24
	ldr	r1, [r0, #8]
	orr	r1, r1, #4
	str	r1, [r0, #8]
	movs	r1, #112
	.loc	7 222 20                        @ ../src/driver/stm32g4-v120/src/stm32g4xx_hal_tim_ex.c:222:20
	str	r1, [sp]
	.loc	7 226 30                        @ ../src/driver/stm32g4-v120/src/stm32g4xx_hal_tim_ex.c:226:30
	ldr	r1, [r5, #12]
	.loc	7 220 24                        @ ../src/driver/stm32g4-v120/src/stm32g4xx_hal_tim_ex.c:220:24
	strd	r6, r6, [sp, #16]
	.loc	7 226 19                        @ ../src/driver/stm32g4-v120/src/stm32g4xx_hal_tim_ex.c:226:19
	strd	r1, r6, [sp, #4]
	mov	r1, sp
	.loc	7 223 26                        @ ../src/driver/stm32g4-v120/src/stm32g4xx_hal_tim_ex.c:223:26
	str	r6, [sp, #24]
	.loc	7 224 25                        @ ../src/driver/stm32g4-v120/src/stm32g4xx_hal_tim_ex.c:224:25
	str	r6, [sp, #12]
	.loc	7 228 3                         @ ../src/driver/stm32g4-v120/src/stm32g4xx_hal_tim_ex.c:228:3
	bl	TIM_OC2_SetConfig
.Ltmp13:
	.loc	7 232 9                         @ ../src/driver/stm32g4-v120/src/stm32g4xx_hal_tim_ex.c:232:9
	ldr	r0, [r4]
	.loc	7 232 23 is_stmt 0              @ ../src/driver/stm32g4-v120/src/stm32g4xx_hal_tim_ex.c:232:23
	ldr	r1, [r0, #4]
	ands	r1, r7
	str	r1, [r0, #4]
	.loc	7 233 23 is_stmt 1              @ ../src/driver/stm32g4-v120/src/stm32g4xx_hal_tim_ex.c:233:23
	ldr	r1, [r0, #4]
	orr	r1, r1, #80
	str	r1, [r0, #4]
	movs	r0, #1
	.loc	7 236 23                        @ ../src/driver/stm32g4-v120/src/stm32g4xx_hal_tim_ex.c:236:23
	strb.w	r0, [r4, #72]
	.loc	7 239 3                         @ ../src/driver/stm32g4-v120/src/stm32g4xx_hal_tim_ex.c:239:3
	strb.w	r0, [r4, #62]
	.loc	7 240 3                         @ ../src/driver/stm32g4-v120/src/stm32g4xx_hal_tim_ex.c:240:3
	strb.w	r0, [r4, #63]
	.loc	7 241 3                         @ ../src/driver/stm32g4-v120/src/stm32g4xx_hal_tim_ex.c:241:3
	strb.w	r0, [r4, #68]
	.loc	7 242 3                         @ ../src/driver/stm32g4-v120/src/stm32g4xx_hal_tim_ex.c:242:3
	strb.w	r0, [r4, #69]
	.loc	7 245 15                        @ ../src/driver/stm32g4-v120/src/stm32g4xx_hal_tim_ex.c:245:15
	strb.w	r0, [r4, #61]
	b	.LBB0_7
.Ltmp14:
.LBB0_6:
	@DEBUG_VALUE: HAL_TIMEx_HallSensor_Init:sConfig <- $r1
	@DEBUG_VALUE: HAL_TIMEx_HallSensor_Init:htim <- $r0
	.loc	7 0 15 is_stmt 0                @ ../src/driver/stm32g4-v120/src/stm32g4xx_hal_tim_ex.c:0:15
	movs	r6, #1
.Ltmp15:
.LBB0_7:
	.loc	7 248 1 is_stmt 1               @ ../src/driver/stm32g4-v120/src/stm32g4xx_hal_tim_ex.c:248:1
	mov	r0, r6
	add	sp, #28
	pop	{r4, r5, r6, r7, pc}
.Ltmp16:
.Lfunc_end0:
	.size	HAL_TIMEx_HallSensor_Init, .Lfunc_end0-HAL_TIMEx_HallSensor_Init
	.cfi_endproc
	.cantunwind
	.fnend
                                        @ -- End function
	.section	.text.HAL_TIMEx_HallSensor_MspInit,"ax",%progbits
	.hidden	HAL_TIMEx_HallSensor_MspInit    @ -- Begin function HAL_TIMEx_HallSensor_MspInit
	.weak	HAL_TIMEx_HallSensor_MspInit
	.p2align	1
	.type	HAL_TIMEx_HallSensor_MspInit,%function
	.code	16                              @ @HAL_TIMEx_HallSensor_MspInit
	.thumb_func
HAL_TIMEx_HallSensor_MspInit:
.Lfunc_begin1:
	.loc	7 301 0                         @ ../src/driver/stm32g4-v120/src/stm32g4xx_hal_tim_ex.c:301:0
	.fnstart
	.cfi_startproc
@ %bb.0:
	@DEBUG_VALUE: HAL_TIMEx_HallSensor_MspInit:htim <- $r0
	.loc	7 308 1 prologue_end            @ ../src/driver/stm32g4-v120/src/stm32g4xx_hal_tim_ex.c:308:1
	bx	lr
.Ltmp17:
.Lfunc_end1:
	.size	HAL_TIMEx_HallSensor_MspInit, .Lfunc_end1-HAL_TIMEx_HallSensor_MspInit
	.cfi_endproc
	.cantunwind
	.fnend
                                        @ -- End function
	.section	.text.HAL_TIMEx_HallSensor_DeInit,"ax",%progbits
	.hidden	HAL_TIMEx_HallSensor_DeInit     @ -- Begin function HAL_TIMEx_HallSensor_DeInit
	.globl	HAL_TIMEx_HallSensor_DeInit
	.p2align	1
	.type	HAL_TIMEx_HallSensor_DeInit,%function
	.code	16                              @ @HAL_TIMEx_HallSensor_DeInit
	.thumb_func
HAL_TIMEx_HallSensor_DeInit:
.Lfunc_begin2:
	.loc	7 256 0                         @ ../src/driver/stm32g4-v120/src/stm32g4xx_hal_tim_ex.c:256:0
	.fnstart
	.cfi_startproc
@ %bb.0:
	@DEBUG_VALUE: HAL_TIMEx_HallSensor_DeInit:htim <- $r0
	.save	{r4, lr}
	push	{r4, lr}
	.cfi_def_cfa_offset 8
	.cfi_offset lr, -4
	.cfi_offset r4, -8
	mov	r4, r0
.Ltmp18:
	@DEBUG_VALUE: HAL_TIMEx_HallSensor_DeInit:htim <- $r4
	movs	r0, #2
	@DEBUG_VALUE: HAL_TIMEx_HallSensor_DeInit:htim <- $r4
.Ltmp19:
	.loc	7 260 15 prologue_end           @ ../src/driver/stm32g4-v120/src/stm32g4xx_hal_tim_ex.c:260:15
	strb.w	r0, [r4, #61]
.Ltmp20:
	.loc	7 263 3                         @ ../src/driver/stm32g4-v120/src/stm32g4xx_hal_tim_ex.c:263:3
	ldr	r0, [r4]
	movw	r2, #4369
	ldr	r1, [r0, #32]
.Ltmp21:
	.loc	7 263 3 is_stmt 0               @ ../src/driver/stm32g4-v120/src/stm32g4xx_hal_tim_ex.c:263:3
	tst	r1, r2
	bne	.LBB2_3
.Ltmp22:
@ %bb.1:
	@DEBUG_VALUE: HAL_TIMEx_HallSensor_DeInit:htim <- $r4
	.loc	7 263 3                         @ ../src/driver/stm32g4-v120/src/stm32g4xx_hal_tim_ex.c:263:3
	ldr	r1, [r0, #32]
	movw	r2, #17476
.Ltmp23:
	.loc	7 263 3                         @ ../src/driver/stm32g4-v120/src/stm32g4xx_hal_tim_ex.c:263:3
	tst	r1, r2
	bne	.LBB2_3
.Ltmp24:
@ %bb.2:
	@DEBUG_VALUE: HAL_TIMEx_HallSensor_DeInit:htim <- $r4
	.loc	7 263 3                         @ ../src/driver/stm32g4-v120/src/stm32g4xx_hal_tim_ex.c:263:3
	ldr	r1, [r0]
	bic	r1, r1, #1
	str	r1, [r0]
.Ltmp25:
.LBB2_3:
	@DEBUG_VALUE: HAL_TIMEx_HallSensor_DeInit:htim <- $r4
	.loc	7 266 13 is_stmt 1              @ ../src/driver/stm32g4-v120/src/stm32g4xx_hal_tim_ex.c:266:13
	ldr.w	r1, [r4, #128]
.Ltmp26:
	.loc	7 266 7 is_stmt 0               @ ../src/driver/stm32g4-v120/src/stm32g4xx_hal_tim_ex.c:266:7
	cbnz	r1, .LBB2_5
.Ltmp27:
@ %bb.4:
	@DEBUG_VALUE: HAL_TIMEx_HallSensor_DeInit:htim <- $r4
	.loc	7 268 40 is_stmt 1              @ ../src/driver/stm32g4-v120/src/stm32g4xx_hal_tim_ex.c:268:40
	movw	r1, :lower16:HAL_TIMEx_HallSensor_MspDeInit
	movt	r1, :upper16:HAL_TIMEx_HallSensor_MspDeInit
	str.w	r1, [r4, #128]
.Ltmp28:
.LBB2_5:
	@DEBUG_VALUE: HAL_TIMEx_HallSensor_DeInit:htim <- $r4
	.loc	7 271 3                         @ ../src/driver/stm32g4-v120/src/stm32g4xx_hal_tim_ex.c:271:3
	mov	r0, r4
	blx	r1
.Ltmp29:
	.loc	7 0 3 is_stmt 0                 @ ../src/driver/stm32g4-v120/src/stm32g4xx_hal_tim_ex.c:0:3
	movs	r1, #0
	.loc	7 292 3 is_stmt 1               @ ../src/driver/stm32g4-v120/src/stm32g4xx_hal_tim_ex.c:292:3
	movs	r0, #0
	.loc	7 278 23                        @ ../src/driver/stm32g4-v120/src/stm32g4xx_hal_tim_ex.c:278:23
	strb.w	r1, [r4, #72]
	.loc	7 281 3                         @ ../src/driver/stm32g4-v120/src/stm32g4xx_hal_tim_ex.c:281:3
	strb.w	r1, [r4, #62]
	.loc	7 282 3                         @ ../src/driver/stm32g4-v120/src/stm32g4xx_hal_tim_ex.c:282:3
	strb.w	r1, [r4, #63]
	.loc	7 283 3                         @ ../src/driver/stm32g4-v120/src/stm32g4xx_hal_tim_ex.c:283:3
	strb.w	r1, [r4, #68]
	.loc	7 284 3                         @ ../src/driver/stm32g4-v120/src/stm32g4xx_hal_tim_ex.c:284:3
	strb.w	r1, [r4, #69]
	.loc	7 287 15                        @ ../src/driver/stm32g4-v120/src/stm32g4xx_hal_tim_ex.c:287:15
	strb.w	r1, [r4, #61]
.Ltmp30:
	.loc	7 290 3                         @ ../src/driver/stm32g4-v120/src/stm32g4xx_hal_tim_ex.c:290:3
	strb.w	r1, [r4, #60]
.Ltmp31:
	.loc	7 292 3                         @ ../src/driver/stm32g4-v120/src/stm32g4xx_hal_tim_ex.c:292:3
	pop	{r4, pc}
.Ltmp32:
.Lfunc_end2:
	.size	HAL_TIMEx_HallSensor_DeInit, .Lfunc_end2-HAL_TIMEx_HallSensor_DeInit
	.cfi_endproc
	.cantunwind
	.fnend
                                        @ -- End function
	.section	.text.HAL_TIMEx_HallSensor_MspDeInit,"ax",%progbits
	.hidden	HAL_TIMEx_HallSensor_MspDeInit  @ -- Begin function HAL_TIMEx_HallSensor_MspDeInit
	.weak	HAL_TIMEx_HallSensor_MspDeInit
	.p2align	1
	.type	HAL_TIMEx_HallSensor_MspDeInit,%function
	.code	16                              @ @HAL_TIMEx_HallSensor_MspDeInit
	.thumb_func
HAL_TIMEx_HallSensor_MspDeInit:
.Lfunc_begin3:
	.loc	7 316 0                         @ ../src/driver/stm32g4-v120/src/stm32g4xx_hal_tim_ex.c:316:0
	.fnstart
	.cfi_startproc
@ %bb.0:
	@DEBUG_VALUE: HAL_TIMEx_HallSensor_MspDeInit:htim <- $r0
	.loc	7 323 1 prologue_end            @ ../src/driver/stm32g4-v120/src/stm32g4xx_hal_tim_ex.c:323:1
	bx	lr
.Ltmp33:
.Lfunc_end3:
	.size	HAL_TIMEx_HallSensor_MspDeInit, .Lfunc_end3-HAL_TIMEx_HallSensor_MspDeInit
	.cfi_endproc
	.cantunwind
	.fnend
                                        @ -- End function
	.section	.text.HAL_TIMEx_HallSensor_Start,"ax",%progbits
	.hidden	HAL_TIMEx_HallSensor_Start      @ -- Begin function HAL_TIMEx_HallSensor_Start
	.globl	HAL_TIMEx_HallSensor_Start
	.p2align	1
	.type	HAL_TIMEx_HallSensor_Start,%function
	.code	16                              @ @HAL_TIMEx_HallSensor_Start
	.thumb_func
HAL_TIMEx_HallSensor_Start:
.Lfunc_begin4:
	.loc	7 331 0                         @ ../src/driver/stm32g4-v120/src/stm32g4xx_hal_tim_ex.c:331:0
	.fnstart
	.cfi_startproc
@ %bb.0:
	@DEBUG_VALUE: HAL_TIMEx_HallSensor_Start:htim <- $r0
	.save	{r4, lr}
	push	{r4, lr}
	.cfi_def_cfa_offset 8
	.cfi_offset lr, -4
	.cfi_offset r4, -8
	mov	r4, r0
.Ltmp34:
	@DEBUG_VALUE: HAL_TIMEx_HallSensor_Start:htim <- $r4
	.loc	7 333 49 prologue_end           @ ../src/driver/stm32g4-v120/src/stm32g4xx_hal_tim_ex.c:333:49
	ldrb.w	r0, [r0, #62]
.Ltmp35:
	@DEBUG_VALUE: HAL_TIMEx_HallSensor_Start:channel_1_state <- $r0
	.loc	7 334 49                        @ ../src/driver/stm32g4-v120/src/stm32g4xx_hal_tim_ex.c:334:49
	ldrb.w	r3, [r4, #63]
.Ltmp36:
	@DEBUG_VALUE: HAL_TIMEx_HallSensor_Start:channel_2_state <- undef
	.loc	7 335 63                        @ ../src/driver/stm32g4-v120/src/stm32g4xx_hal_tim_ex.c:335:63
	ldrb.w	r2, [r4, #68]
.Ltmp37:
	@DEBUG_VALUE: HAL_TIMEx_HallSensor_Start:complementary_channel_1_state <- undef
	.loc	7 336 63                        @ ../src/driver/stm32g4-v120/src/stm32g4xx_hal_tim_ex.c:336:63
	ldrb.w	r1, [r4, #69]
.Ltmp38:
	.loc	7 343 4                         @ ../src/driver/stm32g4-v120/src/stm32g4xx_hal_tim_ex.c:343:4
	cmp	r0, #1
	mov.w	r0, #1
.Ltmp39:
	@DEBUG_VALUE: HAL_TIMEx_HallSensor_Start:complementary_channel_2_state <- undef
	it	eq
	cmpeq	r3, #1
	beq	.LBB4_2
.Ltmp40:
.LBB4_1:
	@DEBUG_VALUE: HAL_TIMEx_HallSensor_Start:htim <- $r4
	.loc	7 376 1                         @ ../src/driver/stm32g4-v120/src/stm32g4xx_hal_tim_ex.c:376:1
	pop	{r4, pc}
.Ltmp41:
.LBB4_2:
	@DEBUG_VALUE: HAL_TIMEx_HallSensor_Start:htim <- $r4
	.loc	7 343 4                         @ ../src/driver/stm32g4-v120/src/stm32g4xx_hal_tim_ex.c:343:4
	cmp	r2, #1
	bne	.LBB4_1
.Ltmp42:
@ %bb.3:
	@DEBUG_VALUE: HAL_TIMEx_HallSensor_Start:htim <- $r4
	cmp	r1, #1
	bne	.LBB4_1
.Ltmp43:
@ %bb.4:
	@DEBUG_VALUE: HAL_TIMEx_HallSensor_Start:htim <- $r4
	.loc	7 0 4 is_stmt 0                 @ ../src/driver/stm32g4-v120/src/stm32g4xx_hal_tim_ex.c:0:4
	movs	r0, #2
	.loc	7 351 3 is_stmt 1               @ ../src/driver/stm32g4-v120/src/stm32g4xx_hal_tim_ex.c:351:3
	strb.w	r0, [r4, #62]
	.loc	7 352 3                         @ ../src/driver/stm32g4-v120/src/stm32g4xx_hal_tim_ex.c:352:3
	strb.w	r0, [r4, #63]
	.loc	7 353 3                         @ ../src/driver/stm32g4-v120/src/stm32g4xx_hal_tim_ex.c:353:3
	strb.w	r0, [r4, #68]
	.loc	7 354 3                         @ ../src/driver/stm32g4-v120/src/stm32g4xx_hal_tim_ex.c:354:3
	strb.w	r0, [r4, #69]
	.loc	7 358 27                        @ ../src/driver/stm32g4-v120/src/stm32g4xx_hal_tim_ex.c:358:27
	ldr	r0, [r4]
	.loc	7 358 3 is_stmt 0               @ ../src/driver/stm32g4-v120/src/stm32g4xx_hal_tim_ex.c:358:3
	movs	r1, #0
	movs	r2, #1
	bl	TIM_CCxChannelCmd
.Ltmp44:
	.loc	7 361 7 is_stmt 1               @ ../src/driver/stm32g4-v120/src/stm32g4xx_hal_tim_ex.c:361:7
	ldr	r1, [r4]
	movw	r0, #11263
	movt	r0, #16385
	cmp	r1, r0
	bgt	.LBB4_8
.Ltmp45:
@ %bb.5:
	@DEBUG_VALUE: HAL_TIMEx_HallSensor_Start:htim <- $r4
	.loc	7 0 7 is_stmt 0                 @ ../src/driver/stm32g4-v120/src/stm32g4xx_hal_tim_ex.c:0:7
	movw	r0, #2047
	movt	r0, #16384
	.loc	7 361 7                         @ ../src/driver/stm32g4-v120/src/stm32g4xx_hal_tim_ex.c:361:7
	cmp	r1, r0
	bgt	.LBB4_11
.Ltmp46:
@ %bb.6:
	@DEBUG_VALUE: HAL_TIMEx_HallSensor_Start:htim <- $r4
	cmp.w	r1, #1073741824
	beq	.LBB4_18
.Ltmp47:
@ %bb.7:
	@DEBUG_VALUE: HAL_TIMEx_HallSensor_Start:htim <- $r4
	.loc	7 0 7                           @ ../src/driver/stm32g4-v120/src/stm32g4xx_hal_tim_ex.c:0:7
	movw	r0, #1024
	b	.LBB4_13
.Ltmp48:
.LBB4_8:
	@DEBUG_VALUE: HAL_TIMEx_HallSensor_Start:htim <- $r4
	movw	r0, #16383
	movt	r0, #16385
	.loc	7 361 7                         @ ../src/driver/stm32g4-v120/src/stm32g4xx_hal_tim_ex.c:361:7
	cmp	r1, r0
	bgt	.LBB4_14
.Ltmp49:
@ %bb.9:
	@DEBUG_VALUE: HAL_TIMEx_HallSensor_Start:htim <- $r4
	.loc	7 0 7                           @ ../src/driver/stm32g4-v120/src/stm32g4xx_hal_tim_ex.c:0:7
	movw	r0, #11264
	movt	r0, #16385
	.loc	7 361 7                         @ ../src/driver/stm32g4-v120/src/stm32g4xx_hal_tim_ex.c:361:7
	cmp	r1, r0
	beq	.LBB4_18
.Ltmp50:
@ %bb.10:
	@DEBUG_VALUE: HAL_TIMEx_HallSensor_Start:htim <- $r4
	.loc	7 0 7                           @ ../src/driver/stm32g4-v120/src/stm32g4xx_hal_tim_ex.c:0:7
	movw	r0, #13312
	b	.LBB4_16
.Ltmp51:
.LBB4_11:
	@DEBUG_VALUE: HAL_TIMEx_HallSensor_Start:htim <- $r4
	movw	r0, #2048
	movt	r0, #16384
	.loc	7 361 7                         @ ../src/driver/stm32g4-v120/src/stm32g4xx_hal_tim_ex.c:361:7
	cmp	r1, r0
	beq	.LBB4_18
.Ltmp52:
@ %bb.12:
	@DEBUG_VALUE: HAL_TIMEx_HallSensor_Start:htim <- $r4
	.loc	7 0 7                           @ ../src/driver/stm32g4-v120/src/stm32g4xx_hal_tim_ex.c:0:7
	movw	r0, #3072
.Ltmp53:
.LBB4_13:
	@DEBUG_VALUE: HAL_TIMEx_HallSensor_Start:htim <- $r4
	movt	r0, #16384
	b	.LBB4_17
.Ltmp54:
.LBB4_14:
	@DEBUG_VALUE: HAL_TIMEx_HallSensor_Start:htim <- $r4
	movw	r0, #20480
	movt	r0, #16385
	.loc	7 361 7                         @ ../src/driver/stm32g4-v120/src/stm32g4xx_hal_tim_ex.c:361:7
	cmp	r1, r0
	beq	.LBB4_18
.Ltmp55:
@ %bb.15:
	@DEBUG_VALUE: HAL_TIMEx_HallSensor_Start:htim <- $r4
	.loc	7 0 7                           @ ../src/driver/stm32g4-v120/src/stm32g4xx_hal_tim_ex.c:0:7
	movw	r0, #16384
.Ltmp56:
.LBB4_16:
	@DEBUG_VALUE: HAL_TIMEx_HallSensor_Start:htim <- $r4
	movt	r0, #16385
.Ltmp57:
.LBB4_17:
	@DEBUG_VALUE: HAL_TIMEx_HallSensor_Start:htim <- $r4
	.loc	7 361 7                         @ ../src/driver/stm32g4-v120/src/stm32g4xx_hal_tim_ex.c:361:7
	cmp	r1, r0
	bne	.LBB4_20
.Ltmp58:
.LBB4_18:
	@DEBUG_VALUE: HAL_TIMEx_HallSensor_Start:htim <- $r4
	.loc	7 363 31 is_stmt 1              @ ../src/driver/stm32g4-v120/src/stm32g4xx_hal_tim_ex.c:363:31
	ldr	r0, [r1, #8]
	movs	r2, #7
	movt	r2, #1
	.loc	7 363 36 is_stmt 0              @ ../src/driver/stm32g4-v120/src/stm32g4xx_hal_tim_ex.c:363:36
	ands	r2, r0
.Ltmp59:
	@DEBUG_VALUE: HAL_TIMEx_HallSensor_Start:tmpsmcr <- $r2
	.loc	7 364 10 is_stmt 1              @ ../src/driver/stm32g4-v120/src/stm32g4xx_hal_tim_ex.c:364:10
	cmp	r2, #6
	mov.w	r0, #0
	beq	.LBB4_1
.Ltmp60:
@ %bb.19:
	@DEBUG_VALUE: HAL_TIMEx_HallSensor_Start:htim <- $r4
	@DEBUG_VALUE: HAL_TIMEx_HallSensor_Start:tmpsmcr <- $r2
	cmp.w	r2, #65536
.Ltmp61:
	.loc	7 376 1                         @ ../src/driver/stm32g4-v120/src/stm32g4xx_hal_tim_ex.c:376:1
	it	eq
	popeq	{r4, pc}
.Ltmp62:
.LBB4_20:
	.loc	7 0 0 is_stmt 0                 @ ../src/driver/stm32g4-v120/src/stm32g4xx_hal_tim_ex.c:0:0
	ldr	r0, [r1]
	orr	r0, r0, #1
	str	r0, [r1]
	movs	r0, #0
.Ltmp63:
	.loc	7 376 1                         @ ../src/driver/stm32g4-v120/src/stm32g4xx_hal_tim_ex.c:376:1
	pop	{r4, pc}
.Ltmp64:
.Lfunc_end4:
	.size	HAL_TIMEx_HallSensor_Start, .Lfunc_end4-HAL_TIMEx_HallSensor_Start
	.cfi_endproc
	.cantunwind
	.fnend
                                        @ -- End function
	.section	.text.HAL_TIMEx_HallSensor_Stop,"ax",%progbits
	.hidden	HAL_TIMEx_HallSensor_Stop       @ -- Begin function HAL_TIMEx_HallSensor_Stop
	.globl	HAL_TIMEx_HallSensor_Stop
	.p2align	1
	.type	HAL_TIMEx_HallSensor_Stop,%function
	.code	16                              @ @HAL_TIMEx_HallSensor_Stop
	.thumb_func
HAL_TIMEx_HallSensor_Stop:
.Lfunc_begin5:
	.loc	7 384 0 is_stmt 1               @ ../src/driver/stm32g4-v120/src/stm32g4xx_hal_tim_ex.c:384:0
	.fnstart
	.cfi_startproc
@ %bb.0:
	@DEBUG_VALUE: HAL_TIMEx_HallSensor_Stop:htim <- $r0
	.save	{r4, lr}
	push	{r4, lr}
	.cfi_def_cfa_offset 8
	.cfi_offset lr, -4
	.cfi_offset r4, -8
	mov	r4, r0
.Ltmp65:
	@DEBUG_VALUE: HAL_TIMEx_HallSensor_Stop:htim <- $r4
	.loc	7 390 27 prologue_end           @ ../src/driver/stm32g4-v120/src/stm32g4xx_hal_tim_ex.c:390:27
	ldr	r0, [r0]
	.loc	7 390 3 is_stmt 0               @ ../src/driver/stm32g4-v120/src/stm32g4xx_hal_tim_ex.c:390:3
	movs	r1, #0
	movs	r2, #0
	bl	TIM_CCxChannelCmd
.Ltmp66:
	.loc	7 393 3 is_stmt 1               @ ../src/driver/stm32g4-v120/src/stm32g4xx_hal_tim_ex.c:393:3
	ldr	r0, [r4]
	movw	r2, #4369
	ldr	r1, [r0, #32]
.Ltmp67:
	.loc	7 393 3 is_stmt 0               @ ../src/driver/stm32g4-v120/src/stm32g4xx_hal_tim_ex.c:393:3
	tst	r1, r2
	bne	.LBB5_3
.Ltmp68:
@ %bb.1:
	@DEBUG_VALUE: HAL_TIMEx_HallSensor_Stop:htim <- $r4
	.loc	7 393 3                         @ ../src/driver/stm32g4-v120/src/stm32g4xx_hal_tim_ex.c:393:3
	ldr	r1, [r0, #32]
	movw	r2, #17476
.Ltmp69:
	.loc	7 393 3                         @ ../src/driver/stm32g4-v120/src/stm32g4xx_hal_tim_ex.c:393:3
	tst	r1, r2
	bne	.LBB5_3
.Ltmp70:
@ %bb.2:
	@DEBUG_VALUE: HAL_TIMEx_HallSensor_Stop:htim <- $r4
	.loc	7 393 3                         @ ../src/driver/stm32g4-v120/src/stm32g4xx_hal_tim_ex.c:393:3
	ldr	r1, [r0]
	bic	r1, r1, #1
	str	r1, [r0]
.Ltmp71:
.LBB5_3:
	@DEBUG_VALUE: HAL_TIMEx_HallSensor_Stop:htim <- $r4
	.loc	7 0 3                           @ ../src/driver/stm32g4-v120/src/stm32g4xx_hal_tim_ex.c:0:3
	movs	r1, #1
	.loc	7 402 3 is_stmt 1               @ ../src/driver/stm32g4-v120/src/stm32g4xx_hal_tim_ex.c:402:3
	movs	r0, #0
	.loc	7 396 3                         @ ../src/driver/stm32g4-v120/src/stm32g4xx_hal_tim_ex.c:396:3
	strb.w	r1, [r4, #62]
	.loc	7 397 3                         @ ../src/driver/stm32g4-v120/src/stm32g4xx_hal_tim_ex.c:397:3
	strb.w	r1, [r4, #63]
	.loc	7 398 3                         @ ../src/driver/stm32g4-v120/src/stm32g4xx_hal_tim_ex.c:398:3
	strb.w	r1, [r4, #68]
	.loc	7 399 3                         @ ../src/driver/stm32g4-v120/src/stm32g4xx_hal_tim_ex.c:399:3
	strb.w	r1, [r4, #69]
	.loc	7 402 3                         @ ../src/driver/stm32g4-v120/src/stm32g4xx_hal_tim_ex.c:402:3
	pop	{r4, pc}
.Ltmp72:
.Lfunc_end5:
	.size	HAL_TIMEx_HallSensor_Stop, .Lfunc_end5-HAL_TIMEx_HallSensor_Stop
	.cfi_endproc
	.cantunwind
	.fnend
                                        @ -- End function
	.section	.text.HAL_TIMEx_HallSensor_Start_IT,"ax",%progbits
	.hidden	HAL_TIMEx_HallSensor_Start_IT   @ -- Begin function HAL_TIMEx_HallSensor_Start_IT
	.globl	HAL_TIMEx_HallSensor_Start_IT
	.p2align	1
	.type	HAL_TIMEx_HallSensor_Start_IT,%function
	.code	16                              @ @HAL_TIMEx_HallSensor_Start_IT
	.thumb_func
HAL_TIMEx_HallSensor_Start_IT:
.Lfunc_begin6:
	.loc	7 411 0                         @ ../src/driver/stm32g4-v120/src/stm32g4xx_hal_tim_ex.c:411:0
	.fnstart
	.cfi_startproc
@ %bb.0:
	@DEBUG_VALUE: HAL_TIMEx_HallSensor_Start_IT:htim <- $r0
	.save	{r4, lr}
	push	{r4, lr}
	.cfi_def_cfa_offset 8
	.cfi_offset lr, -4
	.cfi_offset r4, -8
	mov	r4, r0
.Ltmp73:
	@DEBUG_VALUE: HAL_TIMEx_HallSensor_Start_IT:htim <- $r4
	.loc	7 413 49 prologue_end           @ ../src/driver/stm32g4-v120/src/stm32g4xx_hal_tim_ex.c:413:49
	ldrb.w	r0, [r0, #62]
.Ltmp74:
	@DEBUG_VALUE: HAL_TIMEx_HallSensor_Start_IT:channel_1_state <- $r0
	.loc	7 414 49                        @ ../src/driver/stm32g4-v120/src/stm32g4xx_hal_tim_ex.c:414:49
	ldrb.w	r3, [r4, #63]
.Ltmp75:
	@DEBUG_VALUE: HAL_TIMEx_HallSensor_Start_IT:channel_2_state <- undef
	.loc	7 415 63                        @ ../src/driver/stm32g4-v120/src/stm32g4xx_hal_tim_ex.c:415:63
	ldrb.w	r2, [r4, #68]
.Ltmp76:
	@DEBUG_VALUE: HAL_TIMEx_HallSensor_Start_IT:complementary_channel_1_state <- undef
	.loc	7 416 63                        @ ../src/driver/stm32g4-v120/src/stm32g4xx_hal_tim_ex.c:416:63
	ldrb.w	r1, [r4, #69]
.Ltmp77:
	.loc	7 423 4                         @ ../src/driver/stm32g4-v120/src/stm32g4xx_hal_tim_ex.c:423:4
	cmp	r0, #1
	mov.w	r0, #1
.Ltmp78:
	@DEBUG_VALUE: HAL_TIMEx_HallSensor_Start_IT:complementary_channel_2_state <- undef
	it	eq
	cmpeq	r3, #1
	beq	.LBB6_2
.Ltmp79:
.LBB6_1:
	@DEBUG_VALUE: HAL_TIMEx_HallSensor_Start_IT:htim <- $r4
	.loc	7 459 1                         @ ../src/driver/stm32g4-v120/src/stm32g4xx_hal_tim_ex.c:459:1
	pop	{r4, pc}
.Ltmp80:
.LBB6_2:
	@DEBUG_VALUE: HAL_TIMEx_HallSensor_Start_IT:htim <- $r4
	.loc	7 423 4                         @ ../src/driver/stm32g4-v120/src/stm32g4xx_hal_tim_ex.c:423:4
	cmp	r2, #1
	bne	.LBB6_1
.Ltmp81:
@ %bb.3:
	@DEBUG_VALUE: HAL_TIMEx_HallSensor_Start_IT:htim <- $r4
	cmp	r1, #1
	bne	.LBB6_1
.Ltmp82:
@ %bb.4:
	@DEBUG_VALUE: HAL_TIMEx_HallSensor_Start_IT:htim <- $r4
	.loc	7 0 4 is_stmt 0                 @ ../src/driver/stm32g4-v120/src/stm32g4xx_hal_tim_ex.c:0:4
	movs	r0, #2
	.loc	7 431 3 is_stmt 1               @ ../src/driver/stm32g4-v120/src/stm32g4xx_hal_tim_ex.c:431:3
	strb.w	r0, [r4, #62]
	.loc	7 432 3                         @ ../src/driver/stm32g4-v120/src/stm32g4xx_hal_tim_ex.c:432:3
	strb.w	r0, [r4, #63]
	.loc	7 433 3                         @ ../src/driver/stm32g4-v120/src/stm32g4xx_hal_tim_ex.c:433:3
	strb.w	r0, [r4, #68]
	.loc	7 434 3                         @ ../src/driver/stm32g4-v120/src/stm32g4xx_hal_tim_ex.c:434:3
	strb.w	r0, [r4, #69]
	.loc	7 437 3                         @ ../src/driver/stm32g4-v120/src/stm32g4xx_hal_tim_ex.c:437:3
	ldr	r0, [r4]
	.loc	7 441 3                         @ ../src/driver/stm32g4-v120/src/stm32g4xx_hal_tim_ex.c:441:3
	movs	r2, #1
	.loc	7 437 3                         @ ../src/driver/stm32g4-v120/src/stm32g4xx_hal_tim_ex.c:437:3
	ldr	r1, [r0, #12]
	orr	r1, r1, #2
	str	r1, [r0, #12]
	.loc	7 441 3                         @ ../src/driver/stm32g4-v120/src/stm32g4xx_hal_tim_ex.c:441:3
	movs	r1, #0
	bl	TIM_CCxChannelCmd
.Ltmp83:
	.loc	7 444 7                         @ ../src/driver/stm32g4-v120/src/stm32g4xx_hal_tim_ex.c:444:7
	ldr	r1, [r4]
	movw	r0, #11263
	movt	r0, #16385
	cmp	r1, r0
	bgt	.LBB6_8
.Ltmp84:
@ %bb.5:
	@DEBUG_VALUE: HAL_TIMEx_HallSensor_Start_IT:htim <- $r4
	.loc	7 0 7 is_stmt 0                 @ ../src/driver/stm32g4-v120/src/stm32g4xx_hal_tim_ex.c:0:7
	movw	r0, #2047
	movt	r0, #16384
	.loc	7 444 7                         @ ../src/driver/stm32g4-v120/src/stm32g4xx_hal_tim_ex.c:444:7
	cmp	r1, r0
	bgt	.LBB6_11
.Ltmp85:
@ %bb.6:
	@DEBUG_VALUE: HAL_TIMEx_HallSensor_Start_IT:htim <- $r4
	cmp.w	r1, #1073741824
	beq	.LBB6_18
.Ltmp86:
@ %bb.7:
	@DEBUG_VALUE: HAL_TIMEx_HallSensor_Start_IT:htim <- $r4
	.loc	7 0 7                           @ ../src/driver/stm32g4-v120/src/stm32g4xx_hal_tim_ex.c:0:7
	movw	r0, #1024
	b	.LBB6_13
.Ltmp87:
.LBB6_8:
	@DEBUG_VALUE: HAL_TIMEx_HallSensor_Start_IT:htim <- $r4
	movw	r0, #16383
	movt	r0, #16385
	.loc	7 444 7                         @ ../src/driver/stm32g4-v120/src/stm32g4xx_hal_tim_ex.c:444:7
	cmp	r1, r0
	bgt	.LBB6_14
.Ltmp88:
@ %bb.9:
	@DEBUG_VALUE: HAL_TIMEx_HallSensor_Start_IT:htim <- $r4
	.loc	7 0 7                           @ ../src/driver/stm32g4-v120/src/stm32g4xx_hal_tim_ex.c:0:7
	movw	r0, #11264
	movt	r0, #16385
	.loc	7 444 7                         @ ../src/driver/stm32g4-v120/src/stm32g4xx_hal_tim_ex.c:444:7
	cmp	r1, r0
	beq	.LBB6_18
.Ltmp89:
@ %bb.10:
	@DEBUG_VALUE: HAL_TIMEx_HallSensor_Start_IT:htim <- $r4
	.loc	7 0 7                           @ ../src/driver/stm32g4-v120/src/stm32g4xx_hal_tim_ex.c:0:7
	movw	r0, #13312
	b	.LBB6_16
.Ltmp90:
.LBB6_11:
	@DEBUG_VALUE: HAL_TIMEx_HallSensor_Start_IT:htim <- $r4
	movw	r0, #2048
	movt	r0, #16384
	.loc	7 444 7                         @ ../src/driver/stm32g4-v120/src/stm32g4xx_hal_tim_ex.c:444:7
	cmp	r1, r0
	beq	.LBB6_18
.Ltmp91:
@ %bb.12:
	@DEBUG_VALUE: HAL_TIMEx_HallSensor_Start_IT:htim <- $r4
	.loc	7 0 7                           @ ../src/driver/stm32g4-v120/src/stm32g4xx_hal_tim_ex.c:0:7
	movw	r0, #3072
.Ltmp92:
.LBB6_13:
	@DEBUG_VALUE: HAL_TIMEx_HallSensor_Start_IT:htim <- $r4
	movt	r0, #16384
	b	.LBB6_17
.Ltmp93:
.LBB6_14:
	@DEBUG_VALUE: HAL_TIMEx_HallSensor_Start_IT:htim <- $r4
	movw	r0, #20480
	movt	r0, #16385
	.loc	7 444 7                         @ ../src/driver/stm32g4-v120/src/stm32g4xx_hal_tim_ex.c:444:7
	cmp	r1, r0
	beq	.LBB6_18
.Ltmp94:
@ %bb.15:
	@DEBUG_VALUE: HAL_TIMEx_HallSensor_Start_IT:htim <- $r4
	.loc	7 0 7                           @ ../src/driver/stm32g4-v120/src/stm32g4xx_hal_tim_ex.c:0:7
	movw	r0, #16384
.Ltmp95:
.LBB6_16:
	@DEBUG_VALUE: HAL_TIMEx_HallSensor_Start_IT:htim <- $r4
	movt	r0, #16385
.Ltmp96:
.LBB6_17:
	@DEBUG_VALUE: HAL_TIMEx_HallSensor_Start_IT:htim <- $r4
	.loc	7 444 7                         @ ../src/driver/stm32g4-v120/src/stm32g4xx_hal_tim_ex.c:444:7
	cmp	r1, r0
	bne	.LBB6_20
.Ltmp97:
.LBB6_18:
	@DEBUG_VALUE: HAL_TIMEx_HallSensor_Start_IT:htim <- $r4
	.loc	7 446 31 is_stmt 1              @ ../src/driver/stm32g4-v120/src/stm32g4xx_hal_tim_ex.c:446:31
	ldr	r0, [r1, #8]
	movs	r2, #7
	movt	r2, #1
	.loc	7 446 36 is_stmt 0              @ ../src/driver/stm32g4-v120/src/stm32g4xx_hal_tim_ex.c:446:36
	ands	r2, r0
.Ltmp98:
	@DEBUG_VALUE: HAL_TIMEx_HallSensor_Start_IT:tmpsmcr <- $r2
	.loc	7 447 10 is_stmt 1              @ ../src/driver/stm32g4-v120/src/stm32g4xx_hal_tim_ex.c:447:10
	cmp	r2, #6
	mov.w	r0, #0
	beq	.LBB6_1
.Ltmp99:
@ %bb.19:
	@DEBUG_VALUE: HAL_TIMEx_HallSensor_Start_IT:htim <- $r4
	@DEBUG_VALUE: HAL_TIMEx_HallSensor_Start_IT:tmpsmcr <- $r2
	cmp.w	r2, #65536
.Ltmp100:
	.loc	7 459 1                         @ ../src/driver/stm32g4-v120/src/stm32g4xx_hal_tim_ex.c:459:1
	it	eq
	popeq	{r4, pc}
.Ltmp101:
.LBB6_20:
	.loc	7 0 0 is_stmt 0                 @ ../src/driver/stm32g4-v120/src/stm32g4xx_hal_tim_ex.c:0:0
	ldr	r0, [r1]
	orr	r0, r0, #1
	str	r0, [r1]
	movs	r0, #0
.Ltmp102:
	.loc	7 459 1                         @ ../src/driver/stm32g4-v120/src/stm32g4xx_hal_tim_ex.c:459:1
	pop	{r4, pc}
.Ltmp103:
.Lfunc_end6:
	.size	HAL_TIMEx_HallSensor_Start_IT, .Lfunc_end6-HAL_TIMEx_HallSensor_Start_IT
	.cfi_endproc
	.cantunwind
	.fnend
                                        @ -- End function
	.section	.text.HAL_TIMEx_HallSensor_Stop_IT,"ax",%progbits
	.hidden	HAL_TIMEx_HallSensor_Stop_IT    @ -- Begin function HAL_TIMEx_HallSensor_Stop_IT
	.globl	HAL_TIMEx_HallSensor_Stop_IT
	.p2align	1
	.type	HAL_TIMEx_HallSensor_Stop_IT,%function
	.code	16                              @ @HAL_TIMEx_HallSensor_Stop_IT
	.thumb_func
HAL_TIMEx_HallSensor_Stop_IT:
.Lfunc_begin7:
	.loc	7 467 0 is_stmt 1               @ ../src/driver/stm32g4-v120/src/stm32g4xx_hal_tim_ex.c:467:0
	.fnstart
	.cfi_startproc
@ %bb.0:
	@DEBUG_VALUE: HAL_TIMEx_HallSensor_Stop_IT:htim <- $r0
	.save	{r4, lr}
	push	{r4, lr}
	.cfi_def_cfa_offset 8
	.cfi_offset lr, -4
	.cfi_offset r4, -8
	mov	r4, r0
.Ltmp104:
	@DEBUG_VALUE: HAL_TIMEx_HallSensor_Stop_IT:htim <- $r4
	.loc	7 473 27 prologue_end           @ ../src/driver/stm32g4-v120/src/stm32g4xx_hal_tim_ex.c:473:27
	ldr	r0, [r0]
	.loc	7 473 3 is_stmt 0               @ ../src/driver/stm32g4-v120/src/stm32g4xx_hal_tim_ex.c:473:3
	movs	r1, #0
	movs	r2, #0
	bl	TIM_CCxChannelCmd
.Ltmp105:
	.loc	7 476 3 is_stmt 1               @ ../src/driver/stm32g4-v120/src/stm32g4xx_hal_tim_ex.c:476:3
	ldr	r0, [r4]
	movw	r2, #4369
	ldr	r1, [r0, #12]
	bic	r1, r1, #2
	str	r1, [r0, #12]
.Ltmp106:
	.loc	7 479 3                         @ ../src/driver/stm32g4-v120/src/stm32g4xx_hal_tim_ex.c:479:3
	ldr	r1, [r0, #32]
.Ltmp107:
	.loc	7 479 3 is_stmt 0               @ ../src/driver/stm32g4-v120/src/stm32g4xx_hal_tim_ex.c:479:3
	tst	r1, r2
	bne	.LBB7_3
.Ltmp108:
@ %bb.1:
	@DEBUG_VALUE: HAL_TIMEx_HallSensor_Stop_IT:htim <- $r4
	.loc	7 479 3                         @ ../src/driver/stm32g4-v120/src/stm32g4xx_hal_tim_ex.c:479:3
	ldr	r1, [r0, #32]
	movw	r2, #17476
.Ltmp109:
	.loc	7 479 3                         @ ../src/driver/stm32g4-v120/src/stm32g4xx_hal_tim_ex.c:479:3
	tst	r1, r2
	bne	.LBB7_3
.Ltmp110:
@ %bb.2:
	@DEBUG_VALUE: HAL_TIMEx_HallSensor_Stop_IT:htim <- $r4
	.loc	7 479 3                         @ ../src/driver/stm32g4-v120/src/stm32g4xx_hal_tim_ex.c:479:3
	ldr	r1, [r0]
	bic	r1, r1, #1
	str	r1, [r0]
.Ltmp111:
.LBB7_3:
	@DEBUG_VALUE: HAL_TIMEx_HallSensor_Stop_IT:htim <- $r4
	.loc	7 0 3                           @ ../src/driver/stm32g4-v120/src/stm32g4xx_hal_tim_ex.c:0:3
	movs	r1, #1
	.loc	7 488 3 is_stmt 1               @ ../src/driver/stm32g4-v120/src/stm32g4xx_hal_tim_ex.c:488:3
	movs	r0, #0
	.loc	7 482 3                         @ ../src/driver/stm32g4-v120/src/stm32g4xx_hal_tim_ex.c:482:3
	strb.w	r1, [r4, #62]
	.loc	7 483 3                         @ ../src/driver/stm32g4-v120/src/stm32g4xx_hal_tim_ex.c:483:3
	strb.w	r1, [r4, #63]
	.loc	7 484 3                         @ ../src/driver/stm32g4-v120/src/stm32g4xx_hal_tim_ex.c:484:3
	strb.w	r1, [r4, #68]
	.loc	7 485 3                         @ ../src/driver/stm32g4-v120/src/stm32g4xx_hal_tim_ex.c:485:3
	strb.w	r1, [r4, #69]
	.loc	7 488 3                         @ ../src/driver/stm32g4-v120/src/stm32g4xx_hal_tim_ex.c:488:3
	pop	{r4, pc}
.Ltmp112:
.Lfunc_end7:
	.size	HAL_TIMEx_HallSensor_Stop_IT, .Lfunc_end7-HAL_TIMEx_HallSensor_Stop_IT
	.cfi_endproc
	.cantunwind
	.fnend
                                        @ -- End function
	.section	.text.HAL_TIMEx_HallSensor_Start_DMA,"ax",%progbits
	.hidden	HAL_TIMEx_HallSensor_Start_DMA  @ -- Begin function HAL_TIMEx_HallSensor_Start_DMA
	.globl	HAL_TIMEx_HallSensor_Start_DMA
	.p2align	1
	.type	HAL_TIMEx_HallSensor_Start_DMA,%function
	.code	16                              @ @HAL_TIMEx_HallSensor_Start_DMA
	.thumb_func
HAL_TIMEx_HallSensor_Start_DMA:
.Lfunc_begin8:
	.loc	7 499 0                         @ ../src/driver/stm32g4-v120/src/stm32g4xx_hal_tim_ex.c:499:0
	.fnstart
	.cfi_startproc
@ %bb.0:
	@DEBUG_VALUE: HAL_TIMEx_HallSensor_Start_DMA:htim <- $r0
	@DEBUG_VALUE: HAL_TIMEx_HallSensor_Start_DMA:pData <- $r1
	@DEBUG_VALUE: HAL_TIMEx_HallSensor_Start_DMA:Length <- $r2
	.save	{r4, r5, r6, r7, lr}
	push	{r4, r5, r6, r7, lr}
	.cfi_def_cfa_offset 20
	.cfi_offset lr, -4
	.cfi_offset r7, -8
	.cfi_offset r6, -12
	.cfi_offset r5, -16
	.cfi_offset r4, -20
	.pad	#4
	sub	sp, #4
	.cfi_def_cfa_offset 24
	mov	r7, r1
.Ltmp113:
	@DEBUG_VALUE: HAL_TIMEx_HallSensor_Start_DMA:pData <- $r7
	.loc	7 501 49 prologue_end           @ ../src/driver/stm32g4-v120/src/stm32g4xx_hal_tim_ex.c:501:49
	ldrb.w	r1, [r0, #62]
.Ltmp114:
	@DEBUG_VALUE: HAL_TIMEx_HallSensor_Start_DMA:channel_1_state <- $r1
	.loc	7 0 49 is_stmt 0                @ ../src/driver/stm32g4-v120/src/stm32g4xx_hal_tim_ex.c:0:49
	mov	r4, r0
	@DEBUG_VALUE: HAL_TIMEx_HallSensor_Start_DMA:Length <- $r2
	@DEBUG_VALUE: HAL_TIMEx_HallSensor_Start_DMA:pData <- $r7
.Ltmp115:
	@DEBUG_VALUE: HAL_TIMEx_HallSensor_Start_DMA:htim <- $r4
	.loc	7 502 63 is_stmt 1              @ ../src/driver/stm32g4-v120/src/stm32g4xx_hal_tim_ex.c:502:63
	ldrb.w	r0, [r0, #68]
.Ltmp116:
	.loc	7 509 5                         @ ../src/driver/stm32g4-v120/src/stm32g4xx_hal_tim_ex.c:509:5
	cmp	r1, #2
	mov.w	r5, #2
.Ltmp117:
	@DEBUG_VALUE: HAL_TIMEx_HallSensor_Start_DMA:complementary_channel_1_state <- undef
	@DEBUG_VALUE: HAL_TIMEx_HallSensor_Start_DMA:Length <- $r2
	@DEBUG_VALUE: HAL_TIMEx_HallSensor_Start_DMA:Length <- $r2
	it	ne
	cmpne	r0, #2
	beq	.LBB8_2
.Ltmp118:
@ %bb.1:
	@DEBUG_VALUE: HAL_TIMEx_HallSensor_Start_DMA:pData <- $r7
	@DEBUG_VALUE: HAL_TIMEx_HallSensor_Start_DMA:htim <- $r4
	@DEBUG_VALUE: HAL_TIMEx_HallSensor_Start_DMA:Length <- $r2
	@DEBUG_VALUE: HAL_TIMEx_HallSensor_Start_DMA:channel_1_state <- $r1
	@DEBUG_VALUE: HAL_TIMEx_HallSensor_Start_DMA:Length <- $r2
	@DEBUG_VALUE: HAL_TIMEx_HallSensor_Start_DMA:Length <- $r2
	@DEBUG_VALUE: HAL_TIMEx_HallSensor_Start_DMA:Length <- $r2
	.loc	7 514 9                         @ ../src/driver/stm32g4-v120/src/stm32g4xx_hal_tim_ex.c:514:9
	cmp	r1, #1
	mov.w	r5, #1
	@DEBUG_VALUE: HAL_TIMEx_HallSensor_Start_DMA:Length <- $r2
	@DEBUG_VALUE: HAL_TIMEx_HallSensor_Start_DMA:Length <- $r2
	@DEBUG_VALUE: HAL_TIMEx_HallSensor_Start_DMA:Length <- $r2
	@DEBUG_VALUE: HAL_TIMEx_HallSensor_Start_DMA:Length <- $r2
	it	eq
	cmpeq	r0, #1
	beq	.LBB8_3
.Ltmp119:
.LBB8_2:
	@DEBUG_VALUE: HAL_TIMEx_HallSensor_Start_DMA:pData <- $r7
	@DEBUG_VALUE: HAL_TIMEx_HallSensor_Start_DMA:htim <- $r4
	.loc	7 565 1                         @ ../src/driver/stm32g4-v120/src/stm32g4xx_hal_tim_ex.c:565:1
	mov	r0, r5
	add	sp, #4
	pop	{r4, r5, r6, r7, pc}
.Ltmp120:
.LBB8_3:
	@DEBUG_VALUE: HAL_TIMEx_HallSensor_Start_DMA:pData <- $r7
	@DEBUG_VALUE: HAL_TIMEx_HallSensor_Start_DMA:htim <- $r4
	@DEBUG_VALUE: HAL_TIMEx_HallSensor_Start_DMA:Length <- $r2
	@DEBUG_VALUE: HAL_TIMEx_HallSensor_Start_DMA:channel_1_state <- $r1
	.loc	7 0 1 is_stmt 0                 @ ../src/driver/stm32g4-v120/src/stm32g4xx_hal_tim_ex.c:0:1
	mov	r6, r2
.Ltmp121:
	@DEBUG_VALUE: HAL_TIMEx_HallSensor_Start_DMA:Length <- $r6
	@DEBUG_VALUE: HAL_TIMEx_HallSensor_Start_DMA:Length <- $r6
	@DEBUG_VALUE: HAL_TIMEx_HallSensor_Start_DMA:Length <- $r6
	@DEBUG_VALUE: HAL_TIMEx_HallSensor_Start_DMA:Length <- $r6
	@DEBUG_VALUE: HAL_TIMEx_HallSensor_Start_DMA:Length <- $r6
	@DEBUG_VALUE: HAL_TIMEx_HallSensor_Start_DMA:Length <- $r6
	.loc	7 516 25 is_stmt 1              @ ../src/driver/stm32g4-v120/src/stm32g4xx_hal_tim_ex.c:516:25
	cbnz	r7, .LBB8_6
.Ltmp122:
@ %bb.4:
	@DEBUG_VALUE: HAL_TIMEx_HallSensor_Start_DMA:pData <- $r7
	@DEBUG_VALUE: HAL_TIMEx_HallSensor_Start_DMA:Length <- $r6
	@DEBUG_VALUE: HAL_TIMEx_HallSensor_Start_DMA:htim <- $r4
	@DEBUG_VALUE: HAL_TIMEx_HallSensor_Start_DMA:channel_1_state <- $r1
	cbz	r6, .LBB8_6
.Ltmp123:
@ %bb.5:
	@DEBUG_VALUE: HAL_TIMEx_HallSensor_Start_DMA:pData <- $r7
	@DEBUG_VALUE: HAL_TIMEx_HallSensor_Start_DMA:Length <- $r6
	@DEBUG_VALUE: HAL_TIMEx_HallSensor_Start_DMA:htim <- $r4
	@DEBUG_VALUE: HAL_TIMEx_HallSensor_Start_DMA:channel_1_state <- $r1
	.loc	7 0 25 is_stmt 0                @ ../src/driver/stm32g4-v120/src/stm32g4xx_hal_tim_ex.c:0:25
	movs	r5, #1
	b	.LBB8_2
.Ltmp124:
.LBB8_6:
	@DEBUG_VALUE: HAL_TIMEx_HallSensor_Start_DMA:pData <- $r7
	@DEBUG_VALUE: HAL_TIMEx_HallSensor_Start_DMA:Length <- $r6
	@DEBUG_VALUE: HAL_TIMEx_HallSensor_Start_DMA:htim <- $r4
	@DEBUG_VALUE: HAL_TIMEx_HallSensor_Start_DMA:channel_1_state <- $r1
	@DEBUG_VALUE: HAL_TIMEx_HallSensor_Start_DMA:Length <- $r6
	movs	r0, #2
.Ltmp125:
	.loc	7 522 7 is_stmt 1               @ ../src/driver/stm32g4-v120/src/stm32g4xx_hal_tim_ex.c:522:7
	strb.w	r0, [r4, #62]
	.loc	7 523 7                         @ ../src/driver/stm32g4-v120/src/stm32g4xx_hal_tim_ex.c:523:7
	strb.w	r0, [r4, #68]
.Ltmp126:
	.loc	7 533 27                        @ ../src/driver/stm32g4-v120/src/stm32g4xx_hal_tim_ex.c:533:27
	ldr	r0, [r4]
	.loc	7 533 3 is_stmt 0               @ ../src/driver/stm32g4-v120/src/stm32g4xx_hal_tim_ex.c:533:3
	movs	r1, #0
.Ltmp127:
	movs	r2, #1
	movs	r5, #1
	bl	TIM_CCxChannelCmd
.Ltmp128:
	.loc	7 536 3 is_stmt 1               @ ../src/driver/stm32g4-v120/src/stm32g4xx_hal_tim_ex.c:536:3
	ldr	r0, [r4, #36]
	.loc	7 536 48 is_stmt 0              @ ../src/driver/stm32g4-v120/src/stm32g4xx_hal_tim_ex.c:536:48
	movw	r2, :lower16:TIM_DMACaptureCplt
	movt	r2, :upper16:TIM_DMACaptureCplt
	str	r2, [r0, #44]
	.loc	7 537 3 is_stmt 1               @ ../src/driver/stm32g4-v120/src/stm32g4xx_hal_tim_ex.c:537:3
	ldr	r0, [r4, #36]
	.loc	7 537 52 is_stmt 0              @ ../src/driver/stm32g4-v120/src/stm32g4xx_hal_tim_ex.c:537:52
	movw	r2, :lower16:TIM_DMACaptureHalfCplt
	movt	r2, :upper16:TIM_DMACaptureHalfCplt
	str	r2, [r0, #48]
	.loc	7 539 3 is_stmt 1               @ ../src/driver/stm32g4-v120/src/stm32g4xx_hal_tim_ex.c:539:3
	ldr	r0, [r4, #36]
	.loc	7 539 49 is_stmt 0              @ ../src/driver/stm32g4-v120/src/stm32g4xx_hal_tim_ex.c:539:49
	movw	r2, :lower16:TIM_DMAError
	movt	r2, :upper16:TIM_DMAError
.Ltmp129:
	.loc	7 542 69 is_stmt 1              @ ../src/driver/stm32g4-v120/src/stm32g4xx_hal_tim_ex.c:542:69
	ldr	r1, [r4]
.Ltmp130:
	.loc	7 539 49                        @ ../src/driver/stm32g4-v120/src/stm32g4xx_hal_tim_ex.c:539:49
	str	r2, [r0, #52]
.Ltmp131:
	.loc	7 542 24                        @ ../src/driver/stm32g4-v120/src/stm32g4xx_hal_tim_ex.c:542:24
	ldr	r0, [r4, #36]
	.loc	7 542 79 is_stmt 0              @ ../src/driver/stm32g4-v120/src/stm32g4xx_hal_tim_ex.c:542:79
	adds	r1, #52
	.loc	7 542 7                         @ ../src/driver/stm32g4-v120/src/stm32g4xx_hal_tim_ex.c:542:7
	mov	r2, r7
	mov	r3, r6
	bl	HAL_DMA_Start_IT
.Ltmp132:
	.loc	7 542 7                         @ ../src/driver/stm32g4-v120/src/stm32g4xx_hal_tim_ex.c:542:7
	cmp	r0, #0
	bne	.LBB8_2
.Ltmp133:
@ %bb.7:
	@DEBUG_VALUE: HAL_TIMEx_HallSensor_Start_DMA:pData <- $r7
	@DEBUG_VALUE: HAL_TIMEx_HallSensor_Start_DMA:Length <- $r6
	@DEBUG_VALUE: HAL_TIMEx_HallSensor_Start_DMA:htim <- $r4
	.loc	7 547 3 is_stmt 1               @ ../src/driver/stm32g4-v120/src/stm32g4xx_hal_tim_ex.c:547:3
	ldr	r0, [r4]
	movw	r2, #11263
	ldr	r1, [r0, #12]
	movt	r2, #16385
	orr	r1, r1, #512
.Ltmp134:
	.loc	7 550 7                         @ ../src/driver/stm32g4-v120/src/stm32g4xx_hal_tim_ex.c:550:7
	cmp	r0, r2
.Ltmp135:
	.loc	7 547 3                         @ ../src/driver/stm32g4-v120/src/stm32g4xx_hal_tim_ex.c:547:3
	str	r1, [r0, #12]
.Ltmp136:
	.loc	7 550 7                         @ ../src/driver/stm32g4-v120/src/stm32g4xx_hal_tim_ex.c:550:7
	bgt	.LBB8_11
.Ltmp137:
@ %bb.8:
	@DEBUG_VALUE: HAL_TIMEx_HallSensor_Start_DMA:pData <- $r7
	@DEBUG_VALUE: HAL_TIMEx_HallSensor_Start_DMA:Length <- $r6
	@DEBUG_VALUE: HAL_TIMEx_HallSensor_Start_DMA:htim <- $r4
	.loc	7 0 7 is_stmt 0                 @ ../src/driver/stm32g4-v120/src/stm32g4xx_hal_tim_ex.c:0:7
	movw	r1, #2047
	movt	r1, #16384
	.loc	7 550 7                         @ ../src/driver/stm32g4-v120/src/stm32g4xx_hal_tim_ex.c:550:7
	cmp	r0, r1
	bgt	.LBB8_14
.Ltmp138:
@ %bb.9:
	@DEBUG_VALUE: HAL_TIMEx_HallSensor_Start_DMA:pData <- $r7
	@DEBUG_VALUE: HAL_TIMEx_HallSensor_Start_DMA:Length <- $r6
	@DEBUG_VALUE: HAL_TIMEx_HallSensor_Start_DMA:htim <- $r4
	cmp.w	r0, #1073741824
	beq	.LBB8_21
.Ltmp139:
@ %bb.10:
	@DEBUG_VALUE: HAL_TIMEx_HallSensor_Start_DMA:pData <- $r7
	@DEBUG_VALUE: HAL_TIMEx_HallSensor_Start_DMA:Length <- $r6
	@DEBUG_VALUE: HAL_TIMEx_HallSensor_Start_DMA:htim <- $r4
	.loc	7 0 7                           @ ../src/driver/stm32g4-v120/src/stm32g4xx_hal_tim_ex.c:0:7
	movw	r1, #1024
	b	.LBB8_16
.Ltmp140:
.LBB8_11:
	@DEBUG_VALUE: HAL_TIMEx_HallSensor_Start_DMA:pData <- $r7
	@DEBUG_VALUE: HAL_TIMEx_HallSensor_Start_DMA:Length <- $r6
	@DEBUG_VALUE: HAL_TIMEx_HallSensor_Start_DMA:htim <- $r4
	movw	r1, #16383
	movt	r1, #16385
	.loc	7 550 7                         @ ../src/driver/stm32g4-v120/src/stm32g4xx_hal_tim_ex.c:550:7
	cmp	r0, r1
	bgt	.LBB8_17
.Ltmp141:
@ %bb.12:
	@DEBUG_VALUE: HAL_TIMEx_HallSensor_Start_DMA:pData <- $r7
	@DEBUG_VALUE: HAL_TIMEx_HallSensor_Start_DMA:Length <- $r6
	@DEBUG_VALUE: HAL_TIMEx_HallSensor_Start_DMA:htim <- $r4
	.loc	7 0 7                           @ ../src/driver/stm32g4-v120/src/stm32g4xx_hal_tim_ex.c:0:7
	movw	r1, #11264
	movt	r1, #16385
	.loc	7 550 7                         @ ../src/driver/stm32g4-v120/src/stm32g4xx_hal_tim_ex.c:550:7
	cmp	r0, r1
	beq	.LBB8_21
.Ltmp142:
@ %bb.13:
	@DEBUG_VALUE: HAL_TIMEx_HallSensor_Start_DMA:pData <- $r7
	@DEBUG_VALUE: HAL_TIMEx_HallSensor_Start_DMA:Length <- $r6
	@DEBUG_VALUE: HAL_TIMEx_HallSensor_Start_DMA:htim <- $r4
	.loc	7 0 7                           @ ../src/driver/stm32g4-v120/src/stm32g4xx_hal_tim_ex.c:0:7
	movw	r1, #13312
	b	.LBB8_19
.Ltmp143:
.LBB8_14:
	@DEBUG_VALUE: HAL_TIMEx_HallSensor_Start_DMA:pData <- $r7
	@DEBUG_VALUE: HAL_TIMEx_HallSensor_Start_DMA:Length <- $r6
	@DEBUG_VALUE: HAL_TIMEx_HallSensor_Start_DMA:htim <- $r4
	movw	r1, #2048
	movt	r1, #16384
	.loc	7 550 7                         @ ../src/driver/stm32g4-v120/src/stm32g4xx_hal_tim_ex.c:550:7
	cmp	r0, r1
	beq	.LBB8_21
.Ltmp144:
@ %bb.15:
	@DEBUG_VALUE: HAL_TIMEx_HallSensor_Start_DMA:pData <- $r7
	@DEBUG_VALUE: HAL_TIMEx_HallSensor_Start_DMA:Length <- $r6
	@DEBUG_VALUE: HAL_TIMEx_HallSensor_Start_DMA:htim <- $r4
	.loc	7 0 7                           @ ../src/driver/stm32g4-v120/src/stm32g4xx_hal_tim_ex.c:0:7
	movw	r1, #3072
.Ltmp145:
.LBB8_16:
	@DEBUG_VALUE: HAL_TIMEx_HallSensor_Start_DMA:pData <- $r7
	@DEBUG_VALUE: HAL_TIMEx_HallSensor_Start_DMA:Length <- $r6
	@DEBUG_VALUE: HAL_TIMEx_HallSensor_Start_DMA:htim <- $r4
	movt	r1, #16384
	b	.LBB8_20
.Ltmp146:
.LBB8_17:
	@DEBUG_VALUE: HAL_TIMEx_HallSensor_Start_DMA:pData <- $r7
	@DEBUG_VALUE: HAL_TIMEx_HallSensor_Start_DMA:Length <- $r6
	@DEBUG_VALUE: HAL_TIMEx_HallSensor_Start_DMA:htim <- $r4
	movw	r1, #20480
	movt	r1, #16385
	.loc	7 550 7                         @ ../src/driver/stm32g4-v120/src/stm32g4xx_hal_tim_ex.c:550:7
	cmp	r0, r1
	beq	.LBB8_21
.Ltmp147:
@ %bb.18:
	@DEBUG_VALUE: HAL_TIMEx_HallSensor_Start_DMA:pData <- $r7
	@DEBUG_VALUE: HAL_TIMEx_HallSensor_Start_DMA:Length <- $r6
	@DEBUG_VALUE: HAL_TIMEx_HallSensor_Start_DMA:htim <- $r4
	.loc	7 0 7                           @ ../src/driver/stm32g4-v120/src/stm32g4xx_hal_tim_ex.c:0:7
	movw	r1, #16384
.Ltmp148:
.LBB8_19:
	@DEBUG_VALUE: HAL_TIMEx_HallSensor_Start_DMA:pData <- $r7
	@DEBUG_VALUE: HAL_TIMEx_HallSensor_Start_DMA:Length <- $r6
	@DEBUG_VALUE: HAL_TIMEx_HallSensor_Start_DMA:htim <- $r4
	movt	r1, #16385
.Ltmp149:
.LBB8_20:
	@DEBUG_VALUE: HAL_TIMEx_HallSensor_Start_DMA:pData <- $r7
	@DEBUG_VALUE: HAL_TIMEx_HallSensor_Start_DMA:Length <- $r6
	@DEBUG_VALUE: HAL_TIMEx_HallSensor_Start_DMA:htim <- $r4
	.loc	7 550 7                         @ ../src/driver/stm32g4-v120/src/stm32g4xx_hal_tim_ex.c:550:7
	cmp	r0, r1
	bne	.LBB8_23
.Ltmp150:
.LBB8_21:
	@DEBUG_VALUE: HAL_TIMEx_HallSensor_Start_DMA:pData <- $r7
	@DEBUG_VALUE: HAL_TIMEx_HallSensor_Start_DMA:Length <- $r6
	@DEBUG_VALUE: HAL_TIMEx_HallSensor_Start_DMA:htim <- $r4
	.loc	7 552 31 is_stmt 1              @ ../src/driver/stm32g4-v120/src/stm32g4xx_hal_tim_ex.c:552:31
	ldr	r1, [r0, #8]
	movs	r2, #7
	movt	r2, #1
	.loc	7 552 36 is_stmt 0              @ ../src/driver/stm32g4-v120/src/stm32g4xx_hal_tim_ex.c:552:36
	ands	r1, r2
.Ltmp151:
	@DEBUG_VALUE: HAL_TIMEx_HallSensor_Start_DMA:tmpsmcr <- $r1
	.loc	7 553 10 is_stmt 1              @ ../src/driver/stm32g4-v120/src/stm32g4xx_hal_tim_ex.c:553:10
	cmp	r1, #6
	mov.w	r5, #0
	beq.w	.LBB8_2
.Ltmp152:
@ %bb.22:
	@DEBUG_VALUE: HAL_TIMEx_HallSensor_Start_DMA:pData <- $r7
	@DEBUG_VALUE: HAL_TIMEx_HallSensor_Start_DMA:Length <- $r6
	@DEBUG_VALUE: HAL_TIMEx_HallSensor_Start_DMA:htim <- $r4
	@DEBUG_VALUE: HAL_TIMEx_HallSensor_Start_DMA:tmpsmcr <- $r1
	cmp.w	r1, #65536
	beq.w	.LBB8_2
.Ltmp153:
.LBB8_23:
	@DEBUG_VALUE: HAL_TIMEx_HallSensor_Start_DMA:pData <- $r7
	@DEBUG_VALUE: HAL_TIMEx_HallSensor_Start_DMA:Length <- $r6
	@DEBUG_VALUE: HAL_TIMEx_HallSensor_Start_DMA:htim <- $r4
	.loc	7 0 0 is_stmt 0                 @ ../src/driver/stm32g4-v120/src/stm32g4xx_hal_tim_ex.c:0:0
	ldr	r1, [r0]
	movs	r5, #0
	orr	r1, r1, #1
	str	r1, [r0]
	b	.LBB8_2
.Ltmp154:
.Lfunc_end8:
	.size	HAL_TIMEx_HallSensor_Start_DMA, .Lfunc_end8-HAL_TIMEx_HallSensor_Start_DMA
	.cfi_endproc
	.cantunwind
	.fnend
                                        @ -- End function
	.section	.text.HAL_TIMEx_HallSensor_Stop_DMA,"ax",%progbits
	.hidden	HAL_TIMEx_HallSensor_Stop_DMA   @ -- Begin function HAL_TIMEx_HallSensor_Stop_DMA
	.globl	HAL_TIMEx_HallSensor_Stop_DMA
	.p2align	1
	.type	HAL_TIMEx_HallSensor_Stop_DMA,%function
	.code	16                              @ @HAL_TIMEx_HallSensor_Stop_DMA
	.thumb_func
HAL_TIMEx_HallSensor_Stop_DMA:
.Lfunc_begin9:
	.loc	7 573 0 is_stmt 1               @ ../src/driver/stm32g4-v120/src/stm32g4xx_hal_tim_ex.c:573:0
	.fnstart
	.cfi_startproc
@ %bb.0:
	@DEBUG_VALUE: HAL_TIMEx_HallSensor_Stop_DMA:htim <- $r0
	.save	{r4, lr}
	push	{r4, lr}
	.cfi_def_cfa_offset 8
	.cfi_offset lr, -4
	.cfi_offset r4, -8
	mov	r4, r0
.Ltmp155:
	@DEBUG_VALUE: HAL_TIMEx_HallSensor_Stop_DMA:htim <- $r4
	.loc	7 579 27 prologue_end           @ ../src/driver/stm32g4-v120/src/stm32g4xx_hal_tim_ex.c:579:27
	ldr	r0, [r0]
	.loc	7 579 3 is_stmt 0               @ ../src/driver/stm32g4-v120/src/stm32g4xx_hal_tim_ex.c:579:3
	movs	r1, #0
	movs	r2, #0
	bl	TIM_CCxChannelCmd
.Ltmp156:
	.loc	7 583 3 is_stmt 1               @ ../src/driver/stm32g4-v120/src/stm32g4xx_hal_tim_ex.c:583:3
	ldr	r1, [r4]
	.loc	7 585 26                        @ ../src/driver/stm32g4-v120/src/stm32g4xx_hal_tim_ex.c:585:26
	ldr	r0, [r4, #36]
	.loc	7 583 3                         @ ../src/driver/stm32g4-v120/src/stm32g4xx_hal_tim_ex.c:583:3
	ldr	r2, [r1, #12]
	bic	r2, r2, #512
	str	r2, [r1, #12]
	.loc	7 585 9                         @ ../src/driver/stm32g4-v120/src/stm32g4xx_hal_tim_ex.c:585:9
	bl	HAL_DMA_Abort_IT
.Ltmp157:
	.loc	7 588 3                         @ ../src/driver/stm32g4-v120/src/stm32g4xx_hal_tim_ex.c:588:3
	ldr	r0, [r4]
	movw	r2, #4369
	ldr	r1, [r0, #32]
.Ltmp158:
	.loc	7 588 3 is_stmt 0               @ ../src/driver/stm32g4-v120/src/stm32g4xx_hal_tim_ex.c:588:3
	tst	r1, r2
	bne	.LBB9_3
.Ltmp159:
@ %bb.1:
	@DEBUG_VALUE: HAL_TIMEx_HallSensor_Stop_DMA:htim <- $r4
	.loc	7 588 3                         @ ../src/driver/stm32g4-v120/src/stm32g4xx_hal_tim_ex.c:588:3
	ldr	r1, [r0, #32]
	movw	r2, #17476
.Ltmp160:
	.loc	7 588 3                         @ ../src/driver/stm32g4-v120/src/stm32g4xx_hal_tim_ex.c:588:3
	tst	r1, r2
	bne	.LBB9_3
.Ltmp161:
@ %bb.2:
	@DEBUG_VALUE: HAL_TIMEx_HallSensor_Stop_DMA:htim <- $r4
	.loc	7 588 3                         @ ../src/driver/stm32g4-v120/src/stm32g4xx_hal_tim_ex.c:588:3
	ldr	r1, [r0]
	bic	r1, r1, #1
	str	r1, [r0]
.Ltmp162:
.LBB9_3:
	@DEBUG_VALUE: HAL_TIMEx_HallSensor_Stop_DMA:htim <- $r4
	.loc	7 0 3                           @ ../src/driver/stm32g4-v120/src/stm32g4xx_hal_tim_ex.c:0:3
	movs	r1, #1
	.loc	7 595 3 is_stmt 1               @ ../src/driver/stm32g4-v120/src/stm32g4xx_hal_tim_ex.c:595:3
	movs	r0, #0
	.loc	7 591 3                         @ ../src/driver/stm32g4-v120/src/stm32g4xx_hal_tim_ex.c:591:3
	strb.w	r1, [r4, #62]
	.loc	7 592 3                         @ ../src/driver/stm32g4-v120/src/stm32g4xx_hal_tim_ex.c:592:3
	strb.w	r1, [r4, #68]
	.loc	7 595 3                         @ ../src/driver/stm32g4-v120/src/stm32g4xx_hal_tim_ex.c:595:3
	pop	{r4, pc}
.Ltmp163:
.Lfunc_end9:
	.size	HAL_TIMEx_HallSensor_Stop_DMA, .Lfunc_end9-HAL_TIMEx_HallSensor_Stop_DMA
	.cfi_endproc
	.cantunwind
	.fnend
                                        @ -- End function
	.section	.text.HAL_TIMEx_OCN_Start,"ax",%progbits
	.hidden	HAL_TIMEx_OCN_Start             @ -- Begin function HAL_TIMEx_OCN_Start
	.globl	HAL_TIMEx_OCN_Start
	.p2align	1
	.type	HAL_TIMEx_OCN_Start,%function
	.code	16                              @ @HAL_TIMEx_OCN_Start
	.thumb_func
HAL_TIMEx_OCN_Start:
.Lfunc_begin10:
	.loc	7 635 0                         @ ../src/driver/stm32g4-v120/src/stm32g4xx_hal_tim_ex.c:635:0
	.fnstart
	.cfi_startproc
@ %bb.0:
	@DEBUG_VALUE: HAL_TIMEx_OCN_Start:htim <- $r0
	@DEBUG_VALUE: HAL_TIMEx_OCN_Start:Channel <- $r1
	@DEBUG_VALUE: HAL_TIMEx_OCN_Start:Channel <- $r1
	@DEBUG_VALUE: HAL_TIMEx_OCN_Start:htim <- $r0
	.loc	7 642 7 prologue_end            @ ../src/driver/stm32g4-v120/src/stm32g4xx_hal_tim_ex.c:642:7
	cbz	r1, .LBB10_3
.Ltmp164:
@ %bb.1:
	@DEBUG_VALUE: HAL_TIMEx_OCN_Start:Channel <- $r1
	@DEBUG_VALUE: HAL_TIMEx_OCN_Start:htim <- $r0
	cmp	r1, #8
	beq	.LBB10_5
.Ltmp165:
@ %bb.2:
	@DEBUG_VALUE: HAL_TIMEx_OCN_Start:Channel <- $r1
	@DEBUG_VALUE: HAL_TIMEx_OCN_Start:htim <- $r0
	cmp	r1, #4
	ite	ne
	addne.w	r2, r0, #71
	addeq.w	r2, r0, #69
	b	.LBB10_6
.Ltmp166:
.LBB10_3:
	@DEBUG_VALUE: HAL_TIMEx_OCN_Start:Channel <- $r1
	@DEBUG_VALUE: HAL_TIMEx_OCN_Start:htim <- $r0
	ldrb.w	r2, [r0, #68]
.Ltmp167:
	.loc	7 642 7 is_stmt 0               @ ../src/driver/stm32g4-v120/src/stm32g4xx_hal_tim_ex.c:642:7
	cmp	r2, #1
	bne	.LBB10_9
.Ltmp168:
@ %bb.4:
	@DEBUG_VALUE: HAL_TIMEx_OCN_Start:Channel <- $r1
	@DEBUG_VALUE: HAL_TIMEx_OCN_Start:htim <- $r0
	.loc	7 0 7                           @ ../src/driver/stm32g4-v120/src/stm32g4xx_hal_tim_ex.c:0:7
	movs	r2, #2
	.loc	7 648 3 is_stmt 1               @ ../src/driver/stm32g4-v120/src/stm32g4xx_hal_tim_ex.c:648:3
	strb.w	r2, [r0, #68]
	b	.LBB10_11
.Ltmp169:
.LBB10_5:
	@DEBUG_VALUE: HAL_TIMEx_OCN_Start:Channel <- $r1
	@DEBUG_VALUE: HAL_TIMEx_OCN_Start:htim <- $r0
	.loc	7 642 7                         @ ../src/driver/stm32g4-v120/src/stm32g4xx_hal_tim_ex.c:642:7
	add.w	r2, r0, #70
.Ltmp170:
.LBB10_6:
	@DEBUG_VALUE: HAL_TIMEx_OCN_Start:Channel <- $r1
	@DEBUG_VALUE: HAL_TIMEx_OCN_Start:htim <- $r0
	ldrb	r2, [r2]
.Ltmp171:
	.loc	7 642 7 is_stmt 0               @ ../src/driver/stm32g4-v120/src/stm32g4xx_hal_tim_ex.c:642:7
	cmp	r2, #1
	bne	.LBB10_9
.Ltmp172:
@ %bb.7:
	@DEBUG_VALUE: HAL_TIMEx_OCN_Start:Channel <- $r1
	@DEBUG_VALUE: HAL_TIMEx_OCN_Start:htim <- $r0
	.loc	7 0 7                           @ ../src/driver/stm32g4-v120/src/stm32g4xx_hal_tim_ex.c:0:7
	movs	r2, #2
	.loc	7 648 3 is_stmt 1               @ ../src/driver/stm32g4-v120/src/stm32g4xx_hal_tim_ex.c:648:3
	cmp	r1, #8
	beq	.LBB10_10
.Ltmp173:
@ %bb.8:
	@DEBUG_VALUE: HAL_TIMEx_OCN_Start:Channel <- $r1
	@DEBUG_VALUE: HAL_TIMEx_OCN_Start:htim <- $r0
	cmp	r1, #4
	ite	ne
	strbne.w	r2, [r0, #71]
	strbeq.w	r2, [r0, #69]
	b	.LBB10_11
.Ltmp174:
.LBB10_9:
	@DEBUG_VALUE: HAL_TIMEx_OCN_Start:Channel <- $r1
	@DEBUG_VALUE: HAL_TIMEx_OCN_Start:htim <- $r0
	.loc	7 0 3 is_stmt 0                 @ ../src/driver/stm32g4-v120/src/stm32g4xx_hal_tim_ex.c:0:3
	movs	r0, #1
.Ltmp175:
	@DEBUG_VALUE: HAL_TIMEx_OCN_Start:htim <- [DW_OP_LLVM_entry_value 1] $r0
	.loc	7 672 1 is_stmt 1               @ ../src/driver/stm32g4-v120/src/stm32g4xx_hal_tim_ex.c:672:1
	bx	lr
.Ltmp176:
.LBB10_10:
	@DEBUG_VALUE: HAL_TIMEx_OCN_Start:Channel <- $r1
	@DEBUG_VALUE: HAL_TIMEx_OCN_Start:htim <- $r0
	.loc	7 648 3                         @ ../src/driver/stm32g4-v120/src/stm32g4xx_hal_tim_ex.c:648:3
	strb.w	r2, [r0, #70]
.Ltmp177:
.LBB10_11:
	@DEBUG_VALUE: HAL_TIMEx_OCN_Start:Channel <- $r1
	@DEBUG_VALUE: HAL_TIMEx_OCN_Start:htim <- $r0
	.loc	7 651 28                        @ ../src/driver/stm32g4-v120/src/stm32g4xx_hal_tim_ex.c:651:28
	ldr	r2, [r0]
.Ltmp178:
	@DEBUG_VALUE: TIM_CCxNChannelCmd:ChannelNState <- 4
	@DEBUG_VALUE: TIM_CCxNChannelCmd:Channel <- $r1
	@DEBUG_VALUE: TIM_CCxNChannelCmd:TIMx <- $r2
	.loc	7 3578 36                       @ ../src/driver/stm32g4-v120/src/stm32g4xx_hal_tim_ex.c:3578:36
	and	r0, r1, #31
.Ltmp179:
	@DEBUG_VALUE: HAL_TIMEx_OCN_Start:htim <- [DW_OP_LLVM_entry_value 1] $r0
	.loc	7 0 36 is_stmt 0                @ ../src/driver/stm32g4-v120/src/stm32g4xx_hal_tim_ex.c:0:36
	movs	r1, #4
.Ltmp180:
	@DEBUG_VALUE: HAL_TIMEx_OCN_Start:Channel <- [DW_OP_LLVM_entry_value 1] $r1
	.loc	7 3581 14 is_stmt 1             @ ../src/driver/stm32g4-v120/src/stm32g4xx_hal_tim_ex.c:3581:14
	ldr	r3, [r2, #32]
	.loc	7 3578 24                       @ ../src/driver/stm32g4-v120/src/stm32g4xx_hal_tim_ex.c:3578:24
	lsl.w	r0, r1, r0
.Ltmp181:
	@DEBUG_VALUE: TIM_CCxNChannelCmd:tmp <- $r0
	.loc	7 3581 14                       @ ../src/driver/stm32g4-v120/src/stm32g4xx_hal_tim_ex.c:3581:14
	bic.w	r1, r3, r0
	str	r1, [r2, #32]
	.loc	7 3584 14                       @ ../src/driver/stm32g4-v120/src/stm32g4xx_hal_tim_ex.c:3584:14
	ldr	r1, [r2, #32]
	orrs	r0, r1
.Ltmp182:
	str	r0, [r2, #32]
.Ltmp183:
	.loc	7 654 3                         @ ../src/driver/stm32g4-v120/src/stm32g4xx_hal_tim_ex.c:654:3
	ldr	r0, [r2, #68]
	movw	r1, #11263
	movt	r1, #16385
	orr	r0, r0, #32768
.Ltmp184:
	.loc	7 657 7                         @ ../src/driver/stm32g4-v120/src/stm32g4xx_hal_tim_ex.c:657:7
	cmp	r2, r1
.Ltmp185:
	.loc	7 654 3                         @ ../src/driver/stm32g4-v120/src/stm32g4xx_hal_tim_ex.c:654:3
	str	r0, [r2, #68]
.Ltmp186:
	.loc	7 657 7                         @ ../src/driver/stm32g4-v120/src/stm32g4xx_hal_tim_ex.c:657:7
	bgt	.LBB10_15
.Ltmp187:
@ %bb.12:
	@DEBUG_VALUE: HAL_TIMEx_OCN_Start:Channel <- [DW_OP_LLVM_entry_value 1] $r1
	@DEBUG_VALUE: HAL_TIMEx_OCN_Start:htim <- [DW_OP_LLVM_entry_value 1] $r0
	.loc	7 0 7 is_stmt 0                 @ ../src/driver/stm32g4-v120/src/stm32g4xx_hal_tim_ex.c:0:7
	movw	r0, #2047
	movt	r0, #16384
	.loc	7 657 7                         @ ../src/driver/stm32g4-v120/src/stm32g4xx_hal_tim_ex.c:657:7
	cmp	r2, r0
	bgt	.LBB10_18
.Ltmp188:
@ %bb.13:
	@DEBUG_VALUE: HAL_TIMEx_OCN_Start:Channel <- [DW_OP_LLVM_entry_value 1] $r1
	@DEBUG_VALUE: HAL_TIMEx_OCN_Start:htim <- [DW_OP_LLVM_entry_value 1] $r0
	cmp.w	r2, #1073741824
	beq	.LBB10_25
.Ltmp189:
@ %bb.14:
	@DEBUG_VALUE: HAL_TIMEx_OCN_Start:Channel <- [DW_OP_LLVM_entry_value 1] $r1
	@DEBUG_VALUE: HAL_TIMEx_OCN_Start:htim <- [DW_OP_LLVM_entry_value 1] $r0
	.loc	7 0 7                           @ ../src/driver/stm32g4-v120/src/stm32g4xx_hal_tim_ex.c:0:7
	movw	r0, #1024
	b	.LBB10_20
.Ltmp190:
.LBB10_15:
	@DEBUG_VALUE: HAL_TIMEx_OCN_Start:Channel <- [DW_OP_LLVM_entry_value 1] $r1
	@DEBUG_VALUE: HAL_TIMEx_OCN_Start:htim <- [DW_OP_LLVM_entry_value 1] $r0
	movw	r0, #16383
	movt	r0, #16385
	.loc	7 657 7                         @ ../src/driver/stm32g4-v120/src/stm32g4xx_hal_tim_ex.c:657:7
	cmp	r2, r0
	bgt	.LBB10_21
.Ltmp191:
@ %bb.16:
	@DEBUG_VALUE: HAL_TIMEx_OCN_Start:Channel <- [DW_OP_LLVM_entry_value 1] $r1
	@DEBUG_VALUE: HAL_TIMEx_OCN_Start:htim <- [DW_OP_LLVM_entry_value 1] $r0
	.loc	7 0 7                           @ ../src/driver/stm32g4-v120/src/stm32g4xx_hal_tim_ex.c:0:7
	movw	r0, #11264
	movt	r0, #16385
	.loc	7 657 7                         @ ../src/driver/stm32g4-v120/src/stm32g4xx_hal_tim_ex.c:657:7
	cmp	r2, r0
	beq	.LBB10_25
.Ltmp192:
@ %bb.17:
	@DEBUG_VALUE: HAL_TIMEx_OCN_Start:Channel <- [DW_OP_LLVM_entry_value 1] $r1
	@DEBUG_VALUE: HAL_TIMEx_OCN_Start:htim <- [DW_OP_LLVM_entry_value 1] $r0
	.loc	7 0 7                           @ ../src/driver/stm32g4-v120/src/stm32g4xx_hal_tim_ex.c:0:7
	movw	r0, #13312
	b	.LBB10_23
.Ltmp193:
.LBB10_18:
	@DEBUG_VALUE: HAL_TIMEx_OCN_Start:Channel <- [DW_OP_LLVM_entry_value 1] $r1
	@DEBUG_VALUE: HAL_TIMEx_OCN_Start:htim <- [DW_OP_LLVM_entry_value 1] $r0
	movw	r0, #2048
	movt	r0, #16384
	.loc	7 657 7                         @ ../src/driver/stm32g4-v120/src/stm32g4xx_hal_tim_ex.c:657:7
	cmp	r2, r0
	beq	.LBB10_25
.Ltmp194:
@ %bb.19:
	@DEBUG_VALUE: HAL_TIMEx_OCN_Start:Channel <- [DW_OP_LLVM_entry_value 1] $r1
	@DEBUG_VALUE: HAL_TIMEx_OCN_Start:htim <- [DW_OP_LLVM_entry_value 1] $r0
	.loc	7 0 7                           @ ../src/driver/stm32g4-v120/src/stm32g4xx_hal_tim_ex.c:0:7
	movw	r0, #3072
.Ltmp195:
.LBB10_20:
	@DEBUG_VALUE: HAL_TIMEx_OCN_Start:Channel <- [DW_OP_LLVM_entry_value 1] $r1
	@DEBUG_VALUE: HAL_TIMEx_OCN_Start:htim <- [DW_OP_LLVM_entry_value 1] $r0
	movt	r0, #16384
	b	.LBB10_24
.Ltmp196:
.LBB10_21:
	@DEBUG_VALUE: HAL_TIMEx_OCN_Start:Channel <- [DW_OP_LLVM_entry_value 1] $r1
	@DEBUG_VALUE: HAL_TIMEx_OCN_Start:htim <- [DW_OP_LLVM_entry_value 1] $r0
	movw	r0, #20480
	movt	r0, #16385
	.loc	7 657 7                         @ ../src/driver/stm32g4-v120/src/stm32g4xx_hal_tim_ex.c:657:7
	cmp	r2, r0
	beq	.LBB10_25
.Ltmp197:
@ %bb.22:
	@DEBUG_VALUE: HAL_TIMEx_OCN_Start:Channel <- [DW_OP_LLVM_entry_value 1] $r1
	@DEBUG_VALUE: HAL_TIMEx_OCN_Start:htim <- [DW_OP_LLVM_entry_value 1] $r0
	.loc	7 0 7                           @ ../src/driver/stm32g4-v120/src/stm32g4xx_hal_tim_ex.c:0:7
	movw	r0, #16384
.Ltmp198:
.LBB10_23:
	@DEBUG_VALUE: HAL_TIMEx_OCN_Start:Channel <- [DW_OP_LLVM_entry_value 1] $r1
	@DEBUG_VALUE: HAL_TIMEx_OCN_Start:htim <- [DW_OP_LLVM_entry_value 1] $r0
	movt	r0, #16385
.Ltmp199:
.LBB10_24:
	@DEBUG_VALUE: HAL_TIMEx_OCN_Start:Channel <- [DW_OP_LLVM_entry_value 1] $r1
	@DEBUG_VALUE: HAL_TIMEx_OCN_Start:htim <- [DW_OP_LLVM_entry_value 1] $r0
	.loc	7 657 7                         @ ../src/driver/stm32g4-v120/src/stm32g4xx_hal_tim_ex.c:657:7
	cmp	r2, r0
	bne	.LBB10_27
.Ltmp200:
.LBB10_25:
	@DEBUG_VALUE: HAL_TIMEx_OCN_Start:Channel <- [DW_OP_LLVM_entry_value 1] $r1
	@DEBUG_VALUE: HAL_TIMEx_OCN_Start:htim <- [DW_OP_LLVM_entry_value 1] $r0
	.loc	7 659 31 is_stmt 1              @ ../src/driver/stm32g4-v120/src/stm32g4xx_hal_tim_ex.c:659:31
	ldr	r0, [r2, #8]
	movs	r1, #7
	movt	r1, #1
	.loc	7 659 36 is_stmt 0              @ ../src/driver/stm32g4-v120/src/stm32g4xx_hal_tim_ex.c:659:36
	ands	r1, r0
.Ltmp201:
	@DEBUG_VALUE: HAL_TIMEx_OCN_Start:tmpsmcr <- $r1
	.loc	7 660 10 is_stmt 1              @ ../src/driver/stm32g4-v120/src/stm32g4xx_hal_tim_ex.c:660:10
	cmp	r1, #6
	mov.w	r0, #0
	beq	.LBB10_28
.Ltmp202:
@ %bb.26:
	@DEBUG_VALUE: HAL_TIMEx_OCN_Start:tmpsmcr <- $r1
	@DEBUG_VALUE: HAL_TIMEx_OCN_Start:Channel <- [DW_OP_LLVM_entry_value 1] $r1
	@DEBUG_VALUE: HAL_TIMEx_OCN_Start:htim <- [DW_OP_LLVM_entry_value 1] $r0
	cmp.w	r1, #65536
.Ltmp203:
	.loc	7 672 1                         @ ../src/driver/stm32g4-v120/src/stm32g4xx_hal_tim_ex.c:672:1
	it	eq
	bxeq	lr
.Ltmp204:
.LBB10_27:
	@DEBUG_VALUE: HAL_TIMEx_OCN_Start:Channel <- [DW_OP_LLVM_entry_value 1] $r1
	@DEBUG_VALUE: HAL_TIMEx_OCN_Start:htim <- [DW_OP_LLVM_entry_value 1] $r0
	.loc	7 0 0 is_stmt 0                 @ ../src/driver/stm32g4-v120/src/stm32g4xx_hal_tim_ex.c:0:0
	ldr	r0, [r2]
	orr	r0, r0, #1
	str	r0, [r2]
	movs	r0, #0
.Ltmp205:
.LBB10_28:
	@DEBUG_VALUE: HAL_TIMEx_OCN_Start:Channel <- [DW_OP_LLVM_entry_value 1] $r1
	@DEBUG_VALUE: HAL_TIMEx_OCN_Start:htim <- [DW_OP_LLVM_entry_value 1] $r0
	.loc	7 672 1                         @ ../src/driver/stm32g4-v120/src/stm32g4xx_hal_tim_ex.c:672:1
	bx	lr
.Ltmp206:
.Lfunc_end10:
	.size	HAL_TIMEx_OCN_Start, .Lfunc_end10-HAL_TIMEx_OCN_Start
	.cfi_endproc
	.cantunwind
	.fnend
                                        @ -- End function
	.section	.text.HAL_TIMEx_OCN_Stop,"ax",%progbits
	.hidden	HAL_TIMEx_OCN_Stop              @ -- Begin function HAL_TIMEx_OCN_Stop
	.globl	HAL_TIMEx_OCN_Stop
	.p2align	1
	.type	HAL_TIMEx_OCN_Stop,%function
	.code	16                              @ @HAL_TIMEx_OCN_Stop
	.thumb_func
HAL_TIMEx_OCN_Stop:
.Lfunc_begin11:
	.loc	7 687 0 is_stmt 1               @ ../src/driver/stm32g4-v120/src/stm32g4xx_hal_tim_ex.c:687:0
	.fnstart
	.cfi_startproc
@ %bb.0:
	@DEBUG_VALUE: HAL_TIMEx_OCN_Stop:htim <- $r0
	@DEBUG_VALUE: HAL_TIMEx_OCN_Stop:htim <- $r0
	@DEBUG_VALUE: HAL_TIMEx_OCN_Stop:Channel <- $r1
	@DEBUG_VALUE: HAL_TIMEx_OCN_Stop:Channel <- $r1
	.save	{r4, lr}
	push	{r4, lr}
	.cfi_def_cfa_offset 8
	.cfi_offset lr, -4
	.cfi_offset r4, -8
.Ltmp207:
	.loc	7 692 28 prologue_end           @ ../src/driver/stm32g4-v120/src/stm32g4xx_hal_tim_ex.c:692:28
	ldr	r2, [r0]
.Ltmp208:
	@DEBUG_VALUE: TIM_CCxNChannelCmd:ChannelNState <- 0
	@DEBUG_VALUE: TIM_CCxNChannelCmd:Channel <- $r1
	@DEBUG_VALUE: TIM_CCxNChannelCmd:TIMx <- $r2
	.loc	7 3578 36                       @ ../src/driver/stm32g4-v120/src/stm32g4xx_hal_tim_ex.c:3578:36
	and	lr, r1, #31
	mov.w	r12, #4
	.loc	7 3581 14                       @ ../src/driver/stm32g4-v120/src/stm32g4xx_hal_tim_ex.c:3581:14
	ldr	r4, [r2, #32]
	.loc	7 3578 24                       @ ../src/driver/stm32g4-v120/src/stm32g4xx_hal_tim_ex.c:3578:24
	lsl.w	r3, r12, lr
.Ltmp209:
	@DEBUG_VALUE: TIM_CCxNChannelCmd:tmp <- $r3
	.loc	7 3581 14                       @ ../src/driver/stm32g4-v120/src/stm32g4xx_hal_tim_ex.c:3581:14
	bic.w	r3, r4, r3
.Ltmp210:
	str	r3, [r2, #32]
	.loc	7 3584 14                       @ ../src/driver/stm32g4-v120/src/stm32g4xx_hal_tim_ex.c:3584:14
	ldr	r3, [r2, #32]
	str	r3, [r2, #32]
.Ltmp211:
	.loc	7 695 3                         @ ../src/driver/stm32g4-v120/src/stm32g4xx_hal_tim_ex.c:695:3
	ldr	r4, [r2, #32]
	movw	r3, #4369
.Ltmp212:
	.loc	7 695 3 is_stmt 0               @ ../src/driver/stm32g4-v120/src/stm32g4xx_hal_tim_ex.c:695:3
	tst	r4, r3
	bne	.LBB11_3
.Ltmp213:
@ %bb.1:
	@DEBUG_VALUE: HAL_TIMEx_OCN_Stop:Channel <- $r1
	@DEBUG_VALUE: HAL_TIMEx_OCN_Stop:htim <- $r0
	.loc	7 695 3                         @ ../src/driver/stm32g4-v120/src/stm32g4xx_hal_tim_ex.c:695:3
	ldr.w	r12, [r2, #32]
	movw	r4, #17476
.Ltmp214:
	.loc	7 695 3                         @ ../src/driver/stm32g4-v120/src/stm32g4xx_hal_tim_ex.c:695:3
	tst.w	r12, r4
	bne	.LBB11_3
.Ltmp215:
@ %bb.2:
	@DEBUG_VALUE: HAL_TIMEx_OCN_Stop:Channel <- $r1
	@DEBUG_VALUE: HAL_TIMEx_OCN_Stop:htim <- $r0
	.loc	7 695 3                         @ ../src/driver/stm32g4-v120/src/stm32g4xx_hal_tim_ex.c:695:3
	ldr	r4, [r2, #68]
	bic	r4, r4, #32768
	str	r4, [r2, #68]
.Ltmp216:
.LBB11_3:
	@DEBUG_VALUE: HAL_TIMEx_OCN_Stop:Channel <- $r1
	@DEBUG_VALUE: HAL_TIMEx_OCN_Stop:htim <- $r0
	.loc	7 698 3 is_stmt 1               @ ../src/driver/stm32g4-v120/src/stm32g4xx_hal_tim_ex.c:698:3
	ldr	r4, [r2, #32]
.Ltmp217:
	.loc	7 698 3 is_stmt 0               @ ../src/driver/stm32g4-v120/src/stm32g4xx_hal_tim_ex.c:698:3
	tst	r4, r3
	bne	.LBB11_6
.Ltmp218:
@ %bb.4:
	@DEBUG_VALUE: HAL_TIMEx_OCN_Stop:Channel <- $r1
	@DEBUG_VALUE: HAL_TIMEx_OCN_Stop:htim <- $r0
	.loc	7 698 3                         @ ../src/driver/stm32g4-v120/src/stm32g4xx_hal_tim_ex.c:698:3
	ldr	r3, [r2, #32]
	movw	r4, #17476
.Ltmp219:
	.loc	7 698 3                         @ ../src/driver/stm32g4-v120/src/stm32g4xx_hal_tim_ex.c:698:3
	tst	r3, r4
	bne	.LBB11_6
.Ltmp220:
@ %bb.5:
	@DEBUG_VALUE: HAL_TIMEx_OCN_Stop:Channel <- $r1
	@DEBUG_VALUE: HAL_TIMEx_OCN_Stop:htim <- $r0
	.loc	7 698 3                         @ ../src/driver/stm32g4-v120/src/stm32g4xx_hal_tim_ex.c:698:3
	ldr	r3, [r2]
	bic	r3, r3, #1
	str	r3, [r2]
.Ltmp221:
.LBB11_6:
	@DEBUG_VALUE: HAL_TIMEx_OCN_Stop:Channel <- $r1
	@DEBUG_VALUE: HAL_TIMEx_OCN_Stop:htim <- $r0
	.loc	7 701 3 is_stmt 1               @ ../src/driver/stm32g4-v120/src/stm32g4xx_hal_tim_ex.c:701:3
	cmp	r1, #8
	beq	.LBB11_9
.Ltmp222:
@ %bb.7:
	@DEBUG_VALUE: HAL_TIMEx_OCN_Stop:Channel <- $r1
	@DEBUG_VALUE: HAL_TIMEx_OCN_Stop:htim <- $r0
	cmp	r1, #4
	beq	.LBB11_10
.Ltmp223:
@ %bb.8:
	@DEBUG_VALUE: HAL_TIMEx_OCN_Stop:Channel <- $r1
	@DEBUG_VALUE: HAL_TIMEx_OCN_Stop:htim <- $r0
	cmp	r1, #0
	mov.w	r1, #1
.Ltmp224:
	@DEBUG_VALUE: HAL_TIMEx_OCN_Stop:Channel <- [DW_OP_LLVM_entry_value 1] $r1
	ite	ne
	strbne.w	r1, [r0, #71]
	strbeq.w	r1, [r0, #68]
	b	.LBB11_11
.Ltmp225:
.LBB11_9:
	@DEBUG_VALUE: HAL_TIMEx_OCN_Stop:Channel <- $r1
	@DEBUG_VALUE: HAL_TIMEx_OCN_Stop:htim <- $r0
	.loc	7 0 3 is_stmt 0                 @ ../src/driver/stm32g4-v120/src/stm32g4xx_hal_tim_ex.c:0:3
	movs	r1, #1
.Ltmp226:
	@DEBUG_VALUE: HAL_TIMEx_OCN_Stop:Channel <- [DW_OP_LLVM_entry_value 1] $r1
	.loc	7 701 3                         @ ../src/driver/stm32g4-v120/src/stm32g4xx_hal_tim_ex.c:701:3
	strb.w	r1, [r0, #70]
	b	.LBB11_11
.Ltmp227:
.LBB11_10:
	@DEBUG_VALUE: HAL_TIMEx_OCN_Stop:Channel <- $r1
	@DEBUG_VALUE: HAL_TIMEx_OCN_Stop:htim <- $r0
	.loc	7 0 3                           @ ../src/driver/stm32g4-v120/src/stm32g4xx_hal_tim_ex.c:0:3
	movs	r1, #1
.Ltmp228:
	@DEBUG_VALUE: HAL_TIMEx_OCN_Stop:Channel <- [DW_OP_LLVM_entry_value 1] $r1
	.loc	7 701 3                         @ ../src/driver/stm32g4-v120/src/stm32g4xx_hal_tim_ex.c:701:3
	strb.w	r1, [r0, #69]
.Ltmp229:
.LBB11_11:
	@DEBUG_VALUE: HAL_TIMEx_OCN_Stop:htim <- $r0
	@DEBUG_VALUE: HAL_TIMEx_OCN_Stop:Channel <- [DW_OP_LLVM_entry_value 1] $r1
	.loc	7 704 3 is_stmt 1               @ ../src/driver/stm32g4-v120/src/stm32g4xx_hal_tim_ex.c:704:3
	movs	r0, #0
.Ltmp230:
	@DEBUG_VALUE: HAL_TIMEx_OCN_Stop:htim <- [DW_OP_LLVM_entry_value 1] $r0
	pop	{r4, pc}
.Ltmp231:
.Lfunc_end11:
	.size	HAL_TIMEx_OCN_Stop, .Lfunc_end11-HAL_TIMEx_OCN_Stop
	.cfi_endproc
	.cantunwind
	.fnend
                                        @ -- End function
	.section	.text.HAL_TIMEx_OCN_Start_IT,"ax",%progbits
	.hidden	HAL_TIMEx_OCN_Start_IT          @ -- Begin function HAL_TIMEx_OCN_Start_IT
	.globl	HAL_TIMEx_OCN_Start_IT
	.p2align	2
	.type	HAL_TIMEx_OCN_Start_IT,%function
	.code	16                              @ @HAL_TIMEx_OCN_Start_IT
	.thumb_func
HAL_TIMEx_OCN_Start_IT:
.Lfunc_begin12:
	.loc	7 720 0                         @ ../src/driver/stm32g4-v120/src/stm32g4xx_hal_tim_ex.c:720:0
	.fnstart
	.cfi_startproc
@ %bb.0:
	@DEBUG_VALUE: HAL_TIMEx_OCN_Start_IT:htim <- $r0
	@DEBUG_VALUE: HAL_TIMEx_OCN_Start_IT:Channel <- $r1
	@DEBUG_VALUE: HAL_TIMEx_OCN_Start_IT:Channel <- $r1
	@DEBUG_VALUE: HAL_TIMEx_OCN_Start_IT:htim <- $r0
	.loc	7 727 7 prologue_end            @ ../src/driver/stm32g4-v120/src/stm32g4xx_hal_tim_ex.c:727:7
	cbz	r1, .LBB12_3
.Ltmp232:
@ %bb.1:
	@DEBUG_VALUE: HAL_TIMEx_OCN_Start_IT:Channel <- $r1
	@DEBUG_VALUE: HAL_TIMEx_OCN_Start_IT:htim <- $r0
	cmp	r1, #8
	beq	.LBB12_5
.Ltmp233:
@ %bb.2:
	@DEBUG_VALUE: HAL_TIMEx_OCN_Start_IT:Channel <- $r1
	@DEBUG_VALUE: HAL_TIMEx_OCN_Start_IT:htim <- $r0
	cmp	r1, #4
	ite	ne
	addne.w	r2, r0, #71
	addeq.w	r2, r0, #69
	b	.LBB12_6
.Ltmp234:
.LBB12_3:
	@DEBUG_VALUE: HAL_TIMEx_OCN_Start_IT:Channel <- $r1
	@DEBUG_VALUE: HAL_TIMEx_OCN_Start_IT:htim <- $r0
	ldrb.w	r2, [r0, #68]
.Ltmp235:
	.loc	7 727 7 is_stmt 0               @ ../src/driver/stm32g4-v120/src/stm32g4xx_hal_tim_ex.c:727:7
	cmp	r2, #1
	bne	.LBB12_9
.Ltmp236:
@ %bb.4:
	@DEBUG_VALUE: HAL_TIMEx_OCN_Start_IT:Channel <- $r1
	@DEBUG_VALUE: HAL_TIMEx_OCN_Start_IT:htim <- $r0
	.loc	7 0 7                           @ ../src/driver/stm32g4-v120/src/stm32g4xx_hal_tim_ex.c:0:7
	movs	r2, #2
	.loc	7 733 3 is_stmt 1               @ ../src/driver/stm32g4-v120/src/stm32g4xx_hal_tim_ex.c:733:3
	strb.w	r2, [r0, #68]
	b	.LBB12_11
.Ltmp237:
.LBB12_5:
	@DEBUG_VALUE: HAL_TIMEx_OCN_Start_IT:Channel <- $r1
	@DEBUG_VALUE: HAL_TIMEx_OCN_Start_IT:htim <- $r0
	.loc	7 727 7                         @ ../src/driver/stm32g4-v120/src/stm32g4xx_hal_tim_ex.c:727:7
	add.w	r2, r0, #70
.Ltmp238:
.LBB12_6:
	@DEBUG_VALUE: HAL_TIMEx_OCN_Start_IT:Channel <- $r1
	@DEBUG_VALUE: HAL_TIMEx_OCN_Start_IT:htim <- $r0
	ldrb	r2, [r2]
.Ltmp239:
	.loc	7 727 7 is_stmt 0               @ ../src/driver/stm32g4-v120/src/stm32g4xx_hal_tim_ex.c:727:7
	cmp	r2, #1
	bne	.LBB12_9
.Ltmp240:
@ %bb.7:
	@DEBUG_VALUE: HAL_TIMEx_OCN_Start_IT:Channel <- $r1
	@DEBUG_VALUE: HAL_TIMEx_OCN_Start_IT:htim <- $r0
	.loc	7 0 7                           @ ../src/driver/stm32g4-v120/src/stm32g4xx_hal_tim_ex.c:0:7
	movs	r2, #2
	.loc	7 733 3 is_stmt 1               @ ../src/driver/stm32g4-v120/src/stm32g4xx_hal_tim_ex.c:733:3
	cmp	r1, #8
	beq	.LBB12_10
.Ltmp241:
@ %bb.8:
	@DEBUG_VALUE: HAL_TIMEx_OCN_Start_IT:Channel <- $r1
	@DEBUG_VALUE: HAL_TIMEx_OCN_Start_IT:htim <- $r0
	cmp	r1, #4
	ite	ne
	strbne.w	r2, [r0, #71]
	strbeq.w	r2, [r0, #69]
	b	.LBB12_11
.Ltmp242:
.LBB12_9:
	@DEBUG_VALUE: HAL_TIMEx_OCN_Start_IT:Channel <- $r1
	@DEBUG_VALUE: HAL_TIMEx_OCN_Start_IT:htim <- $r0
	.loc	7 0 3 is_stmt 0                 @ ../src/driver/stm32g4-v120/src/stm32g4xx_hal_tim_ex.c:0:3
	movs	r0, #1
.Ltmp243:
	@DEBUG_VALUE: HAL_TIMEx_OCN_Start_IT:htim <- [DW_OP_LLVM_entry_value 1] $r0
	.loc	7 795 1 is_stmt 1               @ ../src/driver/stm32g4-v120/src/stm32g4xx_hal_tim_ex.c:795:1
	bx	lr
.Ltmp244:
.LBB12_10:
	@DEBUG_VALUE: HAL_TIMEx_OCN_Start_IT:Channel <- $r1
	@DEBUG_VALUE: HAL_TIMEx_OCN_Start_IT:htim <- $r0
	.loc	7 733 3                         @ ../src/driver/stm32g4-v120/src/stm32g4xx_hal_tim_ex.c:733:3
	strb.w	r2, [r0, #70]
.Ltmp245:
.LBB12_11:
	@DEBUG_VALUE: HAL_TIMEx_OCN_Start_IT:Channel <- $r1
	@DEBUG_VALUE: HAL_TIMEx_OCN_Start_IT:htim <- $r0
	.loc	7 735 3                         @ ../src/driver/stm32g4-v120/src/stm32g4xx_hal_tim_ex.c:735:3
	ror.w	r2, r1, #2
	cmp	r2, #3
	bhi	.LBB12_15
.Ltmp246:
@ %bb.12:
	@DEBUG_VALUE: HAL_TIMEx_OCN_Start_IT:Channel <- $r1
	@DEBUG_VALUE: HAL_TIMEx_OCN_Start_IT:htim <- $r0
	.loc	7 0 3 is_stmt 0                 @ ../src/driver/stm32g4-v120/src/stm32g4xx_hal_tim_ex.c:0:3
.LCPI12_0:
	tbb	[pc, r2]
.Ltmp247:
@ %bb.13:
.LJTI12_0:
	.byte	(.LBB12_14-(.LCPI12_0+4))/2
	.byte	(.LBB12_16-(.LCPI12_0+4))/2
	.byte	(.LBB12_17-(.LCPI12_0+4))/2
	.byte	(.LBB12_18-(.LCPI12_0+4))/2
	.p2align	1
.LBB12_14:
.Ltmp248:
	@DEBUG_VALUE: HAL_TIMEx_OCN_Start_IT:Channel <- $r1
	@DEBUG_VALUE: HAL_TIMEx_OCN_Start_IT:htim <- $r0
	.loc	7 740 7 is_stmt 1               @ ../src/driver/stm32g4-v120/src/stm32g4xx_hal_tim_ex.c:740:7
	ldr	r2, [r0]
	ldr	r0, [r2, #12]
.Ltmp249:
	@DEBUG_VALUE: HAL_TIMEx_OCN_Start_IT:htim <- [DW_OP_LLVM_entry_value 1] $r0
	orr	r0, r0, #2
	b	.LBB12_19
.Ltmp250:
.LBB12_15:
	@DEBUG_VALUE: HAL_TIMEx_OCN_Start_IT:Channel <- $r1
	@DEBUG_VALUE: HAL_TIMEx_OCN_Start_IT:htim <- $r0
	.loc	7 771 3                         @ ../src/driver/stm32g4-v120/src/stm32g4xx_hal_tim_ex.c:771:3
	ldr	r2, [r0]
	b	.LBB12_20
.Ltmp251:
.LBB12_16:
	@DEBUG_VALUE: HAL_TIMEx_OCN_Start_IT:Channel <- $r1
	@DEBUG_VALUE: HAL_TIMEx_OCN_Start_IT:htim <- $r0
	.loc	7 747 7                         @ ../src/driver/stm32g4-v120/src/stm32g4xx_hal_tim_ex.c:747:7
	ldr	r2, [r0]
	ldr	r0, [r2, #12]
.Ltmp252:
	@DEBUG_VALUE: HAL_TIMEx_OCN_Start_IT:htim <- [DW_OP_LLVM_entry_value 1] $r0
	orr	r0, r0, #4
	b	.LBB12_19
.Ltmp253:
.LBB12_17:
	@DEBUG_VALUE: HAL_TIMEx_OCN_Start_IT:Channel <- $r1
	@DEBUG_VALUE: HAL_TIMEx_OCN_Start_IT:htim <- $r0
	.loc	7 754 7                         @ ../src/driver/stm32g4-v120/src/stm32g4xx_hal_tim_ex.c:754:7
	ldr	r2, [r0]
	ldr	r0, [r2, #12]
.Ltmp254:
	@DEBUG_VALUE: HAL_TIMEx_OCN_Start_IT:htim <- [DW_OP_LLVM_entry_value 1] $r0
	orr	r0, r0, #8
	b	.LBB12_19
.Ltmp255:
.LBB12_18:
	@DEBUG_VALUE: HAL_TIMEx_OCN_Start_IT:Channel <- $r1
	@DEBUG_VALUE: HAL_TIMEx_OCN_Start_IT:htim <- $r0
	.loc	7 762 7                         @ ../src/driver/stm32g4-v120/src/stm32g4xx_hal_tim_ex.c:762:7
	ldr	r2, [r0]
	ldr	r0, [r2, #12]
.Ltmp256:
	@DEBUG_VALUE: HAL_TIMEx_OCN_Start_IT:htim <- [DW_OP_LLVM_entry_value 1] $r0
	orr	r0, r0, #16
.Ltmp257:
.LBB12_19:
	@DEBUG_VALUE: HAL_TIMEx_OCN_Start_IT:Channel <- $r1
	@DEBUG_VALUE: HAL_TIMEx_OCN_Start_IT:htim <- [DW_OP_LLVM_entry_value 1] $r0
	.loc	7 0 0 is_stmt 0                 @ ../src/driver/stm32g4-v120/src/stm32g4xx_hal_tim_ex.c:0:0
	str	r0, [r2, #12]
.Ltmp258:
.LBB12_20:
	@DEBUG_VALUE: HAL_TIMEx_OCN_Start_IT:Channel <- $r1
	.loc	7 771 3 is_stmt 1               @ ../src/driver/stm32g4-v120/src/stm32g4xx_hal_tim_ex.c:771:3
	ldr	r0, [r2, #12]
	orr	r0, r0, #128
	str	r0, [r2, #12]
.Ltmp259:
	@DEBUG_VALUE: TIM_CCxNChannelCmd:ChannelNState <- 4
	@DEBUG_VALUE: TIM_CCxNChannelCmd:Channel <- $r1
	@DEBUG_VALUE: TIM_CCxNChannelCmd:TIMx <- $r2
	.loc	7 3578 36                       @ ../src/driver/stm32g4-v120/src/stm32g4xx_hal_tim_ex.c:3578:36
	and	r0, r1, #31
	movs	r1, #4
.Ltmp260:
	@DEBUG_VALUE: HAL_TIMEx_OCN_Start_IT:Channel <- [DW_OP_LLVM_entry_value 1] $r1
	.loc	7 3581 14                       @ ../src/driver/stm32g4-v120/src/stm32g4xx_hal_tim_ex.c:3581:14
	ldr	r3, [r2, #32]
	.loc	7 3578 24                       @ ../src/driver/stm32g4-v120/src/stm32g4xx_hal_tim_ex.c:3578:24
	lsl.w	r0, r1, r0
.Ltmp261:
	@DEBUG_VALUE: TIM_CCxNChannelCmd:tmp <- $r0
	.loc	7 3581 14                       @ ../src/driver/stm32g4-v120/src/stm32g4xx_hal_tim_ex.c:3581:14
	bic.w	r1, r3, r0
	str	r1, [r2, #32]
	.loc	7 3584 14                       @ ../src/driver/stm32g4-v120/src/stm32g4xx_hal_tim_ex.c:3584:14
	ldr	r1, [r2, #32]
	orrs	r0, r1
.Ltmp262:
	str	r0, [r2, #32]
.Ltmp263:
	.loc	7 777 3                         @ ../src/driver/stm32g4-v120/src/stm32g4xx_hal_tim_ex.c:777:3
	ldr	r0, [r2, #68]
	movw	r1, #11263
	movt	r1, #16385
	orr	r0, r0, #32768
.Ltmp264:
	.loc	7 780 7                         @ ../src/driver/stm32g4-v120/src/stm32g4xx_hal_tim_ex.c:780:7
	cmp	r2, r1
.Ltmp265:
	.loc	7 777 3                         @ ../src/driver/stm32g4-v120/src/stm32g4xx_hal_tim_ex.c:777:3
	str	r0, [r2, #68]
.Ltmp266:
	.loc	7 780 7                         @ ../src/driver/stm32g4-v120/src/stm32g4xx_hal_tim_ex.c:780:7
	bgt	.LBB12_24
.Ltmp267:
@ %bb.21:
	@DEBUG_VALUE: HAL_TIMEx_OCN_Start_IT:Channel <- [DW_OP_LLVM_entry_value 1] $r1
	.loc	7 0 7 is_stmt 0                 @ ../src/driver/stm32g4-v120/src/stm32g4xx_hal_tim_ex.c:0:7
	movw	r0, #2047
	movt	r0, #16384
	.loc	7 780 7                         @ ../src/driver/stm32g4-v120/src/stm32g4xx_hal_tim_ex.c:780:7
	cmp	r2, r0
	bgt	.LBB12_27
.Ltmp268:
@ %bb.22:
	@DEBUG_VALUE: HAL_TIMEx_OCN_Start_IT:Channel <- [DW_OP_LLVM_entry_value 1] $r1
	cmp.w	r2, #1073741824
	beq	.LBB12_34
.Ltmp269:
@ %bb.23:
	@DEBUG_VALUE: HAL_TIMEx_OCN_Start_IT:Channel <- [DW_OP_LLVM_entry_value 1] $r1
	.loc	7 0 7                           @ ../src/driver/stm32g4-v120/src/stm32g4xx_hal_tim_ex.c:0:7
	movw	r0, #1024
	b	.LBB12_29
.Ltmp270:
.LBB12_24:
	@DEBUG_VALUE: HAL_TIMEx_OCN_Start_IT:Channel <- [DW_OP_LLVM_entry_value 1] $r1
	movw	r0, #16383
	movt	r0, #16385
	.loc	7 780 7                         @ ../src/driver/stm32g4-v120/src/stm32g4xx_hal_tim_ex.c:780:7
	cmp	r2, r0
	bgt	.LBB12_30
.Ltmp271:
@ %bb.25:
	@DEBUG_VALUE: HAL_TIMEx_OCN_Start_IT:Channel <- [DW_OP_LLVM_entry_value 1] $r1
	.loc	7 0 7                           @ ../src/driver/stm32g4-v120/src/stm32g4xx_hal_tim_ex.c:0:7
	movw	r0, #11264
	movt	r0, #16385
	.loc	7 780 7                         @ ../src/driver/stm32g4-v120/src/stm32g4xx_hal_tim_ex.c:780:7
	cmp	r2, r0
	beq	.LBB12_34
.Ltmp272:
@ %bb.26:
	@DEBUG_VALUE: HAL_TIMEx_OCN_Start_IT:Channel <- [DW_OP_LLVM_entry_value 1] $r1
	.loc	7 0 7                           @ ../src/driver/stm32g4-v120/src/stm32g4xx_hal_tim_ex.c:0:7
	movw	r0, #13312
	b	.LBB12_32
.Ltmp273:
.LBB12_27:
	@DEBUG_VALUE: HAL_TIMEx_OCN_Start_IT:Channel <- [DW_OP_LLVM_entry_value 1] $r1
	movw	r0, #2048
	movt	r0, #16384
	.loc	7 780 7                         @ ../src/driver/stm32g4-v120/src/stm32g4xx_hal_tim_ex.c:780:7
	cmp	r2, r0
	beq	.LBB12_34
.Ltmp274:
@ %bb.28:
	@DEBUG_VALUE: HAL_TIMEx_OCN_Start_IT:Channel <- [DW_OP_LLVM_entry_value 1] $r1
	.loc	7 0 7                           @ ../src/driver/stm32g4-v120/src/stm32g4xx_hal_tim_ex.c:0:7
	movw	r0, #3072
.Ltmp275:
.LBB12_29:
	@DEBUG_VALUE: HAL_TIMEx_OCN_Start_IT:Channel <- [DW_OP_LLVM_entry_value 1] $r1
	movt	r0, #16384
	b	.LBB12_33
.Ltmp276:
.LBB12_30:
	@DEBUG_VALUE: HAL_TIMEx_OCN_Start_IT:Channel <- [DW_OP_LLVM_entry_value 1] $r1
	movw	r0, #20480
	movt	r0, #16385
	.loc	7 780 7                         @ ../src/driver/stm32g4-v120/src/stm32g4xx_hal_tim_ex.c:780:7
	cmp	r2, r0
	beq	.LBB12_34
.Ltmp277:
@ %bb.31:
	@DEBUG_VALUE: HAL_TIMEx_OCN_Start_IT:Channel <- [DW_OP_LLVM_entry_value 1] $r1
	.loc	7 0 7                           @ ../src/driver/stm32g4-v120/src/stm32g4xx_hal_tim_ex.c:0:7
	movw	r0, #16384
.Ltmp278:
.LBB12_32:
	@DEBUG_VALUE: HAL_TIMEx_OCN_Start_IT:Channel <- [DW_OP_LLVM_entry_value 1] $r1
	movt	r0, #16385
.Ltmp279:
.LBB12_33:
	@DEBUG_VALUE: HAL_TIMEx_OCN_Start_IT:Channel <- [DW_OP_LLVM_entry_value 1] $r1
	.loc	7 780 7                         @ ../src/driver/stm32g4-v120/src/stm32g4xx_hal_tim_ex.c:780:7
	cmp	r2, r0
	bne	.LBB12_36
.Ltmp280:
.LBB12_34:
	@DEBUG_VALUE: HAL_TIMEx_OCN_Start_IT:Channel <- [DW_OP_LLVM_entry_value 1] $r1
	.loc	7 782 31 is_stmt 1              @ ../src/driver/stm32g4-v120/src/stm32g4xx_hal_tim_ex.c:782:31
	ldr	r0, [r2, #8]
	movs	r1, #7
	movt	r1, #1
	.loc	7 782 36 is_stmt 0              @ ../src/driver/stm32g4-v120/src/stm32g4xx_hal_tim_ex.c:782:36
	ands	r1, r0
.Ltmp281:
	@DEBUG_VALUE: HAL_TIMEx_OCN_Start_IT:tmpsmcr <- $r1
	.loc	7 783 10 is_stmt 1              @ ../src/driver/stm32g4-v120/src/stm32g4xx_hal_tim_ex.c:783:10
	cmp	r1, #6
	mov.w	r0, #0
	beq	.LBB12_37
.Ltmp282:
@ %bb.35:
	@DEBUG_VALUE: HAL_TIMEx_OCN_Start_IT:tmpsmcr <- $r1
	@DEBUG_VALUE: HAL_TIMEx_OCN_Start_IT:Channel <- [DW_OP_LLVM_entry_value 1] $r1
	cmp.w	r1, #65536
.Ltmp283:
	.loc	7 795 1                         @ ../src/driver/stm32g4-v120/src/stm32g4xx_hal_tim_ex.c:795:1
	it	eq
	bxeq	lr
.Ltmp284:
.LBB12_36:
	@DEBUG_VALUE: HAL_TIMEx_OCN_Start_IT:Channel <- [DW_OP_LLVM_entry_value 1] $r1
	.loc	7 0 0 is_stmt 0                 @ ../src/driver/stm32g4-v120/src/stm32g4xx_hal_tim_ex.c:0:0
	ldr	r0, [r2]
	orr	r0, r0, #1
	str	r0, [r2]
	movs	r0, #0
.Ltmp285:
.LBB12_37:
	@DEBUG_VALUE: HAL_TIMEx_OCN_Start_IT:Channel <- [DW_OP_LLVM_entry_value 1] $r1
	.loc	7 795 1                         @ ../src/driver/stm32g4-v120/src/stm32g4xx_hal_tim_ex.c:795:1
	bx	lr
.Ltmp286:
.Lfunc_end12:
	.size	HAL_TIMEx_OCN_Start_IT, .Lfunc_end12-HAL_TIMEx_OCN_Start_IT
	.cfi_endproc
	.cantunwind
	.fnend
                                        @ -- End function
	.section	.text.HAL_TIMEx_OCN_Stop_IT,"ax",%progbits
	.hidden	HAL_TIMEx_OCN_Stop_IT           @ -- Begin function HAL_TIMEx_OCN_Stop_IT
	.globl	HAL_TIMEx_OCN_Stop_IT
	.p2align	2
	.type	HAL_TIMEx_OCN_Stop_IT,%function
	.code	16                              @ @HAL_TIMEx_OCN_Stop_IT
	.thumb_func
HAL_TIMEx_OCN_Stop_IT:
.Lfunc_begin13:
	.loc	7 810 0 is_stmt 1               @ ../src/driver/stm32g4-v120/src/stm32g4xx_hal_tim_ex.c:810:0
	.fnstart
	.cfi_startproc
@ %bb.0:
	@DEBUG_VALUE: HAL_TIMEx_OCN_Stop_IT:htim <- $r0
	@DEBUG_VALUE: HAL_TIMEx_OCN_Stop_IT:Channel <- $r1
	@DEBUG_VALUE: HAL_TIMEx_OCN_Stop_IT:Channel <- $r1
	.save	{r4, lr}
	push	{r4, lr}
	.cfi_def_cfa_offset 8
	.cfi_offset lr, -4
	.cfi_offset r4, -8
.Ltmp287:
	.loc	7 815 3 prologue_end            @ ../src/driver/stm32g4-v120/src/stm32g4xx_hal_tim_ex.c:815:3
	ror.w	r2, r1, #2
	cmp	r2, #3
	@DEBUG_VALUE: HAL_TIMEx_OCN_Stop_IT:htim <- $r0
	bhi	.LBB13_4
.Ltmp288:
@ %bb.1:
	@DEBUG_VALUE: HAL_TIMEx_OCN_Stop_IT:Channel <- $r1
	@DEBUG_VALUE: HAL_TIMEx_OCN_Stop_IT:htim <- $r0
	.loc	7 0 3 is_stmt 0                 @ ../src/driver/stm32g4-v120/src/stm32g4xx_hal_tim_ex.c:0:3
.LCPI13_0:
	tbb	[pc, r2]
.Ltmp289:
@ %bb.2:
.LJTI13_0:
	.byte	(.LBB13_3-(.LCPI13_0+4))/2
	.byte	(.LBB13_5-(.LCPI13_0+4))/2
	.byte	(.LBB13_6-(.LCPI13_0+4))/2
	.byte	(.LBB13_7-(.LCPI13_0+4))/2
	.p2align	1
.LBB13_3:
.Ltmp290:
	@DEBUG_VALUE: HAL_TIMEx_OCN_Stop_IT:Channel <- $r1
	@DEBUG_VALUE: HAL_TIMEx_OCN_Stop_IT:htim <- $r0
	.loc	7 820 7 is_stmt 1               @ ../src/driver/stm32g4-v120/src/stm32g4xx_hal_tim_ex.c:820:7
	ldr	r2, [r0]
	ldr	r3, [r2, #12]
	bic	r3, r3, #2
	b	.LBB13_8
.Ltmp291:
.LBB13_4:
	@DEBUG_VALUE: HAL_TIMEx_OCN_Stop_IT:Channel <- $r1
	@DEBUG_VALUE: HAL_TIMEx_OCN_Stop_IT:htim <- $r0
	.loc	7 850 28                        @ ../src/driver/stm32g4-v120/src/stm32g4xx_hal_tim_ex.c:850:28
	ldr	r2, [r0]
	b	.LBB13_9
.Ltmp292:
.LBB13_5:
	@DEBUG_VALUE: HAL_TIMEx_OCN_Stop_IT:Channel <- $r1
	@DEBUG_VALUE: HAL_TIMEx_OCN_Stop_IT:htim <- $r0
	.loc	7 827 7                         @ ../src/driver/stm32g4-v120/src/stm32g4xx_hal_tim_ex.c:827:7
	ldr	r2, [r0]
	ldr	r3, [r2, #12]
	bic	r3, r3, #4
	b	.LBB13_8
.Ltmp293:
.LBB13_6:
	@DEBUG_VALUE: HAL_TIMEx_OCN_Stop_IT:Channel <- $r1
	@DEBUG_VALUE: HAL_TIMEx_OCN_Stop_IT:htim <- $r0
	.loc	7 834 7                         @ ../src/driver/stm32g4-v120/src/stm32g4xx_hal_tim_ex.c:834:7
	ldr	r2, [r0]
	ldr	r3, [r2, #12]
	bic	r3, r3, #8
	b	.LBB13_8
.Ltmp294:
.LBB13_7:
	@DEBUG_VALUE: HAL_TIMEx_OCN_Stop_IT:Channel <- $r1
	@DEBUG_VALUE: HAL_TIMEx_OCN_Stop_IT:htim <- $r0
	.loc	7 841 7                         @ ../src/driver/stm32g4-v120/src/stm32g4xx_hal_tim_ex.c:841:7
	ldr	r2, [r0]
	ldr	r3, [r2, #12]
	bic	r3, r3, #16
.Ltmp295:
.LBB13_8:
	@DEBUG_VALUE: HAL_TIMEx_OCN_Stop_IT:Channel <- $r1
	@DEBUG_VALUE: HAL_TIMEx_OCN_Stop_IT:htim <- $r0
	.loc	7 0 0 is_stmt 0                 @ ../src/driver/stm32g4-v120/src/stm32g4xx_hal_tim_ex.c:0:0
	str	r3, [r2, #12]
.Ltmp296:
.LBB13_9:
	@DEBUG_VALUE: HAL_TIMEx_OCN_Stop_IT:Channel <- $r1
	@DEBUG_VALUE: HAL_TIMEx_OCN_Stop_IT:htim <- $r0
	@DEBUG_VALUE: TIM_CCxNChannelCmd:TIMx <- $r2
	@DEBUG_VALUE: TIM_CCxNChannelCmd:Channel <- $r1
	@DEBUG_VALUE: TIM_CCxNChannelCmd:ChannelNState <- 0
	.loc	7 3578 36 is_stmt 1             @ ../src/driver/stm32g4-v120/src/stm32g4xx_hal_tim_ex.c:3578:36
	and	lr, r1, #31
	mov.w	r12, #4
	.loc	7 3581 14                       @ ../src/driver/stm32g4-v120/src/stm32g4xx_hal_tim_ex.c:3581:14
	ldr	r4, [r2, #32]
	.loc	7 3578 24                       @ ../src/driver/stm32g4-v120/src/stm32g4xx_hal_tim_ex.c:3578:24
	lsl.w	r3, r12, lr
.Ltmp297:
	@DEBUG_VALUE: TIM_CCxNChannelCmd:tmp <- $r3
	.loc	7 3581 14                       @ ../src/driver/stm32g4-v120/src/stm32g4xx_hal_tim_ex.c:3581:14
	bic.w	r3, r4, r3
.Ltmp298:
	str	r3, [r2, #32]
	.loc	7 3584 14                       @ ../src/driver/stm32g4-v120/src/stm32g4xx_hal_tim_ex.c:3584:14
	ldr	r3, [r2, #32]
	movw	r4, #17476
	str	r3, [r2, #32]
.Ltmp299:
	.loc	7 853 29                        @ ../src/driver/stm32g4-v120/src/stm32g4xx_hal_tim_ex.c:853:29
	ldr	r3, [r2, #32]
.Ltmp300:
	@DEBUG_VALUE: HAL_TIMEx_OCN_Stop_IT:tmpccer <- $r3
	.loc	7 854 7                         @ ../src/driver/stm32g4-v120/src/stm32g4xx_hal_tim_ex.c:854:7
	tst	r3, r4
	bne	.LBB13_11
.Ltmp301:
@ %bb.10:
	@DEBUG_VALUE: HAL_TIMEx_OCN_Stop_IT:tmpccer <- $r3
	@DEBUG_VALUE: HAL_TIMEx_OCN_Stop_IT:Channel <- $r1
	@DEBUG_VALUE: HAL_TIMEx_OCN_Stop_IT:htim <- $r0
	.loc	7 856 5                         @ ../src/driver/stm32g4-v120/src/stm32g4xx_hal_tim_ex.c:856:5
	ldr	r3, [r2, #12]
.Ltmp302:
	bic	r3, r3, #128
	str	r3, [r2, #12]
.Ltmp303:
.LBB13_11:
	@DEBUG_VALUE: HAL_TIMEx_OCN_Stop_IT:Channel <- $r1
	@DEBUG_VALUE: HAL_TIMEx_OCN_Stop_IT:htim <- $r0
	.loc	7 860 3                         @ ../src/driver/stm32g4-v120/src/stm32g4xx_hal_tim_ex.c:860:3
	ldr	r4, [r2, #32]
	movw	r3, #4369
.Ltmp304:
	.loc	7 860 3 is_stmt 0               @ ../src/driver/stm32g4-v120/src/stm32g4xx_hal_tim_ex.c:860:3
	tst	r4, r3
	bne	.LBB13_14
.Ltmp305:
@ %bb.12:
	@DEBUG_VALUE: HAL_TIMEx_OCN_Stop_IT:Channel <- $r1
	@DEBUG_VALUE: HAL_TIMEx_OCN_Stop_IT:htim <- $r0
	.loc	7 860 3                         @ ../src/driver/stm32g4-v120/src/stm32g4xx_hal_tim_ex.c:860:3
	ldr.w	r12, [r2, #32]
	movw	r4, #17476
.Ltmp306:
	.loc	7 860 3                         @ ../src/driver/stm32g4-v120/src/stm32g4xx_hal_tim_ex.c:860:3
	tst.w	r12, r4
	bne	.LBB13_14
.Ltmp307:
@ %bb.13:
	@DEBUG_VALUE: HAL_TIMEx_OCN_Stop_IT:Channel <- $r1
	@DEBUG_VALUE: HAL_TIMEx_OCN_Stop_IT:htim <- $r0
	.loc	7 860 3                         @ ../src/driver/stm32g4-v120/src/stm32g4xx_hal_tim_ex.c:860:3
	ldr	r4, [r2, #68]
	bic	r4, r4, #32768
	str	r4, [r2, #68]
.Ltmp308:
.LBB13_14:
	@DEBUG_VALUE: HAL_TIMEx_OCN_Stop_IT:Channel <- $r1
	@DEBUG_VALUE: HAL_TIMEx_OCN_Stop_IT:htim <- $r0
	.loc	7 863 3 is_stmt 1               @ ../src/driver/stm32g4-v120/src/stm32g4xx_hal_tim_ex.c:863:3
	ldr	r4, [r2, #32]
.Ltmp309:
	.loc	7 863 3 is_stmt 0               @ ../src/driver/stm32g4-v120/src/stm32g4xx_hal_tim_ex.c:863:3
	tst	r4, r3
	bne	.LBB13_17
.Ltmp310:
@ %bb.15:
	@DEBUG_VALUE: HAL_TIMEx_OCN_Stop_IT:Channel <- $r1
	@DEBUG_VALUE: HAL_TIMEx_OCN_Stop_IT:htim <- $r0
	.loc	7 863 3                         @ ../src/driver/stm32g4-v120/src/stm32g4xx_hal_tim_ex.c:863:3
	ldr	r3, [r2, #32]
	movw	r4, #17476
.Ltmp311:
	.loc	7 863 3                         @ ../src/driver/stm32g4-v120/src/stm32g4xx_hal_tim_ex.c:863:3
	tst	r3, r4
	bne	.LBB13_17
.Ltmp312:
@ %bb.16:
	@DEBUG_VALUE: HAL_TIMEx_OCN_Stop_IT:Channel <- $r1
	@DEBUG_VALUE: HAL_TIMEx_OCN_Stop_IT:htim <- $r0
	.loc	7 863 3                         @ ../src/driver/stm32g4-v120/src/stm32g4xx_hal_tim_ex.c:863:3
	ldr	r3, [r2]
	bic	r3, r3, #1
	str	r3, [r2]
.Ltmp313:
.LBB13_17:
	@DEBUG_VALUE: HAL_TIMEx_OCN_Stop_IT:Channel <- $r1
	@DEBUG_VALUE: HAL_TIMEx_OCN_Stop_IT:htim <- $r0
	.loc	7 866 3 is_stmt 1               @ ../src/driver/stm32g4-v120/src/stm32g4xx_hal_tim_ex.c:866:3
	cmp	r1, #8
	beq	.LBB13_20
.Ltmp314:
@ %bb.18:
	@DEBUG_VALUE: HAL_TIMEx_OCN_Stop_IT:Channel <- $r1
	@DEBUG_VALUE: HAL_TIMEx_OCN_Stop_IT:htim <- $r0
	cmp	r1, #4
	beq	.LBB13_21
.Ltmp315:
@ %bb.19:
	@DEBUG_VALUE: HAL_TIMEx_OCN_Stop_IT:Channel <- $r1
	@DEBUG_VALUE: HAL_TIMEx_OCN_Stop_IT:htim <- $r0
	cmp	r1, #0
	mov.w	r1, #1
.Ltmp316:
	@DEBUG_VALUE: HAL_TIMEx_OCN_Stop_IT:Channel <- [DW_OP_LLVM_entry_value 1] $r1
	ite	ne
	strbne.w	r1, [r0, #71]
	strbeq.w	r1, [r0, #68]
	b	.LBB13_22
.Ltmp317:
.LBB13_20:
	@DEBUG_VALUE: HAL_TIMEx_OCN_Stop_IT:Channel <- $r1
	@DEBUG_VALUE: HAL_TIMEx_OCN_Stop_IT:htim <- $r0
	.loc	7 0 3 is_stmt 0                 @ ../src/driver/stm32g4-v120/src/stm32g4xx_hal_tim_ex.c:0:3
	movs	r1, #1
.Ltmp318:
	@DEBUG_VALUE: HAL_TIMEx_OCN_Stop_IT:Channel <- [DW_OP_LLVM_entry_value 1] $r1
	.loc	7 866 3                         @ ../src/driver/stm32g4-v120/src/stm32g4xx_hal_tim_ex.c:866:3
	strb.w	r1, [r0, #70]
	b	.LBB13_22
.Ltmp319:
.LBB13_21:
	@DEBUG_VALUE: HAL_TIMEx_OCN_Stop_IT:Channel <- $r1
	@DEBUG_VALUE: HAL_TIMEx_OCN_Stop_IT:htim <- $r0
	.loc	7 0 3                           @ ../src/driver/stm32g4-v120/src/stm32g4xx_hal_tim_ex.c:0:3
	movs	r1, #1
.Ltmp320:
	@DEBUG_VALUE: HAL_TIMEx_OCN_Stop_IT:Channel <- [DW_OP_LLVM_entry_value 1] $r1
	.loc	7 866 3                         @ ../src/driver/stm32g4-v120/src/stm32g4xx_hal_tim_ex.c:866:3
	strb.w	r1, [r0, #69]
.Ltmp321:
.LBB13_22:
	@DEBUG_VALUE: HAL_TIMEx_OCN_Stop_IT:htim <- $r0
	@DEBUG_VALUE: HAL_TIMEx_OCN_Stop_IT:Channel <- [DW_OP_LLVM_entry_value 1] $r1
	.loc	7 869 3 is_stmt 1               @ ../src/driver/stm32g4-v120/src/stm32g4xx_hal_tim_ex.c:869:3
	movs	r0, #0
.Ltmp322:
	@DEBUG_VALUE: HAL_TIMEx_OCN_Stop_IT:htim <- [DW_OP_LLVM_entry_value 1] $r0
	pop	{r4, pc}
.Ltmp323:
.Lfunc_end13:
	.size	HAL_TIMEx_OCN_Stop_IT, .Lfunc_end13-HAL_TIMEx_OCN_Stop_IT
	.cfi_endproc
	.cantunwind
	.fnend
                                        @ -- End function
	.section	.text.HAL_TIMEx_OCN_Start_DMA,"ax",%progbits
	.hidden	HAL_TIMEx_OCN_Start_DMA         @ -- Begin function HAL_TIMEx_OCN_Start_DMA
	.globl	HAL_TIMEx_OCN_Start_DMA
	.p2align	2
	.type	HAL_TIMEx_OCN_Start_DMA,%function
	.code	16                              @ @HAL_TIMEx_OCN_Start_DMA
	.thumb_func
HAL_TIMEx_OCN_Start_DMA:
.Lfunc_begin14:
	.loc	7 887 0                         @ ../src/driver/stm32g4-v120/src/stm32g4xx_hal_tim_ex.c:887:0
	.fnstart
	.cfi_startproc
@ %bb.0:
	@DEBUG_VALUE: HAL_TIMEx_OCN_Start_DMA:htim <- $r0
	@DEBUG_VALUE: HAL_TIMEx_OCN_Start_DMA:Channel <- $r1
	@DEBUG_VALUE: HAL_TIMEx_OCN_Start_DMA:pData <- $r2
	@DEBUG_VALUE: HAL_TIMEx_OCN_Start_DMA:Length <- $r3
	.save	{r4, r5, r7, lr}
	push	{r4, r5, r7, lr}
	.cfi_def_cfa_offset 16
	.cfi_offset lr, -4
	.cfi_offset r7, -8
	.cfi_offset r5, -12
	.cfi_offset r4, -16
	mov	r4, r1
	@DEBUG_VALUE: HAL_TIMEx_OCN_Start_DMA:Length <- $r3
	@DEBUG_VALUE: HAL_TIMEx_OCN_Start_DMA:pData <- $r2
.Ltmp324:
	@DEBUG_VALUE: HAL_TIMEx_OCN_Start_DMA:Channel <- $r4
	mov	r5, r0
.Ltmp325:
	@DEBUG_VALUE: HAL_TIMEx_OCN_Start_DMA:htim <- $r5
	@DEBUG_VALUE: HAL_TIMEx_OCN_Start_DMA:htim <- $r5
	.loc	7 894 7 prologue_end            @ ../src/driver/stm32g4-v120/src/stm32g4xx_hal_tim_ex.c:894:7
	cbz	r1, .LBB14_3
.Ltmp326:
@ %bb.1:
	@DEBUG_VALUE: HAL_TIMEx_OCN_Start_DMA:htim <- $r5
	@DEBUG_VALUE: HAL_TIMEx_OCN_Start_DMA:Channel <- $r4
	@DEBUG_VALUE: HAL_TIMEx_OCN_Start_DMA:Length <- $r3
	@DEBUG_VALUE: HAL_TIMEx_OCN_Start_DMA:pData <- $r2
	cmp	r4, #8
	beq	.LBB14_5
.Ltmp327:
@ %bb.2:
	@DEBUG_VALUE: HAL_TIMEx_OCN_Start_DMA:htim <- $r5
	@DEBUG_VALUE: HAL_TIMEx_OCN_Start_DMA:Channel <- $r4
	@DEBUG_VALUE: HAL_TIMEx_OCN_Start_DMA:Length <- $r3
	@DEBUG_VALUE: HAL_TIMEx_OCN_Start_DMA:pData <- $r2
	cmp	r4, #4
	ite	ne
	addne.w	r0, r5, #71
	addeq.w	r0, r5, #69
	b	.LBB14_6
.Ltmp328:
.LBB14_3:
	@DEBUG_VALUE: HAL_TIMEx_OCN_Start_DMA:htim <- $r5
	@DEBUG_VALUE: HAL_TIMEx_OCN_Start_DMA:Channel <- $r4
	@DEBUG_VALUE: HAL_TIMEx_OCN_Start_DMA:Length <- $r3
	@DEBUG_VALUE: HAL_TIMEx_OCN_Start_DMA:pData <- $r2
	ldrb.w	r0, [r5, #68]
.Ltmp329:
	.loc	7 894 7 is_stmt 0               @ ../src/driver/stm32g4-v120/src/stm32g4xx_hal_tim_ex.c:894:7
	cmp	r0, #2
	beq	.LBB14_7
.Ltmp330:
@ %bb.4:
	@DEBUG_VALUE: HAL_TIMEx_OCN_Start_DMA:htim <- $r5
	@DEBUG_VALUE: HAL_TIMEx_OCN_Start_DMA:Channel <- $r4
	@DEBUG_VALUE: HAL_TIMEx_OCN_Start_DMA:Length <- $r3
	@DEBUG_VALUE: HAL_TIMEx_OCN_Start_DMA:pData <- $r2
	.loc	7 898 12 is_stmt 1              @ ../src/driver/stm32g4-v120/src/stm32g4xx_hal_tim_ex.c:898:12
	add.w	r0, r5, #68
	b	.LBB14_11
.Ltmp331:
.LBB14_5:
	@DEBUG_VALUE: HAL_TIMEx_OCN_Start_DMA:htim <- $r5
	@DEBUG_VALUE: HAL_TIMEx_OCN_Start_DMA:Channel <- $r4
	@DEBUG_VALUE: HAL_TIMEx_OCN_Start_DMA:Length <- $r3
	@DEBUG_VALUE: HAL_TIMEx_OCN_Start_DMA:pData <- $r2
	.loc	7 894 7                         @ ../src/driver/stm32g4-v120/src/stm32g4xx_hal_tim_ex.c:894:7
	add.w	r0, r5, #70
.Ltmp332:
.LBB14_6:
	@DEBUG_VALUE: HAL_TIMEx_OCN_Start_DMA:htim <- $r5
	@DEBUG_VALUE: HAL_TIMEx_OCN_Start_DMA:Channel <- $r4
	@DEBUG_VALUE: HAL_TIMEx_OCN_Start_DMA:Length <- $r3
	@DEBUG_VALUE: HAL_TIMEx_OCN_Start_DMA:pData <- $r2
	ldrb	r0, [r0]
.Ltmp333:
	.loc	7 894 7 is_stmt 0               @ ../src/driver/stm32g4-v120/src/stm32g4xx_hal_tim_ex.c:894:7
	cmp	r0, #2
	bne	.LBB14_8
.Ltmp334:
.LBB14_7:
	@DEBUG_VALUE: HAL_TIMEx_OCN_Start_DMA:htim <- $r5
	@DEBUG_VALUE: HAL_TIMEx_OCN_Start_DMA:Channel <- $r4
	@DEBUG_VALUE: HAL_TIMEx_OCN_Start_DMA:Length <- $r3
	@DEBUG_VALUE: HAL_TIMEx_OCN_Start_DMA:pData <- $r2
	.loc	7 0 7                           @ ../src/driver/stm32g4-v120/src/stm32g4xx_hal_tim_ex.c:0:7
	movs	r0, #2
	.loc	7 1018 1 is_stmt 1              @ ../src/driver/stm32g4-v120/src/stm32g4xx_hal_tim_ex.c:1018:1
	pop	{r4, r5, r7, pc}
.Ltmp335:
.LBB14_8:
	@DEBUG_VALUE: HAL_TIMEx_OCN_Start_DMA:htim <- $r5
	@DEBUG_VALUE: HAL_TIMEx_OCN_Start_DMA:Channel <- $r4
	@DEBUG_VALUE: HAL_TIMEx_OCN_Start_DMA:Length <- $r3
	@DEBUG_VALUE: HAL_TIMEx_OCN_Start_DMA:pData <- $r2
	.loc	7 898 12                        @ ../src/driver/stm32g4-v120/src/stm32g4xx_hal_tim_ex.c:898:12
	cmp	r4, #8
	beq	.LBB14_10
.Ltmp336:
@ %bb.9:
	@DEBUG_VALUE: HAL_TIMEx_OCN_Start_DMA:htim <- $r5
	@DEBUG_VALUE: HAL_TIMEx_OCN_Start_DMA:Channel <- $r4
	@DEBUG_VALUE: HAL_TIMEx_OCN_Start_DMA:Length <- $r3
	@DEBUG_VALUE: HAL_TIMEx_OCN_Start_DMA:pData <- $r2
	cmp	r4, #4
	ite	ne
	addne.w	r0, r5, #71
	addeq.w	r0, r5, #69
	b	.LBB14_11
.Ltmp337:
.LBB14_10:
	@DEBUG_VALUE: HAL_TIMEx_OCN_Start_DMA:htim <- $r5
	@DEBUG_VALUE: HAL_TIMEx_OCN_Start_DMA:Channel <- $r4
	@DEBUG_VALUE: HAL_TIMEx_OCN_Start_DMA:Length <- $r3
	@DEBUG_VALUE: HAL_TIMEx_OCN_Start_DMA:pData <- $r2
	add.w	r0, r5, #70
.Ltmp338:
.LBB14_11:
	@DEBUG_VALUE: HAL_TIMEx_OCN_Start_DMA:htim <- $r5
	@DEBUG_VALUE: HAL_TIMEx_OCN_Start_DMA:Channel <- $r4
	@DEBUG_VALUE: HAL_TIMEx_OCN_Start_DMA:Length <- $r3
	@DEBUG_VALUE: HAL_TIMEx_OCN_Start_DMA:pData <- $r2
	@DEBUG_VALUE: HAL_TIMEx_OCN_Start_DMA:Length <- $r3
	ldrb	r0, [r0]
.Ltmp339:
	.loc	7 898 12 is_stmt 0              @ ../src/driver/stm32g4-v120/src/stm32g4xx_hal_tim_ex.c:898:12
	cmp	r0, #1
	bne	.LBB14_14
.Ltmp340:
@ %bb.12:
	@DEBUG_VALUE: HAL_TIMEx_OCN_Start_DMA:htim <- $r5
	@DEBUG_VALUE: HAL_TIMEx_OCN_Start_DMA:Channel <- $r4
	@DEBUG_VALUE: HAL_TIMEx_OCN_Start_DMA:Length <- $r3
	@DEBUG_VALUE: HAL_TIMEx_OCN_Start_DMA:pData <- $r2
	@DEBUG_VALUE: HAL_TIMEx_OCN_Start_DMA:Length <- $r3
	.loc	7 900 25 is_stmt 1              @ ../src/driver/stm32g4-v120/src/stm32g4xx_hal_tim_ex.c:900:25
	cbnz	r2, .LBB14_15
.Ltmp341:
@ %bb.13:
	@DEBUG_VALUE: HAL_TIMEx_OCN_Start_DMA:htim <- $r5
	@DEBUG_VALUE: HAL_TIMEx_OCN_Start_DMA:Channel <- $r4
	@DEBUG_VALUE: HAL_TIMEx_OCN_Start_DMA:Length <- $r3
	@DEBUG_VALUE: HAL_TIMEx_OCN_Start_DMA:pData <- $r2
	cbz	r3, .LBB14_15
.Ltmp342:
.LBB14_14:
	@DEBUG_VALUE: HAL_TIMEx_OCN_Start_DMA:htim <- $r5
	@DEBUG_VALUE: HAL_TIMEx_OCN_Start_DMA:Channel <- $r4
	.loc	7 0 25 is_stmt 0                @ ../src/driver/stm32g4-v120/src/stm32g4xx_hal_tim_ex.c:0:25
	movs	r0, #1
	.loc	7 1018 1 is_stmt 1              @ ../src/driver/stm32g4-v120/src/stm32g4xx_hal_tim_ex.c:1018:1
	pop	{r4, r5, r7, pc}
.Ltmp343:
.LBB14_15:
	@DEBUG_VALUE: HAL_TIMEx_OCN_Start_DMA:htim <- $r5
	@DEBUG_VALUE: HAL_TIMEx_OCN_Start_DMA:Channel <- $r4
	@DEBUG_VALUE: HAL_TIMEx_OCN_Start_DMA:Length <- $r3
	@DEBUG_VALUE: HAL_TIMEx_OCN_Start_DMA:pData <- $r2
	@DEBUG_VALUE: HAL_TIMEx_OCN_Start_DMA:Length <- $r3
	.loc	7 0 1 is_stmt 0                 @ ../src/driver/stm32g4-v120/src/stm32g4xx_hal_tim_ex.c:0:1
	movs	r0, #2
.Ltmp344:
	.loc	7 906 7 is_stmt 1               @ ../src/driver/stm32g4-v120/src/stm32g4xx_hal_tim_ex.c:906:7
	cbz	r4, .LBB14_18
.Ltmp345:
@ %bb.16:
	@DEBUG_VALUE: HAL_TIMEx_OCN_Start_DMA:htim <- $r5
	@DEBUG_VALUE: HAL_TIMEx_OCN_Start_DMA:Channel <- $r4
	@DEBUG_VALUE: HAL_TIMEx_OCN_Start_DMA:Length <- $r3
	@DEBUG_VALUE: HAL_TIMEx_OCN_Start_DMA:pData <- $r2
	cmp	r4, #8
	beq	.LBB14_19
.Ltmp346:
@ %bb.17:
	@DEBUG_VALUE: HAL_TIMEx_OCN_Start_DMA:htim <- $r5
	@DEBUG_VALUE: HAL_TIMEx_OCN_Start_DMA:Channel <- $r4
	@DEBUG_VALUE: HAL_TIMEx_OCN_Start_DMA:Length <- $r3
	@DEBUG_VALUE: HAL_TIMEx_OCN_Start_DMA:pData <- $r2
	cmp	r4, #4
	ite	ne
	strbne.w	r0, [r5, #71]
	strbeq.w	r0, [r5, #69]
	b	.LBB14_20
.Ltmp347:
.LBB14_18:
	@DEBUG_VALUE: HAL_TIMEx_OCN_Start_DMA:htim <- $r5
	@DEBUG_VALUE: HAL_TIMEx_OCN_Start_DMA:Channel <- $r4
	@DEBUG_VALUE: HAL_TIMEx_OCN_Start_DMA:Length <- $r3
	@DEBUG_VALUE: HAL_TIMEx_OCN_Start_DMA:pData <- $r2
	strb.w	r0, [r5, #68]
	b	.LBB14_20
.Ltmp348:
.LBB14_19:
	@DEBUG_VALUE: HAL_TIMEx_OCN_Start_DMA:htim <- $r5
	@DEBUG_VALUE: HAL_TIMEx_OCN_Start_DMA:Channel <- $r4
	@DEBUG_VALUE: HAL_TIMEx_OCN_Start_DMA:Length <- $r3
	@DEBUG_VALUE: HAL_TIMEx_OCN_Start_DMA:pData <- $r2
	strb.w	r0, [r5, #70]
.Ltmp349:
.LBB14_20:
	@DEBUG_VALUE: HAL_TIMEx_OCN_Start_DMA:htim <- $r5
	@DEBUG_VALUE: HAL_TIMEx_OCN_Start_DMA:Channel <- $r4
	@DEBUG_VALUE: HAL_TIMEx_OCN_Start_DMA:Length <- $r3
	@DEBUG_VALUE: HAL_TIMEx_OCN_Start_DMA:pData <- $r2
	@DEBUG_VALUE: HAL_TIMEx_OCN_Start_DMA:Length <- $r3
	.loc	7 914 3                         @ ../src/driver/stm32g4-v120/src/stm32g4xx_hal_tim_ex.c:914:3
	ror.w	r0, r4, #2
	cmp	r0, #3
	bhi	.LBB14_25
.Ltmp350:
@ %bb.21:
	@DEBUG_VALUE: HAL_TIMEx_OCN_Start_DMA:htim <- $r5
	@DEBUG_VALUE: HAL_TIMEx_OCN_Start_DMA:Channel <- $r4
	@DEBUG_VALUE: HAL_TIMEx_OCN_Start_DMA:Length <- $r3
	@DEBUG_VALUE: HAL_TIMEx_OCN_Start_DMA:pData <- $r2
	@DEBUG_VALUE: HAL_TIMEx_OCN_Start_DMA:Length <- $r3
	.loc	7 0 3 is_stmt 0                 @ ../src/driver/stm32g4-v120/src/stm32g4xx_hal_tim_ex.c:0:3
.LCPI14_0:
	tbb	[pc, r0]
.Ltmp351:
@ %bb.22:
.LJTI14_0:
	.byte	(.LBB14_23-(.LCPI14_0+4))/2
	.byte	(.LBB14_26-(.LCPI14_0+4))/2
	.byte	(.LBB14_28-(.LCPI14_0+4))/2
	.byte	(.LBB14_30-(.LCPI14_0+4))/2
	.p2align	1
.LBB14_23:
.Ltmp352:
	@DEBUG_VALUE: HAL_TIMEx_OCN_Start_DMA:htim <- $r5
	@DEBUG_VALUE: HAL_TIMEx_OCN_Start_DMA:Channel <- $r4
	@DEBUG_VALUE: HAL_TIMEx_OCN_Start_DMA:Length <- $r3
	@DEBUG_VALUE: HAL_TIMEx_OCN_Start_DMA:pData <- $r2
	.loc	7 919 7 is_stmt 1               @ ../src/driver/stm32g4-v120/src/stm32g4xx_hal_tim_ex.c:919:7
	ldr	r0, [r5, #36]
	.loc	7 919 52 is_stmt 0              @ ../src/driver/stm32g4-v120/src/stm32g4xx_hal_tim_ex.c:919:52
	movw	r1, :lower16:TIM_DMADelayPulseNCplt
	movt	r1, :upper16:TIM_DMADelayPulseNCplt
	str	r1, [r0, #44]
	.loc	7 920 7 is_stmt 1               @ ../src/driver/stm32g4-v120/src/stm32g4xx_hal_tim_ex.c:920:7
	ldr	r0, [r5, #36]
	.loc	7 920 56 is_stmt 0              @ ../src/driver/stm32g4-v120/src/stm32g4xx_hal_tim_ex.c:920:56
	movw	r1, :lower16:TIM_DMADelayPulseHalfCplt
	movt	r1, :upper16:TIM_DMADelayPulseHalfCplt
	str	r1, [r0, #48]
	.loc	7 923 7 is_stmt 1               @ ../src/driver/stm32g4-v120/src/stm32g4xx_hal_tim_ex.c:923:7
	ldr	r0, [r5, #36]
	.loc	7 923 53 is_stmt 0              @ ../src/driver/stm32g4-v120/src/stm32g4xx_hal_tim_ex.c:923:53
	movw	r1, :lower16:TIM_DMAErrorCCxN
.Ltmp353:
	.loc	7 926 90 is_stmt 1              @ ../src/driver/stm32g4-v120/src/stm32g4xx_hal_tim_ex.c:926:90
	ldr.w	r12, [r5]
.Ltmp354:
	.loc	7 923 53                        @ ../src/driver/stm32g4-v120/src/stm32g4xx_hal_tim_ex.c:923:53
	movt	r1, :upper16:TIM_DMAErrorCCxN
	str	r1, [r0, #52]
.Ltmp355:
	.loc	7 926 28                        @ ../src/driver/stm32g4-v120/src/stm32g4xx_hal_tim_ex.c:926:28
	ldr	r0, [r5, #36]
	.loc	7 926 100 is_stmt 0             @ ../src/driver/stm32g4-v120/src/stm32g4xx_hal_tim_ex.c:926:100
	add.w	r12, r12, #52
	.loc	7 926 11                        @ ../src/driver/stm32g4-v120/src/stm32g4xx_hal_tim_ex.c:926:11
	mov	r1, r2
	mov	r2, r12
.Ltmp356:
	@DEBUG_VALUE: HAL_TIMEx_OCN_Start_DMA:pData <- [DW_OP_LLVM_entry_value 1] $r2
	bl	HAL_DMA_Start_IT
.Ltmp357:
	@DEBUG_VALUE: HAL_TIMEx_OCN_Start_DMA:Length <- [DW_OP_LLVM_entry_value 1] $r3
	.loc	7 926 11                        @ ../src/driver/stm32g4-v120/src/stm32g4xx_hal_tim_ex.c:926:11
	cmp	r0, #0
	bne	.LBB14_14
.Ltmp358:
@ %bb.24:
	@DEBUG_VALUE: HAL_TIMEx_OCN_Start_DMA:htim <- $r5
	@DEBUG_VALUE: HAL_TIMEx_OCN_Start_DMA:Channel <- $r4
	@DEBUG_VALUE: HAL_TIMEx_OCN_Start_DMA:Length <- [DW_OP_LLVM_entry_value 1] $r3
	@DEBUG_VALUE: HAL_TIMEx_OCN_Start_DMA:pData <- [DW_OP_LLVM_entry_value 1] $r2
	.loc	7 931 7 is_stmt 1               @ ../src/driver/stm32g4-v120/src/stm32g4xx_hal_tim_ex.c:931:7
	ldr	r1, [r5]
	ldr	r0, [r1, #12]
	orr	r0, r0, #512
	b	.LBB14_32
.Ltmp359:
.LBB14_25:
	@DEBUG_VALUE: HAL_TIMEx_OCN_Start_DMA:htim <- $r5
	@DEBUG_VALUE: HAL_TIMEx_OCN_Start_DMA:Channel <- $r4
	@DEBUG_VALUE: HAL_TIMEx_OCN_Start_DMA:Length <- $r3
	@DEBUG_VALUE: HAL_TIMEx_OCN_Start_DMA:pData <- $r2
	.loc	7 997 28                        @ ../src/driver/stm32g4-v120/src/stm32g4xx_hal_tim_ex.c:997:28
	ldr	r1, [r5]
	b	.LBB14_33
.Ltmp360:
.LBB14_26:
	@DEBUG_VALUE: HAL_TIMEx_OCN_Start_DMA:htim <- $r5
	@DEBUG_VALUE: HAL_TIMEx_OCN_Start_DMA:Channel <- $r4
	@DEBUG_VALUE: HAL_TIMEx_OCN_Start_DMA:Length <- $r3
	@DEBUG_VALUE: HAL_TIMEx_OCN_Start_DMA:pData <- $r2
	.loc	7 938 7                         @ ../src/driver/stm32g4-v120/src/stm32g4xx_hal_tim_ex.c:938:7
	ldr	r0, [r5, #40]
	.loc	7 938 52 is_stmt 0              @ ../src/driver/stm32g4-v120/src/stm32g4xx_hal_tim_ex.c:938:52
	movw	r1, :lower16:TIM_DMADelayPulseNCplt
	movt	r1, :upper16:TIM_DMADelayPulseNCplt
	str	r1, [r0, #44]
	.loc	7 939 7 is_stmt 1               @ ../src/driver/stm32g4-v120/src/stm32g4xx_hal_tim_ex.c:939:7
	ldr	r0, [r5, #40]
	.loc	7 939 56 is_stmt 0              @ ../src/driver/stm32g4-v120/src/stm32g4xx_hal_tim_ex.c:939:56
	movw	r1, :lower16:TIM_DMADelayPulseHalfCplt
	movt	r1, :upper16:TIM_DMADelayPulseHalfCplt
	str	r1, [r0, #48]
	.loc	7 942 7 is_stmt 1               @ ../src/driver/stm32g4-v120/src/stm32g4xx_hal_tim_ex.c:942:7
	ldr	r0, [r5, #40]
	.loc	7 942 53 is_stmt 0              @ ../src/driver/stm32g4-v120/src/stm32g4xx_hal_tim_ex.c:942:53
	movw	r1, :lower16:TIM_DMAErrorCCxN
.Ltmp361:
	.loc	7 945 90 is_stmt 1              @ ../src/driver/stm32g4-v120/src/stm32g4xx_hal_tim_ex.c:945:90
	ldr.w	r12, [r5]
.Ltmp362:
	.loc	7 942 53                        @ ../src/driver/stm32g4-v120/src/stm32g4xx_hal_tim_ex.c:942:53
	movt	r1, :upper16:TIM_DMAErrorCCxN
	str	r1, [r0, #52]
.Ltmp363:
	.loc	7 945 28                        @ ../src/driver/stm32g4-v120/src/stm32g4xx_hal_tim_ex.c:945:28
	ldr	r0, [r5, #40]
	.loc	7 945 100 is_stmt 0             @ ../src/driver/stm32g4-v120/src/stm32g4xx_hal_tim_ex.c:945:100
	add.w	r12, r12, #56
	.loc	7 945 11                        @ ../src/driver/stm32g4-v120/src/stm32g4xx_hal_tim_ex.c:945:11
	mov	r1, r2
	mov	r2, r12
.Ltmp364:
	@DEBUG_VALUE: HAL_TIMEx_OCN_Start_DMA:pData <- [DW_OP_LLVM_entry_value 1] $r2
	bl	HAL_DMA_Start_IT
.Ltmp365:
	@DEBUG_VALUE: HAL_TIMEx_OCN_Start_DMA:Length <- [DW_OP_LLVM_entry_value 1] $r3
	.loc	7 945 11                        @ ../src/driver/stm32g4-v120/src/stm32g4xx_hal_tim_ex.c:945:11
	cmp	r0, #0
	bne	.LBB14_14
.Ltmp366:
@ %bb.27:
	@DEBUG_VALUE: HAL_TIMEx_OCN_Start_DMA:htim <- $r5
	@DEBUG_VALUE: HAL_TIMEx_OCN_Start_DMA:Channel <- $r4
	@DEBUG_VALUE: HAL_TIMEx_OCN_Start_DMA:Length <- [DW_OP_LLVM_entry_value 1] $r3
	@DEBUG_VALUE: HAL_TIMEx_OCN_Start_DMA:pData <- [DW_OP_LLVM_entry_value 1] $r2
	.loc	7 950 7 is_stmt 1               @ ../src/driver/stm32g4-v120/src/stm32g4xx_hal_tim_ex.c:950:7
	ldr	r1, [r5]
	ldr	r0, [r1, #12]
	orr	r0, r0, #1024
	b	.LBB14_32
.Ltmp367:
.LBB14_28:
	@DEBUG_VALUE: HAL_TIMEx_OCN_Start_DMA:htim <- $r5
	@DEBUG_VALUE: HAL_TIMEx_OCN_Start_DMA:Channel <- $r4
	@DEBUG_VALUE: HAL_TIMEx_OCN_Start_DMA:Length <- $r3
	@DEBUG_VALUE: HAL_TIMEx_OCN_Start_DMA:pData <- $r2
	.loc	7 957 7                         @ ../src/driver/stm32g4-v120/src/stm32g4xx_hal_tim_ex.c:957:7
	ldr	r0, [r5, #44]
	.loc	7 957 52 is_stmt 0              @ ../src/driver/stm32g4-v120/src/stm32g4xx_hal_tim_ex.c:957:52
	movw	r1, :lower16:TIM_DMADelayPulseNCplt
	movt	r1, :upper16:TIM_DMADelayPulseNCplt
	str	r1, [r0, #44]
	.loc	7 958 7 is_stmt 1               @ ../src/driver/stm32g4-v120/src/stm32g4xx_hal_tim_ex.c:958:7
	ldr	r0, [r5, #44]
	.loc	7 958 56 is_stmt 0              @ ../src/driver/stm32g4-v120/src/stm32g4xx_hal_tim_ex.c:958:56
	movw	r1, :lower16:TIM_DMADelayPulseHalfCplt
	movt	r1, :upper16:TIM_DMADelayPulseHalfCplt
	str	r1, [r0, #48]
	.loc	7 961 7 is_stmt 1               @ ../src/driver/stm32g4-v120/src/stm32g4xx_hal_tim_ex.c:961:7
	ldr	r0, [r5, #44]
	.loc	7 961 53 is_stmt 0              @ ../src/driver/stm32g4-v120/src/stm32g4xx_hal_tim_ex.c:961:53
	movw	r1, :lower16:TIM_DMAErrorCCxN
.Ltmp368:
	.loc	7 964 90 is_stmt 1              @ ../src/driver/stm32g4-v120/src/stm32g4xx_hal_tim_ex.c:964:90
	ldr.w	r12, [r5]
.Ltmp369:
	.loc	7 961 53                        @ ../src/driver/stm32g4-v120/src/stm32g4xx_hal_tim_ex.c:961:53
	movt	r1, :upper16:TIM_DMAErrorCCxN
	str	r1, [r0, #52]
.Ltmp370:
	.loc	7 964 28                        @ ../src/driver/stm32g4-v120/src/stm32g4xx_hal_tim_ex.c:964:28
	ldr	r0, [r5, #44]
	.loc	7 964 100 is_stmt 0             @ ../src/driver/stm32g4-v120/src/stm32g4xx_hal_tim_ex.c:964:100
	add.w	r12, r12, #60
	.loc	7 964 11                        @ ../src/driver/stm32g4-v120/src/stm32g4xx_hal_tim_ex.c:964:11
	mov	r1, r2
	mov	r2, r12
.Ltmp371:
	@DEBUG_VALUE: HAL_TIMEx_OCN_Start_DMA:pData <- [DW_OP_LLVM_entry_value 1] $r2
	bl	HAL_DMA_Start_IT
.Ltmp372:
	@DEBUG_VALUE: HAL_TIMEx_OCN_Start_DMA:Length <- [DW_OP_LLVM_entry_value 1] $r3
	.loc	7 964 11                        @ ../src/driver/stm32g4-v120/src/stm32g4xx_hal_tim_ex.c:964:11
	cmp	r0, #0
	bne.w	.LBB14_14
.Ltmp373:
@ %bb.29:
	@DEBUG_VALUE: HAL_TIMEx_OCN_Start_DMA:htim <- $r5
	@DEBUG_VALUE: HAL_TIMEx_OCN_Start_DMA:Channel <- $r4
	@DEBUG_VALUE: HAL_TIMEx_OCN_Start_DMA:Length <- [DW_OP_LLVM_entry_value 1] $r3
	@DEBUG_VALUE: HAL_TIMEx_OCN_Start_DMA:pData <- [DW_OP_LLVM_entry_value 1] $r2
	.loc	7 969 7 is_stmt 1               @ ../src/driver/stm32g4-v120/src/stm32g4xx_hal_tim_ex.c:969:7
	ldr	r1, [r5]
	ldr	r0, [r1, #12]
	orr	r0, r0, #2048
	b	.LBB14_32
.Ltmp374:
.LBB14_30:
	@DEBUG_VALUE: HAL_TIMEx_OCN_Start_DMA:htim <- $r5
	@DEBUG_VALUE: HAL_TIMEx_OCN_Start_DMA:Channel <- $r4
	@DEBUG_VALUE: HAL_TIMEx_OCN_Start_DMA:Length <- $r3
	@DEBUG_VALUE: HAL_TIMEx_OCN_Start_DMA:pData <- $r2
	.loc	7 976 7                         @ ../src/driver/stm32g4-v120/src/stm32g4xx_hal_tim_ex.c:976:7
	ldr	r0, [r5, #48]
	.loc	7 976 52 is_stmt 0              @ ../src/driver/stm32g4-v120/src/stm32g4xx_hal_tim_ex.c:976:52
	movw	r1, :lower16:TIM_DMADelayPulseNCplt
	movt	r1, :upper16:TIM_DMADelayPulseNCplt
	str	r1, [r0, #44]
	.loc	7 977 7 is_stmt 1               @ ../src/driver/stm32g4-v120/src/stm32g4xx_hal_tim_ex.c:977:7
	ldr	r0, [r5, #48]
	.loc	7 977 56 is_stmt 0              @ ../src/driver/stm32g4-v120/src/stm32g4xx_hal_tim_ex.c:977:56
	movw	r1, :lower16:TIM_DMADelayPulseHalfCplt
	movt	r1, :upper16:TIM_DMADelayPulseHalfCplt
	str	r1, [r0, #48]
	.loc	7 980 7 is_stmt 1               @ ../src/driver/stm32g4-v120/src/stm32g4xx_hal_tim_ex.c:980:7
	ldr	r0, [r5, #48]
	.loc	7 980 53 is_stmt 0              @ ../src/driver/stm32g4-v120/src/stm32g4xx_hal_tim_ex.c:980:53
	movw	r1, :lower16:TIM_DMAErrorCCxN
.Ltmp375:
	.loc	7 983 90 is_stmt 1              @ ../src/driver/stm32g4-v120/src/stm32g4xx_hal_tim_ex.c:983:90
	ldr.w	r12, [r5]
.Ltmp376:
	.loc	7 980 53                        @ ../src/driver/stm32g4-v120/src/stm32g4xx_hal_tim_ex.c:980:53
	movt	r1, :upper16:TIM_DMAErrorCCxN
	str	r1, [r0, #52]
.Ltmp377:
	.loc	7 983 28                        @ ../src/driver/stm32g4-v120/src/stm32g4xx_hal_tim_ex.c:983:28
	ldr	r0, [r5, #48]
	.loc	7 983 100 is_stmt 0             @ ../src/driver/stm32g4-v120/src/stm32g4xx_hal_tim_ex.c:983:100
	add.w	r12, r12, #64
	.loc	7 983 11                        @ ../src/driver/stm32g4-v120/src/stm32g4xx_hal_tim_ex.c:983:11
	mov	r1, r2
	mov	r2, r12
.Ltmp378:
	@DEBUG_VALUE: HAL_TIMEx_OCN_Start_DMA:pData <- [DW_OP_LLVM_entry_value 1] $r2
	bl	HAL_DMA_Start_IT
.Ltmp379:
	@DEBUG_VALUE: HAL_TIMEx_OCN_Start_DMA:Length <- [DW_OP_LLVM_entry_value 1] $r3
	.loc	7 983 11                        @ ../src/driver/stm32g4-v120/src/stm32g4xx_hal_tim_ex.c:983:11
	cmp	r0, #0
	bne.w	.LBB14_14
.Ltmp380:
@ %bb.31:
	@DEBUG_VALUE: HAL_TIMEx_OCN_Start_DMA:htim <- $r5
	@DEBUG_VALUE: HAL_TIMEx_OCN_Start_DMA:Channel <- $r4
	@DEBUG_VALUE: HAL_TIMEx_OCN_Start_DMA:Length <- [DW_OP_LLVM_entry_value 1] $r3
	@DEBUG_VALUE: HAL_TIMEx_OCN_Start_DMA:pData <- [DW_OP_LLVM_entry_value 1] $r2
	.loc	7 988 7 is_stmt 1               @ ../src/driver/stm32g4-v120/src/stm32g4xx_hal_tim_ex.c:988:7
	ldr	r1, [r5]
	ldr	r0, [r1, #12]
	orr	r0, r0, #4096
.Ltmp381:
.LBB14_32:
	@DEBUG_VALUE: HAL_TIMEx_OCN_Start_DMA:htim <- $r5
	@DEBUG_VALUE: HAL_TIMEx_OCN_Start_DMA:Channel <- $r4
	@DEBUG_VALUE: HAL_TIMEx_OCN_Start_DMA:Length <- [DW_OP_LLVM_entry_value 1] $r3
	@DEBUG_VALUE: HAL_TIMEx_OCN_Start_DMA:pData <- [DW_OP_LLVM_entry_value 1] $r2
	.loc	7 0 0 is_stmt 0                 @ ../src/driver/stm32g4-v120/src/stm32g4xx_hal_tim_ex.c:0:0
	str	r0, [r1, #12]
.Ltmp382:
.LBB14_33:
	@DEBUG_VALUE: HAL_TIMEx_OCN_Start_DMA:htim <- $r5
	@DEBUG_VALUE: HAL_TIMEx_OCN_Start_DMA:Channel <- $r4
	@DEBUG_VALUE: TIM_CCxNChannelCmd:TIMx <- $r1
	@DEBUG_VALUE: TIM_CCxNChannelCmd:Channel <- $r4
	@DEBUG_VALUE: TIM_CCxNChannelCmd:ChannelNState <- 4
	.loc	7 3578 36 is_stmt 1             @ ../src/driver/stm32g4-v120/src/stm32g4xx_hal_tim_ex.c:3578:36
	and	r0, r4, #31
	movs	r2, #4
	.loc	7 3581 14                       @ ../src/driver/stm32g4-v120/src/stm32g4xx_hal_tim_ex.c:3581:14
	ldr	r3, [r1, #32]
	.loc	7 3578 24                       @ ../src/driver/stm32g4-v120/src/stm32g4xx_hal_tim_ex.c:3578:24
	lsl.w	r0, r2, r0
.Ltmp383:
	@DEBUG_VALUE: TIM_CCxNChannelCmd:tmp <- $r0
	.loc	7 3581 14                       @ ../src/driver/stm32g4-v120/src/stm32g4xx_hal_tim_ex.c:3581:14
	bic.w	r2, r3, r0
	str	r2, [r1, #32]
	.loc	7 3584 14                       @ ../src/driver/stm32g4-v120/src/stm32g4xx_hal_tim_ex.c:3584:14
	ldr	r2, [r1, #32]
	orrs	r0, r2
.Ltmp384:
	str	r0, [r1, #32]
.Ltmp385:
	.loc	7 1000 3                        @ ../src/driver/stm32g4-v120/src/stm32g4xx_hal_tim_ex.c:1000:3
	ldr	r0, [r1, #68]
	movw	r2, #11263
	movt	r2, #16385
	orr	r0, r0, #32768
.Ltmp386:
	.loc	7 1003 7                        @ ../src/driver/stm32g4-v120/src/stm32g4xx_hal_tim_ex.c:1003:7
	cmp	r1, r2
.Ltmp387:
	.loc	7 1000 3                        @ ../src/driver/stm32g4-v120/src/stm32g4xx_hal_tim_ex.c:1000:3
	str	r0, [r1, #68]
.Ltmp388:
	.loc	7 1003 7                        @ ../src/driver/stm32g4-v120/src/stm32g4xx_hal_tim_ex.c:1003:7
	bgt	.LBB14_37
.Ltmp389:
@ %bb.34:
	@DEBUG_VALUE: HAL_TIMEx_OCN_Start_DMA:htim <- $r5
	@DEBUG_VALUE: HAL_TIMEx_OCN_Start_DMA:Channel <- $r4
	.loc	7 0 7 is_stmt 0                 @ ../src/driver/stm32g4-v120/src/stm32g4xx_hal_tim_ex.c:0:7
	movw	r0, #2047
	movt	r0, #16384
	.loc	7 1003 7                        @ ../src/driver/stm32g4-v120/src/stm32g4xx_hal_tim_ex.c:1003:7
	cmp	r1, r0
	bgt	.LBB14_40
.Ltmp390:
@ %bb.35:
	@DEBUG_VALUE: HAL_TIMEx_OCN_Start_DMA:htim <- $r5
	@DEBUG_VALUE: HAL_TIMEx_OCN_Start_DMA:Channel <- $r4
	cmp.w	r1, #1073741824
	beq	.LBB14_47
.Ltmp391:
@ %bb.36:
	@DEBUG_VALUE: HAL_TIMEx_OCN_Start_DMA:htim <- $r5
	@DEBUG_VALUE: HAL_TIMEx_OCN_Start_DMA:Channel <- $r4
	.loc	7 0 7                           @ ../src/driver/stm32g4-v120/src/stm32g4xx_hal_tim_ex.c:0:7
	movw	r0, #1024
	b	.LBB14_42
.Ltmp392:
.LBB14_37:
	@DEBUG_VALUE: HAL_TIMEx_OCN_Start_DMA:htim <- $r5
	@DEBUG_VALUE: HAL_TIMEx_OCN_Start_DMA:Channel <- $r4
	movw	r0, #16383
	movt	r0, #16385
	.loc	7 1003 7                        @ ../src/driver/stm32g4-v120/src/stm32g4xx_hal_tim_ex.c:1003:7
	cmp	r1, r0
	bgt	.LBB14_43
.Ltmp393:
@ %bb.38:
	@DEBUG_VALUE: HAL_TIMEx_OCN_Start_DMA:htim <- $r5
	@DEBUG_VALUE: HAL_TIMEx_OCN_Start_DMA:Channel <- $r4
	.loc	7 0 7                           @ ../src/driver/stm32g4-v120/src/stm32g4xx_hal_tim_ex.c:0:7
	movw	r0, #11264
	movt	r0, #16385
	.loc	7 1003 7                        @ ../src/driver/stm32g4-v120/src/stm32g4xx_hal_tim_ex.c:1003:7
	cmp	r1, r0
	beq	.LBB14_47
.Ltmp394:
@ %bb.39:
	@DEBUG_VALUE: HAL_TIMEx_OCN_Start_DMA:htim <- $r5
	@DEBUG_VALUE: HAL_TIMEx_OCN_Start_DMA:Channel <- $r4
	.loc	7 0 7                           @ ../src/driver/stm32g4-v120/src/stm32g4xx_hal_tim_ex.c:0:7
	movw	r0, #13312
	b	.LBB14_45
.Ltmp395:
.LBB14_40:
	@DEBUG_VALUE: HAL_TIMEx_OCN_Start_DMA:htim <- $r5
	@DEBUG_VALUE: HAL_TIMEx_OCN_Start_DMA:Channel <- $r4
	movw	r0, #2048
	movt	r0, #16384
	.loc	7 1003 7                        @ ../src/driver/stm32g4-v120/src/stm32g4xx_hal_tim_ex.c:1003:7
	cmp	r1, r0
	beq	.LBB14_47
.Ltmp396:
@ %bb.41:
	@DEBUG_VALUE: HAL_TIMEx_OCN_Start_DMA:htim <- $r5
	@DEBUG_VALUE: HAL_TIMEx_OCN_Start_DMA:Channel <- $r4
	.loc	7 0 7                           @ ../src/driver/stm32g4-v120/src/stm32g4xx_hal_tim_ex.c:0:7
	movw	r0, #3072
.Ltmp397:
.LBB14_42:
	@DEBUG_VALUE: HAL_TIMEx_OCN_Start_DMA:htim <- $r5
	@DEBUG_VALUE: HAL_TIMEx_OCN_Start_DMA:Channel <- $r4
	movt	r0, #16384
	b	.LBB14_46
.Ltmp398:
.LBB14_43:
	@DEBUG_VALUE: HAL_TIMEx_OCN_Start_DMA:htim <- $r5
	@DEBUG_VALUE: HAL_TIMEx_OCN_Start_DMA:Channel <- $r4
	movw	r0, #20480
	movt	r0, #16385
	.loc	7 1003 7                        @ ../src/driver/stm32g4-v120/src/stm32g4xx_hal_tim_ex.c:1003:7
	cmp	r1, r0
	beq	.LBB14_47
.Ltmp399:
@ %bb.44:
	@DEBUG_VALUE: HAL_TIMEx_OCN_Start_DMA:htim <- $r5
	@DEBUG_VALUE: HAL_TIMEx_OCN_Start_DMA:Channel <- $r4
	.loc	7 0 7                           @ ../src/driver/stm32g4-v120/src/stm32g4xx_hal_tim_ex.c:0:7
	movw	r0, #16384
.Ltmp400:
.LBB14_45:
	@DEBUG_VALUE: HAL_TIMEx_OCN_Start_DMA:htim <- $r5
	@DEBUG_VALUE: HAL_TIMEx_OCN_Start_DMA:Channel <- $r4
	movt	r0, #16385
.Ltmp401:
.LBB14_46:
	@DEBUG_VALUE: HAL_TIMEx_OCN_Start_DMA:htim <- $r5
	@DEBUG_VALUE: HAL_TIMEx_OCN_Start_DMA:Channel <- $r4
	.loc	7 1003 7                        @ ../src/driver/stm32g4-v120/src/stm32g4xx_hal_tim_ex.c:1003:7
	cmp	r1, r0
	bne	.LBB14_49
.Ltmp402:
.LBB14_47:
	@DEBUG_VALUE: HAL_TIMEx_OCN_Start_DMA:htim <- $r5
	@DEBUG_VALUE: HAL_TIMEx_OCN_Start_DMA:Channel <- $r4
	.loc	7 1005 31 is_stmt 1             @ ../src/driver/stm32g4-v120/src/stm32g4xx_hal_tim_ex.c:1005:31
	ldr	r0, [r1, #8]
	movs	r2, #7
	movt	r2, #1
	.loc	7 1005 36 is_stmt 0             @ ../src/driver/stm32g4-v120/src/stm32g4xx_hal_tim_ex.c:1005:36
	ands	r2, r0
.Ltmp403:
	@DEBUG_VALUE: HAL_TIMEx_OCN_Start_DMA:tmpsmcr <- $r2
	.loc	7 1006 10 is_stmt 1             @ ../src/driver/stm32g4-v120/src/stm32g4xx_hal_tim_ex.c:1006:10
	cmp	r2, #6
	mov.w	r0, #0
	beq	.LBB14_50
.Ltmp404:
@ %bb.48:
	@DEBUG_VALUE: HAL_TIMEx_OCN_Start_DMA:htim <- $r5
	@DEBUG_VALUE: HAL_TIMEx_OCN_Start_DMA:Channel <- $r4
	@DEBUG_VALUE: HAL_TIMEx_OCN_Start_DMA:tmpsmcr <- $r2
	cmp.w	r2, #65536
.Ltmp405:
	.loc	7 1018 1                        @ ../src/driver/stm32g4-v120/src/stm32g4xx_hal_tim_ex.c:1018:1
	it	eq
	popeq	{r4, r5, r7, pc}
.Ltmp406:
.LBB14_49:
	.loc	7 0 0 is_stmt 0                 @ ../src/driver/stm32g4-v120/src/stm32g4xx_hal_tim_ex.c:0:0
	ldr	r0, [r1]
	orr	r0, r0, #1
	str	r0, [r1]
	movs	r0, #0
.Ltmp407:
.LBB14_50:
	.loc	7 1018 1                        @ ../src/driver/stm32g4-v120/src/stm32g4xx_hal_tim_ex.c:1018:1
	pop	{r4, r5, r7, pc}
.Ltmp408:
.Lfunc_end14:
	.size	HAL_TIMEx_OCN_Start_DMA, .Lfunc_end14-HAL_TIMEx_OCN_Start_DMA
	.cfi_endproc
	.cantunwind
	.fnend
                                        @ -- End function
	.section	.text.TIM_DMADelayPulseNCplt,"ax",%progbits
	.p2align	1                               @ -- Begin function TIM_DMADelayPulseNCplt
	.type	TIM_DMADelayPulseNCplt,%function
	.code	16                              @ @TIM_DMADelayPulseNCplt
	.thumb_func
TIM_DMADelayPulseNCplt:
.Lfunc_begin15:
	.loc	7 3470 0 is_stmt 1              @ ../src/driver/stm32g4-v120/src/stm32g4xx_hal_tim_ex.c:3470:0
	.fnstart
	.cfi_startproc
@ %bb.0:
	@DEBUG_VALUE: TIM_DMADelayPulseNCplt:hdma <- $r0
	@DEBUG_VALUE: TIM_DMADelayPulseNCplt:hdma <- $r0
	.save	{r4, lr}
	push	{r4, lr}
	.cfi_def_cfa_offset 8
	.cfi_offset lr, -4
	.cfi_offset r4, -8
.Ltmp409:
	.loc	7 3471 79 prologue_end          @ ../src/driver/stm32g4-v120/src/stm32g4xx_hal_tim_ex.c:3471:79
	ldr	r4, [r0, #40]
.Ltmp410:
	@DEBUG_VALUE: TIM_DMADelayPulseNCplt:htim <- $r4
	.loc	7 3473 15                       @ ../src/driver/stm32g4-v120/src/stm32g4xx_hal_tim_ex.c:3473:15
	ldr	r1, [r4, #36]
.Ltmp411:
	.loc	7 3473 7 is_stmt 0              @ ../src/driver/stm32g4-v120/src/stm32g4xx_hal_tim_ex.c:3473:7
	cmp	r1, r0
	beq	.LBB15_6
.Ltmp412:
@ %bb.1:
	@DEBUG_VALUE: TIM_DMADelayPulseNCplt:htim <- $r4
	@DEBUG_VALUE: TIM_DMADelayPulseNCplt:hdma <- $r0
	.loc	7 3482 20 is_stmt 1             @ ../src/driver/stm32g4-v120/src/stm32g4xx_hal_tim_ex.c:3482:20
	ldr	r1, [r4, #40]
.Ltmp413:
	.loc	7 3482 12 is_stmt 0             @ ../src/driver/stm32g4-v120/src/stm32g4xx_hal_tim_ex.c:3482:12
	cmp	r1, r0
	beq	.LBB15_8
.Ltmp414:
@ %bb.2:
	@DEBUG_VALUE: TIM_DMADelayPulseNCplt:htim <- $r4
	@DEBUG_VALUE: TIM_DMADelayPulseNCplt:hdma <- $r0
	.loc	7 3491 20 is_stmt 1             @ ../src/driver/stm32g4-v120/src/stm32g4xx_hal_tim_ex.c:3491:20
	ldr	r1, [r4, #44]
.Ltmp415:
	.loc	7 3491 12 is_stmt 0             @ ../src/driver/stm32g4-v120/src/stm32g4xx_hal_tim_ex.c:3491:12
	cmp	r1, r0
	beq	.LBB15_10
.Ltmp416:
@ %bb.3:
	@DEBUG_VALUE: TIM_DMADelayPulseNCplt:htim <- $r4
	@DEBUG_VALUE: TIM_DMADelayPulseNCplt:hdma <- $r0
	.loc	7 3500 20 is_stmt 1             @ ../src/driver/stm32g4-v120/src/stm32g4xx_hal_tim_ex.c:3500:20
	ldr	r1, [r4, #48]
.Ltmp417:
	.loc	7 3500 12 is_stmt 0             @ ../src/driver/stm32g4-v120/src/stm32g4xx_hal_tim_ex.c:3500:12
	cmp	r1, r0
	bne	.LBB15_12
.Ltmp418:
@ %bb.4:
	@DEBUG_VALUE: TIM_DMADelayPulseNCplt:htim <- $r4
	@DEBUG_VALUE: TIM_DMADelayPulseNCplt:hdma <- $r0
	.loc	7 3504 20 is_stmt 1             @ ../src/driver/stm32g4-v120/src/stm32g4xx_hal_tim_ex.c:3504:20
	ldr	r0, [r0, #28]
.Ltmp419:
	@DEBUG_VALUE: TIM_DMADelayPulseNCplt:hdma <- [DW_OP_LLVM_entry_value 1] $r0
	.loc	7 0 20 is_stmt 0                @ ../src/driver/stm32g4-v120/src/stm32g4xx_hal_tim_ex.c:0:20
	movs	r1, #8
.Ltmp420:
	.loc	7 3502 19 is_stmt 1             @ ../src/driver/stm32g4-v120/src/stm32g4xx_hal_tim_ex.c:3502:19
	strb	r1, [r4, #28]
	.loc	7 3504 9                        @ ../src/driver/stm32g4-v120/src/stm32g4xx_hal_tim_ex.c:3504:9
	cbnz	r0, .LBB15_12
.Ltmp421:
@ %bb.5:
	@DEBUG_VALUE: TIM_DMADelayPulseNCplt:htim <- $r4
	@DEBUG_VALUE: TIM_DMADelayPulseNCplt:hdma <- [DW_OP_LLVM_entry_value 1] $r0
	.loc	7 0 9 is_stmt 0                 @ ../src/driver/stm32g4-v120/src/stm32g4xx_hal_tim_ex.c:0:9
	movs	r0, #1
.Ltmp422:
	.loc	7 3506 7 is_stmt 1              @ ../src/driver/stm32g4-v120/src/stm32g4xx_hal_tim_ex.c:3506:7
	strb.w	r0, [r4, #71]
	b	.LBB15_12
.Ltmp423:
.LBB15_6:
	@DEBUG_VALUE: TIM_DMADelayPulseNCplt:htim <- $r4
	@DEBUG_VALUE: TIM_DMADelayPulseNCplt:hdma <- $r0
	.loc	7 3477 20                       @ ../src/driver/stm32g4-v120/src/stm32g4xx_hal_tim_ex.c:3477:20
	ldr	r1, [r0, #28]
	movs	r0, #1
.Ltmp424:
	@DEBUG_VALUE: TIM_DMADelayPulseNCplt:hdma <- [DW_OP_LLVM_entry_value 1] $r0
	.loc	7 3475 19                       @ ../src/driver/stm32g4-v120/src/stm32g4xx_hal_tim_ex.c:3475:19
	strb	r0, [r4, #28]
	.loc	7 3477 9                        @ ../src/driver/stm32g4-v120/src/stm32g4xx_hal_tim_ex.c:3477:9
	cbnz	r1, .LBB15_12
.Ltmp425:
@ %bb.7:
	@DEBUG_VALUE: TIM_DMADelayPulseNCplt:htim <- $r4
	@DEBUG_VALUE: TIM_DMADelayPulseNCplt:hdma <- [DW_OP_LLVM_entry_value 1] $r0
	.loc	7 3479 7                        @ ../src/driver/stm32g4-v120/src/stm32g4xx_hal_tim_ex.c:3479:7
	strb.w	r0, [r4, #68]
	b	.LBB15_12
.Ltmp426:
.LBB15_8:
	@DEBUG_VALUE: TIM_DMADelayPulseNCplt:htim <- $r4
	@DEBUG_VALUE: TIM_DMADelayPulseNCplt:hdma <- $r0
	.loc	7 3486 20                       @ ../src/driver/stm32g4-v120/src/stm32g4xx_hal_tim_ex.c:3486:20
	ldr	r0, [r0, #28]
.Ltmp427:
	@DEBUG_VALUE: TIM_DMADelayPulseNCplt:hdma <- [DW_OP_LLVM_entry_value 1] $r0
	.loc	7 0 20 is_stmt 0                @ ../src/driver/stm32g4-v120/src/stm32g4xx_hal_tim_ex.c:0:20
	movs	r1, #2
.Ltmp428:
	.loc	7 3484 19 is_stmt 1             @ ../src/driver/stm32g4-v120/src/stm32g4xx_hal_tim_ex.c:3484:19
	strb	r1, [r4, #28]
	.loc	7 3486 9                        @ ../src/driver/stm32g4-v120/src/stm32g4xx_hal_tim_ex.c:3486:9
	cbnz	r0, .LBB15_12
.Ltmp429:
@ %bb.9:
	@DEBUG_VALUE: TIM_DMADelayPulseNCplt:htim <- $r4
	@DEBUG_VALUE: TIM_DMADelayPulseNCplt:hdma <- [DW_OP_LLVM_entry_value 1] $r0
	.loc	7 0 9 is_stmt 0                 @ ../src/driver/stm32g4-v120/src/stm32g4xx_hal_tim_ex.c:0:9
	movs	r0, #1
.Ltmp430:
	.loc	7 3488 7 is_stmt 1              @ ../src/driver/stm32g4-v120/src/stm32g4xx_hal_tim_ex.c:3488:7
	strb.w	r0, [r4, #69]
	b	.LBB15_12
.Ltmp431:
.LBB15_10:
	@DEBUG_VALUE: TIM_DMADelayPulseNCplt:htim <- $r4
	@DEBUG_VALUE: TIM_DMADelayPulseNCplt:hdma <- $r0
	.loc	7 3495 20                       @ ../src/driver/stm32g4-v120/src/stm32g4xx_hal_tim_ex.c:3495:20
	ldr	r0, [r0, #28]
.Ltmp432:
	@DEBUG_VALUE: TIM_DMADelayPulseNCplt:hdma <- [DW_OP_LLVM_entry_value 1] $r0
	.loc	7 0 20 is_stmt 0                @ ../src/driver/stm32g4-v120/src/stm32g4xx_hal_tim_ex.c:0:20
	movs	r1, #4
.Ltmp433:
	.loc	7 3493 19 is_stmt 1             @ ../src/driver/stm32g4-v120/src/stm32g4xx_hal_tim_ex.c:3493:19
	strb	r1, [r4, #28]
	.loc	7 3495 9                        @ ../src/driver/stm32g4-v120/src/stm32g4xx_hal_tim_ex.c:3495:9
	cbnz	r0, .LBB15_12
.Ltmp434:
@ %bb.11:
	@DEBUG_VALUE: TIM_DMADelayPulseNCplt:htim <- $r4
	@DEBUG_VALUE: TIM_DMADelayPulseNCplt:hdma <- [DW_OP_LLVM_entry_value 1] $r0
	.loc	7 0 9 is_stmt 0                 @ ../src/driver/stm32g4-v120/src/stm32g4xx_hal_tim_ex.c:0:9
	movs	r0, #1
.Ltmp435:
	.loc	7 3497 7 is_stmt 1              @ ../src/driver/stm32g4-v120/src/stm32g4xx_hal_tim_ex.c:3497:7
	strb.w	r0, [r4, #70]
.Ltmp436:
.LBB15_12:
	@DEBUG_VALUE: TIM_DMADelayPulseNCplt:htim <- $r4
	.loc	7 3515 9                        @ ../src/driver/stm32g4-v120/src/stm32g4xx_hal_tim_ex.c:3515:9
	ldr.w	r1, [r4, #160]
	.loc	7 3515 3 is_stmt 0              @ ../src/driver/stm32g4-v120/src/stm32g4xx_hal_tim_ex.c:3515:3
	mov	r0, r4
	blx	r1
.Ltmp437:
	.loc	7 0 3                           @ ../src/driver/stm32g4-v120/src/stm32g4xx_hal_tim_ex.c:0:3
	movs	r0, #0
	.loc	7 3520 17 is_stmt 1             @ ../src/driver/stm32g4-v120/src/stm32g4xx_hal_tim_ex.c:3520:17
	strb	r0, [r4, #28]
	.loc	7 3521 1                        @ ../src/driver/stm32g4-v120/src/stm32g4xx_hal_tim_ex.c:3521:1
	pop	{r4, pc}
.Ltmp438:
.Lfunc_end15:
	.size	TIM_DMADelayPulseNCplt, .Lfunc_end15-TIM_DMADelayPulseNCplt
	.cfi_endproc
	.cantunwind
	.fnend
                                        @ -- End function
	.section	.text.TIM_DMAErrorCCxN,"ax",%progbits
	.p2align	1                               @ -- Begin function TIM_DMAErrorCCxN
	.type	TIM_DMAErrorCCxN,%function
	.code	16                              @ @TIM_DMAErrorCCxN
	.thumb_func
TIM_DMAErrorCCxN:
.Lfunc_begin16:
	.loc	7 3529 0                        @ ../src/driver/stm32g4-v120/src/stm32g4xx_hal_tim_ex.c:3529:0
	.fnstart
	.cfi_startproc
@ %bb.0:
	@DEBUG_VALUE: TIM_DMAErrorCCxN:hdma <- $r0
	@DEBUG_VALUE: TIM_DMAErrorCCxN:hdma <- $r0
	.save	{r4, lr}
	push	{r4, lr}
	.cfi_def_cfa_offset 8
	.cfi_offset lr, -4
	.cfi_offset r4, -8
.Ltmp439:
	.loc	7 3530 79 prologue_end          @ ../src/driver/stm32g4-v120/src/stm32g4xx_hal_tim_ex.c:3530:79
	ldr	r4, [r0, #40]
.Ltmp440:
	@DEBUG_VALUE: TIM_DMAErrorCCxN:htim <- $r4
	.loc	7 3532 15                       @ ../src/driver/stm32g4-v120/src/stm32g4xx_hal_tim_ex.c:3532:15
	ldr	r1, [r4, #36]
.Ltmp441:
	.loc	7 3532 7 is_stmt 0              @ ../src/driver/stm32g4-v120/src/stm32g4xx_hal_tim_ex.c:3532:7
	cmp	r1, r0
	beq	.LBB16_4
.Ltmp442:
@ %bb.1:
	@DEBUG_VALUE: TIM_DMAErrorCCxN:htim <- $r4
	@DEBUG_VALUE: TIM_DMAErrorCCxN:hdma <- $r0
	.loc	7 3537 20 is_stmt 1             @ ../src/driver/stm32g4-v120/src/stm32g4xx_hal_tim_ex.c:3537:20
	ldr	r1, [r4, #40]
.Ltmp443:
	.loc	7 3537 12 is_stmt 0             @ ../src/driver/stm32g4-v120/src/stm32g4xx_hal_tim_ex.c:3537:12
	cmp	r1, r0
	beq	.LBB16_5
.Ltmp444:
@ %bb.2:
	@DEBUG_VALUE: TIM_DMAErrorCCxN:htim <- $r4
	@DEBUG_VALUE: TIM_DMAErrorCCxN:hdma <- $r0
	.loc	7 3542 20 is_stmt 1             @ ../src/driver/stm32g4-v120/src/stm32g4xx_hal_tim_ex.c:3542:20
	ldr	r1, [r4, #44]
.Ltmp445:
	.loc	7 3542 12 is_stmt 0             @ ../src/driver/stm32g4-v120/src/stm32g4xx_hal_tim_ex.c:3542:12
	cmp	r1, r0
	bne	.LBB16_6
.Ltmp446:
@ %bb.3:
	@DEBUG_VALUE: TIM_DMAErrorCCxN:htim <- $r4
	@DEBUG_VALUE: TIM_DMAErrorCCxN:hdma <- $r0
	.loc	7 0 12                          @ ../src/driver/stm32g4-v120/src/stm32g4xx_hal_tim_ex.c:0:12
	movs	r0, #4
.Ltmp447:
	@DEBUG_VALUE: TIM_DMAErrorCCxN:hdma <- [DW_OP_LLVM_entry_value 1] $r0
	.loc	7 3544 19 is_stmt 1             @ ../src/driver/stm32g4-v120/src/stm32g4xx_hal_tim_ex.c:3544:19
	strb	r0, [r4, #28]
	movs	r0, #1
	.loc	7 3545 5                        @ ../src/driver/stm32g4-v120/src/stm32g4xx_hal_tim_ex.c:3545:5
	strb.w	r0, [r4, #70]
	b	.LBB16_6
.Ltmp448:
.LBB16_4:
	@DEBUG_VALUE: TIM_DMAErrorCCxN:htim <- $r4
	@DEBUG_VALUE: TIM_DMAErrorCCxN:hdma <- $r0
	.loc	7 0 5 is_stmt 0                 @ ../src/driver/stm32g4-v120/src/stm32g4xx_hal_tim_ex.c:0:5
	movs	r0, #1
.Ltmp449:
	@DEBUG_VALUE: TIM_DMAErrorCCxN:hdma <- [DW_OP_LLVM_entry_value 1] $r0
	.loc	7 3534 19 is_stmt 1             @ ../src/driver/stm32g4-v120/src/stm32g4xx_hal_tim_ex.c:3534:19
	strb	r0, [r4, #28]
	.loc	7 3535 5                        @ ../src/driver/stm32g4-v120/src/stm32g4xx_hal_tim_ex.c:3535:5
	strb.w	r0, [r4, #68]
	b	.LBB16_6
.Ltmp450:
.LBB16_5:
	@DEBUG_VALUE: TIM_DMAErrorCCxN:htim <- $r4
	@DEBUG_VALUE: TIM_DMAErrorCCxN:hdma <- $r0
	.loc	7 0 5 is_stmt 0                 @ ../src/driver/stm32g4-v120/src/stm32g4xx_hal_tim_ex.c:0:5
	movs	r0, #2
.Ltmp451:
	@DEBUG_VALUE: TIM_DMAErrorCCxN:hdma <- [DW_OP_LLVM_entry_value 1] $r0
	.loc	7 3539 19 is_stmt 1             @ ../src/driver/stm32g4-v120/src/stm32g4xx_hal_tim_ex.c:3539:19
	strb	r0, [r4, #28]
	movs	r0, #1
	.loc	7 3540 5                        @ ../src/driver/stm32g4-v120/src/stm32g4xx_hal_tim_ex.c:3540:5
	strb.w	r0, [r4, #69]
.Ltmp452:
.LBB16_6:
	@DEBUG_VALUE: TIM_DMAErrorCCxN:htim <- $r4
	.loc	7 3553 9                        @ ../src/driver/stm32g4-v120/src/stm32g4xx_hal_tim_ex.c:3553:9
	ldr.w	r1, [r4, #168]
	.loc	7 3553 3 is_stmt 0              @ ../src/driver/stm32g4-v120/src/stm32g4xx_hal_tim_ex.c:3553:3
	mov	r0, r4
	blx	r1
.Ltmp453:
	.loc	7 0 3                           @ ../src/driver/stm32g4-v120/src/stm32g4xx_hal_tim_ex.c:0:3
	movs	r0, #0
	.loc	7 3558 17 is_stmt 1             @ ../src/driver/stm32g4-v120/src/stm32g4xx_hal_tim_ex.c:3558:17
	strb	r0, [r4, #28]
	.loc	7 3559 1                        @ ../src/driver/stm32g4-v120/src/stm32g4xx_hal_tim_ex.c:3559:1
	pop	{r4, pc}
.Ltmp454:
.Lfunc_end16:
	.size	TIM_DMAErrorCCxN, .Lfunc_end16-TIM_DMAErrorCCxN
	.cfi_endproc
	.cantunwind
	.fnend
                                        @ -- End function
	.section	.text.HAL_TIMEx_OCN_Stop_DMA,"ax",%progbits
	.hidden	HAL_TIMEx_OCN_Stop_DMA          @ -- Begin function HAL_TIMEx_OCN_Stop_DMA
	.globl	HAL_TIMEx_OCN_Stop_DMA
	.p2align	2
	.type	HAL_TIMEx_OCN_Stop_DMA,%function
	.code	16                              @ @HAL_TIMEx_OCN_Stop_DMA
	.thumb_func
HAL_TIMEx_OCN_Stop_DMA:
.Lfunc_begin17:
	.loc	7 1033 0                        @ ../src/driver/stm32g4-v120/src/stm32g4xx_hal_tim_ex.c:1033:0
	.fnstart
	.cfi_startproc
@ %bb.0:
	@DEBUG_VALUE: HAL_TIMEx_OCN_Stop_DMA:htim <- $r0
	@DEBUG_VALUE: HAL_TIMEx_OCN_Stop_DMA:Channel <- $r1
	.save	{r4, r5, r7, lr}
	push	{r4, r5, r7, lr}
	.cfi_def_cfa_offset 16
	.cfi_offset lr, -4
	.cfi_offset r7, -8
	.cfi_offset r5, -12
	.cfi_offset r4, -16
	mov	r5, r1
.Ltmp455:
	@DEBUG_VALUE: HAL_TIMEx_OCN_Stop_DMA:Channel <- $r5
	.loc	7 1037 3 prologue_end           @ ../src/driver/stm32g4-v120/src/stm32g4xx_hal_tim_ex.c:1037:3
	ror.w	r1, r1, #2
	cmp	r1, #3
	mov	r4, r0
.Ltmp456:
	@DEBUG_VALUE: HAL_TIMEx_OCN_Stop_DMA:htim <- $r4
	@DEBUG_VALUE: HAL_TIMEx_OCN_Stop_DMA:htim <- $r4
	bhi	.LBB17_8
.Ltmp457:
@ %bb.1:
	@DEBUG_VALUE: HAL_TIMEx_OCN_Stop_DMA:Channel <- $r5
	@DEBUG_VALUE: HAL_TIMEx_OCN_Stop_DMA:htim <- $r4
	.loc	7 0 3 is_stmt 0                 @ ../src/driver/stm32g4-v120/src/stm32g4xx_hal_tim_ex.c:0:3
.LCPI17_0:
	tbb	[pc, r1]
.Ltmp458:
@ %bb.2:
.LJTI17_0:
	.byte	(.LBB17_3-(.LCPI17_0+4))/2
	.byte	(.LBB17_4-(.LCPI17_0+4))/2
	.byte	(.LBB17_5-(.LCPI17_0+4))/2
	.byte	(.LBB17_6-(.LCPI17_0+4))/2
	.p2align	1
.LBB17_3:
.Ltmp459:
	@DEBUG_VALUE: HAL_TIMEx_OCN_Stop_DMA:Channel <- $r5
	@DEBUG_VALUE: HAL_TIMEx_OCN_Stop_DMA:htim <- $r4
	.loc	7 1042 7 is_stmt 1              @ ../src/driver/stm32g4-v120/src/stm32g4xx_hal_tim_ex.c:1042:7
	mov	r0, r4
	ldr	r1, [r0], #36
	ldr	r2, [r1, #12]
	bic	r2, r2, #512
	b	.LBB17_7
.Ltmp460:
.LBB17_4:
	@DEBUG_VALUE: HAL_TIMEx_OCN_Stop_DMA:Channel <- $r5
	@DEBUG_VALUE: HAL_TIMEx_OCN_Stop_DMA:htim <- $r4
	.loc	7 1050 7                        @ ../src/driver/stm32g4-v120/src/stm32g4xx_hal_tim_ex.c:1050:7
	mov	r0, r4
	ldr	r1, [r0], #40
	ldr	r2, [r1, #12]
	bic	r2, r2, #1024
	b	.LBB17_7
.Ltmp461:
.LBB17_5:
	@DEBUG_VALUE: HAL_TIMEx_OCN_Stop_DMA:Channel <- $r5
	@DEBUG_VALUE: HAL_TIMEx_OCN_Stop_DMA:htim <- $r4
	.loc	7 1058 7                        @ ../src/driver/stm32g4-v120/src/stm32g4xx_hal_tim_ex.c:1058:7
	mov	r0, r4
	ldr	r1, [r0], #44
	ldr	r2, [r1, #12]
	bic	r2, r2, #2048
	b	.LBB17_7
.Ltmp462:
.LBB17_6:
	@DEBUG_VALUE: HAL_TIMEx_OCN_Stop_DMA:Channel <- $r5
	@DEBUG_VALUE: HAL_TIMEx_OCN_Stop_DMA:htim <- $r4
	.loc	7 1066 7                        @ ../src/driver/stm32g4-v120/src/stm32g4xx_hal_tim_ex.c:1066:7
	mov	r0, r4
	ldr	r1, [r0], #48
	ldr	r2, [r1, #12]
	bic	r2, r2, #4096
.Ltmp463:
.LBB17_7:
	@DEBUG_VALUE: HAL_TIMEx_OCN_Stop_DMA:Channel <- $r5
	@DEBUG_VALUE: HAL_TIMEx_OCN_Stop_DMA:htim <- $r4
	.loc	7 0 0 is_stmt 0                 @ ../src/driver/stm32g4-v120/src/stm32g4xx_hal_tim_ex.c:0:0
	str	r2, [r1, #12]
	ldr	r0, [r0]
	bl	HAL_DMA_Abort_IT
.Ltmp464:
.LBB17_8:
	@DEBUG_VALUE: HAL_TIMEx_OCN_Stop_DMA:Channel <- $r5
	@DEBUG_VALUE: HAL_TIMEx_OCN_Stop_DMA:htim <- $r4
	.loc	7 1076 28 is_stmt 1             @ ../src/driver/stm32g4-v120/src/stm32g4xx_hal_tim_ex.c:1076:28
	ldr	r0, [r4]
.Ltmp465:
	@DEBUG_VALUE: TIM_CCxNChannelCmd:ChannelNState <- 0
	@DEBUG_VALUE: TIM_CCxNChannelCmd:Channel <- $r5
	@DEBUG_VALUE: TIM_CCxNChannelCmd:TIMx <- $r0
	.loc	7 3578 36                       @ ../src/driver/stm32g4-v120/src/stm32g4xx_hal_tim_ex.c:3578:36
	and	r1, r5, #31
	movs	r2, #4
	.loc	7 3581 14                       @ ../src/driver/stm32g4-v120/src/stm32g4xx_hal_tim_ex.c:3581:14
	ldr	r3, [r0, #32]
	.loc	7 3578 24                       @ ../src/driver/stm32g4-v120/src/stm32g4xx_hal_tim_ex.c:3578:24
	lsl.w	r1, r2, r1
.Ltmp466:
	@DEBUG_VALUE: TIM_CCxNChannelCmd:tmp <- $r1
	.loc	7 3581 14                       @ ../src/driver/stm32g4-v120/src/stm32g4xx_hal_tim_ex.c:3581:14
	bic.w	r1, r3, r1
.Ltmp467:
	str	r1, [r0, #32]
	.loc	7 3584 14                       @ ../src/driver/stm32g4-v120/src/stm32g4xx_hal_tim_ex.c:3584:14
	ldr	r1, [r0, #32]
	str	r1, [r0, #32]
.Ltmp468:
	.loc	7 1079 3                        @ ../src/driver/stm32g4-v120/src/stm32g4xx_hal_tim_ex.c:1079:3
	ldr	r2, [r0, #32]
	movw	r1, #4369
.Ltmp469:
	.loc	7 1079 3 is_stmt 0              @ ../src/driver/stm32g4-v120/src/stm32g4xx_hal_tim_ex.c:1079:3
	tst	r2, r1
	bne	.LBB17_11
.Ltmp470:
@ %bb.9:
	@DEBUG_VALUE: HAL_TIMEx_OCN_Stop_DMA:Channel <- $r5
	@DEBUG_VALUE: HAL_TIMEx_OCN_Stop_DMA:htim <- $r4
	.loc	7 1079 3                        @ ../src/driver/stm32g4-v120/src/stm32g4xx_hal_tim_ex.c:1079:3
	ldr	r2, [r0, #32]
	movw	r3, #17476
.Ltmp471:
	.loc	7 1079 3                        @ ../src/driver/stm32g4-v120/src/stm32g4xx_hal_tim_ex.c:1079:3
	tst	r2, r3
	bne	.LBB17_11
.Ltmp472:
@ %bb.10:
	@DEBUG_VALUE: HAL_TIMEx_OCN_Stop_DMA:Channel <- $r5
	@DEBUG_VALUE: HAL_TIMEx_OCN_Stop_DMA:htim <- $r4
	.loc	7 1079 3                        @ ../src/driver/stm32g4-v120/src/stm32g4xx_hal_tim_ex.c:1079:3
	ldr	r2, [r0, #68]
	bic	r2, r2, #32768
	str	r2, [r0, #68]
.Ltmp473:
.LBB17_11:
	@DEBUG_VALUE: HAL_TIMEx_OCN_Stop_DMA:Channel <- $r5
	@DEBUG_VALUE: HAL_TIMEx_OCN_Stop_DMA:htim <- $r4
	.loc	7 1082 3 is_stmt 1              @ ../src/driver/stm32g4-v120/src/stm32g4xx_hal_tim_ex.c:1082:3
	ldr	r2, [r0, #32]
.Ltmp474:
	.loc	7 1082 3 is_stmt 0              @ ../src/driver/stm32g4-v120/src/stm32g4xx_hal_tim_ex.c:1082:3
	tst	r2, r1
	bne	.LBB17_14
.Ltmp475:
@ %bb.12:
	@DEBUG_VALUE: HAL_TIMEx_OCN_Stop_DMA:Channel <- $r5
	@DEBUG_VALUE: HAL_TIMEx_OCN_Stop_DMA:htim <- $r4
	.loc	7 1082 3                        @ ../src/driver/stm32g4-v120/src/stm32g4xx_hal_tim_ex.c:1082:3
	ldr	r1, [r0, #32]
	movw	r2, #17476
.Ltmp476:
	.loc	7 1082 3                        @ ../src/driver/stm32g4-v120/src/stm32g4xx_hal_tim_ex.c:1082:3
	tst	r1, r2
	bne	.LBB17_14
.Ltmp477:
@ %bb.13:
	@DEBUG_VALUE: HAL_TIMEx_OCN_Stop_DMA:Channel <- $r5
	@DEBUG_VALUE: HAL_TIMEx_OCN_Stop_DMA:htim <- $r4
	.loc	7 1082 3                        @ ../src/driver/stm32g4-v120/src/stm32g4xx_hal_tim_ex.c:1082:3
	ldr	r1, [r0]
	bic	r1, r1, #1
	str	r1, [r0]
.Ltmp478:
.LBB17_14:
	@DEBUG_VALUE: HAL_TIMEx_OCN_Stop_DMA:Channel <- $r5
	@DEBUG_VALUE: HAL_TIMEx_OCN_Stop_DMA:htim <- $r4
	.loc	7 0 3                           @ ../src/driver/stm32g4-v120/src/stm32g4xx_hal_tim_ex.c:0:3
	movs	r0, #1
	.loc	7 1085 3 is_stmt 1              @ ../src/driver/stm32g4-v120/src/stm32g4xx_hal_tim_ex.c:1085:3
	cmp	r5, #8
	beq	.LBB17_17
.Ltmp479:
@ %bb.15:
	@DEBUG_VALUE: HAL_TIMEx_OCN_Stop_DMA:Channel <- $r5
	@DEBUG_VALUE: HAL_TIMEx_OCN_Stop_DMA:htim <- $r4
	cmp	r5, #4
	beq	.LBB17_18
.Ltmp480:
@ %bb.16:
	@DEBUG_VALUE: HAL_TIMEx_OCN_Stop_DMA:Channel <- $r5
	@DEBUG_VALUE: HAL_TIMEx_OCN_Stop_DMA:htim <- $r4
	cmp	r5, #0
	ite	ne
	strbne.w	r0, [r4, #71]
	strbeq.w	r0, [r4, #68]
	b	.LBB17_19
.Ltmp481:
.LBB17_17:
	@DEBUG_VALUE: HAL_TIMEx_OCN_Stop_DMA:Channel <- $r5
	@DEBUG_VALUE: HAL_TIMEx_OCN_Stop_DMA:htim <- $r4
	strb.w	r0, [r4, #70]
	b	.LBB17_19
.Ltmp482:
.LBB17_18:
	@DEBUG_VALUE: HAL_TIMEx_OCN_Stop_DMA:Channel <- $r5
	@DEBUG_VALUE: HAL_TIMEx_OCN_Stop_DMA:htim <- $r4
	strb.w	r0, [r4, #69]
.Ltmp483:
.LBB17_19:
	@DEBUG_VALUE: HAL_TIMEx_OCN_Stop_DMA:Channel <- $r5
	@DEBUG_VALUE: HAL_TIMEx_OCN_Stop_DMA:htim <- $r4
	.loc	7 1088 3                        @ ../src/driver/stm32g4-v120/src/stm32g4xx_hal_tim_ex.c:1088:3
	movs	r0, #0
	pop	{r4, r5, r7, pc}
.Ltmp484:
.Lfunc_end17:
	.size	HAL_TIMEx_OCN_Stop_DMA, .Lfunc_end17-HAL_TIMEx_OCN_Stop_DMA
	.cfi_endproc
	.cantunwind
	.fnend
                                        @ -- End function
	.section	.text.HAL_TIMEx_PWMN_Start,"ax",%progbits
	.hidden	HAL_TIMEx_PWMN_Start            @ -- Begin function HAL_TIMEx_PWMN_Start
	.globl	HAL_TIMEx_PWMN_Start
	.p2align	1
	.type	HAL_TIMEx_PWMN_Start,%function
	.code	16                              @ @HAL_TIMEx_PWMN_Start
	.thumb_func
HAL_TIMEx_PWMN_Start:
.Lfunc_begin18:
	.loc	7 1137 0                        @ ../src/driver/stm32g4-v120/src/stm32g4xx_hal_tim_ex.c:1137:0
	.fnstart
	.cfi_startproc
@ %bb.0:
	@DEBUG_VALUE: HAL_TIMEx_PWMN_Start:htim <- $r0
	@DEBUG_VALUE: HAL_TIMEx_PWMN_Start:Channel <- $r1
	@DEBUG_VALUE: HAL_TIMEx_PWMN_Start:Channel <- $r1
	@DEBUG_VALUE: HAL_TIMEx_PWMN_Start:htim <- $r0
	.loc	7 1144 7 prologue_end           @ ../src/driver/stm32g4-v120/src/stm32g4xx_hal_tim_ex.c:1144:7
	cbz	r1, .LBB18_3
.Ltmp485:
@ %bb.1:
	@DEBUG_VALUE: HAL_TIMEx_PWMN_Start:Channel <- $r1
	@DEBUG_VALUE: HAL_TIMEx_PWMN_Start:htim <- $r0
	cmp	r1, #8
	beq	.LBB18_5
.Ltmp486:
@ %bb.2:
	@DEBUG_VALUE: HAL_TIMEx_PWMN_Start:Channel <- $r1
	@DEBUG_VALUE: HAL_TIMEx_PWMN_Start:htim <- $r0
	cmp	r1, #4
	ite	ne
	addne.w	r2, r0, #71
	addeq.w	r2, r0, #69
	b	.LBB18_6
.Ltmp487:
.LBB18_3:
	@DEBUG_VALUE: HAL_TIMEx_PWMN_Start:Channel <- $r1
	@DEBUG_VALUE: HAL_TIMEx_PWMN_Start:htim <- $r0
	ldrb.w	r2, [r0, #68]
.Ltmp488:
	.loc	7 1144 7 is_stmt 0              @ ../src/driver/stm32g4-v120/src/stm32g4xx_hal_tim_ex.c:1144:7
	cmp	r2, #1
	bne	.LBB18_9
.Ltmp489:
@ %bb.4:
	@DEBUG_VALUE: HAL_TIMEx_PWMN_Start:Channel <- $r1
	@DEBUG_VALUE: HAL_TIMEx_PWMN_Start:htim <- $r0
	.loc	7 0 7                           @ ../src/driver/stm32g4-v120/src/stm32g4xx_hal_tim_ex.c:0:7
	movs	r2, #2
	.loc	7 1150 3 is_stmt 1              @ ../src/driver/stm32g4-v120/src/stm32g4xx_hal_tim_ex.c:1150:3
	strb.w	r2, [r0, #68]
	b	.LBB18_11
.Ltmp490:
.LBB18_5:
	@DEBUG_VALUE: HAL_TIMEx_PWMN_Start:Channel <- $r1
	@DEBUG_VALUE: HAL_TIMEx_PWMN_Start:htim <- $r0
	.loc	7 1144 7                        @ ../src/driver/stm32g4-v120/src/stm32g4xx_hal_tim_ex.c:1144:7
	add.w	r2, r0, #70
.Ltmp491:
.LBB18_6:
	@DEBUG_VALUE: HAL_TIMEx_PWMN_Start:Channel <- $r1
	@DEBUG_VALUE: HAL_TIMEx_PWMN_Start:htim <- $r0
	ldrb	r2, [r2]
.Ltmp492:
	.loc	7 1144 7 is_stmt 0              @ ../src/driver/stm32g4-v120/src/stm32g4xx_hal_tim_ex.c:1144:7
	cmp	r2, #1
	bne	.LBB18_9
.Ltmp493:
@ %bb.7:
	@DEBUG_VALUE: HAL_TIMEx_PWMN_Start:Channel <- $r1
	@DEBUG_VALUE: HAL_TIMEx_PWMN_Start:htim <- $r0
	.loc	7 0 7                           @ ../src/driver/stm32g4-v120/src/stm32g4xx_hal_tim_ex.c:0:7
	movs	r2, #2
	.loc	7 1150 3 is_stmt 1              @ ../src/driver/stm32g4-v120/src/stm32g4xx_hal_tim_ex.c:1150:3
	cmp	r1, #8
	beq	.LBB18_10
.Ltmp494:
@ %bb.8:
	@DEBUG_VALUE: HAL_TIMEx_PWMN_Start:Channel <- $r1
	@DEBUG_VALUE: HAL_TIMEx_PWMN_Start:htim <- $r0
	cmp	r1, #4
	ite	ne
	strbne.w	r2, [r0, #71]
	strbeq.w	r2, [r0, #69]
	b	.LBB18_11
.Ltmp495:
.LBB18_9:
	@DEBUG_VALUE: HAL_TIMEx_PWMN_Start:Channel <- $r1
	@DEBUG_VALUE: HAL_TIMEx_PWMN_Start:htim <- $r0
	.loc	7 0 3 is_stmt 0                 @ ../src/driver/stm32g4-v120/src/stm32g4xx_hal_tim_ex.c:0:3
	movs	r0, #1
.Ltmp496:
	@DEBUG_VALUE: HAL_TIMEx_PWMN_Start:htim <- [DW_OP_LLVM_entry_value 1] $r0
	.loc	7 1174 1 is_stmt 1              @ ../src/driver/stm32g4-v120/src/stm32g4xx_hal_tim_ex.c:1174:1
	bx	lr
.Ltmp497:
.LBB18_10:
	@DEBUG_VALUE: HAL_TIMEx_PWMN_Start:Channel <- $r1
	@DEBUG_VALUE: HAL_TIMEx_PWMN_Start:htim <- $r0
	.loc	7 1150 3                        @ ../src/driver/stm32g4-v120/src/stm32g4xx_hal_tim_ex.c:1150:3
	strb.w	r2, [r0, #70]
.Ltmp498:
.LBB18_11:
	@DEBUG_VALUE: HAL_TIMEx_PWMN_Start:Channel <- $r1
	@DEBUG_VALUE: HAL_TIMEx_PWMN_Start:htim <- $r0
	.loc	7 1153 28                       @ ../src/driver/stm32g4-v120/src/stm32g4xx_hal_tim_ex.c:1153:28
	ldr	r2, [r0]
.Ltmp499:
	@DEBUG_VALUE: TIM_CCxNChannelCmd:ChannelNState <- 4
	@DEBUG_VALUE: TIM_CCxNChannelCmd:Channel <- $r1
	@DEBUG_VALUE: TIM_CCxNChannelCmd:TIMx <- $r2
	.loc	7 3578 36                       @ ../src/driver/stm32g4-v120/src/stm32g4xx_hal_tim_ex.c:3578:36
	and	r0, r1, #31
.Ltmp500:
	@DEBUG_VALUE: HAL_TIMEx_PWMN_Start:htim <- [DW_OP_LLVM_entry_value 1] $r0
	.loc	7 0 36 is_stmt 0                @ ../src/driver/stm32g4-v120/src/stm32g4xx_hal_tim_ex.c:0:36
	movs	r1, #4
.Ltmp501:
	@DEBUG_VALUE: HAL_TIMEx_PWMN_Start:Channel <- [DW_OP_LLVM_entry_value 1] $r1
	.loc	7 3581 14 is_stmt 1             @ ../src/driver/stm32g4-v120/src/stm32g4xx_hal_tim_ex.c:3581:14
	ldr	r3, [r2, #32]
	.loc	7 3578 24                       @ ../src/driver/stm32g4-v120/src/stm32g4xx_hal_tim_ex.c:3578:24
	lsl.w	r0, r1, r0
.Ltmp502:
	@DEBUG_VALUE: TIM_CCxNChannelCmd:tmp <- $r0
	.loc	7 3581 14                       @ ../src/driver/stm32g4-v120/src/stm32g4xx_hal_tim_ex.c:3581:14
	bic.w	r1, r3, r0
	str	r1, [r2, #32]
	.loc	7 3584 14                       @ ../src/driver/stm32g4-v120/src/stm32g4xx_hal_tim_ex.c:3584:14
	ldr	r1, [r2, #32]
	orrs	r0, r1
.Ltmp503:
	str	r0, [r2, #32]
.Ltmp504:
	.loc	7 1156 3                        @ ../src/driver/stm32g4-v120/src/stm32g4xx_hal_tim_ex.c:1156:3
	ldr	r0, [r2, #68]
	movw	r1, #11263
	movt	r1, #16385
	orr	r0, r0, #32768
.Ltmp505:
	.loc	7 1159 7                        @ ../src/driver/stm32g4-v120/src/stm32g4xx_hal_tim_ex.c:1159:7
	cmp	r2, r1
.Ltmp506:
	.loc	7 1156 3                        @ ../src/driver/stm32g4-v120/src/stm32g4xx_hal_tim_ex.c:1156:3
	str	r0, [r2, #68]
.Ltmp507:
	.loc	7 1159 7                        @ ../src/driver/stm32g4-v120/src/stm32g4xx_hal_tim_ex.c:1159:7
	bgt	.LBB18_15
.Ltmp508:
@ %bb.12:
	@DEBUG_VALUE: HAL_TIMEx_PWMN_Start:Channel <- [DW_OP_LLVM_entry_value 1] $r1
	@DEBUG_VALUE: HAL_TIMEx_PWMN_Start:htim <- [DW_OP_LLVM_entry_value 1] $r0
	.loc	7 0 7 is_stmt 0                 @ ../src/driver/stm32g4-v120/src/stm32g4xx_hal_tim_ex.c:0:7
	movw	r0, #2047
	movt	r0, #16384
	.loc	7 1159 7                        @ ../src/driver/stm32g4-v120/src/stm32g4xx_hal_tim_ex.c:1159:7
	cmp	r2, r0
	bgt	.LBB18_18
.Ltmp509:
@ %bb.13:
	@DEBUG_VALUE: HAL_TIMEx_PWMN_Start:Channel <- [DW_OP_LLVM_entry_value 1] $r1
	@DEBUG_VALUE: HAL_TIMEx_PWMN_Start:htim <- [DW_OP_LLVM_entry_value 1] $r0
	cmp.w	r2, #1073741824
	beq	.LBB18_25
.Ltmp510:
@ %bb.14:
	@DEBUG_VALUE: HAL_TIMEx_PWMN_Start:Channel <- [DW_OP_LLVM_entry_value 1] $r1
	@DEBUG_VALUE: HAL_TIMEx_PWMN_Start:htim <- [DW_OP_LLVM_entry_value 1] $r0
	.loc	7 0 7                           @ ../src/driver/stm32g4-v120/src/stm32g4xx_hal_tim_ex.c:0:7
	movw	r0, #1024
	b	.LBB18_20
.Ltmp511:
.LBB18_15:
	@DEBUG_VALUE: HAL_TIMEx_PWMN_Start:Channel <- [DW_OP_LLVM_entry_value 1] $r1
	@DEBUG_VALUE: HAL_TIMEx_PWMN_Start:htim <- [DW_OP_LLVM_entry_value 1] $r0
	movw	r0, #16383
	movt	r0, #16385
	.loc	7 1159 7                        @ ../src/driver/stm32g4-v120/src/stm32g4xx_hal_tim_ex.c:1159:7
	cmp	r2, r0
	bgt	.LBB18_21
.Ltmp512:
@ %bb.16:
	@DEBUG_VALUE: HAL_TIMEx_PWMN_Start:Channel <- [DW_OP_LLVM_entry_value 1] $r1
	@DEBUG_VALUE: HAL_TIMEx_PWMN_Start:htim <- [DW_OP_LLVM_entry_value 1] $r0
	.loc	7 0 7                           @ ../src/driver/stm32g4-v120/src/stm32g4xx_hal_tim_ex.c:0:7
	movw	r0, #11264
	movt	r0, #16385
	.loc	7 1159 7                        @ ../src/driver/stm32g4-v120/src/stm32g4xx_hal_tim_ex.c:1159:7
	cmp	r2, r0
	beq	.LBB18_25
.Ltmp513:
@ %bb.17:
	@DEBUG_VALUE: HAL_TIMEx_PWMN_Start:Channel <- [DW_OP_LLVM_entry_value 1] $r1
	@DEBUG_VALUE: HAL_TIMEx_PWMN_Start:htim <- [DW_OP_LLVM_entry_value 1] $r0
	.loc	7 0 7                           @ ../src/driver/stm32g4-v120/src/stm32g4xx_hal_tim_ex.c:0:7
	movw	r0, #13312
	b	.LBB18_23
.Ltmp514:
.LBB18_18:
	@DEBUG_VALUE: HAL_TIMEx_PWMN_Start:Channel <- [DW_OP_LLVM_entry_value 1] $r1
	@DEBUG_VALUE: HAL_TIMEx_PWMN_Start:htim <- [DW_OP_LLVM_entry_value 1] $r0
	movw	r0, #2048
	movt	r0, #16384
	.loc	7 1159 7                        @ ../src/driver/stm32g4-v120/src/stm32g4xx_hal_tim_ex.c:1159:7
	cmp	r2, r0
	beq	.LBB18_25
.Ltmp515:
@ %bb.19:
	@DEBUG_VALUE: HAL_TIMEx_PWMN_Start:Channel <- [DW_OP_LLVM_entry_value 1] $r1
	@DEBUG_VALUE: HAL_TIMEx_PWMN_Start:htim <- [DW_OP_LLVM_entry_value 1] $r0
	.loc	7 0 7                           @ ../src/driver/stm32g4-v120/src/stm32g4xx_hal_tim_ex.c:0:7
	movw	r0, #3072
.Ltmp516:
.LBB18_20:
	@DEBUG_VALUE: HAL_TIMEx_PWMN_Start:Channel <- [DW_OP_LLVM_entry_value 1] $r1
	@DEBUG_VALUE: HAL_TIMEx_PWMN_Start:htim <- [DW_OP_LLVM_entry_value 1] $r0
	movt	r0, #16384
	b	.LBB18_24
.Ltmp517:
.LBB18_21:
	@DEBUG_VALUE: HAL_TIMEx_PWMN_Start:Channel <- [DW_OP_LLVM_entry_value 1] $r1
	@DEBUG_VALUE: HAL_TIMEx_PWMN_Start:htim <- [DW_OP_LLVM_entry_value 1] $r0
	movw	r0, #20480
	movt	r0, #16385
	.loc	7 1159 7                        @ ../src/driver/stm32g4-v120/src/stm32g4xx_hal_tim_ex.c:1159:7
	cmp	r2, r0
	beq	.LBB18_25
.Ltmp518:
@ %bb.22:
	@DEBUG_VALUE: HAL_TIMEx_PWMN_Start:Channel <- [DW_OP_LLVM_entry_value 1] $r1
	@DEBUG_VALUE: HAL_TIMEx_PWMN_Start:htim <- [DW_OP_LLVM_entry_value 1] $r0
	.loc	7 0 7                           @ ../src/driver/stm32g4-v120/src/stm32g4xx_hal_tim_ex.c:0:7
	movw	r0, #16384
.Ltmp519:
.LBB18_23:
	@DEBUG_VALUE: HAL_TIMEx_PWMN_Start:Channel <- [DW_OP_LLVM_entry_value 1] $r1
	@DEBUG_VALUE: HAL_TIMEx_PWMN_Start:htim <- [DW_OP_LLVM_entry_value 1] $r0
	movt	r0, #16385
.Ltmp520:
.LBB18_24:
	@DEBUG_VALUE: HAL_TIMEx_PWMN_Start:Channel <- [DW_OP_LLVM_entry_value 1] $r1
	@DEBUG_VALUE: HAL_TIMEx_PWMN_Start:htim <- [DW_OP_LLVM_entry_value 1] $r0
	.loc	7 1159 7                        @ ../src/driver/stm32g4-v120/src/stm32g4xx_hal_tim_ex.c:1159:7
	cmp	r2, r0
	bne	.LBB18_27
.Ltmp521:
.LBB18_25:
	@DEBUG_VALUE: HAL_TIMEx_PWMN_Start:Channel <- [DW_OP_LLVM_entry_value 1] $r1
	@DEBUG_VALUE: HAL_TIMEx_PWMN_Start:htim <- [DW_OP_LLVM_entry_value 1] $r0
	.loc	7 1161 31 is_stmt 1             @ ../src/driver/stm32g4-v120/src/stm32g4xx_hal_tim_ex.c:1161:31
	ldr	r0, [r2, #8]
	movs	r1, #7
	movt	r1, #1
	.loc	7 1161 36 is_stmt 0             @ ../src/driver/stm32g4-v120/src/stm32g4xx_hal_tim_ex.c:1161:36
	ands	r1, r0
.Ltmp522:
	@DEBUG_VALUE: HAL_TIMEx_PWMN_Start:tmpsmcr <- $r1
	.loc	7 1162 10 is_stmt 1             @ ../src/driver/stm32g4-v120/src/stm32g4xx_hal_tim_ex.c:1162:10
	cmp	r1, #6
	mov.w	r0, #0
	beq	.LBB18_28
.Ltmp523:
@ %bb.26:
	@DEBUG_VALUE: HAL_TIMEx_PWMN_Start:tmpsmcr <- $r1
	@DEBUG_VALUE: HAL_TIMEx_PWMN_Start:Channel <- [DW_OP_LLVM_entry_value 1] $r1
	@DEBUG_VALUE: HAL_TIMEx_PWMN_Start:htim <- [DW_OP_LLVM_entry_value 1] $r0
	cmp.w	r1, #65536
.Ltmp524:
	.loc	7 1174 1                        @ ../src/driver/stm32g4-v120/src/stm32g4xx_hal_tim_ex.c:1174:1
	it	eq
	bxeq	lr
.Ltmp525:
.LBB18_27:
	@DEBUG_VALUE: HAL_TIMEx_PWMN_Start:Channel <- [DW_OP_LLVM_entry_value 1] $r1
	@DEBUG_VALUE: HAL_TIMEx_PWMN_Start:htim <- [DW_OP_LLVM_entry_value 1] $r0
	.loc	7 0 0 is_stmt 0                 @ ../src/driver/stm32g4-v120/src/stm32g4xx_hal_tim_ex.c:0:0
	ldr	r0, [r2]
	orr	r0, r0, #1
	str	r0, [r2]
	movs	r0, #0
.Ltmp526:
.LBB18_28:
	@DEBUG_VALUE: HAL_TIMEx_PWMN_Start:Channel <- [DW_OP_LLVM_entry_value 1] $r1
	@DEBUG_VALUE: HAL_TIMEx_PWMN_Start:htim <- [DW_OP_LLVM_entry_value 1] $r0
	.loc	7 1174 1                        @ ../src/driver/stm32g4-v120/src/stm32g4xx_hal_tim_ex.c:1174:1
	bx	lr
.Ltmp527:
.Lfunc_end18:
	.size	HAL_TIMEx_PWMN_Start, .Lfunc_end18-HAL_TIMEx_PWMN_Start
	.cfi_endproc
	.cantunwind
	.fnend
                                        @ -- End function
	.section	.text.HAL_TIMEx_PWMN_Stop,"ax",%progbits
	.hidden	HAL_TIMEx_PWMN_Stop             @ -- Begin function HAL_TIMEx_PWMN_Stop
	.globl	HAL_TIMEx_PWMN_Stop
	.p2align	1
	.type	HAL_TIMEx_PWMN_Stop,%function
	.code	16                              @ @HAL_TIMEx_PWMN_Stop
	.thumb_func
HAL_TIMEx_PWMN_Stop:
.Lfunc_begin19:
	.loc	7 1188 0 is_stmt 1              @ ../src/driver/stm32g4-v120/src/stm32g4xx_hal_tim_ex.c:1188:0
	.fnstart
	.cfi_startproc
@ %bb.0:
	@DEBUG_VALUE: HAL_TIMEx_PWMN_Stop:htim <- $r0
	@DEBUG_VALUE: HAL_TIMEx_PWMN_Stop:htim <- $r0
	@DEBUG_VALUE: HAL_TIMEx_PWMN_Stop:Channel <- $r1
	@DEBUG_VALUE: HAL_TIMEx_PWMN_Stop:Channel <- $r1
	.save	{r4, lr}
	push	{r4, lr}
	.cfi_def_cfa_offset 8
	.cfi_offset lr, -4
	.cfi_offset r4, -8
.Ltmp528:
	.loc	7 1193 28 prologue_end          @ ../src/driver/stm32g4-v120/src/stm32g4xx_hal_tim_ex.c:1193:28
	ldr	r2, [r0]
.Ltmp529:
	@DEBUG_VALUE: TIM_CCxNChannelCmd:ChannelNState <- 0
	@DEBUG_VALUE: TIM_CCxNChannelCmd:Channel <- $r1
	@DEBUG_VALUE: TIM_CCxNChannelCmd:TIMx <- $r2
	.loc	7 3578 36                       @ ../src/driver/stm32g4-v120/src/stm32g4xx_hal_tim_ex.c:3578:36
	and	lr, r1, #31
	mov.w	r12, #4
	.loc	7 3581 14                       @ ../src/driver/stm32g4-v120/src/stm32g4xx_hal_tim_ex.c:3581:14
	ldr	r4, [r2, #32]
	.loc	7 3578 24                       @ ../src/driver/stm32g4-v120/src/stm32g4xx_hal_tim_ex.c:3578:24
	lsl.w	r3, r12, lr
.Ltmp530:
	@DEBUG_VALUE: TIM_CCxNChannelCmd:tmp <- $r3
	.loc	7 3581 14                       @ ../src/driver/stm32g4-v120/src/stm32g4xx_hal_tim_ex.c:3581:14
	bic.w	r3, r4, r3
.Ltmp531:
	str	r3, [r2, #32]
	.loc	7 3584 14                       @ ../src/driver/stm32g4-v120/src/stm32g4xx_hal_tim_ex.c:3584:14
	ldr	r3, [r2, #32]
	str	r3, [r2, #32]
.Ltmp532:
	.loc	7 1196 3                        @ ../src/driver/stm32g4-v120/src/stm32g4xx_hal_tim_ex.c:1196:3
	ldr	r4, [r2, #32]
	movw	r3, #4369
.Ltmp533:
	.loc	7 1196 3 is_stmt 0              @ ../src/driver/stm32g4-v120/src/stm32g4xx_hal_tim_ex.c:1196:3
	tst	r4, r3
	bne	.LBB19_3
.Ltmp534:
@ %bb.1:
	@DEBUG_VALUE: HAL_TIMEx_PWMN_Stop:Channel <- $r1
	@DEBUG_VALUE: HAL_TIMEx_PWMN_Stop:htim <- $r0
	.loc	7 1196 3                        @ ../src/driver/stm32g4-v120/src/stm32g4xx_hal_tim_ex.c:1196:3
	ldr.w	r12, [r2, #32]
	movw	r4, #17476
.Ltmp535:
	.loc	7 1196 3                        @ ../src/driver/stm32g4-v120/src/stm32g4xx_hal_tim_ex.c:1196:3
	tst.w	r12, r4
	bne	.LBB19_3
.Ltmp536:
@ %bb.2:
	@DEBUG_VALUE: HAL_TIMEx_PWMN_Stop:Channel <- $r1
	@DEBUG_VALUE: HAL_TIMEx_PWMN_Stop:htim <- $r0
	.loc	7 1196 3                        @ ../src/driver/stm32g4-v120/src/stm32g4xx_hal_tim_ex.c:1196:3
	ldr	r4, [r2, #68]
	bic	r4, r4, #32768
	str	r4, [r2, #68]
.Ltmp537:
.LBB19_3:
	@DEBUG_VALUE: HAL_TIMEx_PWMN_Stop:Channel <- $r1
	@DEBUG_VALUE: HAL_TIMEx_PWMN_Stop:htim <- $r0
	.loc	7 1199 3 is_stmt 1              @ ../src/driver/stm32g4-v120/src/stm32g4xx_hal_tim_ex.c:1199:3
	ldr	r4, [r2, #32]
.Ltmp538:
	.loc	7 1199 3 is_stmt 0              @ ../src/driver/stm32g4-v120/src/stm32g4xx_hal_tim_ex.c:1199:3
	tst	r4, r3
	bne	.LBB19_6
.Ltmp539:
@ %bb.4:
	@DEBUG_VALUE: HAL_TIMEx_PWMN_Stop:Channel <- $r1
	@DEBUG_VALUE: HAL_TIMEx_PWMN_Stop:htim <- $r0
	.loc	7 1199 3                        @ ../src/driver/stm32g4-v120/src/stm32g4xx_hal_tim_ex.c:1199:3
	ldr	r3, [r2, #32]
	movw	r4, #17476
.Ltmp540:
	.loc	7 1199 3                        @ ../src/driver/stm32g4-v120/src/stm32g4xx_hal_tim_ex.c:1199:3
	tst	r3, r4
	bne	.LBB19_6
.Ltmp541:
@ %bb.5:
	@DEBUG_VALUE: HAL_TIMEx_PWMN_Stop:Channel <- $r1
	@DEBUG_VALUE: HAL_TIMEx_PWMN_Stop:htim <- $r0
	.loc	7 1199 3                        @ ../src/driver/stm32g4-v120/src/stm32g4xx_hal_tim_ex.c:1199:3
	ldr	r3, [r2]
	bic	r3, r3, #1
	str	r3, [r2]
.Ltmp542:
.LBB19_6:
	@DEBUG_VALUE: HAL_TIMEx_PWMN_Stop:Channel <- $r1
	@DEBUG_VALUE: HAL_TIMEx_PWMN_Stop:htim <- $r0
	.loc	7 1202 3 is_stmt 1              @ ../src/driver/stm32g4-v120/src/stm32g4xx_hal_tim_ex.c:1202:3
	cmp	r1, #8
	beq	.LBB19_9
.Ltmp543:
@ %bb.7:
	@DEBUG_VALUE: HAL_TIMEx_PWMN_Stop:Channel <- $r1
	@DEBUG_VALUE: HAL_TIMEx_PWMN_Stop:htim <- $r0
	cmp	r1, #4
	beq	.LBB19_10
.Ltmp544:
@ %bb.8:
	@DEBUG_VALUE: HAL_TIMEx_PWMN_Stop:Channel <- $r1
	@DEBUG_VALUE: HAL_TIMEx_PWMN_Stop:htim <- $r0
	cmp	r1, #0
	mov.w	r1, #1
.Ltmp545:
	@DEBUG_VALUE: HAL_TIMEx_PWMN_Stop:Channel <- [DW_OP_LLVM_entry_value 1] $r1
	ite	ne
	strbne.w	r1, [r0, #71]
	strbeq.w	r1, [r0, #68]
	b	.LBB19_11
.Ltmp546:
.LBB19_9:
	@DEBUG_VALUE: HAL_TIMEx_PWMN_Stop:Channel <- $r1
	@DEBUG_VALUE: HAL_TIMEx_PWMN_Stop:htim <- $r0
	.loc	7 0 3 is_stmt 0                 @ ../src/driver/stm32g4-v120/src/stm32g4xx_hal_tim_ex.c:0:3
	movs	r1, #1
.Ltmp547:
	@DEBUG_VALUE: HAL_TIMEx_PWMN_Stop:Channel <- [DW_OP_LLVM_entry_value 1] $r1
	.loc	7 1202 3                        @ ../src/driver/stm32g4-v120/src/stm32g4xx_hal_tim_ex.c:1202:3
	strb.w	r1, [r0, #70]
	b	.LBB19_11
.Ltmp548:
.LBB19_10:
	@DEBUG_VALUE: HAL_TIMEx_PWMN_Stop:Channel <- $r1
	@DEBUG_VALUE: HAL_TIMEx_PWMN_Stop:htim <- $r0
	.loc	7 0 3                           @ ../src/driver/stm32g4-v120/src/stm32g4xx_hal_tim_ex.c:0:3
	movs	r1, #1
.Ltmp549:
	@DEBUG_VALUE: HAL_TIMEx_PWMN_Stop:Channel <- [DW_OP_LLVM_entry_value 1] $r1
	.loc	7 1202 3                        @ ../src/driver/stm32g4-v120/src/stm32g4xx_hal_tim_ex.c:1202:3
	strb.w	r1, [r0, #69]
.Ltmp550:
.LBB19_11:
	@DEBUG_VALUE: HAL_TIMEx_PWMN_Stop:htim <- $r0
	@DEBUG_VALUE: HAL_TIMEx_PWMN_Stop:Channel <- [DW_OP_LLVM_entry_value 1] $r1
	.loc	7 1205 3 is_stmt 1              @ ../src/driver/stm32g4-v120/src/stm32g4xx_hal_tim_ex.c:1205:3
	movs	r0, #0
.Ltmp551:
	@DEBUG_VALUE: HAL_TIMEx_PWMN_Stop:htim <- [DW_OP_LLVM_entry_value 1] $r0
	pop	{r4, pc}
.Ltmp552:
.Lfunc_end19:
	.size	HAL_TIMEx_PWMN_Stop, .Lfunc_end19-HAL_TIMEx_PWMN_Stop
	.cfi_endproc
	.cantunwind
	.fnend
                                        @ -- End function
	.section	.text.HAL_TIMEx_PWMN_Start_IT,"ax",%progbits
	.hidden	HAL_TIMEx_PWMN_Start_IT         @ -- Begin function HAL_TIMEx_PWMN_Start_IT
	.globl	HAL_TIMEx_PWMN_Start_IT
	.p2align	2
	.type	HAL_TIMEx_PWMN_Start_IT,%function
	.code	16                              @ @HAL_TIMEx_PWMN_Start_IT
	.thumb_func
HAL_TIMEx_PWMN_Start_IT:
.Lfunc_begin20:
	.loc	7 1221 0                        @ ../src/driver/stm32g4-v120/src/stm32g4xx_hal_tim_ex.c:1221:0
	.fnstart
	.cfi_startproc
@ %bb.0:
	@DEBUG_VALUE: HAL_TIMEx_PWMN_Start_IT:htim <- $r0
	@DEBUG_VALUE: HAL_TIMEx_PWMN_Start_IT:Channel <- $r1
	@DEBUG_VALUE: HAL_TIMEx_PWMN_Start_IT:Channel <- $r1
	@DEBUG_VALUE: HAL_TIMEx_PWMN_Start_IT:htim <- $r0
	.loc	7 1228 7 prologue_end           @ ../src/driver/stm32g4-v120/src/stm32g4xx_hal_tim_ex.c:1228:7
	cbz	r1, .LBB20_3
.Ltmp553:
@ %bb.1:
	@DEBUG_VALUE: HAL_TIMEx_PWMN_Start_IT:Channel <- $r1
	@DEBUG_VALUE: HAL_TIMEx_PWMN_Start_IT:htim <- $r0
	cmp	r1, #8
	beq	.LBB20_5
.Ltmp554:
@ %bb.2:
	@DEBUG_VALUE: HAL_TIMEx_PWMN_Start_IT:Channel <- $r1
	@DEBUG_VALUE: HAL_TIMEx_PWMN_Start_IT:htim <- $r0
	cmp	r1, #4
	ite	ne
	addne.w	r2, r0, #71
	addeq.w	r2, r0, #69
	b	.LBB20_6
.Ltmp555:
.LBB20_3:
	@DEBUG_VALUE: HAL_TIMEx_PWMN_Start_IT:Channel <- $r1
	@DEBUG_VALUE: HAL_TIMEx_PWMN_Start_IT:htim <- $r0
	ldrb.w	r2, [r0, #68]
.Ltmp556:
	.loc	7 1228 7 is_stmt 0              @ ../src/driver/stm32g4-v120/src/stm32g4xx_hal_tim_ex.c:1228:7
	cmp	r2, #1
	bne	.LBB20_9
.Ltmp557:
@ %bb.4:
	@DEBUG_VALUE: HAL_TIMEx_PWMN_Start_IT:Channel <- $r1
	@DEBUG_VALUE: HAL_TIMEx_PWMN_Start_IT:htim <- $r0
	.loc	7 0 7                           @ ../src/driver/stm32g4-v120/src/stm32g4xx_hal_tim_ex.c:0:7
	movs	r2, #2
	.loc	7 1234 3 is_stmt 1              @ ../src/driver/stm32g4-v120/src/stm32g4xx_hal_tim_ex.c:1234:3
	strb.w	r2, [r0, #68]
	b	.LBB20_11
.Ltmp558:
.LBB20_5:
	@DEBUG_VALUE: HAL_TIMEx_PWMN_Start_IT:Channel <- $r1
	@DEBUG_VALUE: HAL_TIMEx_PWMN_Start_IT:htim <- $r0
	.loc	7 1228 7                        @ ../src/driver/stm32g4-v120/src/stm32g4xx_hal_tim_ex.c:1228:7
	add.w	r2, r0, #70
.Ltmp559:
.LBB20_6:
	@DEBUG_VALUE: HAL_TIMEx_PWMN_Start_IT:Channel <- $r1
	@DEBUG_VALUE: HAL_TIMEx_PWMN_Start_IT:htim <- $r0
	ldrb	r2, [r2]
.Ltmp560:
	.loc	7 1228 7 is_stmt 0              @ ../src/driver/stm32g4-v120/src/stm32g4xx_hal_tim_ex.c:1228:7
	cmp	r2, #1
	bne	.LBB20_9
.Ltmp561:
@ %bb.7:
	@DEBUG_VALUE: HAL_TIMEx_PWMN_Start_IT:Channel <- $r1
	@DEBUG_VALUE: HAL_TIMEx_PWMN_Start_IT:htim <- $r0
	.loc	7 0 7                           @ ../src/driver/stm32g4-v120/src/stm32g4xx_hal_tim_ex.c:0:7
	movs	r2, #2
	.loc	7 1234 3 is_stmt 1              @ ../src/driver/stm32g4-v120/src/stm32g4xx_hal_tim_ex.c:1234:3
	cmp	r1, #8
	beq	.LBB20_10
.Ltmp562:
@ %bb.8:
	@DEBUG_VALUE: HAL_TIMEx_PWMN_Start_IT:Channel <- $r1
	@DEBUG_VALUE: HAL_TIMEx_PWMN_Start_IT:htim <- $r0
	cmp	r1, #4
	ite	ne
	strbne.w	r2, [r0, #71]
	strbeq.w	r2, [r0, #69]
	b	.LBB20_11
.Ltmp563:
.LBB20_9:
	@DEBUG_VALUE: HAL_TIMEx_PWMN_Start_IT:Channel <- $r1
	@DEBUG_VALUE: HAL_TIMEx_PWMN_Start_IT:htim <- $r0
	.loc	7 0 3 is_stmt 0                 @ ../src/driver/stm32g4-v120/src/stm32g4xx_hal_tim_ex.c:0:3
	movs	r0, #1
.Ltmp564:
	@DEBUG_VALUE: HAL_TIMEx_PWMN_Start_IT:htim <- [DW_OP_LLVM_entry_value 1] $r0
	.loc	7 1295 1 is_stmt 1              @ ../src/driver/stm32g4-v120/src/stm32g4xx_hal_tim_ex.c:1295:1
	bx	lr
.Ltmp565:
.LBB20_10:
	@DEBUG_VALUE: HAL_TIMEx_PWMN_Start_IT:Channel <- $r1
	@DEBUG_VALUE: HAL_TIMEx_PWMN_Start_IT:htim <- $r0
	.loc	7 1234 3                        @ ../src/driver/stm32g4-v120/src/stm32g4xx_hal_tim_ex.c:1234:3
	strb.w	r2, [r0, #70]
.Ltmp566:
.LBB20_11:
	@DEBUG_VALUE: HAL_TIMEx_PWMN_Start_IT:Channel <- $r1
	@DEBUG_VALUE: HAL_TIMEx_PWMN_Start_IT:htim <- $r0
	.loc	7 1236 3                        @ ../src/driver/stm32g4-v120/src/stm32g4xx_hal_tim_ex.c:1236:3
	ror.w	r2, r1, #2
	cmp	r2, #3
	bhi	.LBB20_15
.Ltmp567:
@ %bb.12:
	@DEBUG_VALUE: HAL_TIMEx_PWMN_Start_IT:Channel <- $r1
	@DEBUG_VALUE: HAL_TIMEx_PWMN_Start_IT:htim <- $r0
	.loc	7 0 3 is_stmt 0                 @ ../src/driver/stm32g4-v120/src/stm32g4xx_hal_tim_ex.c:0:3
.LCPI20_0:
	tbb	[pc, r2]
.Ltmp568:
@ %bb.13:
.LJTI20_0:
	.byte	(.LBB20_14-(.LCPI20_0+4))/2
	.byte	(.LBB20_16-(.LCPI20_0+4))/2
	.byte	(.LBB20_17-(.LCPI20_0+4))/2
	.byte	(.LBB20_18-(.LCPI20_0+4))/2
	.p2align	1
.LBB20_14:
.Ltmp569:
	@DEBUG_VALUE: HAL_TIMEx_PWMN_Start_IT:Channel <- $r1
	@DEBUG_VALUE: HAL_TIMEx_PWMN_Start_IT:htim <- $r0
	.loc	7 1241 7 is_stmt 1              @ ../src/driver/stm32g4-v120/src/stm32g4xx_hal_tim_ex.c:1241:7
	ldr	r2, [r0]
	ldr	r0, [r2, #12]
.Ltmp570:
	@DEBUG_VALUE: HAL_TIMEx_PWMN_Start_IT:htim <- [DW_OP_LLVM_entry_value 1] $r0
	orr	r0, r0, #2
	b	.LBB20_19
.Ltmp571:
.LBB20_15:
	@DEBUG_VALUE: HAL_TIMEx_PWMN_Start_IT:Channel <- $r1
	@DEBUG_VALUE: HAL_TIMEx_PWMN_Start_IT:htim <- $r0
	.loc	7 1271 3                        @ ../src/driver/stm32g4-v120/src/stm32g4xx_hal_tim_ex.c:1271:3
	ldr	r2, [r0]
	b	.LBB20_20
.Ltmp572:
.LBB20_16:
	@DEBUG_VALUE: HAL_TIMEx_PWMN_Start_IT:Channel <- $r1
	@DEBUG_VALUE: HAL_TIMEx_PWMN_Start_IT:htim <- $r0
	.loc	7 1248 7                        @ ../src/driver/stm32g4-v120/src/stm32g4xx_hal_tim_ex.c:1248:7
	ldr	r2, [r0]
	ldr	r0, [r2, #12]
.Ltmp573:
	@DEBUG_VALUE: HAL_TIMEx_PWMN_Start_IT:htim <- [DW_OP_LLVM_entry_value 1] $r0
	orr	r0, r0, #4
	b	.LBB20_19
.Ltmp574:
.LBB20_17:
	@DEBUG_VALUE: HAL_TIMEx_PWMN_Start_IT:Channel <- $r1
	@DEBUG_VALUE: HAL_TIMEx_PWMN_Start_IT:htim <- $r0
	.loc	7 1255 7                        @ ../src/driver/stm32g4-v120/src/stm32g4xx_hal_tim_ex.c:1255:7
	ldr	r2, [r0]
	ldr	r0, [r2, #12]
.Ltmp575:
	@DEBUG_VALUE: HAL_TIMEx_PWMN_Start_IT:htim <- [DW_OP_LLVM_entry_value 1] $r0
	orr	r0, r0, #8
	b	.LBB20_19
.Ltmp576:
.LBB20_18:
	@DEBUG_VALUE: HAL_TIMEx_PWMN_Start_IT:Channel <- $r1
	@DEBUG_VALUE: HAL_TIMEx_PWMN_Start_IT:htim <- $r0
	.loc	7 1262 7                        @ ../src/driver/stm32g4-v120/src/stm32g4xx_hal_tim_ex.c:1262:7
	ldr	r2, [r0]
	ldr	r0, [r2, #12]
.Ltmp577:
	@DEBUG_VALUE: HAL_TIMEx_PWMN_Start_IT:htim <- [DW_OP_LLVM_entry_value 1] $r0
	orr	r0, r0, #16
.Ltmp578:
.LBB20_19:
	@DEBUG_VALUE: HAL_TIMEx_PWMN_Start_IT:Channel <- $r1
	@DEBUG_VALUE: HAL_TIMEx_PWMN_Start_IT:htim <- [DW_OP_LLVM_entry_value 1] $r0
	.loc	7 0 0 is_stmt 0                 @ ../src/driver/stm32g4-v120/src/stm32g4xx_hal_tim_ex.c:0:0
	str	r0, [r2, #12]
.Ltmp579:
.LBB20_20:
	@DEBUG_VALUE: HAL_TIMEx_PWMN_Start_IT:Channel <- $r1
	.loc	7 1271 3 is_stmt 1              @ ../src/driver/stm32g4-v120/src/stm32g4xx_hal_tim_ex.c:1271:3
	ldr	r0, [r2, #12]
	orr	r0, r0, #128
	str	r0, [r2, #12]
.Ltmp580:
	@DEBUG_VALUE: TIM_CCxNChannelCmd:ChannelNState <- 4
	@DEBUG_VALUE: TIM_CCxNChannelCmd:Channel <- $r1
	@DEBUG_VALUE: TIM_CCxNChannelCmd:TIMx <- $r2
	.loc	7 3578 36                       @ ../src/driver/stm32g4-v120/src/stm32g4xx_hal_tim_ex.c:3578:36
	and	r0, r1, #31
	movs	r1, #4
.Ltmp581:
	@DEBUG_VALUE: HAL_TIMEx_PWMN_Start_IT:Channel <- [DW_OP_LLVM_entry_value 1] $r1
	.loc	7 3581 14                       @ ../src/driver/stm32g4-v120/src/stm32g4xx_hal_tim_ex.c:3581:14
	ldr	r3, [r2, #32]
	.loc	7 3578 24                       @ ../src/driver/stm32g4-v120/src/stm32g4xx_hal_tim_ex.c:3578:24
	lsl.w	r0, r1, r0
.Ltmp582:
	@DEBUG_VALUE: TIM_CCxNChannelCmd:tmp <- $r0
	.loc	7 3581 14                       @ ../src/driver/stm32g4-v120/src/stm32g4xx_hal_tim_ex.c:3581:14
	bic.w	r1, r3, r0
	str	r1, [r2, #32]
	.loc	7 3584 14                       @ ../src/driver/stm32g4-v120/src/stm32g4xx_hal_tim_ex.c:3584:14
	ldr	r1, [r2, #32]
	orrs	r0, r1
.Ltmp583:
	str	r0, [r2, #32]
.Ltmp584:
	.loc	7 1277 3                        @ ../src/driver/stm32g4-v120/src/stm32g4xx_hal_tim_ex.c:1277:3
	ldr	r0, [r2, #68]
	movw	r1, #11263
	movt	r1, #16385
	orr	r0, r0, #32768
.Ltmp585:
	.loc	7 1280 7                        @ ../src/driver/stm32g4-v120/src/stm32g4xx_hal_tim_ex.c:1280:7
	cmp	r2, r1
.Ltmp586:
	.loc	7 1277 3                        @ ../src/driver/stm32g4-v120/src/stm32g4xx_hal_tim_ex.c:1277:3
	str	r0, [r2, #68]
.Ltmp587:
	.loc	7 1280 7                        @ ../src/driver/stm32g4-v120/src/stm32g4xx_hal_tim_ex.c:1280:7
	bgt	.LBB20_24
.Ltmp588:
@ %bb.21:
	@DEBUG_VALUE: HAL_TIMEx_PWMN_Start_IT:Channel <- [DW_OP_LLVM_entry_value 1] $r1
	.loc	7 0 7 is_stmt 0                 @ ../src/driver/stm32g4-v120/src/stm32g4xx_hal_tim_ex.c:0:7
	movw	r0, #2047
	movt	r0, #16384
	.loc	7 1280 7                        @ ../src/driver/stm32g4-v120/src/stm32g4xx_hal_tim_ex.c:1280:7
	cmp	r2, r0
	bgt	.LBB20_27
.Ltmp589:
@ %bb.22:
	@DEBUG_VALUE: HAL_TIMEx_PWMN_Start_IT:Channel <- [DW_OP_LLVM_entry_value 1] $r1
	cmp.w	r2, #1073741824
	beq	.LBB20_34
.Ltmp590:
@ %bb.23:
	@DEBUG_VALUE: HAL_TIMEx_PWMN_Start_IT:Channel <- [DW_OP_LLVM_entry_value 1] $r1
	.loc	7 0 7                           @ ../src/driver/stm32g4-v120/src/stm32g4xx_hal_tim_ex.c:0:7
	movw	r0, #1024
	b	.LBB20_29
.Ltmp591:
.LBB20_24:
	@DEBUG_VALUE: HAL_TIMEx_PWMN_Start_IT:Channel <- [DW_OP_LLVM_entry_value 1] $r1
	movw	r0, #16383
	movt	r0, #16385
	.loc	7 1280 7                        @ ../src/driver/stm32g4-v120/src/stm32g4xx_hal_tim_ex.c:1280:7
	cmp	r2, r0
	bgt	.LBB20_30
.Ltmp592:
@ %bb.25:
	@DEBUG_VALUE: HAL_TIMEx_PWMN_Start_IT:Channel <- [DW_OP_LLVM_entry_value 1] $r1
	.loc	7 0 7                           @ ../src/driver/stm32g4-v120/src/stm32g4xx_hal_tim_ex.c:0:7
	movw	r0, #11264
	movt	r0, #16385
	.loc	7 1280 7                        @ ../src/driver/stm32g4-v120/src/stm32g4xx_hal_tim_ex.c:1280:7
	cmp	r2, r0
	beq	.LBB20_34
.Ltmp593:
@ %bb.26:
	@DEBUG_VALUE: HAL_TIMEx_PWMN_Start_IT:Channel <- [DW_OP_LLVM_entry_value 1] $r1
	.loc	7 0 7                           @ ../src/driver/stm32g4-v120/src/stm32g4xx_hal_tim_ex.c:0:7
	movw	r0, #13312
	b	.LBB20_32
.Ltmp594:
.LBB20_27:
	@DEBUG_VALUE: HAL_TIMEx_PWMN_Start_IT:Channel <- [DW_OP_LLVM_entry_value 1] $r1
	movw	r0, #2048
	movt	r0, #16384
	.loc	7 1280 7                        @ ../src/driver/stm32g4-v120/src/stm32g4xx_hal_tim_ex.c:1280:7
	cmp	r2, r0
	beq	.LBB20_34
.Ltmp595:
@ %bb.28:
	@DEBUG_VALUE: HAL_TIMEx_PWMN_Start_IT:Channel <- [DW_OP_LLVM_entry_value 1] $r1
	.loc	7 0 7                           @ ../src/driver/stm32g4-v120/src/stm32g4xx_hal_tim_ex.c:0:7
	movw	r0, #3072
.Ltmp596:
.LBB20_29:
	@DEBUG_VALUE: HAL_TIMEx_PWMN_Start_IT:Channel <- [DW_OP_LLVM_entry_value 1] $r1
	movt	r0, #16384
	b	.LBB20_33
.Ltmp597:
.LBB20_30:
	@DEBUG_VALUE: HAL_TIMEx_PWMN_Start_IT:Channel <- [DW_OP_LLVM_entry_value 1] $r1
	movw	r0, #20480
	movt	r0, #16385
	.loc	7 1280 7                        @ ../src/driver/stm32g4-v120/src/stm32g4xx_hal_tim_ex.c:1280:7
	cmp	r2, r0
	beq	.LBB20_34
.Ltmp598:
@ %bb.31:
	@DEBUG_VALUE: HAL_TIMEx_PWMN_Start_IT:Channel <- [DW_OP_LLVM_entry_value 1] $r1
	.loc	7 0 7                           @ ../src/driver/stm32g4-v120/src/stm32g4xx_hal_tim_ex.c:0:7
	movw	r0, #16384
.Ltmp599:
.LBB20_32:
	@DEBUG_VALUE: HAL_TIMEx_PWMN_Start_IT:Channel <- [DW_OP_LLVM_entry_value 1] $r1
	movt	r0, #16385
.Ltmp600:
.LBB20_33:
	@DEBUG_VALUE: HAL_TIMEx_PWMN_Start_IT:Channel <- [DW_OP_LLVM_entry_value 1] $r1
	.loc	7 1280 7                        @ ../src/driver/stm32g4-v120/src/stm32g4xx_hal_tim_ex.c:1280:7
	cmp	r2, r0
	bne	.LBB20_36
.Ltmp601:
.LBB20_34:
	@DEBUG_VALUE: HAL_TIMEx_PWMN_Start_IT:Channel <- [DW_OP_LLVM_entry_value 1] $r1
	.loc	7 1282 31 is_stmt 1             @ ../src/driver/stm32g4-v120/src/stm32g4xx_hal_tim_ex.c:1282:31
	ldr	r0, [r2, #8]
	movs	r1, #7
	movt	r1, #1
	.loc	7 1282 36 is_stmt 0             @ ../src/driver/stm32g4-v120/src/stm32g4xx_hal_tim_ex.c:1282:36
	ands	r1, r0
.Ltmp602:
	@DEBUG_VALUE: HAL_TIMEx_PWMN_Start_IT:tmpsmcr <- $r1
	.loc	7 1283 10 is_stmt 1             @ ../src/driver/stm32g4-v120/src/stm32g4xx_hal_tim_ex.c:1283:10
	cmp	r1, #6
	mov.w	r0, #0
	beq	.LBB20_37
.Ltmp603:
@ %bb.35:
	@DEBUG_VALUE: HAL_TIMEx_PWMN_Start_IT:tmpsmcr <- $r1
	@DEBUG_VALUE: HAL_TIMEx_PWMN_Start_IT:Channel <- [DW_OP_LLVM_entry_value 1] $r1
	cmp.w	r1, #65536
.Ltmp604:
	.loc	7 1295 1                        @ ../src/driver/stm32g4-v120/src/stm32g4xx_hal_tim_ex.c:1295:1
	it	eq
	bxeq	lr
.Ltmp605:
.LBB20_36:
	@DEBUG_VALUE: HAL_TIMEx_PWMN_Start_IT:Channel <- [DW_OP_LLVM_entry_value 1] $r1
	.loc	7 0 0 is_stmt 0                 @ ../src/driver/stm32g4-v120/src/stm32g4xx_hal_tim_ex.c:0:0
	ldr	r0, [r2]
	orr	r0, r0, #1
	str	r0, [r2]
	movs	r0, #0
.Ltmp606:
.LBB20_37:
	@DEBUG_VALUE: HAL_TIMEx_PWMN_Start_IT:Channel <- [DW_OP_LLVM_entry_value 1] $r1
	.loc	7 1295 1                        @ ../src/driver/stm32g4-v120/src/stm32g4xx_hal_tim_ex.c:1295:1
	bx	lr
.Ltmp607:
.Lfunc_end20:
	.size	HAL_TIMEx_PWMN_Start_IT, .Lfunc_end20-HAL_TIMEx_PWMN_Start_IT
	.cfi_endproc
	.cantunwind
	.fnend
                                        @ -- End function
	.section	.text.HAL_TIMEx_PWMN_Stop_IT,"ax",%progbits
	.hidden	HAL_TIMEx_PWMN_Stop_IT          @ -- Begin function HAL_TIMEx_PWMN_Stop_IT
	.globl	HAL_TIMEx_PWMN_Stop_IT
	.p2align	2
	.type	HAL_TIMEx_PWMN_Stop_IT,%function
	.code	16                              @ @HAL_TIMEx_PWMN_Stop_IT
	.thumb_func
HAL_TIMEx_PWMN_Stop_IT:
.Lfunc_begin21:
	.loc	7 1310 0 is_stmt 1              @ ../src/driver/stm32g4-v120/src/stm32g4xx_hal_tim_ex.c:1310:0
	.fnstart
	.cfi_startproc
@ %bb.0:
	@DEBUG_VALUE: HAL_TIMEx_PWMN_Stop_IT:htim <- $r0
	@DEBUG_VALUE: HAL_TIMEx_PWMN_Stop_IT:Channel <- $r1
	@DEBUG_VALUE: HAL_TIMEx_PWMN_Stop_IT:Channel <- $r1
	.save	{r4, lr}
	push	{r4, lr}
	.cfi_def_cfa_offset 8
	.cfi_offset lr, -4
	.cfi_offset r4, -8
.Ltmp608:
	.loc	7 1316 3 prologue_end           @ ../src/driver/stm32g4-v120/src/stm32g4xx_hal_tim_ex.c:1316:3
	ror.w	r2, r1, #2
	cmp	r2, #3
	@DEBUG_VALUE: HAL_TIMEx_PWMN_Stop_IT:htim <- $r0
	bhi	.LBB21_4
.Ltmp609:
@ %bb.1:
	@DEBUG_VALUE: HAL_TIMEx_PWMN_Stop_IT:Channel <- $r1
	@DEBUG_VALUE: HAL_TIMEx_PWMN_Stop_IT:htim <- $r0
	.loc	7 0 3 is_stmt 0                 @ ../src/driver/stm32g4-v120/src/stm32g4xx_hal_tim_ex.c:0:3
.LCPI21_0:
	tbb	[pc, r2]
.Ltmp610:
@ %bb.2:
.LJTI21_0:
	.byte	(.LBB21_3-(.LCPI21_0+4))/2
	.byte	(.LBB21_5-(.LCPI21_0+4))/2
	.byte	(.LBB21_6-(.LCPI21_0+4))/2
	.byte	(.LBB21_7-(.LCPI21_0+4))/2
	.p2align	1
.LBB21_3:
.Ltmp611:
	@DEBUG_VALUE: HAL_TIMEx_PWMN_Stop_IT:Channel <- $r1
	@DEBUG_VALUE: HAL_TIMEx_PWMN_Stop_IT:htim <- $r0
	.loc	7 1321 7 is_stmt 1              @ ../src/driver/stm32g4-v120/src/stm32g4xx_hal_tim_ex.c:1321:7
	ldr	r2, [r0]
	ldr	r3, [r2, #12]
	bic	r3, r3, #2
	b	.LBB21_8
.Ltmp612:
.LBB21_4:
	@DEBUG_VALUE: HAL_TIMEx_PWMN_Stop_IT:Channel <- $r1
	@DEBUG_VALUE: HAL_TIMEx_PWMN_Stop_IT:htim <- $r0
	.loc	7 1351 28                       @ ../src/driver/stm32g4-v120/src/stm32g4xx_hal_tim_ex.c:1351:28
	ldr	r2, [r0]
	b	.LBB21_9
.Ltmp613:
.LBB21_5:
	@DEBUG_VALUE: HAL_TIMEx_PWMN_Stop_IT:Channel <- $r1
	@DEBUG_VALUE: HAL_TIMEx_PWMN_Stop_IT:htim <- $r0
	.loc	7 1328 7                        @ ../src/driver/stm32g4-v120/src/stm32g4xx_hal_tim_ex.c:1328:7
	ldr	r2, [r0]
	ldr	r3, [r2, #12]
	bic	r3, r3, #4
	b	.LBB21_8
.Ltmp614:
.LBB21_6:
	@DEBUG_VALUE: HAL_TIMEx_PWMN_Stop_IT:Channel <- $r1
	@DEBUG_VALUE: HAL_TIMEx_PWMN_Stop_IT:htim <- $r0
	.loc	7 1335 7                        @ ../src/driver/stm32g4-v120/src/stm32g4xx_hal_tim_ex.c:1335:7
	ldr	r2, [r0]
	ldr	r3, [r2, #12]
	bic	r3, r3, #8
	b	.LBB21_8
.Ltmp615:
.LBB21_7:
	@DEBUG_VALUE: HAL_TIMEx_PWMN_Stop_IT:Channel <- $r1
	@DEBUG_VALUE: HAL_TIMEx_PWMN_Stop_IT:htim <- $r0
	.loc	7 1342 7                        @ ../src/driver/stm32g4-v120/src/stm32g4xx_hal_tim_ex.c:1342:7
	ldr	r2, [r0]
	ldr	r3, [r2, #12]
	bic	r3, r3, #16
.Ltmp616:
.LBB21_8:
	@DEBUG_VALUE: HAL_TIMEx_PWMN_Stop_IT:Channel <- $r1
	@DEBUG_VALUE: HAL_TIMEx_PWMN_Stop_IT:htim <- $r0
	.loc	7 0 0 is_stmt 0                 @ ../src/driver/stm32g4-v120/src/stm32g4xx_hal_tim_ex.c:0:0
	str	r3, [r2, #12]
.Ltmp617:
.LBB21_9:
	@DEBUG_VALUE: HAL_TIMEx_PWMN_Stop_IT:Channel <- $r1
	@DEBUG_VALUE: HAL_TIMEx_PWMN_Stop_IT:htim <- $r0
	@DEBUG_VALUE: TIM_CCxNChannelCmd:TIMx <- $r2
	@DEBUG_VALUE: TIM_CCxNChannelCmd:Channel <- $r1
	@DEBUG_VALUE: TIM_CCxNChannelCmd:ChannelNState <- 0
	.loc	7 3578 36 is_stmt 1             @ ../src/driver/stm32g4-v120/src/stm32g4xx_hal_tim_ex.c:3578:36
	and	lr, r1, #31
	mov.w	r12, #4
	.loc	7 3581 14                       @ ../src/driver/stm32g4-v120/src/stm32g4xx_hal_tim_ex.c:3581:14
	ldr	r4, [r2, #32]
	.loc	7 3578 24                       @ ../src/driver/stm32g4-v120/src/stm32g4xx_hal_tim_ex.c:3578:24
	lsl.w	r3, r12, lr
.Ltmp618:
	@DEBUG_VALUE: TIM_CCxNChannelCmd:tmp <- $r3
	.loc	7 3581 14                       @ ../src/driver/stm32g4-v120/src/stm32g4xx_hal_tim_ex.c:3581:14
	bic.w	r3, r4, r3
.Ltmp619:
	str	r3, [r2, #32]
	.loc	7 3584 14                       @ ../src/driver/stm32g4-v120/src/stm32g4xx_hal_tim_ex.c:3584:14
	ldr	r3, [r2, #32]
	movw	r4, #17476
	str	r3, [r2, #32]
.Ltmp620:
	.loc	7 1354 29                       @ ../src/driver/stm32g4-v120/src/stm32g4xx_hal_tim_ex.c:1354:29
	ldr	r3, [r2, #32]
.Ltmp621:
	@DEBUG_VALUE: HAL_TIMEx_PWMN_Stop_IT:tmpccer <- $r3
	.loc	7 1355 7                        @ ../src/driver/stm32g4-v120/src/stm32g4xx_hal_tim_ex.c:1355:7
	tst	r3, r4
	bne	.LBB21_11
.Ltmp622:
@ %bb.10:
	@DEBUG_VALUE: HAL_TIMEx_PWMN_Stop_IT:tmpccer <- $r3
	@DEBUG_VALUE: HAL_TIMEx_PWMN_Stop_IT:Channel <- $r1
	@DEBUG_VALUE: HAL_TIMEx_PWMN_Stop_IT:htim <- $r0
	.loc	7 1357 5                        @ ../src/driver/stm32g4-v120/src/stm32g4xx_hal_tim_ex.c:1357:5
	ldr	r3, [r2, #12]
.Ltmp623:
	bic	r3, r3, #128
	str	r3, [r2, #12]
.Ltmp624:
.LBB21_11:
	@DEBUG_VALUE: HAL_TIMEx_PWMN_Stop_IT:Channel <- $r1
	@DEBUG_VALUE: HAL_TIMEx_PWMN_Stop_IT:htim <- $r0
	.loc	7 1361 3                        @ ../src/driver/stm32g4-v120/src/stm32g4xx_hal_tim_ex.c:1361:3
	ldr	r4, [r2, #32]
	movw	r3, #4369
.Ltmp625:
	.loc	7 1361 3 is_stmt 0              @ ../src/driver/stm32g4-v120/src/stm32g4xx_hal_tim_ex.c:1361:3
	tst	r4, r3
	bne	.LBB21_14
.Ltmp626:
@ %bb.12:
	@DEBUG_VALUE: HAL_TIMEx_PWMN_Stop_IT:Channel <- $r1
	@DEBUG_VALUE: HAL_TIMEx_PWMN_Stop_IT:htim <- $r0
	.loc	7 1361 3                        @ ../src/driver/stm32g4-v120/src/stm32g4xx_hal_tim_ex.c:1361:3
	ldr.w	r12, [r2, #32]
	movw	r4, #17476
.Ltmp627:
	.loc	7 1361 3                        @ ../src/driver/stm32g4-v120/src/stm32g4xx_hal_tim_ex.c:1361:3
	tst.w	r12, r4
	bne	.LBB21_14
.Ltmp628:
@ %bb.13:
	@DEBUG_VALUE: HAL_TIMEx_PWMN_Stop_IT:Channel <- $r1
	@DEBUG_VALUE: HAL_TIMEx_PWMN_Stop_IT:htim <- $r0
	.loc	7 1361 3                        @ ../src/driver/stm32g4-v120/src/stm32g4xx_hal_tim_ex.c:1361:3
	ldr	r4, [r2, #68]
	bic	r4, r4, #32768
	str	r4, [r2, #68]
.Ltmp629:
.LBB21_14:
	@DEBUG_VALUE: HAL_TIMEx_PWMN_Stop_IT:Channel <- $r1
	@DEBUG_VALUE: HAL_TIMEx_PWMN_Stop_IT:htim <- $r0
	.loc	7 1364 3 is_stmt 1              @ ../src/driver/stm32g4-v120/src/stm32g4xx_hal_tim_ex.c:1364:3
	ldr	r4, [r2, #32]
.Ltmp630:
	.loc	7 1364 3 is_stmt 0              @ ../src/driver/stm32g4-v120/src/stm32g4xx_hal_tim_ex.c:1364:3
	tst	r4, r3
	bne	.LBB21_17
.Ltmp631:
@ %bb.15:
	@DEBUG_VALUE: HAL_TIMEx_PWMN_Stop_IT:Channel <- $r1
	@DEBUG_VALUE: HAL_TIMEx_PWMN_Stop_IT:htim <- $r0
	.loc	7 1364 3                        @ ../src/driver/stm32g4-v120/src/stm32g4xx_hal_tim_ex.c:1364:3
	ldr	r3, [r2, #32]
	movw	r4, #17476
.Ltmp632:
	.loc	7 1364 3                        @ ../src/driver/stm32g4-v120/src/stm32g4xx_hal_tim_ex.c:1364:3
	tst	r3, r4
	bne	.LBB21_17
.Ltmp633:
@ %bb.16:
	@DEBUG_VALUE: HAL_TIMEx_PWMN_Stop_IT:Channel <- $r1
	@DEBUG_VALUE: HAL_TIMEx_PWMN_Stop_IT:htim <- $r0
	.loc	7 1364 3                        @ ../src/driver/stm32g4-v120/src/stm32g4xx_hal_tim_ex.c:1364:3
	ldr	r3, [r2]
	bic	r3, r3, #1
	str	r3, [r2]
.Ltmp634:
.LBB21_17:
	@DEBUG_VALUE: HAL_TIMEx_PWMN_Stop_IT:Channel <- $r1
	@DEBUG_VALUE: HAL_TIMEx_PWMN_Stop_IT:htim <- $r0
	.loc	7 1367 3 is_stmt 1              @ ../src/driver/stm32g4-v120/src/stm32g4xx_hal_tim_ex.c:1367:3
	cmp	r1, #8
	beq	.LBB21_20
.Ltmp635:
@ %bb.18:
	@DEBUG_VALUE: HAL_TIMEx_PWMN_Stop_IT:Channel <- $r1
	@DEBUG_VALUE: HAL_TIMEx_PWMN_Stop_IT:htim <- $r0
	cmp	r1, #4
	beq	.LBB21_21
.Ltmp636:
@ %bb.19:
	@DEBUG_VALUE: HAL_TIMEx_PWMN_Stop_IT:Channel <- $r1
	@DEBUG_VALUE: HAL_TIMEx_PWMN_Stop_IT:htim <- $r0
	cmp	r1, #0
	mov.w	r1, #1
.Ltmp637:
	@DEBUG_VALUE: HAL_TIMEx_PWMN_Stop_IT:Channel <- [DW_OP_LLVM_entry_value 1] $r1
	ite	ne
	strbne.w	r1, [r0, #71]
	strbeq.w	r1, [r0, #68]
	b	.LBB21_22
.Ltmp638:
.LBB21_20:
	@DEBUG_VALUE: HAL_TIMEx_PWMN_Stop_IT:Channel <- $r1
	@DEBUG_VALUE: HAL_TIMEx_PWMN_Stop_IT:htim <- $r0
	.loc	7 0 3 is_stmt 0                 @ ../src/driver/stm32g4-v120/src/stm32g4xx_hal_tim_ex.c:0:3
	movs	r1, #1
.Ltmp639:
	@DEBUG_VALUE: HAL_TIMEx_PWMN_Stop_IT:Channel <- [DW_OP_LLVM_entry_value 1] $r1
	.loc	7 1367 3                        @ ../src/driver/stm32g4-v120/src/stm32g4xx_hal_tim_ex.c:1367:3
	strb.w	r1, [r0, #70]
	b	.LBB21_22
.Ltmp640:
.LBB21_21:
	@DEBUG_VALUE: HAL_TIMEx_PWMN_Stop_IT:Channel <- $r1
	@DEBUG_VALUE: HAL_TIMEx_PWMN_Stop_IT:htim <- $r0
	.loc	7 0 3                           @ ../src/driver/stm32g4-v120/src/stm32g4xx_hal_tim_ex.c:0:3
	movs	r1, #1
.Ltmp641:
	@DEBUG_VALUE: HAL_TIMEx_PWMN_Stop_IT:Channel <- [DW_OP_LLVM_entry_value 1] $r1
	.loc	7 1367 3                        @ ../src/driver/stm32g4-v120/src/stm32g4xx_hal_tim_ex.c:1367:3
	strb.w	r1, [r0, #69]
.Ltmp642:
.LBB21_22:
	@DEBUG_VALUE: HAL_TIMEx_PWMN_Stop_IT:htim <- $r0
	@DEBUG_VALUE: HAL_TIMEx_PWMN_Stop_IT:Channel <- [DW_OP_LLVM_entry_value 1] $r1
	.loc	7 1370 3 is_stmt 1              @ ../src/driver/stm32g4-v120/src/stm32g4xx_hal_tim_ex.c:1370:3
	movs	r0, #0
.Ltmp643:
	@DEBUG_VALUE: HAL_TIMEx_PWMN_Stop_IT:htim <- [DW_OP_LLVM_entry_value 1] $r0
	pop	{r4, pc}
.Ltmp644:
.Lfunc_end21:
	.size	HAL_TIMEx_PWMN_Stop_IT, .Lfunc_end21-HAL_TIMEx_PWMN_Stop_IT
	.cfi_endproc
	.cantunwind
	.fnend
                                        @ -- End function
	.section	.text.HAL_TIMEx_PWMN_Start_DMA,"ax",%progbits
	.hidden	HAL_TIMEx_PWMN_Start_DMA        @ -- Begin function HAL_TIMEx_PWMN_Start_DMA
	.globl	HAL_TIMEx_PWMN_Start_DMA
	.p2align	2
	.type	HAL_TIMEx_PWMN_Start_DMA,%function
	.code	16                              @ @HAL_TIMEx_PWMN_Start_DMA
	.thumb_func
HAL_TIMEx_PWMN_Start_DMA:
.Lfunc_begin22:
	.loc	7 1388 0                        @ ../src/driver/stm32g4-v120/src/stm32g4xx_hal_tim_ex.c:1388:0
	.fnstart
	.cfi_startproc
@ %bb.0:
	@DEBUG_VALUE: HAL_TIMEx_PWMN_Start_DMA:htim <- $r0
	@DEBUG_VALUE: HAL_TIMEx_PWMN_Start_DMA:Channel <- $r1
	@DEBUG_VALUE: HAL_TIMEx_PWMN_Start_DMA:pData <- $r2
	@DEBUG_VALUE: HAL_TIMEx_PWMN_Start_DMA:Length <- $r3
	.save	{r4, r5, r7, lr}
	push	{r4, r5, r7, lr}
	.cfi_def_cfa_offset 16
	.cfi_offset lr, -4
	.cfi_offset r7, -8
	.cfi_offset r5, -12
	.cfi_offset r4, -16
	mov	r4, r1
	@DEBUG_VALUE: HAL_TIMEx_PWMN_Start_DMA:Length <- $r3
	@DEBUG_VALUE: HAL_TIMEx_PWMN_Start_DMA:pData <- $r2
.Ltmp645:
	@DEBUG_VALUE: HAL_TIMEx_PWMN_Start_DMA:Channel <- $r4
	mov	r5, r0
.Ltmp646:
	@DEBUG_VALUE: HAL_TIMEx_PWMN_Start_DMA:htim <- $r5
	@DEBUG_VALUE: HAL_TIMEx_PWMN_Start_DMA:htim <- $r5
	.loc	7 1395 7 prologue_end           @ ../src/driver/stm32g4-v120/src/stm32g4xx_hal_tim_ex.c:1395:7
	cbz	r1, .LBB22_3
.Ltmp647:
@ %bb.1:
	@DEBUG_VALUE: HAL_TIMEx_PWMN_Start_DMA:htim <- $r5
	@DEBUG_VALUE: HAL_TIMEx_PWMN_Start_DMA:Channel <- $r4
	@DEBUG_VALUE: HAL_TIMEx_PWMN_Start_DMA:Length <- $r3
	@DEBUG_VALUE: HAL_TIMEx_PWMN_Start_DMA:pData <- $r2
	cmp	r4, #8
	beq	.LBB22_5
.Ltmp648:
@ %bb.2:
	@DEBUG_VALUE: HAL_TIMEx_PWMN_Start_DMA:htim <- $r5
	@DEBUG_VALUE: HAL_TIMEx_PWMN_Start_DMA:Channel <- $r4
	@DEBUG_VALUE: HAL_TIMEx_PWMN_Start_DMA:Length <- $r3
	@DEBUG_VALUE: HAL_TIMEx_PWMN_Start_DMA:pData <- $r2
	cmp	r4, #4
	ite	ne
	addne.w	r0, r5, #71
	addeq.w	r0, r5, #69
	b	.LBB22_6
.Ltmp649:
.LBB22_3:
	@DEBUG_VALUE: HAL_TIMEx_PWMN_Start_DMA:htim <- $r5
	@DEBUG_VALUE: HAL_TIMEx_PWMN_Start_DMA:Channel <- $r4
	@DEBUG_VALUE: HAL_TIMEx_PWMN_Start_DMA:Length <- $r3
	@DEBUG_VALUE: HAL_TIMEx_PWMN_Start_DMA:pData <- $r2
	ldrb.w	r0, [r5, #68]
.Ltmp650:
	.loc	7 1395 7 is_stmt 0              @ ../src/driver/stm32g4-v120/src/stm32g4xx_hal_tim_ex.c:1395:7
	cmp	r0, #2
	beq	.LBB22_7
.Ltmp651:
@ %bb.4:
	@DEBUG_VALUE: HAL_TIMEx_PWMN_Start_DMA:htim <- $r5
	@DEBUG_VALUE: HAL_TIMEx_PWMN_Start_DMA:Channel <- $r4
	@DEBUG_VALUE: HAL_TIMEx_PWMN_Start_DMA:Length <- $r3
	@DEBUG_VALUE: HAL_TIMEx_PWMN_Start_DMA:pData <- $r2
	.loc	7 1399 12 is_stmt 1             @ ../src/driver/stm32g4-v120/src/stm32g4xx_hal_tim_ex.c:1399:12
	add.w	r0, r5, #68
	b	.LBB22_11
.Ltmp652:
.LBB22_5:
	@DEBUG_VALUE: HAL_TIMEx_PWMN_Start_DMA:htim <- $r5
	@DEBUG_VALUE: HAL_TIMEx_PWMN_Start_DMA:Channel <- $r4
	@DEBUG_VALUE: HAL_TIMEx_PWMN_Start_DMA:Length <- $r3
	@DEBUG_VALUE: HAL_TIMEx_PWMN_Start_DMA:pData <- $r2
	.loc	7 1395 7                        @ ../src/driver/stm32g4-v120/src/stm32g4xx_hal_tim_ex.c:1395:7
	add.w	r0, r5, #70
.Ltmp653:
.LBB22_6:
	@DEBUG_VALUE: HAL_TIMEx_PWMN_Start_DMA:htim <- $r5
	@DEBUG_VALUE: HAL_TIMEx_PWMN_Start_DMA:Channel <- $r4
	@DEBUG_VALUE: HAL_TIMEx_PWMN_Start_DMA:Length <- $r3
	@DEBUG_VALUE: HAL_TIMEx_PWMN_Start_DMA:pData <- $r2
	ldrb	r0, [r0]
.Ltmp654:
	.loc	7 1395 7 is_stmt 0              @ ../src/driver/stm32g4-v120/src/stm32g4xx_hal_tim_ex.c:1395:7
	cmp	r0, #2
	bne	.LBB22_8
.Ltmp655:
.LBB22_7:
	@DEBUG_VALUE: HAL_TIMEx_PWMN_Start_DMA:htim <- $r5
	@DEBUG_VALUE: HAL_TIMEx_PWMN_Start_DMA:Channel <- $r4
	@DEBUG_VALUE: HAL_TIMEx_PWMN_Start_DMA:Length <- $r3
	@DEBUG_VALUE: HAL_TIMEx_PWMN_Start_DMA:pData <- $r2
	.loc	7 0 7                           @ ../src/driver/stm32g4-v120/src/stm32g4xx_hal_tim_ex.c:0:7
	movs	r0, #2
	.loc	7 1519 1 is_stmt 1              @ ../src/driver/stm32g4-v120/src/stm32g4xx_hal_tim_ex.c:1519:1
	pop	{r4, r5, r7, pc}
.Ltmp656:
.LBB22_8:
	@DEBUG_VALUE: HAL_TIMEx_PWMN_Start_DMA:htim <- $r5
	@DEBUG_VALUE: HAL_TIMEx_PWMN_Start_DMA:Channel <- $r4
	@DEBUG_VALUE: HAL_TIMEx_PWMN_Start_DMA:Length <- $r3
	@DEBUG_VALUE: HAL_TIMEx_PWMN_Start_DMA:pData <- $r2
	.loc	7 1399 12                       @ ../src/driver/stm32g4-v120/src/stm32g4xx_hal_tim_ex.c:1399:12
	cmp	r4, #8
	beq	.LBB22_10
.Ltmp657:
@ %bb.9:
	@DEBUG_VALUE: HAL_TIMEx_PWMN_Start_DMA:htim <- $r5
	@DEBUG_VALUE: HAL_TIMEx_PWMN_Start_DMA:Channel <- $r4
	@DEBUG_VALUE: HAL_TIMEx_PWMN_Start_DMA:Length <- $r3
	@DEBUG_VALUE: HAL_TIMEx_PWMN_Start_DMA:pData <- $r2
	cmp	r4, #4
	ite	ne
	addne.w	r0, r5, #71
	addeq.w	r0, r5, #69
	b	.LBB22_11
.Ltmp658:
.LBB22_10:
	@DEBUG_VALUE: HAL_TIMEx_PWMN_Start_DMA:htim <- $r5
	@DEBUG_VALUE: HAL_TIMEx_PWMN_Start_DMA:Channel <- $r4
	@DEBUG_VALUE: HAL_TIMEx_PWMN_Start_DMA:Length <- $r3
	@DEBUG_VALUE: HAL_TIMEx_PWMN_Start_DMA:pData <- $r2
	add.w	r0, r5, #70
.Ltmp659:
.LBB22_11:
	@DEBUG_VALUE: HAL_TIMEx_PWMN_Start_DMA:htim <- $r5
	@DEBUG_VALUE: HAL_TIMEx_PWMN_Start_DMA:Channel <- $r4
	@DEBUG_VALUE: HAL_TIMEx_PWMN_Start_DMA:Length <- $r3
	@DEBUG_VALUE: HAL_TIMEx_PWMN_Start_DMA:pData <- $r2
	@DEBUG_VALUE: HAL_TIMEx_PWMN_Start_DMA:Length <- $r3
	ldrb	r0, [r0]
.Ltmp660:
	.loc	7 1399 12 is_stmt 0             @ ../src/driver/stm32g4-v120/src/stm32g4xx_hal_tim_ex.c:1399:12
	cmp	r0, #1
	bne	.LBB22_14
.Ltmp661:
@ %bb.12:
	@DEBUG_VALUE: HAL_TIMEx_PWMN_Start_DMA:htim <- $r5
	@DEBUG_VALUE: HAL_TIMEx_PWMN_Start_DMA:Channel <- $r4
	@DEBUG_VALUE: HAL_TIMEx_PWMN_Start_DMA:Length <- $r3
	@DEBUG_VALUE: HAL_TIMEx_PWMN_Start_DMA:pData <- $r2
	@DEBUG_VALUE: HAL_TIMEx_PWMN_Start_DMA:Length <- $r3
	.loc	7 1401 25 is_stmt 1             @ ../src/driver/stm32g4-v120/src/stm32g4xx_hal_tim_ex.c:1401:25
	cbnz	r2, .LBB22_15
.Ltmp662:
@ %bb.13:
	@DEBUG_VALUE: HAL_TIMEx_PWMN_Start_DMA:htim <- $r5
	@DEBUG_VALUE: HAL_TIMEx_PWMN_Start_DMA:Channel <- $r4
	@DEBUG_VALUE: HAL_TIMEx_PWMN_Start_DMA:Length <- $r3
	@DEBUG_VALUE: HAL_TIMEx_PWMN_Start_DMA:pData <- $r2
	cbz	r3, .LBB22_15
.Ltmp663:
.LBB22_14:
	@DEBUG_VALUE: HAL_TIMEx_PWMN_Start_DMA:htim <- $r5
	@DEBUG_VALUE: HAL_TIMEx_PWMN_Start_DMA:Channel <- $r4
	.loc	7 0 25 is_stmt 0                @ ../src/driver/stm32g4-v120/src/stm32g4xx_hal_tim_ex.c:0:25
	movs	r0, #1
	.loc	7 1519 1 is_stmt 1              @ ../src/driver/stm32g4-v120/src/stm32g4xx_hal_tim_ex.c:1519:1
	pop	{r4, r5, r7, pc}
.Ltmp664:
.LBB22_15:
	@DEBUG_VALUE: HAL_TIMEx_PWMN_Start_DMA:htim <- $r5
	@DEBUG_VALUE: HAL_TIMEx_PWMN_Start_DMA:Channel <- $r4
	@DEBUG_VALUE: HAL_TIMEx_PWMN_Start_DMA:Length <- $r3
	@DEBUG_VALUE: HAL_TIMEx_PWMN_Start_DMA:pData <- $r2
	@DEBUG_VALUE: HAL_TIMEx_PWMN_Start_DMA:Length <- $r3
	.loc	7 0 1 is_stmt 0                 @ ../src/driver/stm32g4-v120/src/stm32g4xx_hal_tim_ex.c:0:1
	movs	r0, #2
.Ltmp665:
	.loc	7 1407 7 is_stmt 1              @ ../src/driver/stm32g4-v120/src/stm32g4xx_hal_tim_ex.c:1407:7
	cbz	r4, .LBB22_18
.Ltmp666:
@ %bb.16:
	@DEBUG_VALUE: HAL_TIMEx_PWMN_Start_DMA:htim <- $r5
	@DEBUG_VALUE: HAL_TIMEx_PWMN_Start_DMA:Channel <- $r4
	@DEBUG_VALUE: HAL_TIMEx_PWMN_Start_DMA:Length <- $r3
	@DEBUG_VALUE: HAL_TIMEx_PWMN_Start_DMA:pData <- $r2
	cmp	r4, #8
	beq	.LBB22_19
.Ltmp667:
@ %bb.17:
	@DEBUG_VALUE: HAL_TIMEx_PWMN_Start_DMA:htim <- $r5
	@DEBUG_VALUE: HAL_TIMEx_PWMN_Start_DMA:Channel <- $r4
	@DEBUG_VALUE: HAL_TIMEx_PWMN_Start_DMA:Length <- $r3
	@DEBUG_VALUE: HAL_TIMEx_PWMN_Start_DMA:pData <- $r2
	cmp	r4, #4
	ite	ne
	strbne.w	r0, [r5, #71]
	strbeq.w	r0, [r5, #69]
	b	.LBB22_20
.Ltmp668:
.LBB22_18:
	@DEBUG_VALUE: HAL_TIMEx_PWMN_Start_DMA:htim <- $r5
	@DEBUG_VALUE: HAL_TIMEx_PWMN_Start_DMA:Channel <- $r4
	@DEBUG_VALUE: HAL_TIMEx_PWMN_Start_DMA:Length <- $r3
	@DEBUG_VALUE: HAL_TIMEx_PWMN_Start_DMA:pData <- $r2
	strb.w	r0, [r5, #68]
	b	.LBB22_20
.Ltmp669:
.LBB22_19:
	@DEBUG_VALUE: HAL_TIMEx_PWMN_Start_DMA:htim <- $r5
	@DEBUG_VALUE: HAL_TIMEx_PWMN_Start_DMA:Channel <- $r4
	@DEBUG_VALUE: HAL_TIMEx_PWMN_Start_DMA:Length <- $r3
	@DEBUG_VALUE: HAL_TIMEx_PWMN_Start_DMA:pData <- $r2
	strb.w	r0, [r5, #70]
.Ltmp670:
.LBB22_20:
	@DEBUG_VALUE: HAL_TIMEx_PWMN_Start_DMA:htim <- $r5
	@DEBUG_VALUE: HAL_TIMEx_PWMN_Start_DMA:Channel <- $r4
	@DEBUG_VALUE: HAL_TIMEx_PWMN_Start_DMA:Length <- $r3
	@DEBUG_VALUE: HAL_TIMEx_PWMN_Start_DMA:pData <- $r2
	@DEBUG_VALUE: HAL_TIMEx_PWMN_Start_DMA:Length <- $r3
	.loc	7 1415 3                        @ ../src/driver/stm32g4-v120/src/stm32g4xx_hal_tim_ex.c:1415:3
	ror.w	r0, r4, #2
	cmp	r0, #3
	bhi	.LBB22_25
.Ltmp671:
@ %bb.21:
	@DEBUG_VALUE: HAL_TIMEx_PWMN_Start_DMA:htim <- $r5
	@DEBUG_VALUE: HAL_TIMEx_PWMN_Start_DMA:Channel <- $r4
	@DEBUG_VALUE: HAL_TIMEx_PWMN_Start_DMA:Length <- $r3
	@DEBUG_VALUE: HAL_TIMEx_PWMN_Start_DMA:pData <- $r2
	@DEBUG_VALUE: HAL_TIMEx_PWMN_Start_DMA:Length <- $r3
	.loc	7 0 3 is_stmt 0                 @ ../src/driver/stm32g4-v120/src/stm32g4xx_hal_tim_ex.c:0:3
.LCPI22_0:
	tbb	[pc, r0]
.Ltmp672:
@ %bb.22:
.LJTI22_0:
	.byte	(.LBB22_23-(.LCPI22_0+4))/2
	.byte	(.LBB22_26-(.LCPI22_0+4))/2
	.byte	(.LBB22_28-(.LCPI22_0+4))/2
	.byte	(.LBB22_30-(.LCPI22_0+4))/2
	.p2align	1
.LBB22_23:
.Ltmp673:
	@DEBUG_VALUE: HAL_TIMEx_PWMN_Start_DMA:htim <- $r5
	@DEBUG_VALUE: HAL_TIMEx_PWMN_Start_DMA:Channel <- $r4
	@DEBUG_VALUE: HAL_TIMEx_PWMN_Start_DMA:Length <- $r3
	@DEBUG_VALUE: HAL_TIMEx_PWMN_Start_DMA:pData <- $r2
	.loc	7 1420 7 is_stmt 1              @ ../src/driver/stm32g4-v120/src/stm32g4xx_hal_tim_ex.c:1420:7
	ldr	r0, [r5, #36]
	.loc	7 1420 52 is_stmt 0             @ ../src/driver/stm32g4-v120/src/stm32g4xx_hal_tim_ex.c:1420:52
	movw	r1, :lower16:TIM_DMADelayPulseNCplt
	movt	r1, :upper16:TIM_DMADelayPulseNCplt
	str	r1, [r0, #44]
	.loc	7 1421 7 is_stmt 1              @ ../src/driver/stm32g4-v120/src/stm32g4xx_hal_tim_ex.c:1421:7
	ldr	r0, [r5, #36]
	.loc	7 1421 56 is_stmt 0             @ ../src/driver/stm32g4-v120/src/stm32g4xx_hal_tim_ex.c:1421:56
	movw	r1, :lower16:TIM_DMADelayPulseHalfCplt
	movt	r1, :upper16:TIM_DMADelayPulseHalfCplt
	str	r1, [r0, #48]
	.loc	7 1424 7 is_stmt 1              @ ../src/driver/stm32g4-v120/src/stm32g4xx_hal_tim_ex.c:1424:7
	ldr	r0, [r5, #36]
	.loc	7 1424 53 is_stmt 0             @ ../src/driver/stm32g4-v120/src/stm32g4xx_hal_tim_ex.c:1424:53
	movw	r1, :lower16:TIM_DMAErrorCCxN
.Ltmp674:
	.loc	7 1427 90 is_stmt 1             @ ../src/driver/stm32g4-v120/src/stm32g4xx_hal_tim_ex.c:1427:90
	ldr.w	r12, [r5]
.Ltmp675:
	.loc	7 1424 53                       @ ../src/driver/stm32g4-v120/src/stm32g4xx_hal_tim_ex.c:1424:53
	movt	r1, :upper16:TIM_DMAErrorCCxN
	str	r1, [r0, #52]
.Ltmp676:
	.loc	7 1427 28                       @ ../src/driver/stm32g4-v120/src/stm32g4xx_hal_tim_ex.c:1427:28
	ldr	r0, [r5, #36]
	.loc	7 1427 100 is_stmt 0            @ ../src/driver/stm32g4-v120/src/stm32g4xx_hal_tim_ex.c:1427:100
	add.w	r12, r12, #52
	.loc	7 1427 11                       @ ../src/driver/stm32g4-v120/src/stm32g4xx_hal_tim_ex.c:1427:11
	mov	r1, r2
	mov	r2, r12
.Ltmp677:
	@DEBUG_VALUE: HAL_TIMEx_PWMN_Start_DMA:pData <- [DW_OP_LLVM_entry_value 1] $r2
	bl	HAL_DMA_Start_IT
.Ltmp678:
	@DEBUG_VALUE: HAL_TIMEx_PWMN_Start_DMA:Length <- [DW_OP_LLVM_entry_value 1] $r3
	.loc	7 1427 11                       @ ../src/driver/stm32g4-v120/src/stm32g4xx_hal_tim_ex.c:1427:11
	cmp	r0, #0
	bne	.LBB22_14
.Ltmp679:
@ %bb.24:
	@DEBUG_VALUE: HAL_TIMEx_PWMN_Start_DMA:htim <- $r5
	@DEBUG_VALUE: HAL_TIMEx_PWMN_Start_DMA:Channel <- $r4
	@DEBUG_VALUE: HAL_TIMEx_PWMN_Start_DMA:Length <- [DW_OP_LLVM_entry_value 1] $r3
	@DEBUG_VALUE: HAL_TIMEx_PWMN_Start_DMA:pData <- [DW_OP_LLVM_entry_value 1] $r2
	.loc	7 1432 7 is_stmt 1              @ ../src/driver/stm32g4-v120/src/stm32g4xx_hal_tim_ex.c:1432:7
	ldr	r1, [r5]
	ldr	r0, [r1, #12]
	orr	r0, r0, #512
	b	.LBB22_32
.Ltmp680:
.LBB22_25:
	@DEBUG_VALUE: HAL_TIMEx_PWMN_Start_DMA:htim <- $r5
	@DEBUG_VALUE: HAL_TIMEx_PWMN_Start_DMA:Channel <- $r4
	@DEBUG_VALUE: HAL_TIMEx_PWMN_Start_DMA:Length <- $r3
	@DEBUG_VALUE: HAL_TIMEx_PWMN_Start_DMA:pData <- $r2
	.loc	7 1498 28                       @ ../src/driver/stm32g4-v120/src/stm32g4xx_hal_tim_ex.c:1498:28
	ldr	r1, [r5]
	b	.LBB22_33
.Ltmp681:
.LBB22_26:
	@DEBUG_VALUE: HAL_TIMEx_PWMN_Start_DMA:htim <- $r5
	@DEBUG_VALUE: HAL_TIMEx_PWMN_Start_DMA:Channel <- $r4
	@DEBUG_VALUE: HAL_TIMEx_PWMN_Start_DMA:Length <- $r3
	@DEBUG_VALUE: HAL_TIMEx_PWMN_Start_DMA:pData <- $r2
	.loc	7 1439 7                        @ ../src/driver/stm32g4-v120/src/stm32g4xx_hal_tim_ex.c:1439:7
	ldr	r0, [r5, #40]
	.loc	7 1439 52 is_stmt 0             @ ../src/driver/stm32g4-v120/src/stm32g4xx_hal_tim_ex.c:1439:52
	movw	r1, :lower16:TIM_DMADelayPulseNCplt
	movt	r1, :upper16:TIM_DMADelayPulseNCplt
	str	r1, [r0, #44]
	.loc	7 1440 7 is_stmt 1              @ ../src/driver/stm32g4-v120/src/stm32g4xx_hal_tim_ex.c:1440:7
	ldr	r0, [r5, #40]
	.loc	7 1440 56 is_stmt 0             @ ../src/driver/stm32g4-v120/src/stm32g4xx_hal_tim_ex.c:1440:56
	movw	r1, :lower16:TIM_DMADelayPulseHalfCplt
	movt	r1, :upper16:TIM_DMADelayPulseHalfCplt
	str	r1, [r0, #48]
	.loc	7 1443 7 is_stmt 1              @ ../src/driver/stm32g4-v120/src/stm32g4xx_hal_tim_ex.c:1443:7
	ldr	r0, [r5, #40]
	.loc	7 1443 53 is_stmt 0             @ ../src/driver/stm32g4-v120/src/stm32g4xx_hal_tim_ex.c:1443:53
	movw	r1, :lower16:TIM_DMAErrorCCxN
.Ltmp682:
	.loc	7 1446 90 is_stmt 1             @ ../src/driver/stm32g4-v120/src/stm32g4xx_hal_tim_ex.c:1446:90
	ldr.w	r12, [r5]
.Ltmp683:
	.loc	7 1443 53                       @ ../src/driver/stm32g4-v120/src/stm32g4xx_hal_tim_ex.c:1443:53
	movt	r1, :upper16:TIM_DMAErrorCCxN
	str	r1, [r0, #52]
.Ltmp684:
	.loc	7 1446 28                       @ ../src/driver/stm32g4-v120/src/stm32g4xx_hal_tim_ex.c:1446:28
	ldr	r0, [r5, #40]
	.loc	7 1446 100 is_stmt 0            @ ../src/driver/stm32g4-v120/src/stm32g4xx_hal_tim_ex.c:1446:100
	add.w	r12, r12, #56
	.loc	7 1446 11                       @ ../src/driver/stm32g4-v120/src/stm32g4xx_hal_tim_ex.c:1446:11
	mov	r1, r2
	mov	r2, r12
.Ltmp685:
	@DEBUG_VALUE: HAL_TIMEx_PWMN_Start_DMA:pData <- [DW_OP_LLVM_entry_value 1] $r2
	bl	HAL_DMA_Start_IT
.Ltmp686:
	@DEBUG_VALUE: HAL_TIMEx_PWMN_Start_DMA:Length <- [DW_OP_LLVM_entry_value 1] $r3
	.loc	7 1446 11                       @ ../src/driver/stm32g4-v120/src/stm32g4xx_hal_tim_ex.c:1446:11
	cmp	r0, #0
	bne	.LBB22_14
.Ltmp687:
@ %bb.27:
	@DEBUG_VALUE: HAL_TIMEx_PWMN_Start_DMA:htim <- $r5
	@DEBUG_VALUE: HAL_TIMEx_PWMN_Start_DMA:Channel <- $r4
	@DEBUG_VALUE: HAL_TIMEx_PWMN_Start_DMA:Length <- [DW_OP_LLVM_entry_value 1] $r3
	@DEBUG_VALUE: HAL_TIMEx_PWMN_Start_DMA:pData <- [DW_OP_LLVM_entry_value 1] $r2
	.loc	7 1451 7 is_stmt 1              @ ../src/driver/stm32g4-v120/src/stm32g4xx_hal_tim_ex.c:1451:7
	ldr	r1, [r5]
	ldr	r0, [r1, #12]
	orr	r0, r0, #1024
	b	.LBB22_32
.Ltmp688:
.LBB22_28:
	@DEBUG_VALUE: HAL_TIMEx_PWMN_Start_DMA:htim <- $r5
	@DEBUG_VALUE: HAL_TIMEx_PWMN_Start_DMA:Channel <- $r4
	@DEBUG_VALUE: HAL_TIMEx_PWMN_Start_DMA:Length <- $r3
	@DEBUG_VALUE: HAL_TIMEx_PWMN_Start_DMA:pData <- $r2
	.loc	7 1458 7                        @ ../src/driver/stm32g4-v120/src/stm32g4xx_hal_tim_ex.c:1458:7
	ldr	r0, [r5, #44]
	.loc	7 1458 52 is_stmt 0             @ ../src/driver/stm32g4-v120/src/stm32g4xx_hal_tim_ex.c:1458:52
	movw	r1, :lower16:TIM_DMADelayPulseNCplt
	movt	r1, :upper16:TIM_DMADelayPulseNCplt
	str	r1, [r0, #44]
	.loc	7 1459 7 is_stmt 1              @ ../src/driver/stm32g4-v120/src/stm32g4xx_hal_tim_ex.c:1459:7
	ldr	r0, [r5, #44]
	.loc	7 1459 56 is_stmt 0             @ ../src/driver/stm32g4-v120/src/stm32g4xx_hal_tim_ex.c:1459:56
	movw	r1, :lower16:TIM_DMADelayPulseHalfCplt
	movt	r1, :upper16:TIM_DMADelayPulseHalfCplt
	str	r1, [r0, #48]
	.loc	7 1462 7 is_stmt 1              @ ../src/driver/stm32g4-v120/src/stm32g4xx_hal_tim_ex.c:1462:7
	ldr	r0, [r5, #44]
	.loc	7 1462 53 is_stmt 0             @ ../src/driver/stm32g4-v120/src/stm32g4xx_hal_tim_ex.c:1462:53
	movw	r1, :lower16:TIM_DMAErrorCCxN
.Ltmp689:
	.loc	7 1465 90 is_stmt 1             @ ../src/driver/stm32g4-v120/src/stm32g4xx_hal_tim_ex.c:1465:90
	ldr.w	r12, [r5]
.Ltmp690:
	.loc	7 1462 53                       @ ../src/driver/stm32g4-v120/src/stm32g4xx_hal_tim_ex.c:1462:53
	movt	r1, :upper16:TIM_DMAErrorCCxN
	str	r1, [r0, #52]
.Ltmp691:
	.loc	7 1465 28                       @ ../src/driver/stm32g4-v120/src/stm32g4xx_hal_tim_ex.c:1465:28
	ldr	r0, [r5, #44]
	.loc	7 1465 100 is_stmt 0            @ ../src/driver/stm32g4-v120/src/stm32g4xx_hal_tim_ex.c:1465:100
	add.w	r12, r12, #60
	.loc	7 1465 11                       @ ../src/driver/stm32g4-v120/src/stm32g4xx_hal_tim_ex.c:1465:11
	mov	r1, r2
	mov	r2, r12
.Ltmp692:
	@DEBUG_VALUE: HAL_TIMEx_PWMN_Start_DMA:pData <- [DW_OP_LLVM_entry_value 1] $r2
	bl	HAL_DMA_Start_IT
.Ltmp693:
	@DEBUG_VALUE: HAL_TIMEx_PWMN_Start_DMA:Length <- [DW_OP_LLVM_entry_value 1] $r3
	.loc	7 1465 11                       @ ../src/driver/stm32g4-v120/src/stm32g4xx_hal_tim_ex.c:1465:11
	cmp	r0, #0
	bne.w	.LBB22_14
.Ltmp694:
@ %bb.29:
	@DEBUG_VALUE: HAL_TIMEx_PWMN_Start_DMA:htim <- $r5
	@DEBUG_VALUE: HAL_TIMEx_PWMN_Start_DMA:Channel <- $r4
	@DEBUG_VALUE: HAL_TIMEx_PWMN_Start_DMA:Length <- [DW_OP_LLVM_entry_value 1] $r3
	@DEBUG_VALUE: HAL_TIMEx_PWMN_Start_DMA:pData <- [DW_OP_LLVM_entry_value 1] $r2
	.loc	7 1470 7 is_stmt 1              @ ../src/driver/stm32g4-v120/src/stm32g4xx_hal_tim_ex.c:1470:7
	ldr	r1, [r5]
	ldr	r0, [r1, #12]
	orr	r0, r0, #2048
	b	.LBB22_32
.Ltmp695:
.LBB22_30:
	@DEBUG_VALUE: HAL_TIMEx_PWMN_Start_DMA:htim <- $r5
	@DEBUG_VALUE: HAL_TIMEx_PWMN_Start_DMA:Channel <- $r4
	@DEBUG_VALUE: HAL_TIMEx_PWMN_Start_DMA:Length <- $r3
	@DEBUG_VALUE: HAL_TIMEx_PWMN_Start_DMA:pData <- $r2
	.loc	7 1477 7                        @ ../src/driver/stm32g4-v120/src/stm32g4xx_hal_tim_ex.c:1477:7
	ldr	r0, [r5, #48]
	.loc	7 1477 52 is_stmt 0             @ ../src/driver/stm32g4-v120/src/stm32g4xx_hal_tim_ex.c:1477:52
	movw	r1, :lower16:TIM_DMADelayPulseNCplt
	movt	r1, :upper16:TIM_DMADelayPulseNCplt
	str	r1, [r0, #44]
	.loc	7 1478 7 is_stmt 1              @ ../src/driver/stm32g4-v120/src/stm32g4xx_hal_tim_ex.c:1478:7
	ldr	r0, [r5, #48]
	.loc	7 1478 56 is_stmt 0             @ ../src/driver/stm32g4-v120/src/stm32g4xx_hal_tim_ex.c:1478:56
	movw	r1, :lower16:TIM_DMADelayPulseHalfCplt
	movt	r1, :upper16:TIM_DMADelayPulseHalfCplt
	str	r1, [r0, #48]
	.loc	7 1481 7 is_stmt 1              @ ../src/driver/stm32g4-v120/src/stm32g4xx_hal_tim_ex.c:1481:7
	ldr	r0, [r5, #48]
	.loc	7 1481 53 is_stmt 0             @ ../src/driver/stm32g4-v120/src/stm32g4xx_hal_tim_ex.c:1481:53
	movw	r1, :lower16:TIM_DMAErrorCCxN
.Ltmp696:
	.loc	7 1484 90 is_stmt 1             @ ../src/driver/stm32g4-v120/src/stm32g4xx_hal_tim_ex.c:1484:90
	ldr.w	r12, [r5]
.Ltmp697:
	.loc	7 1481 53                       @ ../src/driver/stm32g4-v120/src/stm32g4xx_hal_tim_ex.c:1481:53
	movt	r1, :upper16:TIM_DMAErrorCCxN
	str	r1, [r0, #52]
.Ltmp698:
	.loc	7 1484 28                       @ ../src/driver/stm32g4-v120/src/stm32g4xx_hal_tim_ex.c:1484:28
	ldr	r0, [r5, #48]
	.loc	7 1484 100 is_stmt 0            @ ../src/driver/stm32g4-v120/src/stm32g4xx_hal_tim_ex.c:1484:100
	add.w	r12, r12, #64
	.loc	7 1484 11                       @ ../src/driver/stm32g4-v120/src/stm32g4xx_hal_tim_ex.c:1484:11
	mov	r1, r2
	mov	r2, r12
.Ltmp699:
	@DEBUG_VALUE: HAL_TIMEx_PWMN_Start_DMA:pData <- [DW_OP_LLVM_entry_value 1] $r2
	bl	HAL_DMA_Start_IT
.Ltmp700:
	@DEBUG_VALUE: HAL_TIMEx_PWMN_Start_DMA:Length <- [DW_OP_LLVM_entry_value 1] $r3
	.loc	7 1484 11                       @ ../src/driver/stm32g4-v120/src/stm32g4xx_hal_tim_ex.c:1484:11
	cmp	r0, #0
	bne.w	.LBB22_14
.Ltmp701:
@ %bb.31:
	@DEBUG_VALUE: HAL_TIMEx_PWMN_Start_DMA:htim <- $r5
	@DEBUG_VALUE: HAL_TIMEx_PWMN_Start_DMA:Channel <- $r4
	@DEBUG_VALUE: HAL_TIMEx_PWMN_Start_DMA:Length <- [DW_OP_LLVM_entry_value 1] $r3
	@DEBUG_VALUE: HAL_TIMEx_PWMN_Start_DMA:pData <- [DW_OP_LLVM_entry_value 1] $r2
	.loc	7 1489 7 is_stmt 1              @ ../src/driver/stm32g4-v120/src/stm32g4xx_hal_tim_ex.c:1489:7
	ldr	r1, [r5]
	ldr	r0, [r1, #12]
	orr	r0, r0, #4096
.Ltmp702:
.LBB22_32:
	@DEBUG_VALUE: HAL_TIMEx_PWMN_Start_DMA:htim <- $r5
	@DEBUG_VALUE: HAL_TIMEx_PWMN_Start_DMA:Channel <- $r4
	@DEBUG_VALUE: HAL_TIMEx_PWMN_Start_DMA:Length <- [DW_OP_LLVM_entry_value 1] $r3
	@DEBUG_VALUE: HAL_TIMEx_PWMN_Start_DMA:pData <- [DW_OP_LLVM_entry_value 1] $r2
	.loc	7 0 0 is_stmt 0                 @ ../src/driver/stm32g4-v120/src/stm32g4xx_hal_tim_ex.c:0:0
	str	r0, [r1, #12]
.Ltmp703:
.LBB22_33:
	@DEBUG_VALUE: HAL_TIMEx_PWMN_Start_DMA:htim <- $r5
	@DEBUG_VALUE: HAL_TIMEx_PWMN_Start_DMA:Channel <- $r4
	@DEBUG_VALUE: TIM_CCxNChannelCmd:TIMx <- $r1
	@DEBUG_VALUE: TIM_CCxNChannelCmd:Channel <- $r4
	@DEBUG_VALUE: TIM_CCxNChannelCmd:ChannelNState <- 4
	.loc	7 3578 36 is_stmt 1             @ ../src/driver/stm32g4-v120/src/stm32g4xx_hal_tim_ex.c:3578:36
	and	r0, r4, #31
	movs	r2, #4
	.loc	7 3581 14                       @ ../src/driver/stm32g4-v120/src/stm32g4xx_hal_tim_ex.c:3581:14
	ldr	r3, [r1, #32]
	.loc	7 3578 24                       @ ../src/driver/stm32g4-v120/src/stm32g4xx_hal_tim_ex.c:3578:24
	lsl.w	r0, r2, r0
.Ltmp704:
	@DEBUG_VALUE: TIM_CCxNChannelCmd:tmp <- $r0
	.loc	7 3581 14                       @ ../src/driver/stm32g4-v120/src/stm32g4xx_hal_tim_ex.c:3581:14
	bic.w	r2, r3, r0
	str	r2, [r1, #32]
	.loc	7 3584 14                       @ ../src/driver/stm32g4-v120/src/stm32g4xx_hal_tim_ex.c:3584:14
	ldr	r2, [r1, #32]
	orrs	r0, r2
.Ltmp705:
	str	r0, [r1, #32]
.Ltmp706:
	.loc	7 1501 3                        @ ../src/driver/stm32g4-v120/src/stm32g4xx_hal_tim_ex.c:1501:3
	ldr	r0, [r1, #68]
	movw	r2, #11263
	movt	r2, #16385
	orr	r0, r0, #32768
.Ltmp707:
	.loc	7 1504 7                        @ ../src/driver/stm32g4-v120/src/stm32g4xx_hal_tim_ex.c:1504:7
	cmp	r1, r2
.Ltmp708:
	.loc	7 1501 3                        @ ../src/driver/stm32g4-v120/src/stm32g4xx_hal_tim_ex.c:1501:3
	str	r0, [r1, #68]
.Ltmp709:
	.loc	7 1504 7                        @ ../src/driver/stm32g4-v120/src/stm32g4xx_hal_tim_ex.c:1504:7
	bgt	.LBB22_37
.Ltmp710:
@ %bb.34:
	@DEBUG_VALUE: HAL_TIMEx_PWMN_Start_DMA:htim <- $r5
	@DEBUG_VALUE: HAL_TIMEx_PWMN_Start_DMA:Channel <- $r4
	.loc	7 0 7 is_stmt 0                 @ ../src/driver/stm32g4-v120/src/stm32g4xx_hal_tim_ex.c:0:7
	movw	r0, #2047
	movt	r0, #16384
	.loc	7 1504 7                        @ ../src/driver/stm32g4-v120/src/stm32g4xx_hal_tim_ex.c:1504:7
	cmp	r1, r0
	bgt	.LBB22_40
.Ltmp711:
@ %bb.35:
	@DEBUG_VALUE: HAL_TIMEx_PWMN_Start_DMA:htim <- $r5
	@DEBUG_VALUE: HAL_TIMEx_PWMN_Start_DMA:Channel <- $r4
	cmp.w	r1, #1073741824
	beq	.LBB22_47
.Ltmp712:
@ %bb.36:
	@DEBUG_VALUE: HAL_TIMEx_PWMN_Start_DMA:htim <- $r5
	@DEBUG_VALUE: HAL_TIMEx_PWMN_Start_DMA:Channel <- $r4
	.loc	7 0 7                           @ ../src/driver/stm32g4-v120/src/stm32g4xx_hal_tim_ex.c:0:7
	movw	r0, #1024
	b	.LBB22_42
.Ltmp713:
.LBB22_37:
	@DEBUG_VALUE: HAL_TIMEx_PWMN_Start_DMA:htim <- $r5
	@DEBUG_VALUE: HAL_TIMEx_PWMN_Start_DMA:Channel <- $r4
	movw	r0, #16383
	movt	r0, #16385
	.loc	7 1504 7                        @ ../src/driver/stm32g4-v120/src/stm32g4xx_hal_tim_ex.c:1504:7
	cmp	r1, r0
	bgt	.LBB22_43
.Ltmp714:
@ %bb.38:
	@DEBUG_VALUE: HAL_TIMEx_PWMN_Start_DMA:htim <- $r5
	@DEBUG_VALUE: HAL_TIMEx_PWMN_Start_DMA:Channel <- $r4
	.loc	7 0 7                           @ ../src/driver/stm32g4-v120/src/stm32g4xx_hal_tim_ex.c:0:7
	movw	r0, #11264
	movt	r0, #16385
	.loc	7 1504 7                        @ ../src/driver/stm32g4-v120/src/stm32g4xx_hal_tim_ex.c:1504:7
	cmp	r1, r0
	beq	.LBB22_47
.Ltmp715:
@ %bb.39:
	@DEBUG_VALUE: HAL_TIMEx_PWMN_Start_DMA:htim <- $r5
	@DEBUG_VALUE: HAL_TIMEx_PWMN_Start_DMA:Channel <- $r4
	.loc	7 0 7                           @ ../src/driver/stm32g4-v120/src/stm32g4xx_hal_tim_ex.c:0:7
	movw	r0, #13312
	b	.LBB22_45
.Ltmp716:
.LBB22_40:
	@DEBUG_VALUE: HAL_TIMEx_PWMN_Start_DMA:htim <- $r5
	@DEBUG_VALUE: HAL_TIMEx_PWMN_Start_DMA:Channel <- $r4
	movw	r0, #2048
	movt	r0, #16384
	.loc	7 1504 7                        @ ../src/driver/stm32g4-v120/src/stm32g4xx_hal_tim_ex.c:1504:7
	cmp	r1, r0
	beq	.LBB22_47
.Ltmp717:
@ %bb.41:
	@DEBUG_VALUE: HAL_TIMEx_PWMN_Start_DMA:htim <- $r5
	@DEBUG_VALUE: HAL_TIMEx_PWMN_Start_DMA:Channel <- $r4
	.loc	7 0 7                           @ ../src/driver/stm32g4-v120/src/stm32g4xx_hal_tim_ex.c:0:7
	movw	r0, #3072
.Ltmp718:
.LBB22_42:
	@DEBUG_VALUE: HAL_TIMEx_PWMN_Start_DMA:htim <- $r5
	@DEBUG_VALUE: HAL_TIMEx_PWMN_Start_DMA:Channel <- $r4
	movt	r0, #16384
	b	.LBB22_46
.Ltmp719:
.LBB22_43:
	@DEBUG_VALUE: HAL_TIMEx_PWMN_Start_DMA:htim <- $r5
	@DEBUG_VALUE: HAL_TIMEx_PWMN_Start_DMA:Channel <- $r4
	movw	r0, #20480
	movt	r0, #16385
	.loc	7 1504 7                        @ ../src/driver/stm32g4-v120/src/stm32g4xx_hal_tim_ex.c:1504:7
	cmp	r1, r0
	beq	.LBB22_47
.Ltmp720:
@ %bb.44:
	@DEBUG_VALUE: HAL_TIMEx_PWMN_Start_DMA:htim <- $r5
	@DEBUG_VALUE: HAL_TIMEx_PWMN_Start_DMA:Channel <- $r4
	.loc	7 0 7                           @ ../src/driver/stm32g4-v120/src/stm32g4xx_hal_tim_ex.c:0:7
	movw	r0, #16384
.Ltmp721:
.LBB22_45:
	@DEBUG_VALUE: HAL_TIMEx_PWMN_Start_DMA:htim <- $r5
	@DEBUG_VALUE: HAL_TIMEx_PWMN_Start_DMA:Channel <- $r4
	movt	r0, #16385
.Ltmp722:
.LBB22_46:
	@DEBUG_VALUE: HAL_TIMEx_PWMN_Start_DMA:htim <- $r5
	@DEBUG_VALUE: HAL_TIMEx_PWMN_Start_DMA:Channel <- $r4
	.loc	7 1504 7                        @ ../src/driver/stm32g4-v120/src/stm32g4xx_hal_tim_ex.c:1504:7
	cmp	r1, r0
	bne	.LBB22_49
.Ltmp723:
.LBB22_47:
	@DEBUG_VALUE: HAL_TIMEx_PWMN_Start_DMA:htim <- $r5
	@DEBUG_VALUE: HAL_TIMEx_PWMN_Start_DMA:Channel <- $r4
	.loc	7 1506 31 is_stmt 1             @ ../src/driver/stm32g4-v120/src/stm32g4xx_hal_tim_ex.c:1506:31
	ldr	r0, [r1, #8]
	movs	r2, #7
	movt	r2, #1
	.loc	7 1506 36 is_stmt 0             @ ../src/driver/stm32g4-v120/src/stm32g4xx_hal_tim_ex.c:1506:36
	ands	r2, r0
.Ltmp724:
	@DEBUG_VALUE: HAL_TIMEx_PWMN_Start_DMA:tmpsmcr <- $r2
	.loc	7 1507 10 is_stmt 1             @ ../src/driver/stm32g4-v120/src/stm32g4xx_hal_tim_ex.c:1507:10
	cmp	r2, #6
	mov.w	r0, #0
	beq	.LBB22_50
.Ltmp725:
@ %bb.48:
	@DEBUG_VALUE: HAL_TIMEx_PWMN_Start_DMA:htim <- $r5
	@DEBUG_VALUE: HAL_TIMEx_PWMN_Start_DMA:Channel <- $r4
	@DEBUG_VALUE: HAL_TIMEx_PWMN_Start_DMA:tmpsmcr <- $r2
	cmp.w	r2, #65536
.Ltmp726:
	.loc	7 1519 1                        @ ../src/driver/stm32g4-v120/src/stm32g4xx_hal_tim_ex.c:1519:1
	it	eq
	popeq	{r4, r5, r7, pc}
.Ltmp727:
.LBB22_49:
	.loc	7 0 0 is_stmt 0                 @ ../src/driver/stm32g4-v120/src/stm32g4xx_hal_tim_ex.c:0:0
	ldr	r0, [r1]
	orr	r0, r0, #1
	str	r0, [r1]
	movs	r0, #0
.Ltmp728:
.LBB22_50:
	.loc	7 1519 1                        @ ../src/driver/stm32g4-v120/src/stm32g4xx_hal_tim_ex.c:1519:1
	pop	{r4, r5, r7, pc}
.Ltmp729:
.Lfunc_end22:
	.size	HAL_TIMEx_PWMN_Start_DMA, .Lfunc_end22-HAL_TIMEx_PWMN_Start_DMA
	.cfi_endproc
	.cantunwind
	.fnend
                                        @ -- End function
	.section	.text.HAL_TIMEx_PWMN_Stop_DMA,"ax",%progbits
	.hidden	HAL_TIMEx_PWMN_Stop_DMA         @ -- Begin function HAL_TIMEx_PWMN_Stop_DMA
	.globl	HAL_TIMEx_PWMN_Stop_DMA
	.p2align	2
	.type	HAL_TIMEx_PWMN_Stop_DMA,%function
	.code	16                              @ @HAL_TIMEx_PWMN_Stop_DMA
	.thumb_func
HAL_TIMEx_PWMN_Stop_DMA:
.Lfunc_begin23:
	.loc	7 1534 0 is_stmt 1              @ ../src/driver/stm32g4-v120/src/stm32g4xx_hal_tim_ex.c:1534:0
	.fnstart
	.cfi_startproc
@ %bb.0:
	@DEBUG_VALUE: HAL_TIMEx_PWMN_Stop_DMA:htim <- $r0
	@DEBUG_VALUE: HAL_TIMEx_PWMN_Stop_DMA:Channel <- $r1
	.save	{r4, r5, r7, lr}
	push	{r4, r5, r7, lr}
	.cfi_def_cfa_offset 16
	.cfi_offset lr, -4
	.cfi_offset r7, -8
	.cfi_offset r5, -12
	.cfi_offset r4, -16
	mov	r5, r1
.Ltmp730:
	@DEBUG_VALUE: HAL_TIMEx_PWMN_Stop_DMA:Channel <- $r5
	.loc	7 1538 3 prologue_end           @ ../src/driver/stm32g4-v120/src/stm32g4xx_hal_tim_ex.c:1538:3
	ror.w	r1, r1, #2
	cmp	r1, #3
	mov	r4, r0
.Ltmp731:
	@DEBUG_VALUE: HAL_TIMEx_PWMN_Stop_DMA:htim <- $r4
	@DEBUG_VALUE: HAL_TIMEx_PWMN_Stop_DMA:htim <- $r4
	bhi	.LBB23_8
.Ltmp732:
@ %bb.1:
	@DEBUG_VALUE: HAL_TIMEx_PWMN_Stop_DMA:Channel <- $r5
	@DEBUG_VALUE: HAL_TIMEx_PWMN_Stop_DMA:htim <- $r4
	.loc	7 0 3 is_stmt 0                 @ ../src/driver/stm32g4-v120/src/stm32g4xx_hal_tim_ex.c:0:3
.LCPI23_0:
	tbb	[pc, r1]
.Ltmp733:
@ %bb.2:
.LJTI23_0:
	.byte	(.LBB23_3-(.LCPI23_0+4))/2
	.byte	(.LBB23_4-(.LCPI23_0+4))/2
	.byte	(.LBB23_5-(.LCPI23_0+4))/2
	.byte	(.LBB23_6-(.LCPI23_0+4))/2
	.p2align	1
.LBB23_3:
.Ltmp734:
	@DEBUG_VALUE: HAL_TIMEx_PWMN_Stop_DMA:Channel <- $r5
	@DEBUG_VALUE: HAL_TIMEx_PWMN_Stop_DMA:htim <- $r4
	.loc	7 1543 7 is_stmt 1              @ ../src/driver/stm32g4-v120/src/stm32g4xx_hal_tim_ex.c:1543:7
	mov	r0, r4
	ldr	r1, [r0], #36
	ldr	r2, [r1, #12]
	bic	r2, r2, #512
	b	.LBB23_7
.Ltmp735:
.LBB23_4:
	@DEBUG_VALUE: HAL_TIMEx_PWMN_Stop_DMA:Channel <- $r5
	@DEBUG_VALUE: HAL_TIMEx_PWMN_Stop_DMA:htim <- $r4
	.loc	7 1551 7                        @ ../src/driver/stm32g4-v120/src/stm32g4xx_hal_tim_ex.c:1551:7
	mov	r0, r4
	ldr	r1, [r0], #40
	ldr	r2, [r1, #12]
	bic	r2, r2, #1024
	b	.LBB23_7
.Ltmp736:
.LBB23_5:
	@DEBUG_VALUE: HAL_TIMEx_PWMN_Stop_DMA:Channel <- $r5
	@DEBUG_VALUE: HAL_TIMEx_PWMN_Stop_DMA:htim <- $r4
	.loc	7 1559 7                        @ ../src/driver/stm32g4-v120/src/stm32g4xx_hal_tim_ex.c:1559:7
	mov	r0, r4
	ldr	r1, [r0], #44
	ldr	r2, [r1, #12]
	bic	r2, r2, #2048
	b	.LBB23_7
.Ltmp737:
.LBB23_6:
	@DEBUG_VALUE: HAL_TIMEx_PWMN_Stop_DMA:Channel <- $r5
	@DEBUG_VALUE: HAL_TIMEx_PWMN_Stop_DMA:htim <- $r4
	.loc	7 1567 7                        @ ../src/driver/stm32g4-v120/src/stm32g4xx_hal_tim_ex.c:1567:7
	mov	r0, r4
	ldr	r1, [r0], #48
	ldr	r2, [r1, #12]
	bic	r2, r2, #4096
.Ltmp738:
.LBB23_7:
	@DEBUG_VALUE: HAL_TIMEx_PWMN_Stop_DMA:Channel <- $r5
	@DEBUG_VALUE: HAL_TIMEx_PWMN_Stop_DMA:htim <- $r4
	.loc	7 0 0 is_stmt 0                 @ ../src/driver/stm32g4-v120/src/stm32g4xx_hal_tim_ex.c:0:0
	str	r2, [r1, #12]
	ldr	r0, [r0]
	bl	HAL_DMA_Abort_IT
.Ltmp739:
.LBB23_8:
	@DEBUG_VALUE: HAL_TIMEx_PWMN_Stop_DMA:Channel <- $r5
	@DEBUG_VALUE: HAL_TIMEx_PWMN_Stop_DMA:htim <- $r4
	.loc	7 1577 28 is_stmt 1             @ ../src/driver/stm32g4-v120/src/stm32g4xx_hal_tim_ex.c:1577:28
	ldr	r0, [r4]
.Ltmp740:
	@DEBUG_VALUE: TIM_CCxNChannelCmd:ChannelNState <- 0
	@DEBUG_VALUE: TIM_CCxNChannelCmd:Channel <- $r5
	@DEBUG_VALUE: TIM_CCxNChannelCmd:TIMx <- $r0
	.loc	7 3578 36                       @ ../src/driver/stm32g4-v120/src/stm32g4xx_hal_tim_ex.c:3578:36
	and	r1, r5, #31
	movs	r2, #4
	.loc	7 3581 14                       @ ../src/driver/stm32g4-v120/src/stm32g4xx_hal_tim_ex.c:3581:14
	ldr	r3, [r0, #32]
	.loc	7 3578 24                       @ ../src/driver/stm32g4-v120/src/stm32g4xx_hal_tim_ex.c:3578:24
	lsl.w	r1, r2, r1
.Ltmp741:
	@DEBUG_VALUE: TIM_CCxNChannelCmd:tmp <- $r1
	.loc	7 3581 14                       @ ../src/driver/stm32g4-v120/src/stm32g4xx_hal_tim_ex.c:3581:14
	bic.w	r1, r3, r1
.Ltmp742:
	str	r1, [r0, #32]
	.loc	7 3584 14                       @ ../src/driver/stm32g4-v120/src/stm32g4xx_hal_tim_ex.c:3584:14
	ldr	r1, [r0, #32]
	str	r1, [r0, #32]
.Ltmp743:
	.loc	7 1580 3                        @ ../src/driver/stm32g4-v120/src/stm32g4xx_hal_tim_ex.c:1580:3
	ldr	r2, [r0, #32]
	movw	r1, #4369
.Ltmp744:
	.loc	7 1580 3 is_stmt 0              @ ../src/driver/stm32g4-v120/src/stm32g4xx_hal_tim_ex.c:1580:3
	tst	r2, r1
	bne	.LBB23_11
.Ltmp745:
@ %bb.9:
	@DEBUG_VALUE: HAL_TIMEx_PWMN_Stop_DMA:Channel <- $r5
	@DEBUG_VALUE: HAL_TIMEx_PWMN_Stop_DMA:htim <- $r4
	.loc	7 1580 3                        @ ../src/driver/stm32g4-v120/src/stm32g4xx_hal_tim_ex.c:1580:3
	ldr	r2, [r0, #32]
	movw	r3, #17476
.Ltmp746:
	.loc	7 1580 3                        @ ../src/driver/stm32g4-v120/src/stm32g4xx_hal_tim_ex.c:1580:3
	tst	r2, r3
	bne	.LBB23_11
.Ltmp747:
@ %bb.10:
	@DEBUG_VALUE: HAL_TIMEx_PWMN_Stop_DMA:Channel <- $r5
	@DEBUG_VALUE: HAL_TIMEx_PWMN_Stop_DMA:htim <- $r4
	.loc	7 1580 3                        @ ../src/driver/stm32g4-v120/src/stm32g4xx_hal_tim_ex.c:1580:3
	ldr	r2, [r0, #68]
	bic	r2, r2, #32768
	str	r2, [r0, #68]
.Ltmp748:
.LBB23_11:
	@DEBUG_VALUE: HAL_TIMEx_PWMN_Stop_DMA:Channel <- $r5
	@DEBUG_VALUE: HAL_TIMEx_PWMN_Stop_DMA:htim <- $r4
	.loc	7 1583 3 is_stmt 1              @ ../src/driver/stm32g4-v120/src/stm32g4xx_hal_tim_ex.c:1583:3
	ldr	r2, [r0, #32]
.Ltmp749:
	.loc	7 1583 3 is_stmt 0              @ ../src/driver/stm32g4-v120/src/stm32g4xx_hal_tim_ex.c:1583:3
	tst	r2, r1
	bne	.LBB23_14
.Ltmp750:
@ %bb.12:
	@DEBUG_VALUE: HAL_TIMEx_PWMN_Stop_DMA:Channel <- $r5
	@DEBUG_VALUE: HAL_TIMEx_PWMN_Stop_DMA:htim <- $r4
	.loc	7 1583 3                        @ ../src/driver/stm32g4-v120/src/stm32g4xx_hal_tim_ex.c:1583:3
	ldr	r1, [r0, #32]
	movw	r2, #17476
.Ltmp751:
	.loc	7 1583 3                        @ ../src/driver/stm32g4-v120/src/stm32g4xx_hal_tim_ex.c:1583:3
	tst	r1, r2
	bne	.LBB23_14
.Ltmp752:
@ %bb.13:
	@DEBUG_VALUE: HAL_TIMEx_PWMN_Stop_DMA:Channel <- $r5
	@DEBUG_VALUE: HAL_TIMEx_PWMN_Stop_DMA:htim <- $r4
	.loc	7 1583 3                        @ ../src/driver/stm32g4-v120/src/stm32g4xx_hal_tim_ex.c:1583:3
	ldr	r1, [r0]
	bic	r1, r1, #1
	str	r1, [r0]
.Ltmp753:
.LBB23_14:
	@DEBUG_VALUE: HAL_TIMEx_PWMN_Stop_DMA:Channel <- $r5
	@DEBUG_VALUE: HAL_TIMEx_PWMN_Stop_DMA:htim <- $r4
	.loc	7 0 3                           @ ../src/driver/stm32g4-v120/src/stm32g4xx_hal_tim_ex.c:0:3
	movs	r0, #1
	.loc	7 1586 3 is_stmt 1              @ ../src/driver/stm32g4-v120/src/stm32g4xx_hal_tim_ex.c:1586:3
	cmp	r5, #8
	beq	.LBB23_17
.Ltmp754:
@ %bb.15:
	@DEBUG_VALUE: HAL_TIMEx_PWMN_Stop_DMA:Channel <- $r5
	@DEBUG_VALUE: HAL_TIMEx_PWMN_Stop_DMA:htim <- $r4
	cmp	r5, #4
	beq	.LBB23_18
.Ltmp755:
@ %bb.16:
	@DEBUG_VALUE: HAL_TIMEx_PWMN_Stop_DMA:Channel <- $r5
	@DEBUG_VALUE: HAL_TIMEx_PWMN_Stop_DMA:htim <- $r4
	cmp	r5, #0
	ite	ne
	strbne.w	r0, [r4, #71]
	strbeq.w	r0, [r4, #68]
	b	.LBB23_19
.Ltmp756:
.LBB23_17:
	@DEBUG_VALUE: HAL_TIMEx_PWMN_Stop_DMA:Channel <- $r5
	@DEBUG_VALUE: HAL_TIMEx_PWMN_Stop_DMA:htim <- $r4
	strb.w	r0, [r4, #70]
	b	.LBB23_19
.Ltmp757:
.LBB23_18:
	@DEBUG_VALUE: HAL_TIMEx_PWMN_Stop_DMA:Channel <- $r5
	@DEBUG_VALUE: HAL_TIMEx_PWMN_Stop_DMA:htim <- $r4
	strb.w	r0, [r4, #69]
.Ltmp758:
.LBB23_19:
	@DEBUG_VALUE: HAL_TIMEx_PWMN_Stop_DMA:Channel <- $r5
	@DEBUG_VALUE: HAL_TIMEx_PWMN_Stop_DMA:htim <- $r4
	.loc	7 1589 3                        @ ../src/driver/stm32g4-v120/src/stm32g4xx_hal_tim_ex.c:1589:3
	movs	r0, #0
	pop	{r4, r5, r7, pc}
.Ltmp759:
.Lfunc_end23:
	.size	HAL_TIMEx_PWMN_Stop_DMA, .Lfunc_end23-HAL_TIMEx_PWMN_Stop_DMA
	.cfi_endproc
	.cantunwind
	.fnend
                                        @ -- End function
	.section	.text.HAL_TIMEx_OnePulseN_Start,"ax",%progbits
	.hidden	HAL_TIMEx_OnePulseN_Start       @ -- Begin function HAL_TIMEx_OnePulseN_Start
	.globl	HAL_TIMEx_OnePulseN_Start
	.p2align	1
	.type	HAL_TIMEx_OnePulseN_Start,%function
	.code	16                              @ @HAL_TIMEx_OnePulseN_Start
	.thumb_func
HAL_TIMEx_OnePulseN_Start:
.Lfunc_begin24:
	.loc	7 1625 0                        @ ../src/driver/stm32g4-v120/src/stm32g4xx_hal_tim_ex.c:1625:0
	.fnstart
	.cfi_startproc
@ %bb.0:
	@DEBUG_VALUE: HAL_TIMEx_OnePulseN_Start:htim <- $r0
	@DEBUG_VALUE: HAL_TIMEx_OnePulseN_Start:OutputChannel <- $r1
	.save	{r4, lr}
	push	{r4, lr}
	.cfi_def_cfa_offset 8
	.cfi_offset lr, -4
	.cfi_offset r4, -8
	mov	r4, r0
.Ltmp760:
	@DEBUG_VALUE: HAL_TIMEx_OnePulseN_Start:htim <- $r4
	@DEBUG_VALUE: HAL_TIMEx_OnePulseN_Start:input_channel <- undef
	movs	r0, #62
	@DEBUG_VALUE: HAL_TIMEx_OnePulseN_Start:OutputChannel <- $r1
	@DEBUG_VALUE: HAL_TIMEx_OnePulseN_Start:htim <- $r4
.Ltmp761:
	.loc	7 1627 53 prologue_end          @ ../src/driver/stm32g4-v120/src/stm32g4xx_hal_tim_ex.c:1627:53
	cmp	r1, #0
	it	eq
	moveq	r0, #63
	ldrb	r0, [r4, r0]
.Ltmp762:
	@DEBUG_VALUE: HAL_TIMEx_OnePulseN_Start:input_channel_state <- undef
	.loc	7 1628 54                       @ ../src/driver/stm32g4-v120/src/stm32g4xx_hal_tim_ex.c:1628:54
	beq	.LBB24_3
.Ltmp763:
@ %bb.1:
	@DEBUG_VALUE: HAL_TIMEx_OnePulseN_Start:htim <- $r4
	@DEBUG_VALUE: HAL_TIMEx_OnePulseN_Start:OutputChannel <- $r1
	cmp	r1, #8
	beq	.LBB24_5
.Ltmp764:
@ %bb.2:
	@DEBUG_VALUE: HAL_TIMEx_OnePulseN_Start:htim <- $r4
	@DEBUG_VALUE: HAL_TIMEx_OnePulseN_Start:OutputChannel <- $r1
	cmp	r1, #4
	ite	ne
	addne.w	r2, r4, #71
	addeq.w	r2, r4, #69
	b	.LBB24_6
.Ltmp765:
.LBB24_3:
	@DEBUG_VALUE: HAL_TIMEx_OnePulseN_Start:htim <- $r4
	@DEBUG_VALUE: HAL_TIMEx_OnePulseN_Start:OutputChannel <- $r1
	.loc	7 1635 4                        @ ../src/driver/stm32g4-v120/src/stm32g4xx_hal_tim_ex.c:1635:4
	cmp	r0, #1
	mov.w	r0, #1
.Ltmp766:
	.loc	7 1628 54                       @ ../src/driver/stm32g4-v120/src/stm32g4xx_hal_tim_ex.c:1628:54
	ldrb.w	r2, [r4, #68]
.Ltmp767:
	.loc	7 1635 4                        @ ../src/driver/stm32g4-v120/src/stm32g4xx_hal_tim_ex.c:1635:4
	it	eq
	cmpeq	r2, #1
	beq	.LBB24_9
.Ltmp768:
.LBB24_4:
	@DEBUG_VALUE: HAL_TIMEx_OnePulseN_Start:htim <- $r4
	@DEBUG_VALUE: HAL_TIMEx_OnePulseN_Start:OutputChannel <- $r1
	.loc	7 1653 1                        @ ../src/driver/stm32g4-v120/src/stm32g4xx_hal_tim_ex.c:1653:1
	pop	{r4, pc}
.Ltmp769:
.LBB24_5:
	@DEBUG_VALUE: HAL_TIMEx_OnePulseN_Start:htim <- $r4
	@DEBUG_VALUE: HAL_TIMEx_OnePulseN_Start:OutputChannel <- $r1
	.loc	7 1628 54                       @ ../src/driver/stm32g4-v120/src/stm32g4xx_hal_tim_ex.c:1628:54
	add.w	r2, r4, #70
.Ltmp770:
.LBB24_6:
	@DEBUG_VALUE: HAL_TIMEx_OnePulseN_Start:htim <- $r4
	@DEBUG_VALUE: HAL_TIMEx_OnePulseN_Start:OutputChannel <- $r1
	.loc	7 1635 4                        @ ../src/driver/stm32g4-v120/src/stm32g4xx_hal_tim_ex.c:1635:4
	cmp	r0, #1
	mov.w	r0, #1
.Ltmp771:
	@DEBUG_VALUE: HAL_TIMEx_OnePulseN_Start:output_channel_state <- undef
	.loc	7 1628 54                       @ ../src/driver/stm32g4-v120/src/stm32g4xx_hal_tim_ex.c:1628:54
	ldrb	r2, [r2]
.Ltmp772:
	.loc	7 1635 4                        @ ../src/driver/stm32g4-v120/src/stm32g4xx_hal_tim_ex.c:1635:4
	it	eq
	cmpeq	r2, #1
	bne	.LBB24_4
.Ltmp773:
@ %bb.7:
	@DEBUG_VALUE: HAL_TIMEx_OnePulseN_Start:htim <- $r4
	@DEBUG_VALUE: HAL_TIMEx_OnePulseN_Start:OutputChannel <- $r1
	.loc	7 0 4 is_stmt 0                 @ ../src/driver/stm32g4-v120/src/stm32g4xx_hal_tim_ex.c:0:4
	movs	r0, #2
	.loc	7 1641 3 is_stmt 1              @ ../src/driver/stm32g4-v120/src/stm32g4xx_hal_tim_ex.c:1641:3
	cmp	r1, #8
	beq	.LBB24_10
.Ltmp774:
@ %bb.8:
	@DEBUG_VALUE: HAL_TIMEx_OnePulseN_Start:htim <- $r4
	@DEBUG_VALUE: HAL_TIMEx_OnePulseN_Start:OutputChannel <- $r1
	cmp	r1, #4
	ite	ne
	strbne.w	r0, [r4, #71]
	strbeq.w	r0, [r4, #69]
	b	.LBB24_11
.Ltmp775:
.LBB24_9:
	@DEBUG_VALUE: HAL_TIMEx_OnePulseN_Start:htim <- $r4
	@DEBUG_VALUE: HAL_TIMEx_OnePulseN_Start:OutputChannel <- $r1
	.loc	7 0 3 is_stmt 0                 @ ../src/driver/stm32g4-v120/src/stm32g4xx_hal_tim_ex.c:0:3
	movs	r0, #2
	.loc	7 1641 3                        @ ../src/driver/stm32g4-v120/src/stm32g4xx_hal_tim_ex.c:1641:3
	strb.w	r0, [r4, #68]
	.loc	7 1642 3 is_stmt 1              @ ../src/driver/stm32g4-v120/src/stm32g4xx_hal_tim_ex.c:1642:3
	strb.w	r0, [r4, #63]
	b	.LBB24_12
.Ltmp776:
.LBB24_10:
	@DEBUG_VALUE: HAL_TIMEx_OnePulseN_Start:htim <- $r4
	@DEBUG_VALUE: HAL_TIMEx_OnePulseN_Start:OutputChannel <- $r1
	.loc	7 1641 3                        @ ../src/driver/stm32g4-v120/src/stm32g4xx_hal_tim_ex.c:1641:3
	strb.w	r0, [r4, #70]
.Ltmp777:
.LBB24_11:
	@DEBUG_VALUE: HAL_TIMEx_OnePulseN_Start:htim <- $r4
	@DEBUG_VALUE: HAL_TIMEx_OnePulseN_Start:OutputChannel <- $r1
	.loc	7 0 3 is_stmt 0                 @ ../src/driver/stm32g4-v120/src/stm32g4xx_hal_tim_ex.c:0:3
	movs	r0, #2
	.loc	7 1642 3 is_stmt 1              @ ../src/driver/stm32g4-v120/src/stm32g4xx_hal_tim_ex.c:1642:3
	strb.w	r0, [r4, #62]
.Ltmp778:
.LBB24_12:
	@DEBUG_VALUE: HAL_TIMEx_OnePulseN_Start:htim <- $r4
	@DEBUG_VALUE: HAL_TIMEx_OnePulseN_Start:OutputChannel <- $r1
	.loc	7 1645 28                       @ ../src/driver/stm32g4-v120/src/stm32g4xx_hal_tim_ex.c:1645:28
	ldr	r0, [r4]
.Ltmp779:
	@DEBUG_VALUE: TIM_CCxNChannelCmd:ChannelNState <- 4
	@DEBUG_VALUE: TIM_CCxNChannelCmd:Channel <- $r1
	@DEBUG_VALUE: TIM_CCxNChannelCmd:TIMx <- $r0
	.loc	7 0 28 is_stmt 0                @ ../src/driver/stm32g4-v120/src/stm32g4xx_hal_tim_ex.c:0:28
	clz	r2, r1
.Ltmp780:
	.loc	7 3578 36 is_stmt 1             @ ../src/driver/stm32g4-v120/src/stm32g4xx_hal_tim_ex.c:3578:36
	and	r1, r1, #31
.Ltmp781:
	@DEBUG_VALUE: HAL_TIMEx_OnePulseN_Start:OutputChannel <- [DW_OP_LLVM_entry_value 1] $r1
	.loc	7 0 36 is_stmt 0                @ ../src/driver/stm32g4-v120/src/stm32g4xx_hal_tim_ex.c:0:36
	movs	r3, #4
	.loc	7 3578 24                       @ ../src/driver/stm32g4-v120/src/stm32g4xx_hal_tim_ex.c:3578:24
	lsls	r3, r1
.Ltmp782:
	@DEBUG_VALUE: TIM_CCxNChannelCmd:tmp <- $r3
	.loc	7 3581 14 is_stmt 1             @ ../src/driver/stm32g4-v120/src/stm32g4xx_hal_tim_ex.c:3581:14
	ldr	r1, [r0, #32]
	lsr.w	r12, r2, #5
	bics	r1, r3
	str	r1, [r0, #32]
	.loc	7 3584 14                       @ ../src/driver/stm32g4-v120/src/stm32g4xx_hal_tim_ex.c:3584:14
	ldr	r2, [r0, #32]
.Ltmp783:
	.loc	7 0 0 is_stmt 0                 @ ../src/driver/stm32g4-v120/src/stm32g4xx_hal_tim_ex.c:0:0
	lsl.w	r1, r12, #2
.Ltmp784:
	@DEBUG_VALUE: HAL_TIMEx_OnePulseN_Start:input_channel <- $r1
	.loc	7 3584 14                       @ ../src/driver/stm32g4-v120/src/stm32g4xx_hal_tim_ex.c:3584:14
	orrs	r2, r3
	@DEBUG_VALUE: TIM_CCxNChannelCmd:tmp <- $r3
	@DEBUG_VALUE: TIM_CCxNChannelCmd:ChannelNState <- 4
	@DEBUG_VALUE: TIM_CCxNChannelCmd:TIMx <- $r0
	str	r2, [r0, #32]
.Ltmp785:
	.loc	7 1646 3 is_stmt 1              @ ../src/driver/stm32g4-v120/src/stm32g4xx_hal_tim_ex.c:1646:3
	movs	r2, #1
	bl	TIM_CCxChannelCmd
.Ltmp786:
	.loc	7 1649 3                        @ ../src/driver/stm32g4-v120/src/stm32g4xx_hal_tim_ex.c:1649:3
	ldr	r0, [r4]
	ldr	r1, [r0, #68]
	orr	r1, r1, #32768
	str	r1, [r0, #68]
	movs	r0, #0
	.loc	7 1653 1                        @ ../src/driver/stm32g4-v120/src/stm32g4xx_hal_tim_ex.c:1653:1
	pop	{r4, pc}
.Ltmp787:
.Lfunc_end24:
	.size	HAL_TIMEx_OnePulseN_Start, .Lfunc_end24-HAL_TIMEx_OnePulseN_Start
	.cfi_endproc
	.cantunwind
	.fnend
                                        @ -- End function
	.section	.text.HAL_TIMEx_OnePulseN_Stop,"ax",%progbits
	.hidden	HAL_TIMEx_OnePulseN_Stop        @ -- Begin function HAL_TIMEx_OnePulseN_Stop
	.globl	HAL_TIMEx_OnePulseN_Stop
	.p2align	1
	.type	HAL_TIMEx_OnePulseN_Stop,%function
	.code	16                              @ @HAL_TIMEx_OnePulseN_Stop
	.thumb_func
HAL_TIMEx_OnePulseN_Stop:
.Lfunc_begin25:
	.loc	7 1666 0                        @ ../src/driver/stm32g4-v120/src/stm32g4xx_hal_tim_ex.c:1666:0
	.fnstart
	.cfi_startproc
@ %bb.0:
	@DEBUG_VALUE: HAL_TIMEx_OnePulseN_Stop:htim <- $r0
	@DEBUG_VALUE: HAL_TIMEx_OnePulseN_Stop:OutputChannel <- $r1
	.save	{r4, r5, r7, lr}
	push	{r4, r5, r7, lr}
	.cfi_def_cfa_offset 16
	.cfi_offset lr, -4
	.cfi_offset r7, -8
	.cfi_offset r5, -12
	.cfi_offset r4, -16
	mov	r5, r1
	mov	r4, r0
.Ltmp788:
	.loc	7 1673 28 prologue_end          @ ../src/driver/stm32g4-v120/src/stm32g4xx_hal_tim_ex.c:1673:28
	ldr	r0, [r0]
.Ltmp789:
	@DEBUG_VALUE: HAL_TIMEx_OnePulseN_Stop:htim <- [DW_OP_LLVM_entry_value 1] $r0
	@DEBUG_VALUE: TIM_CCxNChannelCmd:ChannelNState <- 0
	@DEBUG_VALUE: TIM_CCxNChannelCmd:Channel <- $r5
	@DEBUG_VALUE: TIM_CCxNChannelCmd:TIMx <- $r0
	.loc	7 3578 36                       @ ../src/driver/stm32g4-v120/src/stm32g4xx_hal_tim_ex.c:3578:36
	and	r2, r5, #31
	movs	r3, #4
	.loc	7 3578 24 is_stmt 0             @ ../src/driver/stm32g4-v120/src/stm32g4xx_hal_tim_ex.c:3578:24
	lsl.w	r2, r3, r2
.Ltmp790:
	@DEBUG_VALUE: TIM_CCxNChannelCmd:tmp <- $r2
	.loc	7 3581 14 is_stmt 1             @ ../src/driver/stm32g4-v120/src/stm32g4xx_hal_tim_ex.c:3581:14
	ldr	r3, [r0, #32]
	clz	r1, r1
.Ltmp791:
	@DEBUG_VALUE: HAL_TIMEx_OnePulseN_Stop:OutputChannel <- [DW_OP_LLVM_entry_value 1] $r1
	@DEBUG_VALUE: HAL_TIMEx_OnePulseN_Stop:OutputChannel <- $r5
	@DEBUG_VALUE: HAL_TIMEx_OnePulseN_Stop:htim <- $r4
	bic.w	r2, r3, r2
.Ltmp792:
	str	r2, [r0, #32]
	.loc	7 3584 14                       @ ../src/driver/stm32g4-v120/src/stm32g4xx_hal_tim_ex.c:3584:14
	ldr	r2, [r0, #32]
	lsrs	r1, r1, #5
.Ltmp793:
	.loc	7 1667 28                       @ ../src/driver/stm32g4-v120/src/stm32g4xx_hal_tim_ex.c:1667:28
	lsls	r1, r1, #2
.Ltmp794:
	@DEBUG_VALUE: HAL_TIMEx_OnePulseN_Stop:input_channel <- $r1
	.loc	7 3584 14                       @ ../src/driver/stm32g4-v120/src/stm32g4xx_hal_tim_ex.c:3584:14
	str	r2, [r0, #32]
.Ltmp795:
	@DEBUG_VALUE: TIM_CCxNChannelCmd:ChannelNState <- 0
	@DEBUG_VALUE: TIM_CCxNChannelCmd:Channel <- $r5
	@DEBUG_VALUE: TIM_CCxNChannelCmd:TIMx <- $r0
	.loc	7 1674 3                        @ ../src/driver/stm32g4-v120/src/stm32g4xx_hal_tim_ex.c:1674:3
	movs	r2, #0
	bl	TIM_CCxChannelCmd
.Ltmp796:
	.loc	7 1677 3                        @ ../src/driver/stm32g4-v120/src/stm32g4xx_hal_tim_ex.c:1677:3
	ldr	r0, [r4]
	movw	r1, #4369
	ldr	r2, [r0, #32]
.Ltmp797:
	.loc	7 1677 3 is_stmt 0              @ ../src/driver/stm32g4-v120/src/stm32g4xx_hal_tim_ex.c:1677:3
	tst	r2, r1
	bne	.LBB25_3
.Ltmp798:
@ %bb.1:
	@DEBUG_VALUE: HAL_TIMEx_OnePulseN_Stop:OutputChannel <- $r5
	@DEBUG_VALUE: HAL_TIMEx_OnePulseN_Stop:htim <- $r4
	.loc	7 1677 3                        @ ../src/driver/stm32g4-v120/src/stm32g4xx_hal_tim_ex.c:1677:3
	ldr	r2, [r0, #32]
	movw	r3, #17476
.Ltmp799:
	.loc	7 1677 3                        @ ../src/driver/stm32g4-v120/src/stm32g4xx_hal_tim_ex.c:1677:3
	tst	r2, r3
	bne	.LBB25_3
.Ltmp800:
@ %bb.2:
	@DEBUG_VALUE: HAL_TIMEx_OnePulseN_Stop:OutputChannel <- $r5
	@DEBUG_VALUE: HAL_TIMEx_OnePulseN_Stop:htim <- $r4
	.loc	7 1677 3                        @ ../src/driver/stm32g4-v120/src/stm32g4xx_hal_tim_ex.c:1677:3
	ldr	r2, [r0, #68]
	bic	r2, r2, #32768
	str	r2, [r0, #68]
.Ltmp801:
.LBB25_3:
	@DEBUG_VALUE: HAL_TIMEx_OnePulseN_Stop:OutputChannel <- $r5
	@DEBUG_VALUE: HAL_TIMEx_OnePulseN_Stop:htim <- $r4
	.loc	7 1680 3 is_stmt 1              @ ../src/driver/stm32g4-v120/src/stm32g4xx_hal_tim_ex.c:1680:3
	ldr	r2, [r0, #32]
.Ltmp802:
	.loc	7 1680 3 is_stmt 0              @ ../src/driver/stm32g4-v120/src/stm32g4xx_hal_tim_ex.c:1680:3
	tst	r2, r1
	bne	.LBB25_6
.Ltmp803:
@ %bb.4:
	@DEBUG_VALUE: HAL_TIMEx_OnePulseN_Stop:OutputChannel <- $r5
	@DEBUG_VALUE: HAL_TIMEx_OnePulseN_Stop:htim <- $r4
	.loc	7 1680 3                        @ ../src/driver/stm32g4-v120/src/stm32g4xx_hal_tim_ex.c:1680:3
	ldr	r1, [r0, #32]
	movw	r2, #17476
.Ltmp804:
	.loc	7 1680 3                        @ ../src/driver/stm32g4-v120/src/stm32g4xx_hal_tim_ex.c:1680:3
	tst	r1, r2
	bne	.LBB25_6
.Ltmp805:
@ %bb.5:
	@DEBUG_VALUE: HAL_TIMEx_OnePulseN_Stop:OutputChannel <- $r5
	@DEBUG_VALUE: HAL_TIMEx_OnePulseN_Stop:htim <- $r4
	.loc	7 1680 3                        @ ../src/driver/stm32g4-v120/src/stm32g4xx_hal_tim_ex.c:1680:3
	ldr	r1, [r0]
	bic	r1, r1, #1
	str	r1, [r0]
.Ltmp806:
.LBB25_6:
	@DEBUG_VALUE: HAL_TIMEx_OnePulseN_Stop:OutputChannel <- $r5
	@DEBUG_VALUE: HAL_TIMEx_OnePulseN_Stop:htim <- $r4
	.loc	7 0 3                           @ ../src/driver/stm32g4-v120/src/stm32g4xx_hal_tim_ex.c:0:3
	movs	r0, #1
	.loc	7 1683 3 is_stmt 1              @ ../src/driver/stm32g4-v120/src/stm32g4xx_hal_tim_ex.c:1683:3
	cbz	r5, .LBB25_9
.Ltmp807:
@ %bb.7:
	@DEBUG_VALUE: HAL_TIMEx_OnePulseN_Stop:OutputChannel <- $r5
	@DEBUG_VALUE: HAL_TIMEx_OnePulseN_Stop:htim <- $r4
	cmp	r5, #8
	beq	.LBB25_10
.Ltmp808:
@ %bb.8:
	@DEBUG_VALUE: HAL_TIMEx_OnePulseN_Stop:OutputChannel <- $r5
	@DEBUG_VALUE: HAL_TIMEx_OnePulseN_Stop:htim <- $r4
	cmp	r5, #4
	ite	ne
	strbne.w	r0, [r4, #71]
	strbeq.w	r0, [r4, #69]
	b	.LBB25_11
.Ltmp809:
.LBB25_9:
	@DEBUG_VALUE: HAL_TIMEx_OnePulseN_Stop:OutputChannel <- $r5
	@DEBUG_VALUE: HAL_TIMEx_OnePulseN_Stop:htim <- $r4
	strb.w	r0, [r4, #68]
	.loc	7 1684 3                        @ ../src/driver/stm32g4-v120/src/stm32g4xx_hal_tim_ex.c:1684:3
	strb.w	r0, [r4, #63]
	b	.LBB25_12
.Ltmp810:
.LBB25_10:
	@DEBUG_VALUE: HAL_TIMEx_OnePulseN_Stop:OutputChannel <- $r5
	@DEBUG_VALUE: HAL_TIMEx_OnePulseN_Stop:htim <- $r4
	.loc	7 1683 3                        @ ../src/driver/stm32g4-v120/src/stm32g4xx_hal_tim_ex.c:1683:3
	strb.w	r0, [r4, #70]
.Ltmp811:
.LBB25_11:
	@DEBUG_VALUE: HAL_TIMEx_OnePulseN_Stop:OutputChannel <- $r5
	@DEBUG_VALUE: HAL_TIMEx_OnePulseN_Stop:htim <- $r4
	.loc	7 0 3 is_stmt 0                 @ ../src/driver/stm32g4-v120/src/stm32g4xx_hal_tim_ex.c:0:3
	movs	r0, #1
	.loc	7 1684 3 is_stmt 1              @ ../src/driver/stm32g4-v120/src/stm32g4xx_hal_tim_ex.c:1684:3
	strb.w	r0, [r4, #62]
.Ltmp812:
.LBB25_12:
	@DEBUG_VALUE: HAL_TIMEx_OnePulseN_Stop:OutputChannel <- $r5
	@DEBUG_VALUE: HAL_TIMEx_OnePulseN_Stop:htim <- $r4
	.loc	7 1687 3                        @ ../src/driver/stm32g4-v120/src/stm32g4xx_hal_tim_ex.c:1687:3
	movs	r0, #0
	pop	{r4, r5, r7, pc}
.Ltmp813:
.Lfunc_end25:
	.size	HAL_TIMEx_OnePulseN_Stop, .Lfunc_end25-HAL_TIMEx_OnePulseN_Stop
	.cfi_endproc
	.cantunwind
	.fnend
                                        @ -- End function
	.section	.text.HAL_TIMEx_OnePulseN_Start_IT,"ax",%progbits
	.hidden	HAL_TIMEx_OnePulseN_Start_IT    @ -- Begin function HAL_TIMEx_OnePulseN_Start_IT
	.globl	HAL_TIMEx_OnePulseN_Start_IT
	.p2align	1
	.type	HAL_TIMEx_OnePulseN_Start_IT,%function
	.code	16                              @ @HAL_TIMEx_OnePulseN_Start_IT
	.thumb_func
HAL_TIMEx_OnePulseN_Start_IT:
.Lfunc_begin26:
	.loc	7 1701 0                        @ ../src/driver/stm32g4-v120/src/stm32g4xx_hal_tim_ex.c:1701:0
	.fnstart
	.cfi_startproc
@ %bb.0:
	@DEBUG_VALUE: HAL_TIMEx_OnePulseN_Start_IT:htim <- $r0
	@DEBUG_VALUE: HAL_TIMEx_OnePulseN_Start_IT:OutputChannel <- $r1
	.save	{r4, lr}
	push	{r4, lr}
	.cfi_def_cfa_offset 8
	.cfi_offset lr, -4
	.cfi_offset r4, -8
	mov	r4, r0
.Ltmp814:
	@DEBUG_VALUE: HAL_TIMEx_OnePulseN_Start_IT:htim <- $r4
	@DEBUG_VALUE: HAL_TIMEx_OnePulseN_Start_IT:input_channel <- undef
	movs	r0, #62
	@DEBUG_VALUE: HAL_TIMEx_OnePulseN_Start_IT:OutputChannel <- $r1
	@DEBUG_VALUE: HAL_TIMEx_OnePulseN_Start_IT:htim <- $r4
.Ltmp815:
	.loc	7 1703 53 prologue_end          @ ../src/driver/stm32g4-v120/src/stm32g4xx_hal_tim_ex.c:1703:53
	cmp	r1, #0
	it	eq
	moveq	r0, #63
	ldrb	r0, [r4, r0]
.Ltmp816:
	@DEBUG_VALUE: HAL_TIMEx_OnePulseN_Start_IT:input_channel_state <- undef
	.loc	7 1704 54                       @ ../src/driver/stm32g4-v120/src/stm32g4xx_hal_tim_ex.c:1704:54
	beq	.LBB26_3
.Ltmp817:
@ %bb.1:
	@DEBUG_VALUE: HAL_TIMEx_OnePulseN_Start_IT:htim <- $r4
	@DEBUG_VALUE: HAL_TIMEx_OnePulseN_Start_IT:OutputChannel <- $r1
	cmp	r1, #8
	beq	.LBB26_5
.Ltmp818:
@ %bb.2:
	@DEBUG_VALUE: HAL_TIMEx_OnePulseN_Start_IT:htim <- $r4
	@DEBUG_VALUE: HAL_TIMEx_OnePulseN_Start_IT:OutputChannel <- $r1
	cmp	r1, #4
	ite	ne
	addne.w	r2, r4, #71
	addeq.w	r2, r4, #69
	b	.LBB26_6
.Ltmp819:
.LBB26_3:
	@DEBUG_VALUE: HAL_TIMEx_OnePulseN_Start_IT:htim <- $r4
	@DEBUG_VALUE: HAL_TIMEx_OnePulseN_Start_IT:OutputChannel <- $r1
	.loc	7 1711 4                        @ ../src/driver/stm32g4-v120/src/stm32g4xx_hal_tim_ex.c:1711:4
	cmp	r0, #1
	mov.w	r0, #1
.Ltmp820:
	.loc	7 1704 54                       @ ../src/driver/stm32g4-v120/src/stm32g4xx_hal_tim_ex.c:1704:54
	ldrb.w	r2, [r4, #68]
.Ltmp821:
	.loc	7 1711 4                        @ ../src/driver/stm32g4-v120/src/stm32g4xx_hal_tim_ex.c:1711:4
	it	eq
	cmpeq	r2, #1
	beq	.LBB26_9
.Ltmp822:
.LBB26_4:
	@DEBUG_VALUE: HAL_TIMEx_OnePulseN_Start_IT:htim <- $r4
	@DEBUG_VALUE: HAL_TIMEx_OnePulseN_Start_IT:OutputChannel <- $r1
	.loc	7 1735 1                        @ ../src/driver/stm32g4-v120/src/stm32g4xx_hal_tim_ex.c:1735:1
	pop	{r4, pc}
.Ltmp823:
.LBB26_5:
	@DEBUG_VALUE: HAL_TIMEx_OnePulseN_Start_IT:htim <- $r4
	@DEBUG_VALUE: HAL_TIMEx_OnePulseN_Start_IT:OutputChannel <- $r1
	.loc	7 1704 54                       @ ../src/driver/stm32g4-v120/src/stm32g4xx_hal_tim_ex.c:1704:54
	add.w	r2, r4, #70
.Ltmp824:
.LBB26_6:
	@DEBUG_VALUE: HAL_TIMEx_OnePulseN_Start_IT:htim <- $r4
	@DEBUG_VALUE: HAL_TIMEx_OnePulseN_Start_IT:OutputChannel <- $r1
	.loc	7 1711 4                        @ ../src/driver/stm32g4-v120/src/stm32g4xx_hal_tim_ex.c:1711:4
	cmp	r0, #1
	mov.w	r0, #1
.Ltmp825:
	@DEBUG_VALUE: HAL_TIMEx_OnePulseN_Start_IT:output_channel_state <- undef
	.loc	7 1704 54                       @ ../src/driver/stm32g4-v120/src/stm32g4xx_hal_tim_ex.c:1704:54
	ldrb	r2, [r2]
.Ltmp826:
	.loc	7 1711 4                        @ ../src/driver/stm32g4-v120/src/stm32g4xx_hal_tim_ex.c:1711:4
	it	eq
	cmpeq	r2, #1
	bne	.LBB26_4
.Ltmp827:
@ %bb.7:
	@DEBUG_VALUE: HAL_TIMEx_OnePulseN_Start_IT:htim <- $r4
	@DEBUG_VALUE: HAL_TIMEx_OnePulseN_Start_IT:OutputChannel <- $r1
	.loc	7 0 4 is_stmt 0                 @ ../src/driver/stm32g4-v120/src/stm32g4xx_hal_tim_ex.c:0:4
	movs	r0, #2
	.loc	7 1717 3 is_stmt 1              @ ../src/driver/stm32g4-v120/src/stm32g4xx_hal_tim_ex.c:1717:3
	cmp	r1, #8
	beq	.LBB26_10
.Ltmp828:
@ %bb.8:
	@DEBUG_VALUE: HAL_TIMEx_OnePulseN_Start_IT:htim <- $r4
	@DEBUG_VALUE: HAL_TIMEx_OnePulseN_Start_IT:OutputChannel <- $r1
	cmp	r1, #4
	ite	ne
	strbne.w	r0, [r4, #71]
	strbeq.w	r0, [r4, #69]
	b	.LBB26_11
.Ltmp829:
.LBB26_9:
	@DEBUG_VALUE: HAL_TIMEx_OnePulseN_Start_IT:htim <- $r4
	@DEBUG_VALUE: HAL_TIMEx_OnePulseN_Start_IT:OutputChannel <- $r1
	.loc	7 0 3 is_stmt 0                 @ ../src/driver/stm32g4-v120/src/stm32g4xx_hal_tim_ex.c:0:3
	movs	r0, #2
	.loc	7 1717 3                        @ ../src/driver/stm32g4-v120/src/stm32g4xx_hal_tim_ex.c:1717:3
	strb.w	r0, [r4, #68]
	.loc	7 1718 3 is_stmt 1              @ ../src/driver/stm32g4-v120/src/stm32g4xx_hal_tim_ex.c:1718:3
	strb.w	r0, [r4, #63]
	b	.LBB26_12
.Ltmp830:
.LBB26_10:
	@DEBUG_VALUE: HAL_TIMEx_OnePulseN_Start_IT:htim <- $r4
	@DEBUG_VALUE: HAL_TIMEx_OnePulseN_Start_IT:OutputChannel <- $r1
	.loc	7 1717 3                        @ ../src/driver/stm32g4-v120/src/stm32g4xx_hal_tim_ex.c:1717:3
	strb.w	r0, [r4, #70]
.Ltmp831:
.LBB26_11:
	@DEBUG_VALUE: HAL_TIMEx_OnePulseN_Start_IT:htim <- $r4
	@DEBUG_VALUE: HAL_TIMEx_OnePulseN_Start_IT:OutputChannel <- $r1
	.loc	7 0 3 is_stmt 0                 @ ../src/driver/stm32g4-v120/src/stm32g4xx_hal_tim_ex.c:0:3
	movs	r0, #2
	.loc	7 1718 3 is_stmt 1              @ ../src/driver/stm32g4-v120/src/stm32g4xx_hal_tim_ex.c:1718:3
	strb.w	r0, [r4, #62]
.Ltmp832:
.LBB26_12:
	@DEBUG_VALUE: HAL_TIMEx_OnePulseN_Start_IT:htim <- $r4
	@DEBUG_VALUE: HAL_TIMEx_OnePulseN_Start_IT:OutputChannel <- $r1
	.loc	7 1721 3                        @ ../src/driver/stm32g4-v120/src/stm32g4xx_hal_tim_ex.c:1721:3
	ldr	r0, [r4]
	clz	r3, r1
	ldr	r2, [r0, #12]
.Ltmp833:
	.loc	7 3578 36                       @ ../src/driver/stm32g4-v120/src/stm32g4xx_hal_tim_ex.c:3578:36
	and	r1, r1, #31
.Ltmp834:
	@DEBUG_VALUE: HAL_TIMEx_OnePulseN_Start_IT:OutputChannel <- [DW_OP_LLVM_entry_value 1] $r1
	.loc	7 1721 3                        @ ../src/driver/stm32g4-v120/src/stm32g4xx_hal_tim_ex.c:1721:3
	orr	r2, r2, #2
	str	r2, [r0, #12]
	.loc	7 1724 3                        @ ../src/driver/stm32g4-v120/src/stm32g4xx_hal_tim_ex.c:1724:3
	ldr	r2, [r0, #12]
	lsr.w	r12, r3, #5
	orr	r2, r2, #4
	str	r2, [r0, #12]
.Ltmp835:
	@DEBUG_VALUE: TIM_CCxNChannelCmd:ChannelNState <- 4
	@DEBUG_VALUE: TIM_CCxNChannelCmd:Channel <- $r1
	@DEBUG_VALUE: TIM_CCxNChannelCmd:TIMx <- $r0
	.loc	7 0 3 is_stmt 0                 @ ../src/driver/stm32g4-v120/src/stm32g4xx_hal_tim_ex.c:0:3
	movs	r2, #4
.Ltmp836:
	.loc	7 3578 24 is_stmt 1             @ ../src/driver/stm32g4-v120/src/stm32g4xx_hal_tim_ex.c:3578:24
	lsls	r2, r1
.Ltmp837:
	@DEBUG_VALUE: TIM_CCxNChannelCmd:tmp <- $r2
	.loc	7 3581 14                       @ ../src/driver/stm32g4-v120/src/stm32g4xx_hal_tim_ex.c:3581:14
	ldr	r1, [r0, #32]
.Ltmp838:
	bics	r1, r2
	str	r1, [r0, #32]
	.loc	7 3584 14                       @ ../src/driver/stm32g4-v120/src/stm32g4xx_hal_tim_ex.c:3584:14
	ldr	r3, [r0, #32]
.Ltmp839:
	.loc	7 0 0 is_stmt 0                 @ ../src/driver/stm32g4-v120/src/stm32g4xx_hal_tim_ex.c:0:0
	lsl.w	r1, r12, #2
.Ltmp840:
	@DEBUG_VALUE: HAL_TIMEx_OnePulseN_Start_IT:input_channel <- $r1
	.loc	7 3584 14                       @ ../src/driver/stm32g4-v120/src/stm32g4xx_hal_tim_ex.c:3584:14
	orrs	r2, r3
.Ltmp841:
	@DEBUG_VALUE: TIM_CCxNChannelCmd:tmp <- $r2
	@DEBUG_VALUE: TIM_CCxNChannelCmd:ChannelNState <- 4
	@DEBUG_VALUE: TIM_CCxNChannelCmd:TIMx <- $r0
	str	r2, [r0, #32]
.Ltmp842:
	.loc	7 1728 3 is_stmt 1              @ ../src/driver/stm32g4-v120/src/stm32g4xx_hal_tim_ex.c:1728:3
	movs	r2, #1
.Ltmp843:
	bl	TIM_CCxChannelCmd
.Ltmp844:
	.loc	7 1731 3                        @ ../src/driver/stm32g4-v120/src/stm32g4xx_hal_tim_ex.c:1731:3
	ldr	r0, [r4]
	ldr	r1, [r0, #68]
	orr	r1, r1, #32768
	str	r1, [r0, #68]
	movs	r0, #0
	.loc	7 1735 1                        @ ../src/driver/stm32g4-v120/src/stm32g4xx_hal_tim_ex.c:1735:1
	pop	{r4, pc}
.Ltmp845:
.Lfunc_end26:
	.size	HAL_TIMEx_OnePulseN_Start_IT, .Lfunc_end26-HAL_TIMEx_OnePulseN_Start_IT
	.cfi_endproc
	.cantunwind
	.fnend
                                        @ -- End function
	.section	.text.HAL_TIMEx_OnePulseN_Stop_IT,"ax",%progbits
	.hidden	HAL_TIMEx_OnePulseN_Stop_IT     @ -- Begin function HAL_TIMEx_OnePulseN_Stop_IT
	.globl	HAL_TIMEx_OnePulseN_Stop_IT
	.p2align	1
	.type	HAL_TIMEx_OnePulseN_Stop_IT,%function
	.code	16                              @ @HAL_TIMEx_OnePulseN_Stop_IT
	.thumb_func
HAL_TIMEx_OnePulseN_Stop_IT:
.Lfunc_begin27:
	.loc	7 1748 0                        @ ../src/driver/stm32g4-v120/src/stm32g4xx_hal_tim_ex.c:1748:0
	.fnstart
	.cfi_startproc
@ %bb.0:
	@DEBUG_VALUE: HAL_TIMEx_OnePulseN_Stop_IT:htim <- $r0
	@DEBUG_VALUE: HAL_TIMEx_OnePulseN_Stop_IT:OutputChannel <- $r1
	.save	{r4, r5, r7, lr}
	push	{r4, r5, r7, lr}
	.cfi_def_cfa_offset 16
	.cfi_offset lr, -4
	.cfi_offset r7, -8
	.cfi_offset r5, -12
	.cfi_offset r4, -16
	mov	r4, r0
.Ltmp846:
	@DEBUG_VALUE: HAL_TIMEx_OnePulseN_Stop_IT:htim <- $r4
	.loc	7 1755 3 prologue_end           @ ../src/driver/stm32g4-v120/src/stm32g4xx_hal_tim_ex.c:1755:3
	ldr	r0, [r0]
	mov	r5, r1
.Ltmp847:
	@DEBUG_VALUE: HAL_TIMEx_OnePulseN_Stop_IT:OutputChannel <- $r5
	@DEBUG_VALUE: HAL_TIMEx_OnePulseN_Stop_IT:OutputChannel <- $r5
	ldr	r2, [r0, #12]
	movs	r3, #4
	bic	r1, r2, #2
	str	r1, [r0, #12]
	.loc	7 1758 3                        @ ../src/driver/stm32g4-v120/src/stm32g4xx_hal_tim_ex.c:1758:3
	ldr	r1, [r0, #12]
	clz	r2, r5
	bic	r1, r1, #4
	str	r1, [r0, #12]
.Ltmp848:
	@DEBUG_VALUE: TIM_CCxNChannelCmd:ChannelNState <- 0
	@DEBUG_VALUE: TIM_CCxNChannelCmd:Channel <- $r5
	@DEBUG_VALUE: TIM_CCxNChannelCmd:TIMx <- $r0
	.loc	7 3578 36                       @ ../src/driver/stm32g4-v120/src/stm32g4xx_hal_tim_ex.c:3578:36
	and	r1, r5, #31
	.loc	7 3578 24 is_stmt 0             @ ../src/driver/stm32g4-v120/src/stm32g4xx_hal_tim_ex.c:3578:24
	lsl.w	r1, r3, r1
.Ltmp849:
	@DEBUG_VALUE: TIM_CCxNChannelCmd:tmp <- $r1
	.loc	7 3581 14 is_stmt 1             @ ../src/driver/stm32g4-v120/src/stm32g4xx_hal_tim_ex.c:3581:14
	ldr	r3, [r0, #32]
	lsrs	r2, r2, #5
	bic.w	r1, r3, r1
.Ltmp850:
	str	r1, [r0, #32]
	.loc	7 3584 14                       @ ../src/driver/stm32g4-v120/src/stm32g4xx_hal_tim_ex.c:3584:14
	ldr	r3, [r0, #32]
.Ltmp851:
	.loc	7 1749 28                       @ ../src/driver/stm32g4-v120/src/stm32g4xx_hal_tim_ex.c:1749:28
	lsls	r1, r2, #2
.Ltmp852:
	@DEBUG_VALUE: HAL_TIMEx_OnePulseN_Stop_IT:input_channel <- $r1
	.loc	7 1762 3                        @ ../src/driver/stm32g4-v120/src/stm32g4xx_hal_tim_ex.c:1762:3
	movs	r2, #0
.Ltmp853:
	.loc	7 3584 14                       @ ../src/driver/stm32g4-v120/src/stm32g4xx_hal_tim_ex.c:3584:14
	str	r3, [r0, #32]
.Ltmp854:
	@DEBUG_VALUE: TIM_CCxNChannelCmd:ChannelNState <- 0
	@DEBUG_VALUE: TIM_CCxNChannelCmd:Channel <- $r5
	@DEBUG_VALUE: TIM_CCxNChannelCmd:TIMx <- $r0
	.loc	7 1762 3                        @ ../src/driver/stm32g4-v120/src/stm32g4xx_hal_tim_ex.c:1762:3
	bl	TIM_CCxChannelCmd
.Ltmp855:
	.loc	7 1765 3                        @ ../src/driver/stm32g4-v120/src/stm32g4xx_hal_tim_ex.c:1765:3
	ldr	r0, [r4]
	movw	r1, #4369
	ldr	r2, [r0, #32]
.Ltmp856:
	.loc	7 1765 3 is_stmt 0              @ ../src/driver/stm32g4-v120/src/stm32g4xx_hal_tim_ex.c:1765:3
	tst	r2, r1
	bne	.LBB27_3
.Ltmp857:
@ %bb.1:
	@DEBUG_VALUE: HAL_TIMEx_OnePulseN_Stop_IT:OutputChannel <- $r5
	@DEBUG_VALUE: HAL_TIMEx_OnePulseN_Stop_IT:htim <- $r4
	.loc	7 1765 3                        @ ../src/driver/stm32g4-v120/src/stm32g4xx_hal_tim_ex.c:1765:3
	ldr	r2, [r0, #32]
	movw	r3, #17476
.Ltmp858:
	.loc	7 1765 3                        @ ../src/driver/stm32g4-v120/src/stm32g4xx_hal_tim_ex.c:1765:3
	tst	r2, r3
	bne	.LBB27_3
.Ltmp859:
@ %bb.2:
	@DEBUG_VALUE: HAL_TIMEx_OnePulseN_Stop_IT:OutputChannel <- $r5
	@DEBUG_VALUE: HAL_TIMEx_OnePulseN_Stop_IT:htim <- $r4
	.loc	7 1765 3                        @ ../src/driver/stm32g4-v120/src/stm32g4xx_hal_tim_ex.c:1765:3
	ldr	r2, [r0, #68]
	bic	r2, r2, #32768
	str	r2, [r0, #68]
.Ltmp860:
.LBB27_3:
	@DEBUG_VALUE: HAL_TIMEx_OnePulseN_Stop_IT:OutputChannel <- $r5
	@DEBUG_VALUE: HAL_TIMEx_OnePulseN_Stop_IT:htim <- $r4
	.loc	7 1768 3 is_stmt 1              @ ../src/driver/stm32g4-v120/src/stm32g4xx_hal_tim_ex.c:1768:3
	ldr	r2, [r0, #32]
.Ltmp861:
	.loc	7 1768 3 is_stmt 0              @ ../src/driver/stm32g4-v120/src/stm32g4xx_hal_tim_ex.c:1768:3
	tst	r2, r1
	bne	.LBB27_6
.Ltmp862:
@ %bb.4:
	@DEBUG_VALUE: HAL_TIMEx_OnePulseN_Stop_IT:OutputChannel <- $r5
	@DEBUG_VALUE: HAL_TIMEx_OnePulseN_Stop_IT:htim <- $r4
	.loc	7 1768 3                        @ ../src/driver/stm32g4-v120/src/stm32g4xx_hal_tim_ex.c:1768:3
	ldr	r1, [r0, #32]
	movw	r2, #17476
.Ltmp863:
	.loc	7 1768 3                        @ ../src/driver/stm32g4-v120/src/stm32g4xx_hal_tim_ex.c:1768:3
	tst	r1, r2
	bne	.LBB27_6
.Ltmp864:
@ %bb.5:
	@DEBUG_VALUE: HAL_TIMEx_OnePulseN_Stop_IT:OutputChannel <- $r5
	@DEBUG_VALUE: HAL_TIMEx_OnePulseN_Stop_IT:htim <- $r4
	.loc	7 1768 3                        @ ../src/driver/stm32g4-v120/src/stm32g4xx_hal_tim_ex.c:1768:3
	ldr	r1, [r0]
	bic	r1, r1, #1
	str	r1, [r0]
.Ltmp865:
.LBB27_6:
	@DEBUG_VALUE: HAL_TIMEx_OnePulseN_Stop_IT:OutputChannel <- $r5
	@DEBUG_VALUE: HAL_TIMEx_OnePulseN_Stop_IT:htim <- $r4
	.loc	7 0 3                           @ ../src/driver/stm32g4-v120/src/stm32g4xx_hal_tim_ex.c:0:3
	movs	r0, #1
	.loc	7 1771 3 is_stmt 1              @ ../src/driver/stm32g4-v120/src/stm32g4xx_hal_tim_ex.c:1771:3
	cbz	r5, .LBB27_9
.Ltmp866:
@ %bb.7:
	@DEBUG_VALUE: HAL_TIMEx_OnePulseN_Stop_IT:OutputChannel <- $r5
	@DEBUG_VALUE: HAL_TIMEx_OnePulseN_Stop_IT:htim <- $r4
	cmp	r5, #8
	beq	.LBB27_10
.Ltmp867:
@ %bb.8:
	@DEBUG_VALUE: HAL_TIMEx_OnePulseN_Stop_IT:OutputChannel <- $r5
	@DEBUG_VALUE: HAL_TIMEx_OnePulseN_Stop_IT:htim <- $r4
	cmp	r5, #4
	ite	ne
	strbne.w	r0, [r4, #71]
	strbeq.w	r0, [r4, #69]
	b	.LBB27_11
.Ltmp868:
.LBB27_9:
	@DEBUG_VALUE: HAL_TIMEx_OnePulseN_Stop_IT:OutputChannel <- $r5
	@DEBUG_VALUE: HAL_TIMEx_OnePulseN_Stop_IT:htim <- $r4
	strb.w	r0, [r4, #68]
	.loc	7 1772 3                        @ ../src/driver/stm32g4-v120/src/stm32g4xx_hal_tim_ex.c:1772:3
	strb.w	r0, [r4, #63]
	b	.LBB27_12
.Ltmp869:
.LBB27_10:
	@DEBUG_VALUE: HAL_TIMEx_OnePulseN_Stop_IT:OutputChannel <- $r5
	@DEBUG_VALUE: HAL_TIMEx_OnePulseN_Stop_IT:htim <- $r4
	.loc	7 1771 3                        @ ../src/driver/stm32g4-v120/src/stm32g4xx_hal_tim_ex.c:1771:3
	strb.w	r0, [r4, #70]
.Ltmp870:
.LBB27_11:
	@DEBUG_VALUE: HAL_TIMEx_OnePulseN_Stop_IT:OutputChannel <- $r5
	@DEBUG_VALUE: HAL_TIMEx_OnePulseN_Stop_IT:htim <- $r4
	.loc	7 0 3 is_stmt 0                 @ ../src/driver/stm32g4-v120/src/stm32g4xx_hal_tim_ex.c:0:3
	movs	r0, #1
	.loc	7 1772 3 is_stmt 1              @ ../src/driver/stm32g4-v120/src/stm32g4xx_hal_tim_ex.c:1772:3
	strb.w	r0, [r4, #62]
.Ltmp871:
.LBB27_12:
	@DEBUG_VALUE: HAL_TIMEx_OnePulseN_Stop_IT:OutputChannel <- $r5
	@DEBUG_VALUE: HAL_TIMEx_OnePulseN_Stop_IT:htim <- $r4
	.loc	7 1775 3                        @ ../src/driver/stm32g4-v120/src/stm32g4xx_hal_tim_ex.c:1775:3
	movs	r0, #0
	pop	{r4, r5, r7, pc}
.Ltmp872:
.Lfunc_end27:
	.size	HAL_TIMEx_OnePulseN_Stop_IT, .Lfunc_end27-HAL_TIMEx_OnePulseN_Stop_IT
	.cfi_endproc
	.cantunwind
	.fnend
                                        @ -- End function
	.section	.text.HAL_TIMEx_ConfigCommutEvent,"ax",%progbits
	.hidden	HAL_TIMEx_ConfigCommutEvent     @ -- Begin function HAL_TIMEx_ConfigCommutEvent
	.globl	HAL_TIMEx_ConfigCommutEvent
	.p2align	1
	.type	HAL_TIMEx_ConfigCommutEvent,%function
	.code	16                              @ @HAL_TIMEx_ConfigCommutEvent
	.thumb_func
HAL_TIMEx_ConfigCommutEvent:
.Lfunc_begin28:
	.loc	7 1841 0                        @ ../src/driver/stm32g4-v120/src/stm32g4xx_hal_tim_ex.c:1841:0
	.fnstart
	.cfi_startproc
@ %bb.0:
	@DEBUG_VALUE: HAL_TIMEx_ConfigCommutEvent:htim <- $r0
	@DEBUG_VALUE: HAL_TIMEx_ConfigCommutEvent:htim <- $r0
	@DEBUG_VALUE: HAL_TIMEx_ConfigCommutEvent:InputTrigger <- $r1
	@DEBUG_VALUE: HAL_TIMEx_ConfigCommutEvent:CommutationSource <- $r2
	.save	{r7, lr}
	push	{r7, lr}
	.cfi_def_cfa_offset 8
	.cfi_offset lr, -4
	.cfi_offset r7, -8
.Ltmp873:
	.loc	7 1846 3 prologue_end           @ ../src/driver/stm32g4-v120/src/stm32g4xx_hal_tim_ex.c:1846:3
	ldrb.w	r3, [r0, #60]
.Ltmp874:
	@DEBUG_VALUE: HAL_TIMEx_ConfigCommutEvent:CommutationSource <- $r2
	.loc	7 1846 3 is_stmt 0              @ ../src/driver/stm32g4-v120/src/stm32g4xx_hal_tim_ex.c:1846:3
	cmp	r3, #1
	@DEBUG_VALUE: HAL_TIMEx_ConfigCommutEvent:InputTrigger <- $r1
	bne	.LBB28_2
.Ltmp875:
@ %bb.1:
	@DEBUG_VALUE: HAL_TIMEx_ConfigCommutEvent:CommutationSource <- $r2
	@DEBUG_VALUE: HAL_TIMEx_ConfigCommutEvent:InputTrigger <- $r1
	@DEBUG_VALUE: HAL_TIMEx_ConfigCommutEvent:htim <- $r0
	.loc	7 0 3                           @ ../src/driver/stm32g4-v120/src/stm32g4xx_hal_tim_ex.c:0:3
	movs	r1, #2
.Ltmp876:
	@DEBUG_VALUE: HAL_TIMEx_ConfigCommutEvent:InputTrigger <- [DW_OP_LLVM_entry_value 1] $r1
	b	.LBB28_20
.Ltmp877:
.LBB28_2:
	@DEBUG_VALUE: HAL_TIMEx_ConfigCommutEvent:CommutationSource <- $r2
	@DEBUG_VALUE: HAL_TIMEx_ConfigCommutEvent:InputTrigger <- $r1
	@DEBUG_VALUE: HAL_TIMEx_ConfigCommutEvent:htim <- $r0
	movs	r3, #31
	movt	r3, #16
.Ltmp878:
	.loc	7 1849 38 is_stmt 1             @ ../src/driver/stm32g4-v120/src/stm32g4xx_hal_tim_ex.c:1849:38
	cmp	r1, r3
	bgt	.LBB28_7
.Ltmp879:
@ %bb.3:
	@DEBUG_VALUE: HAL_TIMEx_ConfigCommutEvent:CommutationSource <- $r2
	@DEBUG_VALUE: HAL_TIMEx_ConfigCommutEvent:InputTrigger <- $r1
	@DEBUG_VALUE: HAL_TIMEx_ConfigCommutEvent:htim <- $r0
	cmp	r1, #47
	bgt	.LBB28_11
.Ltmp880:
@ %bb.4:
	@DEBUG_VALUE: HAL_TIMEx_ConfigCommutEvent:CommutationSource <- $r2
	@DEBUG_VALUE: HAL_TIMEx_ConfigCommutEvent:InputTrigger <- $r1
	@DEBUG_VALUE: HAL_TIMEx_ConfigCommutEvent:htim <- $r0
	cbz	r1, .LBB28_18
.Ltmp881:
@ %bb.5:
	@DEBUG_VALUE: HAL_TIMEx_ConfigCommutEvent:CommutationSource <- $r2
	@DEBUG_VALUE: HAL_TIMEx_ConfigCommutEvent:InputTrigger <- $r1
	@DEBUG_VALUE: HAL_TIMEx_ConfigCommutEvent:htim <- $r0
	cmp	r1, #16
	beq	.LBB28_18
.Ltmp882:
@ %bb.6:
	@DEBUG_VALUE: HAL_TIMEx_ConfigCommutEvent:CommutationSource <- $r2
	@DEBUG_VALUE: HAL_TIMEx_ConfigCommutEvent:InputTrigger <- $r1
	@DEBUG_VALUE: HAL_TIMEx_ConfigCommutEvent:htim <- $r0
	cmp	r1, #32
	beq	.LBB28_18
	b	.LBB28_21
.Ltmp883:
.LBB28_7:
	@DEBUG_VALUE: HAL_TIMEx_ConfigCommutEvent:CommutationSource <- $r2
	@DEBUG_VALUE: HAL_TIMEx_ConfigCommutEvent:InputTrigger <- $r1
	@DEBUG_VALUE: HAL_TIMEx_ConfigCommutEvent:htim <- $r0
	.loc	7 0 38 is_stmt 0                @ ../src/driver/stm32g4-v120/src/stm32g4xx_hal_tim_ex.c:0:38
	movs	r3, #79
	movt	r3, #16
	.loc	7 1849 38                       @ ../src/driver/stm32g4-v120/src/stm32g4xx_hal_tim_ex.c:1849:38
	cmp	r1, r3
	bgt	.LBB28_14
.Ltmp884:
@ %bb.8:
	@DEBUG_VALUE: HAL_TIMEx_ConfigCommutEvent:CommutationSource <- $r2
	@DEBUG_VALUE: HAL_TIMEx_ConfigCommutEvent:InputTrigger <- $r1
	@DEBUG_VALUE: HAL_TIMEx_ConfigCommutEvent:htim <- $r0
	.loc	7 0 38                          @ ../src/driver/stm32g4-v120/src/stm32g4xx_hal_tim_ex.c:0:38
	movs	r3, #32
	movt	r3, #16
	.loc	7 1849 38                       @ ../src/driver/stm32g4-v120/src/stm32g4xx_hal_tim_ex.c:1849:38
	cmp	r1, r3
	beq	.LBB28_18
.Ltmp885:
@ %bb.9:
	@DEBUG_VALUE: HAL_TIMEx_ConfigCommutEvent:CommutationSource <- $r2
	@DEBUG_VALUE: HAL_TIMEx_ConfigCommutEvent:InputTrigger <- $r1
	@DEBUG_VALUE: HAL_TIMEx_ConfigCommutEvent:htim <- $r0
	.loc	7 0 38                          @ ../src/driver/stm32g4-v120/src/stm32g4xx_hal_tim_ex.c:0:38
	movs	r3, #48
	movt	r3, #16
	.loc	7 1849 38                       @ ../src/driver/stm32g4-v120/src/stm32g4xx_hal_tim_ex.c:1849:38
	cmp	r1, r3
	beq	.LBB28_18
.Ltmp886:
@ %bb.10:
	@DEBUG_VALUE: HAL_TIMEx_ConfigCommutEvent:CommutationSource <- $r2
	@DEBUG_VALUE: HAL_TIMEx_ConfigCommutEvent:InputTrigger <- $r1
	@DEBUG_VALUE: HAL_TIMEx_ConfigCommutEvent:htim <- $r0
	.loc	7 0 38                          @ ../src/driver/stm32g4-v120/src/stm32g4xx_hal_tim_ex.c:0:38
	movs	r3, #64
	b	.LBB28_17
.Ltmp887:
.LBB28_11:
	@DEBUG_VALUE: HAL_TIMEx_ConfigCommutEvent:CommutationSource <- $r2
	@DEBUG_VALUE: HAL_TIMEx_ConfigCommutEvent:InputTrigger <- $r1
	@DEBUG_VALUE: HAL_TIMEx_ConfigCommutEvent:htim <- $r0
	.loc	7 1849 38                       @ ../src/driver/stm32g4-v120/src/stm32g4xx_hal_tim_ex.c:1849:38
	cmp	r1, #48
	beq	.LBB28_18
.Ltmp888:
@ %bb.12:
	@DEBUG_VALUE: HAL_TIMEx_ConfigCommutEvent:CommutationSource <- $r2
	@DEBUG_VALUE: HAL_TIMEx_ConfigCommutEvent:InputTrigger <- $r1
	@DEBUG_VALUE: HAL_TIMEx_ConfigCommutEvent:htim <- $r0
	cmp.w	r1, #1048576
	beq	.LBB28_18
.Ltmp889:
@ %bb.13:
	@DEBUG_VALUE: HAL_TIMEx_ConfigCommutEvent:CommutationSource <- $r2
	@DEBUG_VALUE: HAL_TIMEx_ConfigCommutEvent:InputTrigger <- $r1
	@DEBUG_VALUE: HAL_TIMEx_ConfigCommutEvent:htim <- $r0
	cmp.w	r1, #1048592
	beq	.LBB28_18
	b	.LBB28_21
.Ltmp890:
.LBB28_14:
	@DEBUG_VALUE: HAL_TIMEx_ConfigCommutEvent:CommutationSource <- $r2
	@DEBUG_VALUE: HAL_TIMEx_ConfigCommutEvent:InputTrigger <- $r1
	@DEBUG_VALUE: HAL_TIMEx_ConfigCommutEvent:htim <- $r0
	.loc	7 0 38                          @ ../src/driver/stm32g4-v120/src/stm32g4xx_hal_tim_ex.c:0:38
	movs	r3, #80
	movt	r3, #16
	.loc	7 1849 38                       @ ../src/driver/stm32g4-v120/src/stm32g4xx_hal_tim_ex.c:1849:38
	cmp	r1, r3
	beq	.LBB28_18
.Ltmp891:
@ %bb.15:
	@DEBUG_VALUE: HAL_TIMEx_ConfigCommutEvent:CommutationSource <- $r2
	@DEBUG_VALUE: HAL_TIMEx_ConfigCommutEvent:InputTrigger <- $r1
	@DEBUG_VALUE: HAL_TIMEx_ConfigCommutEvent:htim <- $r0
	.loc	7 0 38                          @ ../src/driver/stm32g4-v120/src/stm32g4xx_hal_tim_ex.c:0:38
	movs	r3, #96
	movt	r3, #16
	.loc	7 1849 38                       @ ../src/driver/stm32g4-v120/src/stm32g4xx_hal_tim_ex.c:1849:38
	cmp	r1, r3
	beq	.LBB28_18
.Ltmp892:
@ %bb.16:
	@DEBUG_VALUE: HAL_TIMEx_ConfigCommutEvent:CommutationSource <- $r2
	@DEBUG_VALUE: HAL_TIMEx_ConfigCommutEvent:InputTrigger <- $r1
	@DEBUG_VALUE: HAL_TIMEx_ConfigCommutEvent:htim <- $r0
	.loc	7 0 38                          @ ../src/driver/stm32g4-v120/src/stm32g4xx_hal_tim_ex.c:0:38
	movs	r3, #112
.Ltmp893:
.LBB28_17:
	@DEBUG_VALUE: HAL_TIMEx_ConfigCommutEvent:CommutationSource <- $r2
	@DEBUG_VALUE: HAL_TIMEx_ConfigCommutEvent:InputTrigger <- $r1
	@DEBUG_VALUE: HAL_TIMEx_ConfigCommutEvent:htim <- $r0
	movt	r3, #16
	.loc	7 1849 38                       @ ../src/driver/stm32g4-v120/src/stm32g4xx_hal_tim_ex.c:1849:38
	cmp	r1, r3
	bne	.LBB28_21
.Ltmp894:
.LBB28_18:
	@DEBUG_VALUE: HAL_TIMEx_ConfigCommutEvent:CommutationSource <- $r2
	@DEBUG_VALUE: HAL_TIMEx_ConfigCommutEvent:InputTrigger <- $r1
	@DEBUG_VALUE: HAL_TIMEx_ConfigCommutEvent:htim <- $r0
	.loc	7 1876 11 is_stmt 1             @ ../src/driver/stm32g4-v120/src/stm32g4xx_hal_tim_ex.c:1876:11
	ldr.w	lr, [r0]
	movw	r3, #65423
	.loc	7 1876 26 is_stmt 0             @ ../src/driver/stm32g4-v120/src/stm32g4xx_hal_tim_ex.c:1876:26
	ldr.w	r12, [lr, #8]
	movt	r3, #65487
	and.w	r3, r3, r12
	str.w	r3, [lr, #8]
	.loc	7 1877 26 is_stmt 1             @ ../src/driver/stm32g4-v120/src/stm32g4xx_hal_tim_ex.c:1877:26
	ldr.w	r3, [lr, #8]
	orrs	r1, r3
.Ltmp895:
	@DEBUG_VALUE: HAL_TIMEx_ConfigCommutEvent:InputTrigger <- [DW_OP_LLVM_entry_value 1] $r1
	str.w	r1, [lr, #8]
.Ltmp896:
.LBB28_19:
	@DEBUG_VALUE: HAL_TIMEx_ConfigCommutEvent:CommutationSource <- $r2
	@DEBUG_VALUE: HAL_TIMEx_ConfigCommutEvent:htim <- $r0
	.loc	7 1881 23                       @ ../src/driver/stm32g4-v120/src/stm32g4xx_hal_tim_ex.c:1881:23
	ldr.w	r1, [lr, #4]
	orr	r1, r1, #1
	str.w	r1, [lr, #4]
	.loc	7 1883 23                       @ ../src/driver/stm32g4-v120/src/stm32g4xx_hal_tim_ex.c:1883:23
	ldr.w	r1, [lr, #4]
	bic	r1, r1, #4
	str.w	r1, [lr, #4]
	.loc	7 1884 23                       @ ../src/driver/stm32g4-v120/src/stm32g4xx_hal_tim_ex.c:1884:23
	ldr.w	r1, [lr, #4]
	orrs	r1, r2
	str.w	r1, [lr, #4]
	.loc	7 1887 3                        @ ../src/driver/stm32g4-v120/src/stm32g4xx_hal_tim_ex.c:1887:3
	ldr.w	r1, [lr, #12]
	bic	r1, r1, #32
	str.w	r1, [lr, #12]
	.loc	7 1890 3                        @ ../src/driver/stm32g4-v120/src/stm32g4xx_hal_tim_ex.c:1890:3
	ldr.w	r1, [lr, #12]
	bic	r1, r1, #8192
	str.w	r1, [lr, #12]
	movs	r1, #0
.Ltmp897:
	.loc	7 1892 3                        @ ../src/driver/stm32g4-v120/src/stm32g4xx_hal_tim_ex.c:1892:3
	strb.w	r1, [r0, #60]
.Ltmp898:
.LBB28_20:
	@DEBUG_VALUE: HAL_TIMEx_ConfigCommutEvent:CommutationSource <- $r2
	@DEBUG_VALUE: HAL_TIMEx_ConfigCommutEvent:htim <- $r0
	.loc	7 1895 1                        @ ../src/driver/stm32g4-v120/src/stm32g4xx_hal_tim_ex.c:1895:1
	mov	r0, r1
.Ltmp899:
	@DEBUG_VALUE: HAL_TIMEx_ConfigCommutEvent:htim <- [DW_OP_LLVM_entry_value 1] $r0
	pop	{r7, pc}
.Ltmp900:
.LBB28_21:
	@DEBUG_VALUE: HAL_TIMEx_ConfigCommutEvent:CommutationSource <- $r2
	@DEBUG_VALUE: HAL_TIMEx_ConfigCommutEvent:InputTrigger <- $r1
	@DEBUG_VALUE: HAL_TIMEx_ConfigCommutEvent:htim <- $r0
	.loc	7 1881 9                        @ ../src/driver/stm32g4-v120/src/stm32g4xx_hal_tim_ex.c:1881:9
	ldr.w	lr, [r0]
	b	.LBB28_19
.Ltmp901:
.Lfunc_end28:
	.size	HAL_TIMEx_ConfigCommutEvent, .Lfunc_end28-HAL_TIMEx_ConfigCommutEvent
	.cfi_endproc
	.cantunwind
	.fnend
                                        @ -- End function
	.section	.text.HAL_TIMEx_ConfigCommutEvent_IT,"ax",%progbits
	.hidden	HAL_TIMEx_ConfigCommutEvent_IT  @ -- Begin function HAL_TIMEx_ConfigCommutEvent_IT
	.globl	HAL_TIMEx_ConfigCommutEvent_IT
	.p2align	1
	.type	HAL_TIMEx_ConfigCommutEvent_IT,%function
