	.text
	.syntax unified
	.eabi_attribute	67, "2.09"	@ Tag_conformance
	.cpu	cortex-m4
	.eabi_attribute	6, 13	@ Tag_CPU_arch
	.eabi_attribute	7, 77	@ Tag_CPU_arch_profile
	.eabi_attribute	8, 0	@ Tag_ARM_ISA_use
	.eabi_attribute	9, 2	@ Tag_THUMB_ISA_use
	.fpu	fpv4-sp-d16
	.eabi_attribute	27, 1	@ Tag_ABI_HardFP_use
	.eabi_attribute	36, 1	@ Tag_FP_HP_extension
	.eabi_attribute	34, 1	@ Tag_CPU_unaligned_access
	.eabi_attribute	17, 1	@ Tag_ABI_PCS_GOT_use
	.eabi_attribute	20, 2	@ Tag_ABI_FP_denormal
	.eabi_attribute	21, 0	@ Tag_ABI_FP_exceptions
	.eabi_attribute	23, 1	@ Tag_ABI_FP_number_model
	.eabi_attribute	24, 1	@ Tag_ABI_align_needed
	.eabi_attribute	25, 1	@ Tag_ABI_align_preserved
	.eabi_attribute	28, 1	@ Tag_ABI_VFP_args
	.eabi_attribute	38, 1	@ Tag_ABI_FP_16bit_format
	.eabi_attribute	18, 2	@ Tag_ABI_PCS_wchar_t
	.eabi_attribute	26, 1	@ Tag_ABI_enum_size
	.eabi_attribute	14, 0	@ Tag_ABI_PCS_R9_use
	.file	"stm32g4xx_hal_cortex.c"
	.file	1 "C:\\Users\\grodriguez\\Documents\\iit\\icub-firmware\\emBODY\\eBcode\\arch-arm\\libs\\lowlevel\\stm32hal\\proj" "../src/driver/stm32g4-v120/inc/stm32g474xx.h"
	.file	2 "C:\\" "Keil_v5\\ARM\\ARMCLANG\\Bin\\..\\include\\stdint.h"
	.file	3 "C:\\Users\\grodriguez\\Documents\\iit\\icub-firmware\\emBODY\\eBcode\\arch-arm\\libs\\lowlevel\\stm32hal\\proj" "../src/driver/stm32g4-v120/inc/core_cm4.h"
	.section	.text.HAL_NVIC_SetPriorityGrouping,"ax",%progbits
	.hidden	HAL_NVIC_SetPriorityGrouping    @ -- Begin function HAL_NVIC_SetPriorityGrouping
	.globl	HAL_NVIC_SetPriorityGrouping
	.p2align	1
	.type	HAL_NVIC_SetPriorityGrouping,%function
	.code	16                              @ @HAL_NVIC_SetPriorityGrouping
	.thumb_func
HAL_NVIC_SetPriorityGrouping:
.Lfunc_begin0:
	.file	4 "C:\\Users\\grodriguez\\Documents\\iit\\icub-firmware\\emBODY\\eBcode\\arch-arm\\libs\\lowlevel\\stm32hal\\proj" "../src/driver/stm32g4-v120/src/stm32g4xx_hal_cortex.c"
	.loc	4 165 0                         @ ../src/driver/stm32g4-v120/src/stm32g4xx_hal_cortex.c:165:0
	.fnstart
	.cfi_sections .debug_frame
	.cfi_startproc
@ %bb.0:
	@DEBUG_VALUE: HAL_NVIC_SetPriorityGrouping:PriorityGroup <- $r0
	movw	r1, #60684
	movt	r1, #57344
.Ltmp0:
	@DEBUG_VALUE: __NVIC_SetPriorityGrouping:PriorityGroupTmp <- [DW_OP_constu 7, DW_OP_and, DW_OP_stack_value] $r0
	@DEBUG_VALUE: __NVIC_SetPriorityGrouping:PriorityGroup <- $r0
	@DEBUG_VALUE: HAL_NVIC_SetPriorityGrouping:PriorityGroup <- $r0
	.loc	3 1653 22 prologue_end          @ ../src/driver/stm32g4-v120/inc/core_cm4.h:1653:22
	ldr	r2, [r1]
.Ltmp1:
	@DEBUG_VALUE: __NVIC_SetPriorityGrouping:reg_value <- $r2
	.loc	3 0 22 is_stmt 0                @ ../src/driver/stm32g4-v120/inc/core_cm4.h:0:22
	movw	r3, #63743
	.loc	3 1654 13 is_stmt 1             @ ../src/driver/stm32g4-v120/inc/core_cm4.h:1654:13
	ands	r2, r3
.Ltmp2:
	@DEBUG_VALUE: __NVIC_SetPriorityGrouping:reg_value <- $r2
	.loc	3 1656 62                       @ ../src/driver/stm32g4-v120/inc/core_cm4.h:1656:62
	bfi	r2, r0, #8, #3
.Ltmp3:
	orr	r0, r2, #67108864
.Ltmp4:
	@DEBUG_VALUE: HAL_NVIC_SetPriorityGrouping:PriorityGroup <- [DW_OP_LLVM_entry_value 1] $r0
	orr	r0, r0, #33161216
.Ltmp5:
	@DEBUG_VALUE: __NVIC_SetPriorityGrouping:reg_value <- $r0
	.loc	3 1658 14                       @ ../src/driver/stm32g4-v120/inc/core_cm4.h:1658:14
	str	r0, [r1]
.Ltmp6:
	.loc	4 171 1                         @ ../src/driver/stm32g4-v120/src/stm32g4xx_hal_cortex.c:171:1
	bx	lr
.Ltmp7:
.Lfunc_end0:
	.size	HAL_NVIC_SetPriorityGrouping, .Lfunc_end0-HAL_NVIC_SetPriorityGrouping
	.cfi_endproc
	.cantunwind
	.fnend
                                        @ -- End function
	.section	.text.HAL_NVIC_SetPriority,"ax",%progbits
	.hidden	HAL_NVIC_SetPriority            @ -- Begin function HAL_NVIC_SetPriority
	.globl	HAL_NVIC_SetPriority
	.p2align	1
	.type	HAL_NVIC_SetPriority,%function
	.code	16                              @ @HAL_NVIC_SetPriority
	.thumb_func
HAL_NVIC_SetPriority:
.Lfunc_begin1:
	.loc	4 187 0                         @ ../src/driver/stm32g4-v120/src/stm32g4xx_hal_cortex.c:187:0
	.fnstart
	.cfi_startproc
@ %bb.0:
	@DEBUG_VALUE: HAL_NVIC_SetPriority:IRQn <- $r0
	@DEBUG_VALUE: HAL_NVIC_SetPriority:PreemptPriority <- $r1
	@DEBUG_VALUE: HAL_NVIC_SetPriority:SubPriority <- $r2
	.save	{r4, lr}
	push	{r4, lr}
	.cfi_def_cfa_offset 8
	.cfi_offset lr, -4
	.cfi_offset r4, -8
	movw	r12, #60684
	movt	r12, #57344
	@DEBUG_VALUE: HAL_NVIC_SetPriority:SubPriority <- $r2
	@DEBUG_VALUE: HAL_NVIC_SetPriority:PreemptPriority <- $r1
.Ltmp8:
	.loc	3 1669 28 prologue_end          @ ../src/driver/stm32g4-v120/inc/core_cm4.h:1669:28
	ldr.w	r3, [r12]
	@DEBUG_VALUE: HAL_NVIC_SetPriority:IRQn <- $r0
	.loc	3 1669 60 is_stmt 0             @ ../src/driver/stm32g4-v120/inc/core_cm4.h:1669:60
	ubfx	lr, r3, #8, #3
.Ltmp9:
	@DEBUG_VALUE: NVIC_EncodePriority:SubPriority <- $r2
	@DEBUG_VALUE: NVIC_EncodePriority:PreemptPriority <- $r1
	@DEBUG_VALUE: NVIC_EncodePriority:PriorityGroupTmp <- $lr
	@DEBUG_VALUE: NVIC_EncodePriority:PriorityGroup <- $lr
	@DEBUG_VALUE: HAL_NVIC_SetPriority:prioritygroup <- $lr
	.loc	3 1862 31 is_stmt 1             @ ../src/driver/stm32g4-v120/inc/core_cm4.h:1862:31
	eor	r4, lr, #7
	.loc	3 1862 25 is_stmt 0             @ ../src/driver/stm32g4-v120/inc/core_cm4.h:1862:25
	cmp	r4, #4
	it	hs
	movhs	r4, #4
.Ltmp10:
	@DEBUG_VALUE: NVIC_EncodePriority:PreemptPriorityBits <- $r4
	.loc	3 1863 25 is_stmt 1             @ ../src/driver/stm32g4-v120/inc/core_cm4.h:1863:25
	subs.w	r3, lr, #3
	mov.w	lr, #-1
.Ltmp11:
	.loc	3 1866 74                       @ ../src/driver/stm32g4-v120/inc/core_cm4.h:1866:74
	lsl.w	r4, lr, r4
.Ltmp12:
	.loc	3 1863 25                       @ ../src/driver/stm32g4-v120/inc/core_cm4.h:1863:25
	it	lo
	movlo	r3, #0
.Ltmp13:
	@DEBUG_VALUE: NVIC_EncodePriority:SubPriorityBits <- $r3
	.loc	3 1866 30                       @ ../src/driver/stm32g4-v120/inc/core_cm4.h:1866:30
	bics	r1, r4
.Ltmp14:
	@DEBUG_VALUE: HAL_NVIC_SetPriority:PreemptPriority <- [DW_OP_LLVM_entry_value 1] $r1
	.loc	3 1866 82 is_stmt 0             @ ../src/driver/stm32g4-v120/inc/core_cm4.h:1866:82
	lsls	r1, r3
	.loc	3 1867 74 is_stmt 1             @ ../src/driver/stm32g4-v120/inc/core_cm4.h:1867:74
	lsl.w	r3, lr, r3
.Ltmp15:
	.loc	3 1867 30 is_stmt 0             @ ../src/driver/stm32g4-v120/inc/core_cm4.h:1867:30
	bics	r2, r3
.Ltmp16:
	@DEBUG_VALUE: HAL_NVIC_SetPriority:SubPriority <- [DW_OP_LLVM_entry_value 1] $r2
	.loc	3 1811 7 is_stmt 1              @ ../src/driver/stm32g4-v120/inc/core_cm4.h:1811:7
	and	r3, r0, #15
	subs	r3, #4
.Ltmp17:
	.loc	3 1866 102                      @ ../src/driver/stm32g4-v120/inc/core_cm4.h:1866:102
	orrs	r1, r2
.Ltmp18:
	@DEBUG_VALUE: __NVIC_SetPriority:IRQn <- $r0
	@DEBUG_VALUE: __NVIC_SetPriority:priority <- $r1
	.loc	3 1811 7                        @ ../src/driver/stm32g4-v120/inc/core_cm4.h:1811:7
	add	r3, r12
.Ltmp19:
	.loc	3 0 0 is_stmt 0                 @ ../src/driver/stm32g4-v120/inc/core_cm4.h:0:0
	lsls	r1, r1, #4
.Ltmp20:
	.loc	3 1811 7                        @ ../src/driver/stm32g4-v120/inc/core_cm4.h:1811:7
	adds	r3, #12
	add.w	r2, r0, #3758096384
	cmp.w	r0, #-1
	it	gt
	addgt.w	r3, r2, #58368
.Ltmp21:
	.loc	3 0 0                           @ ../src/driver/stm32g4-v120/inc/core_cm4.h:0:0
	strb	r1, [r3]
.Ltmp22:
	.loc	4 197 1 is_stmt 1               @ ../src/driver/stm32g4-v120/src/stm32g4xx_hal_cortex.c:197:1
	pop	{r4, pc}
.Ltmp23:
.Lfunc_end1:
	.size	HAL_NVIC_SetPriority, .Lfunc_end1-HAL_NVIC_SetPriority
	.cfi_endproc
	.cantunwind
	.fnend
                                        @ -- End function
	.section	.text.HAL_NVIC_EnableIRQ,"ax",%progbits
	.hidden	HAL_NVIC_EnableIRQ              @ -- Begin function HAL_NVIC_EnableIRQ
	.globl	HAL_NVIC_EnableIRQ
	.p2align	1
	.type	HAL_NVIC_EnableIRQ,%function
	.code	16                              @ @HAL_NVIC_EnableIRQ
	.thumb_func
HAL_NVIC_EnableIRQ:
.Lfunc_begin2:
	.loc	4 209 0                         @ ../src/driver/stm32g4-v120/src/stm32g4xx_hal_cortex.c:209:0
	.fnstart
	.cfi_startproc
@ %bb.0:
	@DEBUG_VALUE: HAL_NVIC_EnableIRQ:IRQn <- $r0
	@DEBUG_VALUE: HAL_NVIC_EnableIRQ:IRQn <- $r0
	@DEBUG_VALUE: __NVIC_EnableIRQ:IRQn <- $r0
	@DEBUG_VALUE: __NVIC_EnableIRQ:IRQn <- $r0
	.loc	3 1681 7 prologue_end           @ ../src/driver/stm32g4-v120/inc/core_cm4.h:1681:7
	cmp	r0, #0
	bmi	.LBB2_2
.Ltmp24:
@ %bb.1:
	@DEBUG_VALUE: __NVIC_EnableIRQ:IRQn <- $r0
	@DEBUG_VALUE: HAL_NVIC_EnableIRQ:IRQn <- $r0
	.loc	3 1684 81                       @ ../src/driver/stm32g4-v120/inc/core_cm4.h:1684:81
	and	r1, r0, #31
	movs	r2, #1
	.loc	3 1684 60 is_stmt 0             @ ../src/driver/stm32g4-v120/inc/core_cm4.h:1684:60
	lsl.w	r1, r2, r1
	movw	r2, #57600
	.loc	3 1684 34                       @ ../src/driver/stm32g4-v120/inc/core_cm4.h:1684:34
	lsrs	r0, r0, #5
.Ltmp25:
	@DEBUG_VALUE: HAL_NVIC_EnableIRQ:IRQn <- [DW_OP_LLVM_entry_value 1] $r0
	.loc	3 0 34                          @ ../src/driver/stm32g4-v120/inc/core_cm4.h:0:34
	movt	r2, #57344
	.loc	3 1683 5 is_stmt 1              @ ../src/driver/stm32g4-v120/inc/core_cm4.h:1683:5
	@APP
	@NO_APP
	.loc	3 1684 43                       @ ../src/driver/stm32g4-v120/inc/core_cm4.h:1684:43
	str.w	r1, [r2, r0, lsl #2]
	.loc	3 1685 5                        @ ../src/driver/stm32g4-v120/inc/core_cm4.h:1685:5
	@APP
	@NO_APP
.Ltmp26:
.LBB2_2:
	.loc	4 215 1                         @ ../src/driver/stm32g4-v120/src/stm32g4xx_hal_cortex.c:215:1
	bx	lr
.Ltmp27:
.Lfunc_end2:
	.size	HAL_NVIC_EnableIRQ, .Lfunc_end2-HAL_NVIC_EnableIRQ
	.cfi_endproc
	.cantunwind
	.fnend
                                        @ -- End function
	.section	.text.HAL_NVIC_DisableIRQ,"ax",%progbits
	.hidden	HAL_NVIC_DisableIRQ             @ -- Begin function HAL_NVIC_DisableIRQ
	.globl	HAL_NVIC_DisableIRQ
	.p2align	1
	.type	HAL_NVIC_DisableIRQ,%function
	.code	16                              @ @HAL_NVIC_DisableIRQ
	.thumb_func
HAL_NVIC_DisableIRQ:
.Lfunc_begin3:
	.loc	4 225 0                         @ ../src/driver/stm32g4-v120/src/stm32g4xx_hal_cortex.c:225:0
	.fnstart
	.cfi_startproc
@ %bb.0:
	@DEBUG_VALUE: HAL_NVIC_DisableIRQ:IRQn <- $r0
	@DEBUG_VALUE: HAL_NVIC_DisableIRQ:IRQn <- $r0
	@DEBUG_VALUE: __NVIC_DisableIRQ:IRQn <- $r0
	@DEBUG_VALUE: __NVIC_DisableIRQ:IRQn <- $r0
	.loc	3 1719 7 prologue_end           @ ../src/driver/stm32g4-v120/inc/core_cm4.h:1719:7
	cmp	r0, #0
	bmi	.LBB3_2
.Ltmp28:
@ %bb.1:
	@DEBUG_VALUE: __NVIC_DisableIRQ:IRQn <- $r0
	@DEBUG_VALUE: HAL_NVIC_DisableIRQ:IRQn <- $r0
	.loc	3 1721 81                       @ ../src/driver/stm32g4-v120/inc/core_cm4.h:1721:81
	and	r1, r0, #31
	movs	r2, #1
	.loc	3 1721 60 is_stmt 0             @ ../src/driver/stm32g4-v120/inc/core_cm4.h:1721:60
	lsl.w	r1, r2, r1
	movw	r2, #57728
	.loc	3 1721 34                       @ ../src/driver/stm32g4-v120/inc/core_cm4.h:1721:34
	lsrs	r0, r0, #5
.Ltmp29:
	@DEBUG_VALUE: HAL_NVIC_DisableIRQ:IRQn <- [DW_OP_LLVM_entry_value 1] $r0
	.loc	3 0 34                          @ ../src/driver/stm32g4-v120/inc/core_cm4.h:0:34
	movt	r2, #57344
	.loc	3 1721 43                       @ ../src/driver/stm32g4-v120/inc/core_cm4.h:1721:43
	str.w	r1, [r2, r0, lsl #2]
	.loc	3 1722 5 is_stmt 1              @ ../src/driver/stm32g4-v120/inc/core_cm4.h:1722:5
	dsb	sy
	.loc	3 1723 5                        @ ../src/driver/stm32g4-v120/inc/core_cm4.h:1723:5
	isb	sy
.Ltmp30:
.LBB3_2:
	.loc	4 231 1                         @ ../src/driver/stm32g4-v120/src/stm32g4xx_hal_cortex.c:231:1
	bx	lr
.Ltmp31:
.Lfunc_end3:
	.size	HAL_NVIC_DisableIRQ, .Lfunc_end3-HAL_NVIC_DisableIRQ
	.cfi_endproc
	.cantunwind
	.fnend
                                        @ -- End function
	.section	.text.HAL_NVIC_SystemReset,"ax",%progbits
	.hidden	HAL_NVIC_SystemReset            @ -- Begin function HAL_NVIC_SystemReset
	.globl	HAL_NVIC_SystemReset
	.p2align	1
	.type	HAL_NVIC_SystemReset,%function
	.code	16                              @ @HAL_NVIC_SystemReset
	.thumb_func
HAL_NVIC_SystemReset:
.Lfunc_begin4:
	.loc	4 238 0                         @ ../src/driver/stm32g4-v120/src/stm32g4xx_hal_cortex.c:238:0
	.fnstart
	.cfi_startproc
@ %bb.0:
	.loc	4 240 3 prologue_end            @ ../src/driver/stm32g4-v120/src/stm32g4xx_hal_cortex.c:240:3
	bl	__NVIC_SystemReset
.Ltmp32:
.Lfunc_end4:
	.size	HAL_NVIC_SystemReset, .Lfunc_end4-HAL_NVIC_SystemReset
	.cfi_endproc
	.cantunwind
	.fnend
                                        @ -- End function
	.section	.text.__NVIC_SystemReset,"ax",%progbits
	.p2align	1                               @ -- Begin function __NVIC_SystemReset
	.type	__NVIC_SystemReset,%function
	.code	16                              @ @__NVIC_SystemReset
	.thumb_func
__NVIC_SystemReset:
.Lfunc_begin5:
	.loc	3 1934 0                        @ ../src/driver/stm32g4-v120/inc/core_cm4.h:1934:0
	.fnstart
	.cfi_startproc
@ %bb.0:
	movw	r0, #60684
.Ltmp33:
	.loc	3 1935 3 prologue_end           @ ../src/driver/stm32g4-v120/inc/core_cm4.h:1935:3
	dsb	sy
	movt	r0, #57344
	.loc	3 1938 34                       @ ../src/driver/stm32g4-v120/inc/core_cm4.h:1938:34
	ldr	r1, [r0]
	movs	r2, #4
	.loc	3 1938 40 is_stmt 0             @ ../src/driver/stm32g4-v120/inc/core_cm4.h:1938:40
	and	r1, r1, #1792
	movt	r2, #1530
	.loc	3 1938 66                       @ ../src/driver/stm32g4-v120/inc/core_cm4.h:1938:66
	orrs	r1, r2
	.loc	3 1937 15 is_stmt 1             @ ../src/driver/stm32g4-v120/inc/core_cm4.h:1937:15
	str	r1, [r0]
	.loc	3 1940 3                        @ ../src/driver/stm32g4-v120/inc/core_cm4.h:1940:3
	dsb	sy
	.p2align	2
.LBB5_1:                                @ =>This Inner Loop Header: Depth=1
.Ltmp34:
	.loc	3 1944 5                        @ ../src/driver/stm32g4-v120/inc/core_cm4.h:1944:5
	nop
.Ltmp35:
	.loc	3 1942 3                        @ ../src/driver/stm32g4-v120/inc/core_cm4.h:1942:3
	b	.LBB5_1
.Ltmp36:
.Lfunc_end5:
	.size	__NVIC_SystemReset, .Lfunc_end5-__NVIC_SystemReset
	.cfi_endproc
	.cantunwind
	.fnend
                                        @ -- End function
	.section	.text.HAL_SYSTICK_Config,"ax",%progbits
	.hidden	HAL_SYSTICK_Config              @ -- Begin function HAL_SYSTICK_Config
	.globl	HAL_SYSTICK_Config
	.p2align	1
	.type	HAL_SYSTICK_Config,%function
	.code	16                              @ @HAL_SYSTICK_Config
	.thumb_func
HAL_SYSTICK_Config:
.Lfunc_begin6:
	.loc	4 251 0                         @ ../src/driver/stm32g4-v120/src/stm32g4xx_hal_cortex.c:251:0
	.fnstart
	.cfi_startproc
@ %bb.0:
	@DEBUG_VALUE: HAL_SYSTICK_Config:TicksNumb <- $r0
	@DEBUG_VALUE: HAL_SYSTICK_Config:TicksNumb <- $r0
	@DEBUG_VALUE: SysTick_Config:ticks <- $r0
	@DEBUG_VALUE: SysTick_Config:ticks <- $r0
	.loc	3 2019 14 prologue_end          @ ../src/driver/stm32g4-v120/inc/core_cm4.h:2019:14
	subs	r1, r0, #1
	movs	r0, #0
.Ltmp37:
	@DEBUG_VALUE: HAL_SYSTICK_Config:TicksNumb <- [DW_OP_LLVM_entry_value 1] $r0
	.loc	3 2019 7 is_stmt 0              @ ../src/driver/stm32g4-v120/inc/core_cm4.h:2019:7
	cmp.w	r0, r1, lsr #24
	itt	ne
	movne	r0, #1
.Ltmp38:
	.loc	4 252 4 is_stmt 1               @ ../src/driver/stm32g4-v120/src/stm32g4xx_hal_cortex.c:252:4
	bxne	lr
.Ltmp39:
.LBB6_1:
	@DEBUG_VALUE: HAL_SYSTICK_Config:TicksNumb <- [DW_OP_LLVM_entry_value 1] $r0
	.loc	4 0 4 is_stmt 0                 @ ../src/driver/stm32g4-v120/src/stm32g4xx_hal_cortex.c:0:4
	movw	r2, #57360
	movt	r2, #57344
.Ltmp40:
	.loc	3 2024 18 is_stmt 1             @ ../src/driver/stm32g4-v120/inc/core_cm4.h:2024:18
	str	r1, [r2, #4]
	movw	r1, #60707
	movt	r1, #57344
	movs	r3, #240
.Ltmp41:
	@DEBUG_VALUE: __NVIC_SetPriority:priority <- 15
	@DEBUG_VALUE: __NVIC_SetPriority:IRQn <- -1
	.loc	3 1817 46                       @ ../src/driver/stm32g4-v120/inc/core_cm4.h:1817:46
	strb	r3, [r1]
	movs	r1, #7
.Ltmp42:
	.loc	3 2026 18                       @ ../src/driver/stm32g4-v120/inc/core_cm4.h:2026:18
	str	r0, [r2, #8]
	.loc	3 2027 18                       @ ../src/driver/stm32g4-v120/inc/core_cm4.h:2027:18
	str	r1, [r2]
.Ltmp43:
	.loc	4 252 4                         @ ../src/driver/stm32g4-v120/src/stm32g4xx_hal_cortex.c:252:4
	bx	lr
.Ltmp44:
.Lfunc_end6:
	.size	HAL_SYSTICK_Config, .Lfunc_end6-HAL_SYSTICK_Config
	.cfi_endproc
	.cantunwind
	.fnend
                                        @ -- End function
	.section	.text.HAL_NVIC_GetPriorityGrouping,"ax",%progbits
	.hidden	HAL_NVIC_GetPriorityGrouping    @ -- Begin function HAL_NVIC_GetPriorityGrouping
	.globl	HAL_NVIC_GetPriorityGrouping
	.p2align	1
	.type	HAL_NVIC_GetPriorityGrouping,%function
	.code	16                              @ @HAL_NVIC_GetPriorityGrouping
	.thumb_func
HAL_NVIC_GetPriorityGrouping:
.Lfunc_begin7:
	.loc	4 279 0                         @ ../src/driver/stm32g4-v120/src/stm32g4xx_hal_cortex.c:279:0
	.fnstart
	.cfi_startproc
@ %bb.0:
	movw	r0, #60684
	movt	r0, #57344
.Ltmp45:
	.loc	3 1669 28 prologue_end          @ ../src/driver/stm32g4-v120/inc/core_cm4.h:1669:28
	ldr	r0, [r0]
	.loc	3 1669 60 is_stmt 0             @ ../src/driver/stm32g4-v120/inc/core_cm4.h:1669:60
	ubfx	r0, r0, #8, #3
.Ltmp46:
	.loc	4 281 3 is_stmt 1               @ ../src/driver/stm32g4-v120/src/stm32g4xx_hal_cortex.c:281:3
	bx	lr
.Ltmp47:
.Lfunc_end7:
	.size	HAL_NVIC_GetPriorityGrouping, .Lfunc_end7-HAL_NVIC_GetPriorityGrouping
	.cfi_endproc
	.cantunwind
	.fnend
                                        @ -- End function
	.section	.text.HAL_NVIC_GetPriority,"ax",%progbits
	.hidden	HAL_NVIC_GetPriority            @ -- Begin function HAL_NVIC_GetPriority
	.globl	HAL_NVIC_GetPriority
	.p2align	1
	.type	HAL_NVIC_GetPriority,%function
	.code	16                              @ @HAL_NVIC_GetPriority
	.thumb_func
HAL_NVIC_GetPriority:
.Lfunc_begin8:
	.loc	4 306 0                         @ ../src/driver/stm32g4-v120/src/stm32g4xx_hal_cortex.c:306:0
	.fnstart
	.cfi_startproc
@ %bb.0:
	@DEBUG_VALUE: HAL_NVIC_GetPriority:IRQn <- $r0
	@DEBUG_VALUE: HAL_NVIC_GetPriority:IRQn <- $r0
	@DEBUG_VALUE: HAL_NVIC_GetPriority:PriorityGroup <- $r1
	@DEBUG_VALUE: HAL_NVIC_GetPriority:pPreemptPriority <- $r2
	@DEBUG_VALUE: HAL_NVIC_GetPriority:pPreemptPriority <- $r2
	@DEBUG_VALUE: HAL_NVIC_GetPriority:pSubPriority <- $r3
	@DEBUG_VALUE: HAL_NVIC_GetPriority:pSubPriority <- $r3
	@DEBUG_VALUE: __NVIC_GetPriority:IRQn <- $r0
	@DEBUG_VALUE: __NVIC_GetPriority:IRQn <- $r0
	.save	{r4, lr}
	push	{r4, lr}
	.cfi_def_cfa_offset 8
	.cfi_offset lr, -4
	.cfi_offset r4, -8
	movw	r4, #60692
.Ltmp48:
	.loc	3 1834 7 prologue_end           @ ../src/driver/stm32g4-v120/inc/core_cm4.h:1834:7
	and	lr, r0, #15
	movt	r4, #57344
	add	r4, lr
	add.w	r12, r0, #3758096384
	cmp.w	r0, #-1
	it	gt
	addgt.w	r4, r12, #58368
.Ltmp49:
	.loc	3 1885 46                       @ ../src/driver/stm32g4-v120/inc/core_cm4.h:1885:46
	and	r1, r1, #7
.Ltmp50:
	@DEBUG_VALUE: HAL_NVIC_GetPriority:PriorityGroup <- [DW_OP_LLVM_entry_value 1] $r1
	@DEBUG_VALUE: NVIC_DecodePriority:PriorityGroupTmp <- $r1
	.loc	3 0 0 is_stmt 0                 @ ../src/driver/stm32g4-v120/inc/core_cm4.h:0:0
	ldrb	r0, [r4]
.Ltmp51:
	@DEBUG_VALUE: HAL_NVIC_GetPriority:IRQn <- [DW_OP_LLVM_entry_value 1] $r0
	@DEBUG_VALUE: HAL_NVIC_GetPriority:PriorityGroup <- $r1
	.loc	3 1889 31 is_stmt 1             @ ../src/driver/stm32g4-v120/inc/core_cm4.h:1889:31
	eor	r4, r1, #7
	.loc	3 1889 25 is_stmt 0             @ ../src/driver/stm32g4-v120/inc/core_cm4.h:1889:25
	cmp	r4, #4
	it	hs
	movhs	r4, #4
.Ltmp52:
	@DEBUG_VALUE: NVIC_DecodePriority:PreemptPriorityBits <- $r4
	.loc	3 1890 25 is_stmt 1             @ ../src/driver/stm32g4-v120/inc/core_cm4.h:1890:25
	subs	r1, #3
.Ltmp53:
	@DEBUG_VALUE: HAL_NVIC_GetPriority:PriorityGroup <- [DW_OP_LLVM_entry_value 1] $r1
	.loc	3 0 0 is_stmt 0                 @ ../src/driver/stm32g4-v120/inc/core_cm4.h:0:0
	lsr.w	r12, r0, #4
.Ltmp54:
	@DEBUG_VALUE: NVIC_DecodePriority:Priority <- $r12
	@DEBUG_VALUE: NVIC_DecodePriority:pSubPriority <- $r3
	@DEBUG_VALUE: NVIC_DecodePriority:pPreemptPriority <- $r2
	@DEBUG_VALUE: NVIC_DecodePriority:PriorityGroup <- $r1
	.loc	3 1890 25                       @ ../src/driver/stm32g4-v120/inc/core_cm4.h:1890:25
	it	lo
	movlo	r1, #0
.Ltmp55:
	@DEBUG_VALUE: NVIC_DecodePriority:SubPriorityBits <- $r1
	.loc	3 0 25                          @ ../src/driver/stm32g4-v120/inc/core_cm4.h:0:25
	mov.w	lr, #-1
	.loc	3 1892 33 is_stmt 1             @ ../src/driver/stm32g4-v120/inc/core_cm4.h:1892:33
	lsr.w	r12, r12, r1
.Ltmp56:
	.loc	3 1893 97                       @ ../src/driver/stm32g4-v120/inc/core_cm4.h:1893:97
	lsl.w	r1, lr, r1
.Ltmp57:
	.loc	3 1892 97                       @ ../src/driver/stm32g4-v120/inc/core_cm4.h:1892:97
	lsl.w	r4, lr, r4
.Ltmp58:
	.loc	3 1893 97                       @ ../src/driver/stm32g4-v120/inc/core_cm4.h:1893:97
	mvns	r1, r1
	.loc	3 1892 53                       @ ../src/driver/stm32g4-v120/inc/core_cm4.h:1892:53
	bic.w	r4, r12, r4
	.loc	3 1893 53                       @ ../src/driver/stm32g4-v120/inc/core_cm4.h:1893:53
	and.w	r0, r1, r0, lsr #4
	.loc	3 1892 21                       @ ../src/driver/stm32g4-v120/inc/core_cm4.h:1892:21
	str	r4, [r2]
	.loc	3 1893 21                       @ ../src/driver/stm32g4-v120/inc/core_cm4.h:1893:21
	str	r0, [r3]
.Ltmp59:
	.loc	4 311 1                         @ ../src/driver/stm32g4-v120/src/stm32g4xx_hal_cortex.c:311:1
	pop	{r4, pc}
.Ltmp60:
.Lfunc_end8:
	.size	HAL_NVIC_GetPriority, .Lfunc_end8-HAL_NVIC_GetPriority
	.cfi_endproc
	.cantunwind
	.fnend
                                        @ -- End function
	.section	.text.HAL_NVIC_SetPendingIRQ,"ax",%progbits
	.hidden	HAL_NVIC_SetPendingIRQ          @ -- Begin function HAL_NVIC_SetPendingIRQ
	.globl	HAL_NVIC_SetPendingIRQ
	.p2align	1
	.type	HAL_NVIC_SetPendingIRQ,%function
	.code	16                              @ @HAL_NVIC_SetPendingIRQ
	.thumb_func
HAL_NVIC_SetPendingIRQ:
.Lfunc_begin9:
	.loc	4 321 0                         @ ../src/driver/stm32g4-v120/src/stm32g4xx_hal_cortex.c:321:0
	.fnstart
	.cfi_startproc
@ %bb.0:
	@DEBUG_VALUE: HAL_NVIC_SetPendingIRQ:IRQn <- $r0
	@DEBUG_VALUE: HAL_NVIC_SetPendingIRQ:IRQn <- $r0
	@DEBUG_VALUE: __NVIC_SetPendingIRQ:IRQn <- $r0
	@DEBUG_VALUE: __NVIC_SetPendingIRQ:IRQn <- $r0
	.loc	3 1757 7 prologue_end           @ ../src/driver/stm32g4-v120/inc/core_cm4.h:1757:7
	cmp	r0, #0
	bmi	.LBB9_2
.Ltmp61:
@ %bb.1:
	@DEBUG_VALUE: __NVIC_SetPendingIRQ:IRQn <- $r0
	@DEBUG_VALUE: HAL_NVIC_SetPendingIRQ:IRQn <- $r0
	.loc	3 1759 81                       @ ../src/driver/stm32g4-v120/inc/core_cm4.h:1759:81
	and	r1, r0, #31
	movs	r2, #1
	.loc	3 1759 60 is_stmt 0             @ ../src/driver/stm32g4-v120/inc/core_cm4.h:1759:60
	lsl.w	r1, r2, r1
	movw	r2, #57856
	.loc	3 1759 34                       @ ../src/driver/stm32g4-v120/inc/core_cm4.h:1759:34
	lsrs	r0, r0, #5
.Ltmp62:
	@DEBUG_VALUE: HAL_NVIC_SetPendingIRQ:IRQn <- [DW_OP_LLVM_entry_value 1] $r0
	.loc	3 0 34                          @ ../src/driver/stm32g4-v120/inc/core_cm4.h:0:34
	movt	r2, #57344
	.loc	3 1759 43                       @ ../src/driver/stm32g4-v120/inc/core_cm4.h:1759:43
	str.w	r1, [r2, r0, lsl #2]
.Ltmp63:
.LBB9_2:
	.loc	4 327 1 is_stmt 1               @ ../src/driver/stm32g4-v120/src/stm32g4xx_hal_cortex.c:327:1
	bx	lr
.Ltmp64:
.Lfunc_end9:
	.size	HAL_NVIC_SetPendingIRQ, .Lfunc_end9-HAL_NVIC_SetPendingIRQ
	.cfi_endproc
	.cantunwind
	.fnend
                                        @ -- End function
	.section	.text.HAL_NVIC_GetPendingIRQ,"ax",%progbits
	.hidden	HAL_NVIC_GetPendingIRQ          @ -- Begin function HAL_NVIC_GetPendingIRQ
	.globl	HAL_NVIC_GetPendingIRQ
	.p2align	1
	.type	HAL_NVIC_GetPendingIRQ,%function
	.code	16                              @ @HAL_NVIC_GetPendingIRQ
	.thumb_func
HAL_NVIC_GetPendingIRQ:
.Lfunc_begin10:
	.loc	4 339 0                         @ ../src/driver/stm32g4-v120/src/stm32g4xx_hal_cortex.c:339:0
	.fnstart
	.cfi_startproc
@ %bb.0:
	@DEBUG_VALUE: HAL_NVIC_GetPendingIRQ:IRQn <- $r0
	@DEBUG_VALUE: HAL_NVIC_GetPendingIRQ:IRQn <- $r0
	@DEBUG_VALUE: __NVIC_GetPendingIRQ:IRQn <- $r0
	@DEBUG_VALUE: __NVIC_GetPendingIRQ:IRQn <- $r0
	.loc	3 1738 7 prologue_end           @ ../src/driver/stm32g4-v120/inc/core_cm4.h:1738:7
	cmp	r0, #0
	bmi	.LBB10_2
.Ltmp65:
@ %bb.1:
	@DEBUG_VALUE: __NVIC_GetPendingIRQ:IRQn <- $r0
	@DEBUG_VALUE: HAL_NVIC_GetPendingIRQ:IRQn <- $r0
	.loc	3 0 7 is_stmt 0                 @ ../src/driver/stm32g4-v120/inc/core_cm4.h:0:7
	movw	r2, #57856
.Ltmp66:
	.loc	3 1740 54 is_stmt 1             @ ../src/driver/stm32g4-v120/inc/core_cm4.h:1740:54
	lsrs	r1, r0, #5
	movt	r2, #57344
	.loc	3 1740 25 is_stmt 0             @ ../src/driver/stm32g4-v120/inc/core_cm4.h:1740:25
	ldr.w	r1, [r2, r1, lsl #2]
	.loc	3 1740 91                       @ ../src/driver/stm32g4-v120/inc/core_cm4.h:1740:91
	and	r0, r0, #31
.Ltmp67:
	@DEBUG_VALUE: HAL_NVIC_GetPendingIRQ:IRQn <- [DW_OP_LLVM_entry_value 1] $r0
	.loc	3 1740 103                      @ ../src/driver/stm32g4-v120/inc/core_cm4.h:1740:103
	lsr.w	r0, r1, r0
	and	r0, r0, #1
.Ltmp68:
	.loc	4 344 3 is_stmt 1               @ ../src/driver/stm32g4-v120/src/stm32g4xx_hal_cortex.c:344:3
	bx	lr
.Ltmp69:
.LBB10_2:
	@DEBUG_VALUE: HAL_NVIC_GetPendingIRQ:IRQn <- $r0
	.loc	4 0 3 is_stmt 0                 @ ../src/driver/stm32g4-v120/src/stm32g4xx_hal_cortex.c:0:3
	movs	r0, #0
.Ltmp70:
	@DEBUG_VALUE: HAL_NVIC_GetPendingIRQ:IRQn <- [DW_OP_LLVM_entry_value 1] $r0
	.loc	4 344 3                         @ ../src/driver/stm32g4-v120/src/stm32g4xx_hal_cortex.c:344:3
	bx	lr
.Ltmp71:
.Lfunc_end10:
	.size	HAL_NVIC_GetPendingIRQ, .Lfunc_end10-HAL_NVIC_GetPendingIRQ
	.cfi_endproc
	.cantunwind
	.fnend
                                        @ -- End function
	.section	.text.HAL_NVIC_ClearPendingIRQ,"ax",%progbits
	.hidden	HAL_NVIC_ClearPendingIRQ        @ -- Begin function HAL_NVIC_ClearPendingIRQ
	.globl	HAL_NVIC_ClearPendingIRQ
	.p2align	1
	.type	HAL_NVIC_ClearPendingIRQ,%function
	.code	16                              @ @HAL_NVIC_ClearPendingIRQ
	.thumb_func
HAL_NVIC_ClearPendingIRQ:
.Lfunc_begin11:
	.loc	4 355 0 is_stmt 1               @ ../src/driver/stm32g4-v120/src/stm32g4xx_hal_cortex.c:355:0
	.fnstart
	.cfi_startproc
@ %bb.0:
	@DEBUG_VALUE: HAL_NVIC_ClearPendingIRQ:IRQn <- $r0
	@DEBUG_VALUE: HAL_NVIC_ClearPendingIRQ:IRQn <- $r0
	@DEBUG_VALUE: __NVIC_ClearPendingIRQ:IRQn <- $r0
	@DEBUG_VALUE: __NVIC_ClearPendingIRQ:IRQn <- $r0
	.loc	3 1772 7 prologue_end           @ ../src/driver/stm32g4-v120/inc/core_cm4.h:1772:7
	cmp	r0, #0
	bmi	.LBB11_2
.Ltmp72:
@ %bb.1:
	@DEBUG_VALUE: __NVIC_ClearPendingIRQ:IRQn <- $r0
	@DEBUG_VALUE: HAL_NVIC_ClearPendingIRQ:IRQn <- $r0
	.loc	3 1774 81                       @ ../src/driver/stm32g4-v120/inc/core_cm4.h:1774:81
	and	r1, r0, #31
	movs	r2, #1
	.loc	3 1774 60 is_stmt 0             @ ../src/driver/stm32g4-v120/inc/core_cm4.h:1774:60
	lsl.w	r1, r2, r1
	movw	r2, #57984
	.loc	3 1774 34                       @ ../src/driver/stm32g4-v120/inc/core_cm4.h:1774:34
	lsrs	r0, r0, #5
.Ltmp73:
	@DEBUG_VALUE: HAL_NVIC_ClearPendingIRQ:IRQn <- [DW_OP_LLVM_entry_value 1] $r0
	.loc	3 0 34                          @ ../src/driver/stm32g4-v120/inc/core_cm4.h:0:34
	movt	r2, #57344
	.loc	3 1774 43                       @ ../src/driver/stm32g4-v120/inc/core_cm4.h:1774:43
	str.w	r1, [r2, r0, lsl #2]
.Ltmp74:
.LBB11_2:
	.loc	4 361 1 is_stmt 1               @ ../src/driver/stm32g4-v120/src/stm32g4xx_hal_cortex.c:361:1
	bx	lr
.Ltmp75:
.Lfunc_end11:
	.size	HAL_NVIC_ClearPendingIRQ, .Lfunc_end11-HAL_NVIC_ClearPendingIRQ
	.cfi_endproc
	.cantunwind
	.fnend
                                        @ -- End function
	.section	.text.HAL_NVIC_GetActive,"ax",%progbits
	.hidden	HAL_NVIC_GetActive              @ -- Begin function HAL_NVIC_GetActive
	.globl	HAL_NVIC_GetActive
	.p2align	1
	.type	HAL_NVIC_GetActive,%function
	.code	16                              @ @HAL_NVIC_GetActive
	.thumb_func
HAL_NVIC_GetActive:
.Lfunc_begin12:
	.loc	4 372 0                         @ ../src/driver/stm32g4-v120/src/stm32g4xx_hal_cortex.c:372:0
	.fnstart
	.cfi_startproc
@ %bb.0:
	@DEBUG_VALUE: HAL_NVIC_GetActive:IRQn <- $r0
	@DEBUG_VALUE: HAL_NVIC_GetActive:IRQn <- $r0
	@DEBUG_VALUE: __NVIC_GetActive:IRQn <- $r0
	@DEBUG_VALUE: __NVIC_GetActive:IRQn <- $r0
	.loc	3 1789 7 prologue_end           @ ../src/driver/stm32g4-v120/inc/core_cm4.h:1789:7
	cmp	r0, #0
	bmi	.LBB12_2
.Ltmp76:
@ %bb.1:
	@DEBUG_VALUE: __NVIC_GetActive:IRQn <- $r0
	@DEBUG_VALUE: HAL_NVIC_GetActive:IRQn <- $r0
	.loc	3 0 7 is_stmt 0                 @ ../src/driver/stm32g4-v120/inc/core_cm4.h:0:7
	movw	r2, #58112
.Ltmp77:
	.loc	3 1791 54 is_stmt 1             @ ../src/driver/stm32g4-v120/inc/core_cm4.h:1791:54
	lsrs	r1, r0, #5
	movt	r2, #57344
	.loc	3 1791 25 is_stmt 0             @ ../src/driver/stm32g4-v120/inc/core_cm4.h:1791:25
	ldr.w	r1, [r2, r1, lsl #2]
	.loc	3 1791 91                       @ ../src/driver/stm32g4-v120/inc/core_cm4.h:1791:91
	and	r0, r0, #31
.Ltmp78:
	@DEBUG_VALUE: HAL_NVIC_GetActive:IRQn <- [DW_OP_LLVM_entry_value 1] $r0
	.loc	3 1791 103                      @ ../src/driver/stm32g4-v120/inc/core_cm4.h:1791:103
	lsr.w	r0, r1, r0
	and	r0, r0, #1
.Ltmp79:
	.loc	4 374 3 is_stmt 1               @ ../src/driver/stm32g4-v120/src/stm32g4xx_hal_cortex.c:374:3
	bx	lr
.Ltmp80:
.LBB12_2:
	@DEBUG_VALUE: HAL_NVIC_GetActive:IRQn <- $r0
	.loc	4 0 3 is_stmt 0                 @ ../src/driver/stm32g4-v120/src/stm32g4xx_hal_cortex.c:0:3
	movs	r0, #0
.Ltmp81:
	@DEBUG_VALUE: HAL_NVIC_GetActive:IRQn <- [DW_OP_LLVM_entry_value 1] $r0
	.loc	4 374 3                         @ ../src/driver/stm32g4-v120/src/stm32g4xx_hal_cortex.c:374:3
	bx	lr
.Ltmp82:
.Lfunc_end12:
	.size	HAL_NVIC_GetActive, .Lfunc_end12-HAL_NVIC_GetActive
	.cfi_endproc
	.cantunwind
	.fnend
                                        @ -- End function
	.section	.text.HAL_SYSTICK_CLKSourceConfig,"ax",%progbits
	.hidden	HAL_SYSTICK_CLKSourceConfig     @ -- Begin function HAL_SYSTICK_CLKSourceConfig
	.globl	HAL_SYSTICK_CLKSourceConfig
	.p2align	1
	.type	HAL_SYSTICK_CLKSourceConfig,%function
	.code	16                              @ @HAL_SYSTICK_CLKSourceConfig
	.thumb_func
HAL_SYSTICK_CLKSourceConfig:
.Lfunc_begin13:
	.loc	4 386 0 is_stmt 1               @ ../src/driver/stm32g4-v120/src/stm32g4xx_hal_cortex.c:386:0
	.fnstart
	.cfi_startproc
@ %bb.0:
	@DEBUG_VALUE: HAL_SYSTICK_CLKSourceConfig:CLKSource <- $r0
	movw	r1, #57360
	movt	r1, #57344
.Ltmp83:
	.loc	4 0 0 prologue_end              @ ../src/driver/stm32g4-v120/src/stm32g4xx_hal_cortex.c:0:0
	ldr	r2, [r1]
.Ltmp84:
	@DEBUG_VALUE: HAL_SYSTICK_CLKSourceConfig:CLKSource <- $r0
	.loc	4 389 7                         @ ../src/driver/stm32g4-v120/src/stm32g4xx_hal_cortex.c:389:7
	cmp	r0, #4
	bic	r2, r2, #4
	it	eq
	addeq	r2, #4
.Ltmp85:
	.loc	4 0 0 is_stmt 0                 @ ../src/driver/stm32g4-v120/src/stm32g4xx_hal_cortex.c:0:0
	str	r2, [r1]
.Ltmp86:
	.loc	4 397 1 is_stmt 1               @ ../src/driver/stm32g4-v120/src/stm32g4xx_hal_cortex.c:397:1
	bx	lr
.Ltmp87:
.Lfunc_end13:
	.size	HAL_SYSTICK_CLKSourceConfig, .Lfunc_end13-HAL_SYSTICK_CLKSourceConfig
	.cfi_endproc
	.cantunwind
	.fnend
                                        @ -- End function
	.section	.text.HAL_SYSTICK_IRQHandler,"ax",%progbits
	.hidden	HAL_SYSTICK_IRQHandler          @ -- Begin function HAL_SYSTICK_IRQHandler
	.globl	HAL_SYSTICK_IRQHandler
	.p2align	1
	.type	HAL_SYSTICK_IRQHandler,%function
	.code	16                              @ @HAL_SYSTICK_IRQHandler
	.thumb_func
HAL_SYSTICK_IRQHandler:
.Lfunc_begin14:
	.loc	4 404 0                         @ ../src/driver/stm32g4-v120/src/stm32g4xx_hal_cortex.c:404:0
	.fnstart
	.cfi_startproc
@ %bb.0:
	.loc	4 405 3 prologue_end            @ ../src/driver/stm32g4-v120/src/stm32g4xx_hal_cortex.c:405:3
	b	HAL_SYSTICK_Callback
.Ltmp88:
.Lfunc_end14:
	.size	HAL_SYSTICK_IRQHandler, .Lfunc_end14-HAL_SYSTICK_IRQHandler
	.cfi_endproc
	.cantunwind
	.fnend
                                        @ -- End function
	.section	.text.HAL_SYSTICK_Callback,"ax",%progbits
	.hidden	HAL_SYSTICK_Callback            @ -- Begin function HAL_SYSTICK_Callback
	.weak	HAL_SYSTICK_Callback
	.p2align	1
	.type	HAL_SYSTICK_Callback,%function
	.code	16                              @ @HAL_SYSTICK_Callback
	.thumb_func
HAL_SYSTICK_Callback:
.Lfunc_begin15:
	.loc	4 413 0                         @ ../src/driver/stm32g4-v120/src/stm32g4xx_hal_cortex.c:413:0
	.fnstart
	.cfi_startproc
@ %bb.0:
	.loc	4 417 1 prologue_end            @ ../src/driver/stm32g4-v120/src/stm32g4xx_hal_cortex.c:417:1
	bx	lr
.Ltmp89:
.Lfunc_end15:
	.size	HAL_SYSTICK_Callback, .Lfunc_end15-HAL_SYSTICK_Callback
	.cfi_endproc
	.cantunwind
	.fnend
                                        @ -- End function
	.section	.text.HAL_MPU_Enable,"ax",%progbits
	.hidden	HAL_MPU_Enable                  @ -- Begin function HAL_MPU_Enable
	.globl	HAL_MPU_Enable
	.p2align	1
	.type	HAL_MPU_Enable,%function
	.code	16                              @ @HAL_MPU_Enable
	.thumb_func
HAL_MPU_Enable:
.Lfunc_begin16:
	.loc	4 432 0                         @ ../src/driver/stm32g4-v120/src/stm32g4xx_hal_cortex.c:432:0
	.fnstart
	.cfi_startproc
@ %bb.0:
	@DEBUG_VALUE: HAL_MPU_Enable:MPU_Control <- $r0
	@DEBUG_VALUE: HAL_MPU_Enable:MPU_Control <- $r0
	movw	r1, #60820
.Ltmp90:
	.loc	4 434 28 prologue_end           @ ../src/driver/stm32g4-v120/src/stm32g4xx_hal_cortex.c:434:28
	orr	r0, r0, #1
.Ltmp91:
	@DEBUG_VALUE: HAL_MPU_Enable:MPU_Control <- [DW_OP_LLVM_entry_value 1] $r0
	.loc	4 0 28 is_stmt 0                @ ../src/driver/stm32g4-v120/src/stm32g4xx_hal_cortex.c:0:28
	movt	r1, #57344
	.loc	4 434 13                        @ ../src/driver/stm32g4-v120/src/stm32g4xx_hal_cortex.c:434:13
	str	r0, [r1]
	.loc	4 437 3 is_stmt 1               @ ../src/driver/stm32g4-v120/src/stm32g4xx_hal_cortex.c:437:3
	dsb	sy
	.loc	4 438 3                         @ ../src/driver/stm32g4-v120/src/stm32g4xx_hal_cortex.c:438:3
	isb	sy
	.loc	4 439 1                         @ ../src/driver/stm32g4-v120/src/stm32g4xx_hal_cortex.c:439:1
	bx	lr
.Ltmp92:
.Lfunc_end16:
	.size	HAL_MPU_Enable, .Lfunc_end16-HAL_MPU_Enable
	.cfi_endproc
	.cantunwind
	.fnend
                                        @ -- End function
	.section	.text.HAL_MPU_Disable,"ax",%progbits
	.hidden	HAL_MPU_Disable                 @ -- Begin function HAL_MPU_Disable
	.globl	HAL_MPU_Disable
	.p2align	1
	.type	HAL_MPU_Disable,%function
	.code	16                              @ @HAL_MPU_Disable
	.thumb_func
HAL_MPU_Disable:
.Lfunc_begin17:
	.loc	4 447 0                         @ ../src/driver/stm32g4-v120/src/stm32g4xx_hal_cortex.c:447:0
	.fnstart
	.cfi_startproc
@ %bb.0:
	movw	r0, #60820
	movt	r0, #57344
	movs	r1, #0
.Ltmp93:
	.loc	4 449 3 prologue_end            @ ../src/driver/stm32g4-v120/src/stm32g4xx_hal_cortex.c:449:3
	dmb	sy
	.loc	4 452 14                        @ ../src/driver/stm32g4-v120/src/stm32g4xx_hal_cortex.c:452:14
	str	r1, [r0]
	.loc	4 453 1                         @ ../src/driver/stm32g4-v120/src/stm32g4xx_hal_cortex.c:453:1
	bx	lr
.Ltmp94:
.Lfunc_end17:
	.size	HAL_MPU_Disable, .Lfunc_end17-HAL_MPU_Disable
	.cfi_endproc
	.cantunwind
	.fnend
                                        @ -- End function
	.section	.text.HAL_MPU_ConfigRegion,"ax",%progbits
	.hidden	HAL_MPU_ConfigRegion            @ -- Begin function HAL_MPU_ConfigRegion
	.globl	HAL_MPU_ConfigRegion
	.p2align	1
	.type	HAL_MPU_ConfigRegion,%function
	.code	16                              @ @HAL_MPU_ConfigRegion
	.thumb_func
HAL_MPU_ConfigRegion:
.Lfunc_begin18:
	.loc	4 463 0                         @ ../src/driver/stm32g4-v120/src/stm32g4xx_hal_cortex.c:463:0
	.fnstart
	.cfi_startproc
@ %bb.0:
	@DEBUG_VALUE: HAL_MPU_ConfigRegion:MPU_Init <- $r0
	.save	{r4, r5, r6, r7, lr}
	push	{r4, r5, r6, r7, lr}
	.cfi_def_cfa_offset 20
	.cfi_offset lr, -4
	.cfi_offset r7, -8
	.cfi_offset r6, -12
	.cfi_offset r5, -16
	.cfi_offset r4, -20
.Ltmp95:
	.loc	4 471 18 prologue_end           @ ../src/driver/stm32g4-v120/src/stm32g4xx_hal_cortex.c:471:18
	ldrb	r2, [r0]
	movw	r12, #60824
.Ltmp96:
	.loc	4 469 24                        @ ../src/driver/stm32g4-v120/src/stm32g4xx_hal_cortex.c:469:24
	ldrb	r3, [r0, #1]
	movt	r12, #57344
	@DEBUG_VALUE: HAL_MPU_ConfigRegion:MPU_Init <- $r0
	.loc	4 469 12 is_stmt 0              @ ../src/driver/stm32g4-v120/src/stm32g4xx_hal_cortex.c:469:12
	str.w	r3, [r12]
	.loc	4 471 7 is_stmt 1               @ ../src/driver/stm32g4-v120/src/stm32g4xx_hal_cortex.c:471:7
	cbz	r2, .LBB18_2
.Ltmp97:
@ %bb.1:
	@DEBUG_VALUE: HAL_MPU_ConfigRegion:MPU_Init <- $r0
	.loc	4 483 27                        @ ../src/driver/stm32g4-v120/src/stm32g4xx_hal_cortex.c:483:27
	ldr	r3, [r0, #4]
	.loc	4 483 15 is_stmt 0              @ ../src/driver/stm32g4-v120/src/stm32g4xx_hal_cortex.c:483:15
	str.w	r3, [r12, #4]
	.loc	4 484 18 is_stmt 1              @ ../src/driver/stm32g4-v120/src/stm32g4xx_hal_cortex.c:484:18
	ldrb	r3, [r0, #12]
	.loc	4 485 18                        @ ../src/driver/stm32g4-v120/src/stm32g4xx_hal_cortex.c:485:18
	ldrb	r1, [r0, #11]
	.loc	4 486 38                        @ ../src/driver/stm32g4-v120/src/stm32g4xx_hal_cortex.c:486:38
	ldrb.w	lr, [r0, #10]
	.loc	4 484 79                        @ ../src/driver/stm32g4-v120/src/stm32g4xx_hal_cortex.c:484:79
	orr.w	r2, r2, r3, lsl #28
	.loc	4 487 38                        @ ../src/driver/stm32g4-v120/src/stm32g4xx_hal_cortex.c:487:38
	ldrb	r4, [r0, #13]
	.loc	4 485 79                        @ ../src/driver/stm32g4-v120/src/stm32g4xx_hal_cortex.c:485:79
	orr.w	r1, r2, r1, lsl #24
	.loc	4 488 38                        @ ../src/driver/stm32g4-v120/src/stm32g4xx_hal_cortex.c:488:38
	ldrb	r5, [r0, #14]
	.loc	4 486 79                        @ ../src/driver/stm32g4-v120/src/stm32g4xx_hal_cortex.c:486:79
	orr.w	r1, r1, lr, lsl #19
	.loc	4 489 38                        @ ../src/driver/stm32g4-v120/src/stm32g4xx_hal_cortex.c:489:38
	ldrb	r6, [r0, #15]
	.loc	4 487 79                        @ ../src/driver/stm32g4-v120/src/stm32g4xx_hal_cortex.c:487:79
	orr.w	r1, r1, r4, lsl #18
	.loc	4 490 38                        @ ../src/driver/stm32g4-v120/src/stm32g4xx_hal_cortex.c:490:38
	ldrb	r7, [r0, #9]
	.loc	4 488 79                        @ ../src/driver/stm32g4-v120/src/stm32g4xx_hal_cortex.c:488:79
	orr.w	r1, r1, r5, lsl #17
	.loc	4 491 38                        @ ../src/driver/stm32g4-v120/src/stm32g4xx_hal_cortex.c:491:38
	ldrb	r0, [r0, #8]
.Ltmp98:
	@DEBUG_VALUE: HAL_MPU_ConfigRegion:MPU_Init <- [DW_OP_LLVM_entry_value 1] $r0
	.loc	4 489 79                        @ ../src/driver/stm32g4-v120/src/stm32g4xx_hal_cortex.c:489:79
	orr.w	r1, r1, r6, lsl #16
	.loc	4 490 79                        @ ../src/driver/stm32g4-v120/src/stm32g4xx_hal_cortex.c:490:79
	orr.w	r1, r1, r7, lsl #8
	.loc	4 491 79                        @ ../src/driver/stm32g4-v120/src/stm32g4xx_hal_cortex.c:491:79
	orr.w	r0, r1, r0, lsl #1
	b	.LBB18_3
.Ltmp99:
.LBB18_2:
	@DEBUG_VALUE: HAL_MPU_ConfigRegion:MPU_Init <- $r0
	.loc	4 0 79 is_stmt 0                @ ../src/driver/stm32g4-v120/src/stm32g4xx_hal_cortex.c:0:79
	movs	r0, #0
.Ltmp100:
	@DEBUG_VALUE: HAL_MPU_ConfigRegion:MPU_Init <- [DW_OP_LLVM_entry_value 1] $r0
	.loc	4 496 15 is_stmt 1              @ ../src/driver/stm32g4-v120/src/stm32g4xx_hal_cortex.c:496:15
	str.w	r0, [r12, #4]
.Ltmp101:
.LBB18_3:
	@DEBUG_VALUE: HAL_MPU_ConfigRegion:MPU_Init <- [DW_OP_LLVM_entry_value 1] $r0
	.loc	4 0 0 is_stmt 0                 @ ../src/driver/stm32g4-v120/src/stm32g4xx_hal_cortex.c:0:0
	str.w	r0, [r12, #8]
.Ltmp102:
	.loc	4 499 1 is_stmt 1               @ ../src/driver/stm32g4-v120/src/stm32g4xx_hal_cortex.c:499:1
	pop	{r4, r5, r6, r7, pc}
.Ltmp103:
.Lfunc_end18:
	.size	HAL_MPU_ConfigRegion, .Lfunc_end18-HAL_MPU_ConfigRegion
	.cfi_endproc
	.cantunwind
	.fnend
                                        @ -- End function
	.file	5 "C:\\Users\\grodriguez\\Documents\\iit\\icub-firmware\\emBODY\\eBcode\\arch-arm\\libs\\lowlevel\\stm32hal\\proj" "../api\\../src/driver/stm32g4-v120/inc/stm32g4xx_hal_cortex.h"
	.section	".note.GNU-stack","",%progbits
	.eabi_attribute	30, 3	@ Tag_ABI_optimization_goals
	.ARM_attribute	16, 1	@ Tag_AV_eba