	.text
	.syntax unified
	.eabi_attribute	67, "2.09"	@ Tag_conformance
	.cpu	cortex-m4
	.eabi_attribute	6, 13	@ Tag_CPU_arch
	.eabi_attribute	7, 77	@ Tag_CPU_arch_profile
	.eabi_attribute	8, 0	@ Tag_ARM_ISA_use
	.eabi_attribute	9, 2	@ Tag_THUMB_ISA_use
	.fpu	fpv4-sp-d16
	.eabi_attribute	27, 1	@ Tag_ABI_HardFP_use
	.eabi_attribute	36, 1	@ Tag_FP_HP_extension
	.eabi_attribute	34, 1	@ Tag_CPU_unaligned_access
	.eabi_attribute	17, 1	@ Tag_ABI_PCS_GOT_use
	.eabi_attribute	20, 2	@ Tag_ABI_FP_denormal
	.eabi_attribute	21, 0	@ Tag_ABI_FP_exceptions
	.eabi_attribute	23, 1	@ Tag_ABI_FP_number_model
	.eabi_attribute	24, 1	@ Tag_ABI_align_needed
	.eabi_attribute	25, 1	@ Tag_ABI_align_preserved
	.eabi_attribute	28, 1	@ Tag_ABI_VFP_args
	.eabi_attribute	38, 1	@ Tag_ABI_FP_16bit_format
	.eabi_attribute	18, 2	@ Tag_ABI_PCS_wchar_t
	.eabi_attribute	26, 1	@ Tag_ABI_enum_size
	.eabi_attribute	14, 0	@ Tag_ABI_PCS_R9_use
	.file	"stm32g4xx_hal_rcc_ex.c"
	.file	1 "C:\\Users\\grodriguez\\Documents\\iit\\icub-firmware\\emBODY\\eBcode\\arch-arm\\libs\\lowlevel\\stm32hal\\proj" "../src/driver/stm32g4-v120/inc/stm32g4xx_hal_def.h"
	.file	2 "C:\\Users\\grodriguez\\Documents\\iit\\icub-firmware\\emBODY\\eBcode\\arch-arm\\libs\\lowlevel\\stm32hal\\proj" "../src/driver/stm32g4-v120/inc/stm32g4xx.h"
	.file	3 "C:\\" "Keil_v5\\ARM\\ARMCLANG\\Bin\\..\\include\\stdint.h"
	.file	4 "C:\\Users\\grodriguez\\Documents\\iit\\icub-firmware\\emBODY\\eBcode\\arch-arm\\libs\\lowlevel\\stm32hal\\proj" "../src/driver/stm32g4-v120/inc/stm32g474xx.h"
	.section	.text.HAL_RCCEx_PeriphCLKConfig,"ax",%progbits
	.hidden	HAL_RCCEx_PeriphCLKConfig       @ -- Begin function HAL_RCCEx_PeriphCLKConfig
	.globl	HAL_RCCEx_PeriphCLKConfig
	.p2align	1
	.type	HAL_RCCEx_PeriphCLKConfig,%function
	.code	16                              @ @HAL_RCCEx_PeriphCLKConfig
	.thumb_func
HAL_RCCEx_PeriphCLKConfig:
.Lfunc_begin0:
	.file	5 "C:\\Users\\grodriguez\\Documents\\iit\\icub-firmware\\emBODY\\eBcode\\arch-arm\\libs\\lowlevel\\stm32hal\\proj" "../src/driver/stm32g4-v120/src/stm32g4xx_hal_rcc_ex.c"
	.loc	5 126 0                         @ ../src/driver/stm32g4-v120/src/stm32g4xx_hal_rcc_ex.c:126:0
	.fnstart
	.cfi_sections .debug_frame
	.cfi_startproc
@ %bb.0:
	@DEBUG_VALUE: HAL_RCCEx_PeriphCLKConfig:PeriphClkInit <- $r0
	.save	{r4, r5, r6, r7, r8, lr}
	push.w	{r4, r5, r6, r7, r8, lr}
	.cfi_def_cfa_offset 24
	.cfi_offset lr, -4
	.cfi_offset r8, -8
	.cfi_offset r7, -12
	.cfi_offset r6, -16
	.cfi_offset r5, -20
	.cfi_offset r4, -24
	.pad	#8
	sub	sp, #8
	.cfi_def_cfa_offset 32
	mov	r4, r0
.Ltmp0:
	@DEBUG_VALUE: HAL_RCCEx_PeriphCLKConfig:PeriphClkInit <- $r4
	.loc	5 136 6 prologue_end            @ ../src/driver/stm32g4-v120/src/stm32g4xx_hal_rcc_ex.c:136:6
	ldrb	r0, [r0, #2]
	movw	r6, #4108
	lsls	r0, r0, #28
	movt	r6, #16386
.Ltmp1:
	@DEBUG_VALUE: HAL_RCCEx_PeriphCLKConfig:status <- 0
	@DEBUG_VALUE: HAL_RCCEx_PeriphCLKConfig:ret <- 0
	bmi	.LBB0_2
.Ltmp2:
@ %bb.1:
	@DEBUG_VALUE: HAL_RCCEx_PeriphCLKConfig:PeriphClkInit <- $r4
	@DEBUG_VALUE: HAL_RCCEx_PeriphCLKConfig:ret <- 0
	@DEBUG_VALUE: HAL_RCCEx_PeriphCLKConfig:status <- 0
	.loc	5 0 6 is_stmt 0                 @ ../src/driver/stm32g4-v120/src/stm32g4xx_hal_rcc_ex.c:0:6
	movs	r0, #0
	b	.LBB0_15
.Ltmp3:
.LBB0_2:
	@DEBUG_VALUE: HAL_RCCEx_PeriphCLKConfig:PeriphClkInit <- $r4
	@DEBUG_VALUE: HAL_RCCEx_PeriphCLKConfig:ret <- 0
	@DEBUG_VALUE: HAL_RCCEx_PeriphCLKConfig:status <- 0
	@DEBUG_VALUE: pwrclkchanged <- 0
	.loc	5 144 8 is_stmt 1               @ ../src/driver/stm32g4-v120/src/stm32g4xx_hal_rcc_ex.c:144:8
	ldr	r0, [r6, #76]
	ands	r8, r0, #268435456
.Ltmp4:
	.loc	5 144 8 is_stmt 0               @ ../src/driver/stm32g4-v120/src/stm32g4xx_hal_rcc_ex.c:144:8
	bne	.LBB0_4
.Ltmp5:
@ %bb.3:
	@DEBUG_VALUE: HAL_RCCEx_PeriphCLKConfig:PeriphClkInit <- $r4
	@DEBUG_VALUE: pwrclkchanged <- 0
	@DEBUG_VALUE: HAL_RCCEx_PeriphCLKConfig:ret <- 0
	@DEBUG_VALUE: HAL_RCCEx_PeriphCLKConfig:status <- 0
	.loc	5 146 7 is_stmt 1               @ ../src/driver/stm32g4-v120/src/stm32g4xx_hal_rcc_ex.c:146:7
	ldr	r0, [r6, #76]
	orr	r0, r0, #268435456
	str	r0, [r6, #76]
	ldr	r0, [r6, #76]
	and	r0, r0, #268435456
	str	r0, [sp, #4]
	ldr	r0, [sp, #4]
.Ltmp6:
	@DEBUG_VALUE: pwrclkchanged <- 1
.LBB0_4:
	@DEBUG_VALUE: HAL_RCCEx_PeriphCLKConfig:PeriphClkInit <- $r4
	@DEBUG_VALUE: HAL_RCCEx_PeriphCLKConfig:ret <- 0
	@DEBUG_VALUE: HAL_RCCEx_PeriphCLKConfig:status <- 0
	.loc	5 0 7 is_stmt 0                 @ ../src/driver/stm32g4-v120/src/stm32g4xx_hal_rcc_ex.c:0:7
	movw	r7, #28672
	movt	r7, #16384
.Ltmp7:
	@DEBUG_VALUE: pwrclkchanged <- undef
	.loc	5 151 5 is_stmt 1               @ ../src/driver/stm32g4-v120/src/stm32g4xx_hal_rcc_ex.c:151:5
	ldr	r0, [r7]
	orr	r0, r0, #256
	str	r0, [r7]
	.loc	5 154 17                        @ ../src/driver/stm32g4-v120/src/stm32g4xx_hal_rcc_ex.c:154:17
	bl	HAL_GetTick
.Ltmp8:
	mov	r5, r0
.Ltmp9:
	@DEBUG_VALUE: HAL_RCCEx_PeriphCLKConfig:tickstart <- $r5
	.p2align	2
.LBB0_5:                                @ =>This Inner Loop Header: Depth=1
	@DEBUG_VALUE: HAL_RCCEx_PeriphCLKConfig:tickstart <- $r5
	@DEBUG_VALUE: HAL_RCCEx_PeriphCLKConfig:PeriphClkInit <- $r4
	@DEBUG_VALUE: HAL_RCCEx_PeriphCLKConfig:ret <- 0
	@DEBUG_VALUE: HAL_RCCEx_PeriphCLKConfig:status <- 0
	.loc	5 156 17                        @ ../src/driver/stm32g4-v120/src/stm32g4xx_hal_rcc_ex.c:156:17
	ldr	r0, [r7]
	.loc	5 156 5 is_stmt 0               @ ../src/driver/stm32g4-v120/src/stm32g4xx_hal_rcc_ex.c:156:5
	lsls	r0, r0, #23
	bmi	.LBB0_8
.Ltmp10:
@ %bb.6:                                @   in Loop: Header=BB0_5 Depth=1
	@DEBUG_VALUE: HAL_RCCEx_PeriphCLKConfig:tickstart <- $r5
	@DEBUG_VALUE: HAL_RCCEx_PeriphCLKConfig:PeriphClkInit <- $r4
	@DEBUG_VALUE: HAL_RCCEx_PeriphCLKConfig:ret <- 0
	@DEBUG_VALUE: HAL_RCCEx_PeriphCLKConfig:status <- 0
	.loc	5 158 11 is_stmt 1              @ ../src/driver/stm32g4-v120/src/stm32g4xx_hal_rcc_ex.c:158:11
	bl	HAL_GetTick
.Ltmp11:
	.loc	5 158 25 is_stmt 0              @ ../src/driver/stm32g4-v120/src/stm32g4xx_hal_rcc_ex.c:158:25
	subs	r0, r0, r5
.Ltmp12:
	.loc	5 158 10                        @ ../src/driver/stm32g4-v120/src/stm32g4xx_hal_rcc_ex.c:158:10
	cmp	r0, #2
	bls	.LBB0_5
.Ltmp13:
.LBB0_7:
	@DEBUG_VALUE: HAL_RCCEx_PeriphCLKConfig:tickstart <- $r5
	@DEBUG_VALUE: HAL_RCCEx_PeriphCLKConfig:PeriphClkInit <- $r4
	@DEBUG_VALUE: HAL_RCCEx_PeriphCLKConfig:status <- 0
	.loc	5 0 10                          @ ../src/driver/stm32g4-v120/src/stm32g4xx_hal_rcc_ex.c:0:10
	movs	r0, #3
	b	.LBB0_13
.Ltmp14:
.LBB0_8:
	@DEBUG_VALUE: HAL_RCCEx_PeriphCLKConfig:tickstart <- $r5
	@DEBUG_VALUE: HAL_RCCEx_PeriphCLKConfig:PeriphClkInit <- $r4
	@DEBUG_VALUE: HAL_RCCEx_PeriphCLKConfig:ret <- 0
	@DEBUG_VALUE: HAL_RCCEx_PeriphCLKConfig:status <- 0
	@DEBUG_VALUE: HAL_RCCEx_PeriphCLKConfig:ret <- undef
	.loc	5 168 21 is_stmt 1              @ ../src/driver/stm32g4-v120/src/stm32g4xx_hal_rcc_ex.c:168:21
	ldr.w	r0, [r6, #132]
	ands	r0, r0, #768
.Ltmp15:
	@DEBUG_VALUE: HAL_RCCEx_PeriphCLKConfig:tmpregister <- $r0
	.loc	5 170 49                        @ ../src/driver/stm32g4-v120/src/stm32g4xx_hal_rcc_ex.c:170:49
	beq	.LBB0_12
.Ltmp16:
@ %bb.9:
	@DEBUG_VALUE: HAL_RCCEx_PeriphCLKConfig:tickstart <- $r5
	@DEBUG_VALUE: HAL_RCCEx_PeriphCLKConfig:PeriphClkInit <- $r4
	@DEBUG_VALUE: HAL_RCCEx_PeriphCLKConfig:tmpregister <- $r0
	@DEBUG_VALUE: HAL_RCCEx_PeriphCLKConfig:status <- 0
	.loc	5 170 83 is_stmt 0              @ ../src/driver/stm32g4-v120/src/stm32g4xx_hal_rcc_ex.c:170:83
	ldr	r1, [r4, #80]
.Ltmp17:
	.loc	5 170 10                        @ ../src/driver/stm32g4-v120/src/stm32g4xx_hal_rcc_ex.c:170:10
	cmp	r0, r1
	beq	.LBB0_11
.Ltmp18:
@ %bb.10:
	@DEBUG_VALUE: HAL_RCCEx_PeriphCLKConfig:tickstart <- $r5
	@DEBUG_VALUE: HAL_RCCEx_PeriphCLKConfig:PeriphClkInit <- $r4
	@DEBUG_VALUE: HAL_RCCEx_PeriphCLKConfig:tmpregister <- $r0
	@DEBUG_VALUE: HAL_RCCEx_PeriphCLKConfig:status <- 0
	.loc	5 173 23 is_stmt 1              @ ../src/driver/stm32g4-v120/src/stm32g4xx_hal_rcc_ex.c:173:23
	ldr.w	r0, [r6, #132]
.Ltmp19:
	.loc	5 175 9                         @ ../src/driver/stm32g4-v120/src/stm32g4xx_hal_rcc_ex.c:175:9
	ldr.w	r1, [r6, #132]
	.loc	5 173 23                        @ ../src/driver/stm32g4-v120/src/stm32g4xx_hal_rcc_ex.c:173:23
	bic	r0, r0, #768
.Ltmp20:
	@DEBUG_VALUE: HAL_RCCEx_PeriphCLKConfig:tmpregister <- $r0
	.loc	5 175 9                         @ ../src/driver/stm32g4-v120/src/stm32g4xx_hal_rcc_ex.c:175:9
	orr	r1, r1, #65536
	str.w	r1, [r6, #132]
	.loc	5 176 9                         @ ../src/driver/stm32g4-v120/src/stm32g4xx_hal_rcc_ex.c:176:9
	ldr.w	r1, [r6, #132]
	bic	r1, r1, #65536
	str.w	r1, [r6, #132]
	.loc	5 178 19                        @ ../src/driver/stm32g4-v120/src/stm32g4xx_hal_rcc_ex.c:178:19
	str.w	r0, [r6, #132]
.Ltmp21:
.LBB0_11:
	@DEBUG_VALUE: HAL_RCCEx_PeriphCLKConfig:tickstart <- $r5
	@DEBUG_VALUE: HAL_RCCEx_PeriphCLKConfig:PeriphClkInit <- $r4
	@DEBUG_VALUE: HAL_RCCEx_PeriphCLKConfig:tmpregister <- $r0
	@DEBUG_VALUE: HAL_RCCEx_PeriphCLKConfig:status <- 0
	@DEBUG_VALUE: HAL_RCCEx_PeriphCLKConfig:tmpregister <- $r0
	.loc	5 182 11                        @ ../src/driver/stm32g4-v120/src/stm32g4xx_hal_rcc_ex.c:182:11
	lsls	r0, r0, #31
.Ltmp22:
	bne.w	.LBB0_62
.Ltmp23:
.LBB0_12:
	@DEBUG_VALUE: HAL_RCCEx_PeriphCLKConfig:tickstart <- $r5
	@DEBUG_VALUE: HAL_RCCEx_PeriphCLKConfig:PeriphClkInit <- $r4
	@DEBUG_VALUE: HAL_RCCEx_PeriphCLKConfig:status <- 0
	@DEBUG_VALUE: HAL_RCCEx_PeriphCLKConfig:ret <- undef
	.loc	5 201 9                         @ ../src/driver/stm32g4-v120/src/stm32g4xx_hal_rcc_ex.c:201:9
	ldr.w	r0, [r6, #132]
	ldr	r1, [r4, #80]
	bic	r0, r0, #768
	orrs	r0, r1
	str.w	r0, [r6, #132]
	movs	r0, #0
.Ltmp24:
.LBB0_13:
	@DEBUG_VALUE: HAL_RCCEx_PeriphCLKConfig:tickstart <- $r5
	@DEBUG_VALUE: HAL_RCCEx_PeriphCLKConfig:PeriphClkInit <- $r4
	@DEBUG_VALUE: HAL_RCCEx_PeriphCLKConfig:status <- 0
	@DEBUG_VALUE: HAL_RCCEx_PeriphCLKConfig:status <- $r0
	.loc	5 216 8                         @ ../src/driver/stm32g4-v120/src/stm32g4xx_hal_rcc_ex.c:216:8
	cmp.w	r8, #0
	bne	.LBB0_15
.Ltmp25:
@ %bb.14:
	@DEBUG_VALUE: HAL_RCCEx_PeriphCLKConfig:tickstart <- $r5
	@DEBUG_VALUE: HAL_RCCEx_PeriphCLKConfig:PeriphClkInit <- $r4
	@DEBUG_VALUE: HAL_RCCEx_PeriphCLKConfig:status <- $r0
	.loc	5 218 7                         @ ../src/driver/stm32g4-v120/src/stm32g4xx_hal_rcc_ex.c:218:7
	ldr	r1, [r6, #76]
	bic	r1, r1, #268435456
	str	r1, [r6, #76]
.Ltmp26:
.LBB0_15:
	@DEBUG_VALUE: HAL_RCCEx_PeriphCLKConfig:PeriphClkInit <- $r4
	@DEBUG_VALUE: HAL_RCCEx_PeriphCLKConfig:status <- $r0
	.loc	5 223 23                        @ ../src/driver/stm32g4-v120/src/stm32g4xx_hal_rcc_ex.c:223:23
	ldr	r1, [r4]
.Ltmp27:
	.loc	5 223 6 is_stmt 0               @ ../src/driver/stm32g4-v120/src/stm32g4xx_hal_rcc_ex.c:223:6
	lsls	r2, r1, #31
	beq	.LBB0_17
.Ltmp28:
@ %bb.16:
	@DEBUG_VALUE: HAL_RCCEx_PeriphCLKConfig:PeriphClkInit <- $r4
	@DEBUG_VALUE: HAL_RCCEx_PeriphCLKConfig:status <- $r0
	.loc	5 229 5 is_stmt 1               @ ../src/driver/stm32g4-v120/src/stm32g4xx_hal_rcc_ex.c:229:5
	ldr	r2, [r6, #124]
	ldr	r3, [r4, #4]
	bic	r2, r2, #3
	orrs	r2, r3
	str	r2, [r6, #124]
.Ltmp29:
.LBB0_17:
	@DEBUG_VALUE: HAL_RCCEx_PeriphCLKConfig:PeriphClkInit <- $r4
	@DEBUG_VALUE: HAL_RCCEx_PeriphCLKConfig:status <- $r0
	.loc	5 233 6                         @ ../src/driver/stm32g4-v120/src/stm32g4xx_hal_rcc_ex.c:233:6
	lsls	r2, r1, #30
	bpl	.LBB0_19
.Ltmp30:
@ %bb.18:
	@DEBUG_VALUE: HAL_RCCEx_PeriphCLKConfig:PeriphClkInit <- $r4
	@DEBUG_VALUE: HAL_RCCEx_PeriphCLKConfig:status <- $r0
	.loc	5 239 5                         @ ../src/driver/stm32g4-v120/src/stm32g4xx_hal_rcc_ex.c:239:5
	ldr	r2, [r6, #124]
	ldr	r3, [r4, #8]
	bic	r2, r2, #12
	orrs	r2, r3
	str	r2, [r6, #124]
.Ltmp31:
.LBB0_19:
	@DEBUG_VALUE: HAL_RCCEx_PeriphCLKConfig:PeriphClkInit <- $r4
	@DEBUG_VALUE: HAL_RCCEx_PeriphCLKConfig:status <- $r0
	.loc	5 243 6                         @ ../src/driver/stm32g4-v120/src/stm32g4xx_hal_rcc_ex.c:243:6
	lsls	r2, r1, #29
	bpl	.LBB0_21
.Ltmp32:
@ %bb.20:
	@DEBUG_VALUE: HAL_RCCEx_PeriphCLKConfig:PeriphClkInit <- $r4
	@DEBUG_VALUE: HAL_RCCEx_PeriphCLKConfig:status <- $r0
	.loc	5 249 5                         @ ../src/driver/stm32g4-v120/src/stm32g4xx_hal_rcc_ex.c:249:5
	ldr	r2, [r6, #124]
	ldr	r3, [r4, #12]
	bic	r2, r2, #48
	orrs	r2, r3
	str	r2, [r6, #124]
.Ltmp33:
.LBB0_21:
	@DEBUG_VALUE: HAL_RCCEx_PeriphCLKConfig:PeriphClkInit <- $r4
	@DEBUG_VALUE: HAL_RCCEx_PeriphCLKConfig:status <- $r0
	.loc	5 254 6                         @ ../src/driver/stm32g4-v120/src/stm32g4xx_hal_rcc_ex.c:254:6
	lsls	r2, r1, #28
	bpl	.LBB0_23
.Ltmp34:
@ %bb.22:
	@DEBUG_VALUE: HAL_RCCEx_PeriphCLKConfig:PeriphClkInit <- $r4
	@DEBUG_VALUE: HAL_RCCEx_PeriphCLKConfig:status <- $r0
	.loc	5 260 5                         @ ../src/driver/stm32g4-v120/src/stm32g4xx_hal_rcc_ex.c:260:5
	ldr	r2, [r6, #124]
	ldr	r3, [r4, #16]
	bic	r2, r2, #192
	orrs	r2, r3
	str	r2, [r6, #124]
.Ltmp35:
.LBB0_23:
	@DEBUG_VALUE: HAL_RCCEx_PeriphCLKConfig:PeriphClkInit <- $r4
	@DEBUG_VALUE: HAL_RCCEx_PeriphCLKConfig:status <- $r0
	.loc	5 267 6                         @ ../src/driver/stm32g4-v120/src/stm32g4xx_hal_rcc_ex.c:267:6
	lsls	r2, r1, #27
	bpl	.LBB0_25
.Ltmp36:
@ %bb.24:
	@DEBUG_VALUE: HAL_RCCEx_PeriphCLKConfig:PeriphClkInit <- $r4
	@DEBUG_VALUE: HAL_RCCEx_PeriphCLKConfig:status <- $r0
	.loc	5 273 5                         @ ../src/driver/stm32g4-v120/src/stm32g4xx_hal_rcc_ex.c:273:5
	ldr	r2, [r6, #124]
	ldr	r3, [r4, #20]
	bic	r2, r2, #768
	orrs	r2, r3
	str	r2, [r6, #124]
.Ltmp37:
.LBB0_25:
	@DEBUG_VALUE: HAL_RCCEx_PeriphCLKConfig:PeriphClkInit <- $r4
	@DEBUG_VALUE: HAL_RCCEx_PeriphCLKConfig:status <- $r0
	.loc	5 279 6                         @ ../src/driver/stm32g4-v120/src/stm32g4xx_hal_rcc_ex.c:279:6
	lsls	r2, r1, #26
	bpl	.LBB0_27
.Ltmp38:
@ %bb.26:
	@DEBUG_VALUE: HAL_RCCEx_PeriphCLKConfig:PeriphClkInit <- $r4
	@DEBUG_VALUE: HAL_RCCEx_PeriphCLKConfig:status <- $r0
	.loc	5 285 5                         @ ../src/driver/stm32g4-v120/src/stm32g4xx_hal_rcc_ex.c:285:5
	ldr	r2, [r6, #124]
	ldr	r3, [r4, #24]
	bic	r2, r2, #3072
	orrs	r2, r3
	str	r2, [r6, #124]
.Ltmp39:
.LBB0_27:
	@DEBUG_VALUE: HAL_RCCEx_PeriphCLKConfig:PeriphClkInit <- $r4
	@DEBUG_VALUE: HAL_RCCEx_PeriphCLKConfig:status <- $r0
	.loc	5 289 6                         @ ../src/driver/stm32g4-v120/src/stm32g4xx_hal_rcc_ex.c:289:6
	lsls	r2, r1, #25
	bpl	.LBB0_29
.Ltmp40:
@ %bb.28:
	@DEBUG_VALUE: HAL_RCCEx_PeriphCLKConfig:PeriphClkInit <- $r4
	@DEBUG_VALUE: HAL_RCCEx_PeriphCLKConfig:status <- $r0
	.loc	5 295 5                         @ ../src/driver/stm32g4-v120/src/stm32g4xx_hal_rcc_ex.c:295:5
	ldr	r2, [r6, #124]
	ldr	r3, [r4, #28]
	bic	r2, r2, #12288
	orrs	r2, r3
	str	r2, [r6, #124]
.Ltmp41:
.LBB0_29:
	@DEBUG_VALUE: HAL_RCCEx_PeriphCLKConfig:PeriphClkInit <- $r4
	@DEBUG_VALUE: HAL_RCCEx_PeriphCLKConfig:status <- $r0
	.loc	5 299 6                         @ ../src/driver/stm32g4-v120/src/stm32g4xx_hal_rcc_ex.c:299:6
	lsls	r2, r1, #24
	bpl	.LBB0_31
.Ltmp42:
@ %bb.30:
	@DEBUG_VALUE: HAL_RCCEx_PeriphCLKConfig:PeriphClkInit <- $r4
	@DEBUG_VALUE: HAL_RCCEx_PeriphCLKConfig:status <- $r0
	.loc	5 305 5                         @ ../src/driver/stm32g4-v120/src/stm32g4xx_hal_rcc_ex.c:305:5
	ldr	r2, [r6, #124]
	ldr	r3, [r4, #32]
	bic	r2, r2, #49152
	orrs	r2, r3
	str	r2, [r6, #124]
.Ltmp43:
.LBB0_31:
	@DEBUG_VALUE: HAL_RCCEx_PeriphCLKConfig:PeriphClkInit <- $r4
	@DEBUG_VALUE: HAL_RCCEx_PeriphCLKConfig:status <- $r0
	.loc	5 309 6                         @ ../src/driver/stm32g4-v120/src/stm32g4xx_hal_rcc_ex.c:309:6
	lsls	r2, r1, #23
	bpl	.LBB0_33
.Ltmp44:
@ %bb.32:
	@DEBUG_VALUE: HAL_RCCEx_PeriphCLKConfig:PeriphClkInit <- $r4
	@DEBUG_VALUE: HAL_RCCEx_PeriphCLKConfig:status <- $r0
	.loc	5 315 5                         @ ../src/driver/stm32g4-v120/src/stm32g4xx_hal_rcc_ex.c:315:5
	ldr	r2, [r6, #124]
	ldr	r3, [r4, #36]
	bic	r2, r2, #196608
	orrs	r2, r3
	str	r2, [r6, #124]
.Ltmp45:
.LBB0_33:
	@DEBUG_VALUE: HAL_RCCEx_PeriphCLKConfig:PeriphClkInit <- $r4
	@DEBUG_VALUE: HAL_RCCEx_PeriphCLKConfig:status <- $r0
	.loc	5 321 6                         @ ../src/driver/stm32g4-v120/src/stm32g4xx_hal_rcc_ex.c:321:6
	lsls	r2, r1, #14
	bpl	.LBB0_35
.Ltmp46:
@ %bb.34:
	@DEBUG_VALUE: HAL_RCCEx_PeriphCLKConfig:PeriphClkInit <- $r4
	@DEBUG_VALUE: HAL_RCCEx_PeriphCLKConfig:status <- $r0
	.loc	5 327 5                         @ ../src/driver/stm32g4-v120/src/stm32g4xx_hal_rcc_ex.c:327:5
	ldr.w	r2, [r6, #144]
	ldr	r3, [r4, #40]
	bic	r2, r2, #3
	orrs	r2, r3
	str.w	r2, [r6, #144]
.Ltmp47:
.LBB0_35:
	@DEBUG_VALUE: HAL_RCCEx_PeriphCLKConfig:PeriphClkInit <- $r4
	@DEBUG_VALUE: HAL_RCCEx_PeriphCLKConfig:status <- $r0
	.loc	5 333 6                         @ ../src/driver/stm32g4-v120/src/stm32g4xx_hal_rcc_ex.c:333:6
	lsls	r2, r1, #22
	bpl	.LBB0_37
.Ltmp48:
@ %bb.36:
	@DEBUG_VALUE: HAL_RCCEx_PeriphCLKConfig:PeriphClkInit <- $r4
	@DEBUG_VALUE: HAL_RCCEx_PeriphCLKConfig:status <- $r0
	.loc	5 339 5                         @ ../src/driver/stm32g4-v120/src/stm32g4xx_hal_rcc_ex.c:339:5
	ldr	r2, [r6, #124]
	ldr	r3, [r4, #44]
	bic	r2, r2, #786432
	orrs	r2, r3
	str	r2, [r6, #124]
.Ltmp49:
.LBB0_37:
	@DEBUG_VALUE: HAL_RCCEx_PeriphCLKConfig:PeriphClkInit <- $r4
	@DEBUG_VALUE: HAL_RCCEx_PeriphCLKConfig:status <- $r0
	.loc	5 343 6                         @ ../src/driver/stm32g4-v120/src/stm32g4xx_hal_rcc_ex.c:343:6
	lsls	r2, r1, #21
	bpl	.LBB0_40
.Ltmp50:
@ %bb.38:
	@DEBUG_VALUE: HAL_RCCEx_PeriphCLKConfig:PeriphClkInit <- $r4
	@DEBUG_VALUE: HAL_RCCEx_PeriphCLKConfig:status <- $r0
	.loc	5 349 5                         @ ../src/driver/stm32g4-v120/src/stm32g4xx_hal_rcc_ex.c:349:5
	ldr	r2, [r6, #124]
	ldr	r3, [r4, #48]
	bic	r2, r2, #3145728
	orrs	r2, r3
	.loc	5 351 8                         @ ../src/driver/stm32g4-v120/src/stm32g4xx_hal_rcc_ex.c:351:8
	cmp.w	r3, #1048576
	.loc	5 349 5                         @ ../src/driver/stm32g4-v120/src/stm32g4xx_hal_rcc_ex.c:349:5
	str	r2, [r6, #124]
	.loc	5 351 8                         @ ../src/driver/stm32g4-v120/src/stm32g4xx_hal_rcc_ex.c:351:8
	bne	.LBB0_40
.Ltmp51:
@ %bb.39:
	@DEBUG_VALUE: HAL_RCCEx_PeriphCLKConfig:PeriphClkInit <- $r4
	@DEBUG_VALUE: HAL_RCCEx_PeriphCLKConfig:status <- $r0
	.loc	5 354 7                         @ ../src/driver/stm32g4-v120/src/stm32g4xx_hal_rcc_ex.c:354:7
	ldr	r2, [r6]
	orr	r2, r2, #1048576
	str	r2, [r6]
.Ltmp52:
.LBB0_40:
	@DEBUG_VALUE: HAL_RCCEx_PeriphCLKConfig:PeriphClkInit <- $r4
	@DEBUG_VALUE: HAL_RCCEx_PeriphCLKConfig:status <- $r0
	.loc	5 359 6                         @ ../src/driver/stm32g4-v120/src/stm32g4xx_hal_rcc_ex.c:359:6
	lsls	r2, r1, #20
	bpl	.LBB0_43
.Ltmp53:
@ %bb.41:
	@DEBUG_VALUE: HAL_RCCEx_PeriphCLKConfig:PeriphClkInit <- $r4
	@DEBUG_VALUE: HAL_RCCEx_PeriphCLKConfig:status <- $r0
	.loc	5 365 5                         @ ../src/driver/stm32g4-v120/src/stm32g4xx_hal_rcc_ex.c:365:5
	ldr	r2, [r6, #124]
	ldr	r3, [r4, #52]
	bic	r2, r2, #12582912
	orrs	r2, r3
	.loc	5 367 8                         @ ../src/driver/stm32g4-v120/src/stm32g4xx_hal_rcc_ex.c:367:8
	cmp.w	r3, #4194304
	.loc	5 365 5                         @ ../src/driver/stm32g4-v120/src/stm32g4xx_hal_rcc_ex.c:365:5
	str	r2, [r6, #124]
	.loc	5 367 8                         @ ../src/driver/stm32g4-v120/src/stm32g4xx_hal_rcc_ex.c:367:8
	bne	.LBB0_43
.Ltmp54:
@ %bb.42:
	@DEBUG_VALUE: HAL_RCCEx_PeriphCLKConfig:PeriphClkInit <- $r4
	@DEBUG_VALUE: HAL_RCCEx_PeriphCLKConfig:status <- $r0
	.loc	5 370 7                         @ ../src/driver/stm32g4-v120/src/stm32g4xx_hal_rcc_ex.c:370:7
	ldr	r2, [r6]
	orr	r2, r2, #1048576
	str	r2, [r6]
.Ltmp55:
.LBB0_43:
	@DEBUG_VALUE: HAL_RCCEx_PeriphCLKConfig:PeriphClkInit <- $r4
	@DEBUG_VALUE: HAL_RCCEx_PeriphCLKConfig:status <- $r0
	.loc	5 376 6                         @ ../src/driver/stm32g4-v120/src/stm32g4xx_hal_rcc_ex.c:376:6
	lsls	r2, r1, #19
	bpl	.LBB0_46
.Ltmp56:
@ %bb.44:
	@DEBUG_VALUE: HAL_RCCEx_PeriphCLKConfig:PeriphClkInit <- $r4
	@DEBUG_VALUE: HAL_RCCEx_PeriphCLKConfig:status <- $r0
	.loc	5 382 5                         @ ../src/driver/stm32g4-v120/src/stm32g4xx_hal_rcc_ex.c:382:5
	ldr	r2, [r6, #124]
	ldr	r3, [r4, #56]
	bic	r2, r2, #50331648
	orrs	r2, r3
	.loc	5 384 8                         @ ../src/driver/stm32g4-v120/src/stm32g4xx_hal_rcc_ex.c:384:8
	cmp.w	r3, #16777216
	.loc	5 382 5                         @ ../src/driver/stm32g4-v120/src/stm32g4xx_hal_rcc_ex.c:382:5
	str	r2, [r6, #124]
	.loc	5 384 8                         @ ../src/driver/stm32g4-v120/src/stm32g4xx_hal_rcc_ex.c:384:8
	bne	.LBB0_46
.Ltmp57:
@ %bb.45:
	@DEBUG_VALUE: HAL_RCCEx_PeriphCLKConfig:PeriphClkInit <- $r4
	@DEBUG_VALUE: HAL_RCCEx_PeriphCLKConfig:status <- $r0
	.loc	5 387 7                         @ ../src/driver/stm32g4-v120/src/stm32g4xx_hal_rcc_ex.c:387:7
	ldr	r2, [r6]
	orr	r2, r2, #1048576
	str	r2, [r6]
.Ltmp58:
.LBB0_46:
	@DEBUG_VALUE: HAL_RCCEx_PeriphCLKConfig:PeriphClkInit <- $r4
	@DEBUG_VALUE: HAL_RCCEx_PeriphCLKConfig:status <- $r0
	.loc	5 395 6                         @ ../src/driver/stm32g4-v120/src/stm32g4xx_hal_rcc_ex.c:395:6
	lsls	r2, r1, #18
	bpl	.LBB0_49
.Ltmp59:
@ %bb.47:
	@DEBUG_VALUE: HAL_RCCEx_PeriphCLKConfig:PeriphClkInit <- $r4
	@DEBUG_VALUE: HAL_RCCEx_PeriphCLKConfig:status <- $r0
	.loc	5 398 5                         @ ../src/driver/stm32g4-v120/src/stm32g4xx_hal_rcc_ex.c:398:5
	ldr	r2, [r6, #124]
	ldr	r3, [r4, #60]
	bic	r2, r2, #201326592
	orrs	r2, r3
	.loc	5 400 8                         @ ../src/driver/stm32g4-v120/src/stm32g4xx_hal_rcc_ex.c:400:8
	cmp.w	r3, #134217728
	.loc	5 398 5                         @ ../src/driver/stm32g4-v120/src/stm32g4xx_hal_rcc_ex.c:398:5
	str	r2, [r6, #124]
	.loc	5 400 8                         @ ../src/driver/stm32g4-v120/src/stm32g4xx_hal_rcc_ex.c:400:8
	bne	.LBB0_49
.Ltmp60:
@ %bb.48:
	@DEBUG_VALUE: HAL_RCCEx_PeriphCLKConfig:PeriphClkInit <- $r4
	@DEBUG_VALUE: HAL_RCCEx_PeriphCLKConfig:status <- $r0
	.loc	5 403 7                         @ ../src/driver/stm32g4-v120/src/stm32g4xx_hal_rcc_ex.c:403:7
	ldr	r2, [r6]
	orr	r2, r2, #1048576
	str	r2, [r6]
.Ltmp61:
.LBB0_49:
	@DEBUG_VALUE: HAL_RCCEx_PeriphCLKConfig:PeriphClkInit <- $r4
	@DEBUG_VALUE: HAL_RCCEx_PeriphCLKConfig:status <- $r0
	.loc	5 410 6                         @ ../src/driver/stm32g4-v120/src/stm32g4xx_hal_rcc_ex.c:410:6
	lsls	r2, r1, #17
	bpl	.LBB0_52
.Ltmp62:
@ %bb.50:
	@DEBUG_VALUE: HAL_RCCEx_PeriphCLKConfig:PeriphClkInit <- $r4
	@DEBUG_VALUE: HAL_RCCEx_PeriphCLKConfig:status <- $r0
	.loc	5 413 5                         @ ../src/driver/stm32g4-v120/src/stm32g4xx_hal_rcc_ex.c:413:5
	ldr	r2, [r6, #124]
	ldr	r3, [r4, #64]
	bic	r2, r2, #201326592
	orrs	r2, r3
	.loc	5 415 8                         @ ../src/driver/stm32g4-v120/src/stm32g4xx_hal_rcc_ex.c:415:8
	cmp.w	r3, #134217728
	.loc	5 413 5                         @ ../src/driver/stm32g4-v120/src/stm32g4xx_hal_rcc_ex.c:413:5
	str	r2, [r6, #124]
	.loc	5 415 8                         @ ../src/driver/stm32g4-v120/src/stm32g4xx_hal_rcc_ex.c:415:8
	bne	.LBB0_52
.Ltmp63:
@ %bb.51:
	@DEBUG_VALUE: HAL_RCCEx_PeriphCLKConfig:PeriphClkInit <- $r4
	@DEBUG_VALUE: HAL_RCCEx_PeriphCLKConfig:status <- $r0
	.loc	5 418 7                         @ ../src/driver/stm32g4-v120/src/stm32g4xx_hal_rcc_ex.c:418:7
	ldr	r2, [r6]
	orr	r2, r2, #1048576
	str	r2, [r6]
.Ltmp64:
.LBB0_52:
	@DEBUG_VALUE: HAL_RCCEx_PeriphCLKConfig:PeriphClkInit <- $r4
	@DEBUG_VALUE: HAL_RCCEx_PeriphCLKConfig:status <- $r0
	.loc	5 423 6                         @ ../src/driver/stm32g4-v120/src/stm32g4xx_hal_rcc_ex.c:423:6
	lsls	r2, r1, #16
	bpl	.LBB0_55
.Ltmp65:
@ %bb.53:
	@DEBUG_VALUE: HAL_RCCEx_PeriphCLKConfig:PeriphClkInit <- $r4
	@DEBUG_VALUE: HAL_RCCEx_PeriphCLKConfig:status <- $r0
	.loc	5 429 5                         @ ../src/driver/stm32g4-v120/src/stm32g4xx_hal_rcc_ex.c:429:5
	ldr	r2, [r6, #124]
	ldr	r3, [r4, #68]
	bic	r2, r2, #805306368
	orrs	r2, r3
	.loc	5 431 8                         @ ../src/driver/stm32g4-v120/src/stm32g4xx_hal_rcc_ex.c:431:8
	cmp.w	r3, #268435456
	.loc	5 429 5                         @ ../src/driver/stm32g4-v120/src/stm32g4xx_hal_rcc_ex.c:429:5
	str	r2, [r6, #124]
	.loc	5 431 8                         @ ../src/driver/stm32g4-v120/src/stm32g4xx_hal_rcc_ex.c:431:8
	bne	.LBB0_55
.Ltmp66:
@ %bb.54:
	@DEBUG_VALUE: HAL_RCCEx_PeriphCLKConfig:PeriphClkInit <- $r4
	@DEBUG_VALUE: HAL_RCCEx_PeriphCLKConfig:status <- $r0
	.loc	5 434 7                         @ ../src/driver/stm32g4-v120/src/stm32g4xx_hal_rcc_ex.c:434:7
	ldr	r2, [r6]
	orr	r2, r2, #65536
	str	r2, [r6]
.Ltmp67:
.LBB0_55:
	@DEBUG_VALUE: HAL_RCCEx_PeriphCLKConfig:PeriphClkInit <- $r4
	@DEBUG_VALUE: HAL_RCCEx_PeriphCLKConfig:status <- $r0
	.loc	5 440 6                         @ ../src/driver/stm32g4-v120/src/stm32g4xx_hal_rcc_ex.c:440:6
	lsls	r2, r1, #15
	bpl	.LBB0_58
.Ltmp68:
@ %bb.56:
	@DEBUG_VALUE: HAL_RCCEx_PeriphCLKConfig:PeriphClkInit <- $r4
	@DEBUG_VALUE: HAL_RCCEx_PeriphCLKConfig:status <- $r0
	.loc	5 446 5                         @ ../src/driver/stm32g4-v120/src/stm32g4xx_hal_rcc_ex.c:446:5
	ldr	r2, [r6, #124]
	ldr	r3, [r4, #72]
	bic	r2, r2, #-1073741824
	orrs	r2, r3
	.loc	5 448 8                         @ ../src/driver/stm32g4-v120/src/stm32g4xx_hal_rcc_ex.c:448:8
	cmp.w	r3, #1073741824
	.loc	5 446 5                         @ ../src/driver/stm32g4-v120/src/stm32g4xx_hal_rcc_ex.c:446:5
	str	r2, [r6, #124]
	.loc	5 448 8                         @ ../src/driver/stm32g4-v120/src/stm32g4xx_hal_rcc_ex.c:448:8
	bne	.LBB0_58
.Ltmp69:
@ %bb.57:
	@DEBUG_VALUE: HAL_RCCEx_PeriphCLKConfig:PeriphClkInit <- $r4
	@DEBUG_VALUE: HAL_RCCEx_PeriphCLKConfig:status <- $r0
	.loc	5 451 7                         @ ../src/driver/stm32g4-v120/src/stm32g4xx_hal_rcc_ex.c:451:7
	ldr	r2, [r6]
	orr	r2, r2, #65536
	str	r2, [r6]
.Ltmp70:
.LBB0_58:
	@DEBUG_VALUE: HAL_RCCEx_PeriphCLKConfig:PeriphClkInit <- $r4
	@DEBUG_VALUE: HAL_RCCEx_PeriphCLKConfig:status <- $r0
	.loc	5 459 6                         @ ../src/driver/stm32g4-v120/src/stm32g4xx_hal_rcc_ex.c:459:6
	lsls	r1, r1, #13
	bpl	.LBB0_61
.Ltmp71:
@ %bb.59:
	@DEBUG_VALUE: HAL_RCCEx_PeriphCLKConfig:PeriphClkInit <- $r4
	@DEBUG_VALUE: HAL_RCCEx_PeriphCLKConfig:status <- $r0
	.loc	5 465 5                         @ ../src/driver/stm32g4-v120/src/stm32g4xx_hal_rcc_ex.c:465:5
	ldr.w	r1, [r6, #144]
	ldr	r2, [r4, #76]
	bic	r1, r1, #3145728
	orrs	r1, r2
	.loc	5 467 8                         @ ../src/driver/stm32g4-v120/src/stm32g4xx_hal_rcc_ex.c:467:8
	cmp.w	r2, #2097152
	.loc	5 465 5                         @ ../src/driver/stm32g4-v120/src/stm32g4xx_hal_rcc_ex.c:465:5
	str.w	r1, [r6, #144]
	.loc	5 467 8                         @ ../src/driver/stm32g4-v120/src/stm32g4xx_hal_rcc_ex.c:467:8
	bne	.LBB0_61
.Ltmp72:
@ %bb.60:
	@DEBUG_VALUE: HAL_RCCEx_PeriphCLKConfig:PeriphClkInit <- $r4
	@DEBUG_VALUE: HAL_RCCEx_PeriphCLKConfig:status <- $r0
	.loc	5 470 7                         @ ../src/driver/stm32g4-v120/src/stm32g4xx_hal_rcc_ex.c:470:7
	ldr	r1, [r6]
	orr	r1, r1, #1048576
	str	r1, [r6]
.Ltmp73:
.LBB0_61:
	@DEBUG_VALUE: HAL_RCCEx_PeriphCLKConfig:PeriphClkInit <- $r4
	@DEBUG_VALUE: HAL_RCCEx_PeriphCLKConfig:status <- $r0
	.loc	5 476 3                         @ ../src/driver/stm32g4-v120/src/stm32g4xx_hal_rcc_ex.c:476:3
	add	sp, #8
	pop.w	{r4, r5, r6, r7, r8, pc}
.Ltmp74:
.LBB0_62:
	@DEBUG_VALUE: HAL_RCCEx_PeriphCLKConfig:tickstart <- $r5
	@DEBUG_VALUE: HAL_RCCEx_PeriphCLKConfig:PeriphClkInit <- $r4
	@DEBUG_VALUE: HAL_RCCEx_PeriphCLKConfig:status <- 0
	.loc	5 185 21                        @ ../src/driver/stm32g4-v120/src/stm32g4xx_hal_rcc_ex.c:185:21
	bl	HAL_GetTick
.Ltmp75:
	mov	r5, r0
.Ltmp76:
	@DEBUG_VALUE: HAL_RCCEx_PeriphCLKConfig:tickstart <- $r5
	.loc	5 0 21 is_stmt 0                @ ../src/driver/stm32g4-v120/src/stm32g4xx_hal_rcc_ex.c:0:21
	movw	r7, #5000
.Ltmp77:
	.p2align	2
.LBB0_63:                               @ =>This Inner Loop Header: Depth=1
	@DEBUG_VALUE: HAL_RCCEx_PeriphCLKConfig:tickstart <- $r5
	@DEBUG_VALUE: HAL_RCCEx_PeriphCLKConfig:PeriphClkInit <- $r4
	@DEBUG_VALUE: HAL_RCCEx_PeriphCLKConfig:status <- 0
	.loc	5 188 15 is_stmt 1              @ ../src/driver/stm32g4-v120/src/stm32g4xx_hal_rcc_ex.c:188:15
	ldr.w	r0, [r6, #132]
	.loc	5 188 9 is_stmt 0               @ ../src/driver/stm32g4-v120/src/stm32g4xx_hal_rcc_ex.c:188:9
	lsls	r0, r0, #30
	bmi.w	.LBB0_12
.Ltmp78:
@ %bb.64:                               @   in Loop: Header=BB0_63 Depth=1
	@DEBUG_VALUE: HAL_RCCEx_PeriphCLKConfig:tickstart <- $r5
	@DEBUG_VALUE: HAL_RCCEx_PeriphCLKConfig:PeriphClkInit <- $r4
	@DEBUG_VALUE: HAL_RCCEx_PeriphCLKConfig:status <- 0
	.loc	5 190 15 is_stmt 1              @ ../src/driver/stm32g4-v120/src/stm32g4xx_hal_rcc_ex.c:190:15
	bl	HAL_GetTick
.Ltmp79:
	.loc	5 190 29 is_stmt 0              @ ../src/driver/stm32g4-v120/src/stm32g4xx_hal_rcc_ex.c:190:29
	subs	r0, r0, r5
.Ltmp80:
	.loc	5 190 14                        @ ../src/driver/stm32g4-v120/src/stm32g4xx_hal_rcc_ex.c:190:14
	cmp	r0, r7
	bls	.LBB0_63
	b	.LBB0_7
.Ltmp81:
.Lfunc_end0:
	.size	HAL_RCCEx_PeriphCLKConfig, .Lfunc_end0-HAL_RCCEx_PeriphCLKConfig
	.cfi_endproc
	.cantunwind
	.fnend
                                        @ -- End function
	.section	.text.HAL_RCCEx_GetPeriphCLKConfig,"ax",%progbits
	.hidden	HAL_RCCEx_GetPeriphCLKConfig    @ -- Begin function HAL_RCCEx_GetPeriphCLKConfig
	.globl	HAL_RCCEx_GetPeriphCLKConfig
	.p2align	1
	.type	HAL_RCCEx_GetPeriphCLKConfig,%function
	.code	16                              @ @HAL_RCCEx_GetPeriphCLKConfig
	.thumb_func
HAL_RCCEx_GetPeriphCLKConfig:
.Lfunc_begin1:
	.loc	5 488 0 is_stmt 1               @ ../src/driver/stm32g4-v120/src/stm32g4xx_hal_rcc_ex.c:488:0
	.fnstart
	.cfi_startproc
@ %bb.0:
	@DEBUG_VALUE: HAL_RCCEx_GetPeriphCLKConfig:PeriphClkInit <- $r0
	movw	r1, #65535
	movt	r1, #15
	@DEBUG_VALUE: HAL_RCCEx_GetPeriphCLKConfig:PeriphClkInit <- $r0
.Ltmp82:
	.loc	5 493 39 prologue_end           @ ../src/driver/stm32g4-v120/src/stm32g4xx_hal_rcc_ex.c:493:39
	str	r1, [r0]
	movw	r1, #4232
	movt	r1, #16386
	.loc	5 550 42                        @ ../src/driver/stm32g4-v120/src/stm32g4xx_hal_rcc_ex.c:550:42
	ldr	r2, [r1]
	and	r2, r2, #3
	.loc	5 550 40 is_stmt 0              @ ../src/driver/stm32g4-v120/src/stm32g4xx_hal_rcc_ex.c:550:40
	str	r2, [r0, #4]
	.loc	5 552 42 is_stmt 1              @ ../src/driver/stm32g4-v120/src/stm32g4xx_hal_rcc_ex.c:552:42
	ldr	r2, [r1]
	and	r2, r2, #12
	.loc	5 552 40 is_stmt 0              @ ../src/driver/stm32g4-v120/src/stm32g4xx_hal_rcc_ex.c:552:40
	str	r2, [r0, #8]
	.loc	5 554 42 is_stmt 1              @ ../src/driver/stm32g4-v120/src/stm32g4xx_hal_rcc_ex.c:554:42
	ldr	r2, [r1]
	and	r2, r2, #48
	.loc	5 554 40 is_stmt 0              @ ../src/driver/stm32g4-v120/src/stm32g4xx_hal_rcc_ex.c:554:40
	str	r2, [r0, #12]
	.loc	5 558 42 is_stmt 1              @ ../src/driver/stm32g4-v120/src/stm32g4xx_hal_rcc_ex.c:558:42
	ldr	r2, [r1]
	and	r2, r2, #192
	.loc	5 558 40 is_stmt 0              @ ../src/driver/stm32g4-v120/src/stm32g4xx_hal_rcc_ex.c:558:40
	str	r2, [r0, #16]
	.loc	5 563 42 is_stmt 1              @ ../src/driver/stm32g4-v120/src/stm32g4xx_hal_rcc_ex.c:563:42
	ldr	r2, [r1]
	and	r2, r2, #768
	.loc	5 563 40 is_stmt 0              @ ../src/driver/stm32g4-v120/src/stm32g4xx_hal_rcc_ex.c:563:40
	str	r2, [r0, #20]
	.loc	5 567 42 is_stmt 1              @ ../src/driver/stm32g4-v120/src/stm32g4xx_hal_rcc_ex.c:567:42
	ldr	r2, [r1]
	and	r2, r2, #3072
	.loc	5 567 40 is_stmt 0              @ ../src/driver/stm32g4-v120/src/stm32g4xx_hal_rcc_ex.c:567:40
	str	r2, [r0, #24]
	.loc	5 570 42 is_stmt 1              @ ../src/driver/stm32g4-v120/src/stm32g4xx_hal_rcc_ex.c:570:42
	ldr	r2, [r1]
	and	r2, r2, #12288
	.loc	5 570 40 is_stmt 0              @ ../src/driver/stm32g4-v120/src/stm32g4xx_hal_rcc_ex.c:570:40
	str	r2, [r0, #28]
	.loc	5 573 42 is_stmt 1              @ ../src/driver/stm32g4-v120/src/stm32g4xx_hal_rcc_ex.c:573:42
	ldr	r2, [r1]
	and	r2, r2, #49152
	.loc	5 573 40 is_stmt 0              @ ../src/driver/stm32g4-v120/src/stm32g4xx_hal_rcc_ex.c:573:40
	str	r2, [r0, #32]
	.loc	5 576 42 is_stmt 1              @ ../src/driver/stm32g4-v120/src/stm32g4xx_hal_rcc_ex.c:576:42
	ldr	r2, [r1]
	and	r2, r2, #196608
	.loc	5 576 40 is_stmt 0              @ ../src/driver/stm32g4-v120/src/stm32g4xx_hal_rcc_ex.c:576:40
	str	r2, [r0, #36]
	.loc	5 580 42 is_stmt 1              @ ../src/driver/stm32g4-v120/src/stm32g4xx_hal_rcc_ex.c:580:42
	ldr	r2, [r1, #20]
	and	r2, r2, #3
	.loc	5 580 40 is_stmt 0              @ ../src/driver/stm32g4-v120/src/stm32g4xx_hal_rcc_ex.c:580:40
	str	r2, [r0, #40]
	.loc	5 584 42 is_stmt 1              @ ../src/driver/stm32g4-v120/src/stm32g4xx_hal_rcc_ex.c:584:42
	ldr	r2, [r1]
	and	r2, r2, #786432
	.loc	5 584 40 is_stmt 0              @ ../src/driver/stm32g4-v120/src/stm32g4xx_hal_rcc_ex.c:584:40
	str	r2, [r0, #44]
	.loc	5 587 42 is_stmt 1              @ ../src/driver/stm32g4-v120/src/stm32g4xx_hal_rcc_ex.c:587:42
	ldr	r2, [r1]
	and	r2, r2, #3145728
	.loc	5 587 40 is_stmt 0              @ ../src/driver/stm32g4-v120/src/stm32g4xx_hal_rcc_ex.c:587:40
	str	r2, [r0, #48]
	.loc	5 590 41 is_stmt 1              @ ../src/driver/stm32g4-v120/src/stm32g4xx_hal_rcc_ex.c:590:41
	ldr	r2, [r1]
	and	r2, r2, #12582912
	.loc	5 590 39 is_stmt 0              @ ../src/driver/stm32g4-v120/src/stm32g4xx_hal_rcc_ex.c:590:39
	str	r2, [r0, #52]
	.loc	5 594 43 is_stmt 1              @ ../src/driver/stm32g4-v120/src/stm32g4xx_hal_rcc_ex.c:594:43
	ldr	r2, [r1]
	and	r2, r2, #50331648
	.loc	5 594 41 is_stmt 0              @ ../src/driver/stm32g4-v120/src/stm32g4xx_hal_rcc_ex.c:594:41
	str	r2, [r0, #56]
	.loc	5 599 40 is_stmt 1              @ ../src/driver/stm32g4-v120/src/stm32g4xx_hal_rcc_ex.c:599:40
	ldr	r2, [r1]
	and	r2, r2, #201326592
	.loc	5 599 38 is_stmt 0              @ ../src/driver/stm32g4-v120/src/stm32g4xx_hal_rcc_ex.c:599:38
	str	r2, [r0, #60]
	.loc	5 603 40 is_stmt 1              @ ../src/driver/stm32g4-v120/src/stm32g4xx_hal_rcc_ex.c:603:40
	ldr	r2, [r1]
	and	r2, r2, #201326592
	.loc	5 603 38 is_stmt 0              @ ../src/driver/stm32g4-v120/src/stm32g4xx_hal_rcc_ex.c:603:38
	str	r2, [r0, #64]
	.loc	5 606 44 is_stmt 1              @ ../src/driver/stm32g4-v120/src/stm32g4xx_hal_rcc_ex.c:606:44
	ldr	r2, [r1]
	and	r2, r2, #805306368
	.loc	5 606 42 is_stmt 0              @ ../src/driver/stm32g4-v120/src/stm32g4xx_hal_rcc_ex.c:606:42
	str	r2, [r0, #68]
	.loc	5 610 45 is_stmt 1              @ ../src/driver/stm32g4-v120/src/stm32g4xx_hal_rcc_ex.c:610:45
	ldr	r2, [r1]
	and	r2, r2, #-1073741824
	.loc	5 610 43 is_stmt 0              @ ../src/driver/stm32g4-v120/src/stm32g4xx_hal_rcc_ex.c:610:43
	str	r2, [r0, #72]
	.loc	5 615 39 is_stmt 1              @ ../src/driver/stm32g4-v120/src/stm32g4xx_hal_rcc_ex.c:615:39
	ldr	r2, [r1, #20]
	and	r2, r2, #3145728
	.loc	5 615 37 is_stmt 0              @ ../src/driver/stm32g4-v120/src/stm32g4xx_hal_rcc_ex.c:615:37
	str	r2, [r0, #76]
	.loc	5 619 42 is_stmt 1              @ ../src/driver/stm32g4-v120/src/stm32g4xx_hal_rcc_ex.c:619:42
	ldr	r1, [r1, #8]
	and	r1, r1, #768
	.loc	5 619 40 is_stmt 0              @ ../src/driver/stm32g4-v120/src/stm32g4xx_hal_rcc_ex.c:619:40
	str	r1, [r0, #80]
	.loc	5 621 1 is_stmt 1               @ ../src/driver/stm32g4-v120/src/stm32g4xx_hal_rcc_ex.c:621:1
	bx	lr
.Ltmp83:
.Lfunc_end1:
	.size	HAL_RCCEx_GetPeriphCLKConfig, .Lfunc_end1-HAL_RCCEx_GetPeriphCLKConfig
	.cfi_endproc
	.cantunwind
	.fnend
                                        @ -- End function
	.section	.text.HAL_RCCEx_GetPeriphCLKFreq,"ax",%progbits
	.hidden	HAL_RCCEx_GetPeriphCLKFreq      @ -- Begin function HAL_RCCEx_GetPeriphCLKFreq
	.globl	HAL_RCCEx_GetPeriphCLKFreq
	.p2align	2
	.type	HAL_RCCEx_GetPeriphCLKFreq,%function
	.code	16                              @ @HAL_RCCEx_GetPeriphCLKFreq
	.thumb_func
HAL_RCCEx_GetPeriphCLKFreq:
.Lfunc_begin2:
	.loc	5 651 0                         @ ../src/driver/stm32g4-v120/src/stm32g4xx_hal_rcc_ex.c:651:0
	.fnstart
	.cfi_startproc
@ %bb.0:
	@DEBUG_VALUE: HAL_RCCEx_GetPeriphCLKFreq:PeriphClk <- $r0
	@DEBUG_VALUE: HAL_RCCEx_GetPeriphCLKFreq:PeriphClk <- $r0
	.save	{r4, lr}
	push	{r4, lr}
	.cfi_def_cfa_offset 8
	.cfi_offset lr, -4
	.cfi_offset r4, -8
	movw	r4, #4096
.Ltmp84:
	.loc	5 659 6 prologue_end            @ ../src/driver/stm32g4-v120/src/stm32g4xx_hal_rcc_ex.c:659:6
	cmp.w	r0, #524288
	movt	r4, #16386
.Ltmp85:
	@DEBUG_VALUE: HAL_RCCEx_GetPeriphCLKFreq:frequency <- 0
	bne	.LBB2_6
.Ltmp86:
@ %bb.1:
	@DEBUG_VALUE: HAL_RCCEx_GetPeriphCLKFreq:PeriphClk <- $r0
	@DEBUG_VALUE: HAL_RCCEx_GetPeriphCLKFreq:frequency <- 0
	.loc	5 662 14                        @ ../src/driver/stm32g4-v120/src/stm32g4xx_hal_rcc_ex.c:662:14
	ldr.w	r0, [r4, #144]
.Ltmp87:
	@DEBUG_VALUE: HAL_RCCEx_GetPeriphCLKFreq:PeriphClk <- [DW_OP_LLVM_entry_value 1] $r0
	and	r1, r0, #768
.Ltmp88:
	@DEBUG_VALUE: HAL_RCCEx_GetPeriphCLKFreq:srcclk <- $r1
	.loc	5 665 10                        @ ../src/driver/stm32g4-v120/src/stm32g4xx_hal_rcc_ex.c:665:10
	ldr.w	r0, [r4, #144]
	.loc	5 665 54 is_stmt 0              @ ../src/driver/stm32g4-v120/src/stm32g4xx_hal_rcc_ex.c:665:54
	cmp.w	r1, #256
	bne	.LBB2_3
.Ltmp89:
@ %bb.2:
	@DEBUG_VALUE: HAL_RCCEx_GetPeriphCLKFreq:srcclk <- $r1
	@DEBUG_VALUE: HAL_RCCEx_GetPeriphCLKFreq:PeriphClk <- [DW_OP_LLVM_entry_value 1] $r0
	@DEBUG_VALUE: HAL_RCCEx_GetPeriphCLKFreq:frequency <- 0
	.loc	5 0 54                          @ ../src/driver/stm32g4-v120/src/stm32g4xx_hal_rcc_ex.c:0:54
	ands	r0, r0, #2
	itt	ne
	movne.w	r0, #32768
.Ltmp90:
	@DEBUG_VALUE: HAL_RCCEx_GetPeriphCLKFreq:frequency <- $r0
	.loc	5 1259 3 is_stmt 1              @ ../src/driver/stm32g4-v120/src/stm32g4xx_hal_rcc_ex.c:1259:3
	popne	{r4, pc}
.Ltmp91:
.LBB2_3:
	@DEBUG_VALUE: HAL_RCCEx_GetPeriphCLKFreq:srcclk <- $r1
	@DEBUG_VALUE: HAL_RCCEx_GetPeriphCLKFreq:PeriphClk <- [DW_OP_LLVM_entry_value 1] $r0
	.loc	5 670 15                        @ ../src/driver/stm32g4-v120/src/stm32g4xx_hal_rcc_ex.c:670:15
	ldr.w	r0, [r4, #148]
	.loc	5 670 57 is_stmt 0              @ ../src/driver/stm32g4-v120/src/stm32g4xx_hal_rcc_ex.c:670:57
	cmp.w	r1, #512
	bne	.LBB2_8
.Ltmp92:
@ %bb.4:
	@DEBUG_VALUE: HAL_RCCEx_GetPeriphCLKFreq:srcclk <- $r1
	@DEBUG_VALUE: HAL_RCCEx_GetPeriphCLKFreq:PeriphClk <- [DW_OP_LLVM_entry_value 1] $r0
	.loc	5 0 57                          @ ../src/driver/stm32g4-v120/src/stm32g4xx_hal_rcc_ex.c:0:57
	ands	r0, r0, #2
	.loc	5 670 57                        @ ../src/driver/stm32g4-v120/src/stm32g4xx_hal_rcc_ex.c:670:57
	beq	.LBB2_8
.Ltmp93:
.LBB2_5:
	@DEBUG_VALUE: HAL_RCCEx_GetPeriphCLKFreq:srcclk <- $r1
	.loc	5 0 57                          @ ../src/driver/stm32g4-v120/src/stm32g4xx_hal_rcc_ex.c:0:57
	mov.w	r0, #32000
.Ltmp94:
	@DEBUG_VALUE: HAL_RCCEx_GetPeriphCLKFreq:frequency <- $r0
	.loc	5 1259 3 is_stmt 1              @ ../src/driver/stm32g4-v120/src/stm32g4xx_hal_rcc_ex.c:1259:3
	pop	{r4, pc}
.Ltmp95:
.LBB2_6:
	@DEBUG_VALUE: HAL_RCCEx_GetPeriphCLKFreq:PeriphClk <- $r0
	@DEBUG_VALUE: HAL_RCCEx_GetPeriphCLKFreq:frequency <- 0
	.loc	5 0 3 is_stmt 0                 @ ../src/driver/stm32g4-v120/src/stm32g4xx_hal_rcc_ex.c:0:3
	mov	r1, r0
.Ltmp96:
	@DEBUG_VALUE: HAL_RCCEx_GetPeriphCLKFreq:PeriphClk <- $r1
	.loc	5 690 8 is_stmt 1               @ ../src/driver/stm32g4-v120/src/stm32g4xx_hal_rcc_ex.c:690:8
	ldr	r0, [r4, #12]
	movw	lr, #9216
	and	r0, r0, #3
.Ltmp97:
	.loc	5 690 8 is_stmt 0               @ ../src/driver/stm32g4-v120/src/stm32g4xx_hal_rcc_ex.c:690:8
	cmp	r0, #2
	movt	lr, #244
	bne	.LBB2_10
.Ltmp98:
@ %bb.7:
	@DEBUG_VALUE: HAL_RCCEx_GetPeriphCLKFreq:PeriphClk <- $r1
	@DEBUG_VALUE: HAL_RCCEx_GetPeriphCLKFreq:frequency <- 0
	.loc	5 0 8                           @ ../src/driver/stm32g4-v120/src/stm32g4xx_hal_rcc_ex.c:0:8
	mov.w	r0, #1024
	b	.LBB2_12
.Ltmp99:
.LBB2_8:
	@DEBUG_VALUE: HAL_RCCEx_GetPeriphCLKFreq:srcclk <- $r1
	@DEBUG_VALUE: HAL_RCCEx_GetPeriphCLKFreq:PeriphClk <- [DW_OP_LLVM_entry_value 1] $r0
	.loc	5 675 15 is_stmt 1              @ ../src/driver/stm32g4-v120/src/stm32g4xx_hal_rcc_ex.c:675:15
	ldr	r0, [r4]
	ands	r0, r0, #131072
	.loc	5 675 55 is_stmt 0              @ ../src/driver/stm32g4-v120/src/stm32g4xx_hal_rcc_ex.c:675:55
	itt	ne
	movwne	r0, #41248
	movtne	r0, #7
	cmp.w	r1, #768
.Ltmp100:
.LBB2_9:
	@DEBUG_VALUE: HAL_RCCEx_GetPeriphCLKFreq:srcclk <- $r1
	it	ne
	movne	r0, #0
.Ltmp101:
	.loc	5 0 0                           @ ../src/driver/stm32g4-v120/src/stm32g4xx_hal_rcc_ex.c:0:0
	pop	{r4, pc}
.Ltmp102:
.LBB2_10:
	@DEBUG_VALUE: HAL_RCCEx_GetPeriphCLKFreq:PeriphClk <- $r1
	@DEBUG_VALUE: HAL_RCCEx_GetPeriphCLKFreq:frequency <- 0
	.loc	5 701 13 is_stmt 1              @ ../src/driver/stm32g4-v120/src/stm32g4xx_hal_rcc_ex.c:701:13
	ldr	r0, [r4, #12]
	and	r0, r0, #3
.Ltmp103:
	.loc	5 701 13 is_stmt 0              @ ../src/driver/stm32g4-v120/src/stm32g4xx_hal_rcc_ex.c:701:13
	cmp	r0, #3
	bne	.LBB2_13
.Ltmp104:
@ %bb.11:
	@DEBUG_VALUE: HAL_RCCEx_GetPeriphCLKFreq:PeriphClk <- $r1
	@DEBUG_VALUE: HAL_RCCEx_GetPeriphCLKFreq:frequency <- 0
	.loc	5 0 13                          @ ../src/driver/stm32g4-v120/src/stm32g4xx_hal_rcc_ex.c:0:13
	mov.w	r0, #131072
.Ltmp105:
.LBB2_12:
	@DEBUG_VALUE: HAL_RCCEx_GetPeriphCLKFreq:PeriphClk <- $r1
	@DEBUG_VALUE: HAL_RCCEx_GetPeriphCLKFreq:frequency <- 0
	ldr	r2, [r4]
	ands.w	r3, r2, r0
	it	ne
	movne	r3, lr
	b	.LBB2_14
.Ltmp106:
.LBB2_13:
	@DEBUG_VALUE: HAL_RCCEx_GetPeriphCLKFreq:PeriphClk <- $r1
	@DEBUG_VALUE: HAL_RCCEx_GetPeriphCLKFreq:frequency <- 0
	movs	r3, #0
.Ltmp107:
.LBB2_14:
	@DEBUG_VALUE: HAL_RCCEx_GetPeriphCLKFreq:PeriphClk <- $r1
	@DEBUG_VALUE: HAL_RCCEx_GetPeriphCLKFreq:frequency <- 0
	@DEBUG_VALUE: HAL_RCCEx_GetPeriphCLKFreq:pllvco <- $r3
	.loc	5 718 26 is_stmt 1              @ ../src/driver/stm32g4-v120/src/stm32g4xx_hal_rcc_ex.c:718:26
	ldr	r2, [r4, #12]
.Ltmp108:
	@DEBUG_VALUE: HAL_RCCEx_GetPeriphCLKFreq:pllvco <- undef
	.loc	5 720 5                         @ ../src/driver/stm32g4-v120/src/stm32g4xx_hal_rcc_ex.c:720:5
	cmp.w	r1, #1024
	mov.w	r0, #0
	bge	.LBB2_22
.Ltmp109:
@ %bb.15:
	@DEBUG_VALUE: HAL_RCCEx_GetPeriphCLKFreq:PeriphClk <- $r1
	@DEBUG_VALUE: HAL_RCCEx_GetPeriphCLKFreq:frequency <- 0
	cmp	r1, #31
	bgt	.LBB2_30
.Ltmp110:
@ %bb.16:
	@DEBUG_VALUE: HAL_RCCEx_GetPeriphCLKFreq:PeriphClk <- $r1
	@DEBUG_VALUE: HAL_RCCEx_GetPeriphCLKFreq:frequency <- 0
	.loc	5 0 5 is_stmt 0                 @ ../src/driver/stm32g4-v120/src/stm32g4xx_hal_rcc_ex.c:0:5
	subs	r3, r1, #1
	cmp	r3, #7
	bhi.w	.LBB2_60
.Ltmp111:
@ %bb.17:
	@DEBUG_VALUE: HAL_RCCEx_GetPeriphCLKFreq:PeriphClk <- $r1
	@DEBUG_VALUE: HAL_RCCEx_GetPeriphCLKFreq:frequency <- 0
.LCPI2_0:
	tbh	[pc, r3, lsl #1]
.Ltmp112:
@ %bb.18:
.LJTI2_0:
	.short	(.LBB2_19-(.LCPI2_0+4))/2
	.short	(.LBB2_66-(.LCPI2_0+4))/2
	.short	(.LBB2_113-(.LCPI2_0+4))/2
	.short	(.LBB2_71-(.LCPI2_0+4))/2
	.short	(.LBB2_113-(.LCPI2_0+4))/2
	.short	(.LBB2_113-(.LCPI2_0+4))/2
	.short	(.LBB2_113-(.LCPI2_0+4))/2
	.short	(.LBB2_76-(.LCPI2_0+4))/2
	.p2align	1
.LBB2_19:
.Ltmp113:
	@DEBUG_VALUE: HAL_RCCEx_GetPeriphCLKFreq:frequency <- 0
	.loc	5 725 16 is_stmt 1              @ ../src/driver/stm32g4-v120/src/stm32g4xx_hal_rcc_ex.c:725:16
	ldr.w	r0, [r4, #136]
	and	r1, r0, #3
.Ltmp114:
	@DEBUG_VALUE: HAL_RCCEx_GetPeriphCLKFreq:srcclk <- $r1
	.loc	5 727 10                        @ ../src/driver/stm32g4-v120/src/stm32g4xx_hal_rcc_ex.c:727:10
	cmp	r1, #1
	beq.w	.LBB2_104
.Ltmp115:
@ %bb.20:
	@DEBUG_VALUE: HAL_RCCEx_GetPeriphCLKFreq:srcclk <- $r1
	@DEBUG_VALUE: HAL_RCCEx_GetPeriphCLKFreq:frequency <- 0
	cmp	r1, #0
	bne.w	.LBB2_115
.Ltmp116:
@ %bb.21:
	@DEBUG_VALUE: HAL_RCCEx_GetPeriphCLKFreq:srcclk <- $r1
	@DEBUG_VALUE: HAL_RCCEx_GetPeriphCLKFreq:frequency <- 0
	.loc	5 729 21                        @ ../src/driver/stm32g4-v120/src/stm32g4xx_hal_rcc_ex.c:729:21
	pop.w	{r4, lr}
.Ltmp117:
	b	HAL_RCC_GetPCLK2Freq
.Ltmp118:
.LBB2_22:
	@DEBUG_VALUE: HAL_RCCEx_GetPeriphCLKFreq:PeriphClk <- $r1
	@DEBUG_VALUE: HAL_RCCEx_GetPeriphCLKFreq:frequency <- 0
	.loc	5 0 0 is_stmt 0                 @ ../src/driver/stm32g4-v120/src/stm32g4xx_hal_rcc_ex.c:0:0
	ubfx	r2, r2, #4, #4
	adds	r2, #1
	udiv	r12, r3, r2
.Ltmp119:
	@DEBUG_VALUE: HAL_RCCEx_GetPeriphCLKFreq:pllvco <- $r12
	.loc	5 720 5 is_stmt 1               @ ../src/driver/stm32g4-v120/src/stm32g4xx_hal_rcc_ex.c:720:5
	cmp.w	r1, #16384
	blt	.LBB2_40
.Ltmp120:
@ %bb.23:
	@DEBUG_VALUE: HAL_RCCEx_GetPeriphCLKFreq:pllvco <- $r12
	@DEBUG_VALUE: HAL_RCCEx_GetPeriphCLKFreq:PeriphClk <- $r1
	@DEBUG_VALUE: HAL_RCCEx_GetPeriphCLKFreq:frequency <- 0
	cmp.w	r1, #65536
	blt	.LBB2_47
.Ltmp121:
@ %bb.24:
	@DEBUG_VALUE: HAL_RCCEx_GetPeriphCLKFreq:pllvco <- $r12
	@DEBUG_VALUE: HAL_RCCEx_GetPeriphCLKFreq:PeriphClk <- $r1
	@DEBUG_VALUE: HAL_RCCEx_GetPeriphCLKFreq:frequency <- 0
	beq.w	.LBB2_81
.Ltmp122:
@ %bb.25:
	@DEBUG_VALUE: HAL_RCCEx_GetPeriphCLKFreq:pllvco <- $r12
	@DEBUG_VALUE: HAL_RCCEx_GetPeriphCLKFreq:PeriphClk <- $r1
	@DEBUG_VALUE: HAL_RCCEx_GetPeriphCLKFreq:frequency <- 0
	cmp.w	r1, #131072
	beq.w	.LBB2_86
.Ltmp123:
@ %bb.26:
	@DEBUG_VALUE: HAL_RCCEx_GetPeriphCLKFreq:pllvco <- $r12
	@DEBUG_VALUE: HAL_RCCEx_GetPeriphCLKFreq:PeriphClk <- $r1
	@DEBUG_VALUE: HAL_RCCEx_GetPeriphCLKFreq:frequency <- 0
	cmp.w	r1, #262144
	bne.w	.LBB2_113
.Ltmp124:
@ %bb.27:
	@DEBUG_VALUE: HAL_RCCEx_GetPeriphCLKFreq:pllvco <- $r12
	@DEBUG_VALUE: HAL_RCCEx_GetPeriphCLKFreq:PeriphClk <- $r1
	@DEBUG_VALUE: HAL_RCCEx_GetPeriphCLKFreq:frequency <- 0
	.loc	5 1230 16                       @ ../src/driver/stm32g4-v120/src/stm32g4xx_hal_rcc_ex.c:1230:16
	ldr.w	r0, [r4, #156]
	ands	r1, r0, #3145728
.Ltmp125:
	@DEBUG_VALUE: HAL_RCCEx_GetPeriphCLKFreq:srcclk <- $r1
	.loc	5 1232 10                       @ ../src/driver/stm32g4-v120/src/stm32g4xx_hal_rcc_ex.c:1232:10
	beq.w	.LBB2_104
.Ltmp126:
@ %bb.28:
	@DEBUG_VALUE: HAL_RCCEx_GetPeriphCLKFreq:pllvco <- $r12
	@DEBUG_VALUE: HAL_RCCEx_GetPeriphCLKFreq:srcclk <- $r1
	@DEBUG_VALUE: HAL_RCCEx_GetPeriphCLKFreq:frequency <- 0
	cmp.w	r1, #1048576
.Ltmp127:
	.loc	5 0 0 is_stmt 0                 @ ../src/driver/stm32g4-v120/src/stm32g4xx_hal_rcc_ex.c:0:0
	mov	r0, lr
.Ltmp128:
	@DEBUG_VALUE: HAL_RCCEx_GetPeriphCLKFreq:frequency <- $r0
	.loc	5 1259 3 is_stmt 1              @ ../src/driver/stm32g4-v120/src/stm32g4xx_hal_rcc_ex.c:1259:3
	it	eq
	popeq	{r4, pc}
.Ltmp129:
.LBB2_29:
	@DEBUG_VALUE: HAL_RCCEx_GetPeriphCLKFreq:pllvco <- $r12
	@DEBUG_VALUE: HAL_RCCEx_GetPeriphCLKFreq:srcclk <- $r1
	@DEBUG_VALUE: HAL_RCCEx_GetPeriphCLKFreq:frequency <- $r0
	.loc	5 1232 10                       @ ../src/driver/stm32g4-v120/src/stm32g4xx_hal_rcc_ex.c:1232:10
	cmp.w	r1, #2097152
	beq.w	.LBB2_111
	b	.LBB2_110
.Ltmp130:
.LBB2_30:
	@DEBUG_VALUE: HAL_RCCEx_GetPeriphCLKFreq:PeriphClk <- $r1
	@DEBUG_VALUE: HAL_RCCEx_GetPeriphCLKFreq:frequency <- 0
	.loc	5 720 5                         @ ../src/driver/stm32g4-v120/src/stm32g4xx_hal_rcc_ex.c:720:5
	cmp	r1, #127
	ble	.LBB2_51
.Ltmp131:
@ %bb.31:
	@DEBUG_VALUE: HAL_RCCEx_GetPeriphCLKFreq:PeriphClk <- $r1
	@DEBUG_VALUE: HAL_RCCEx_GetPeriphCLKFreq:frequency <- 0
	cmp	r1, #128
	beq.w	.LBB2_89
.Ltmp132:
@ %bb.32:
	@DEBUG_VALUE: HAL_RCCEx_GetPeriphCLKFreq:PeriphClk <- $r1
	@DEBUG_VALUE: HAL_RCCEx_GetPeriphCLKFreq:frequency <- 0
	cmp.w	r1, #256
	beq.w	.LBB2_92
.Ltmp133:
@ %bb.33:
	@DEBUG_VALUE: HAL_RCCEx_GetPeriphCLKFreq:PeriphClk <- $r1
	@DEBUG_VALUE: HAL_RCCEx_GetPeriphCLKFreq:frequency <- 0
	cmp.w	r1, #512
	bne.w	.LBB2_113
.Ltmp134:
@ %bb.34:
	@DEBUG_VALUE: HAL_RCCEx_GetPeriphCLKFreq:PeriphClk <- $r1
	@DEBUG_VALUE: HAL_RCCEx_GetPeriphCLKFreq:frequency <- 0
	.loc	5 987 16                        @ ../src/driver/stm32g4-v120/src/stm32g4xx_hal_rcc_ex.c:987:16
	ldr.w	r0, [r4, #136]
	ands	r1, r0, #786432
.Ltmp135:
	@DEBUG_VALUE: HAL_RCCEx_GetPeriphCLKFreq:srcclk <- $r1
	.loc	5 0 16 is_stmt 0                @ ../src/driver/stm32g4-v120/src/stm32g4xx_hal_rcc_ex.c:0:16
	beq.w	.LBB2_108
.Ltmp136:
@ %bb.35:
	@DEBUG_VALUE: HAL_RCCEx_GetPeriphCLKFreq:srcclk <- $r1
	@DEBUG_VALUE: HAL_RCCEx_GetPeriphCLKFreq:frequency <- 0
	.loc	5 993 16 is_stmt 1              @ ../src/driver/stm32g4-v120/src/stm32g4xx_hal_rcc_ex.c:993:16
	ldr.w	r0, [r4, #148]
	.loc	5 993 58 is_stmt 0              @ ../src/driver/stm32g4-v120/src/stm32g4xx_hal_rcc_ex.c:993:58
	cmp.w	r1, #262144
	bne	.LBB2_37
.Ltmp137:
@ %bb.36:
	@DEBUG_VALUE: HAL_RCCEx_GetPeriphCLKFreq:srcclk <- $r1
	@DEBUG_VALUE: HAL_RCCEx_GetPeriphCLKFreq:frequency <- 0
	.loc	5 0 58                          @ ../src/driver/stm32g4-v120/src/stm32g4xx_hal_rcc_ex.c:0:58
	ands	r0, r0, #2
	bne.w	.LBB2_5
.Ltmp138:
.LBB2_37:
	@DEBUG_VALUE: HAL_RCCEx_GetPeriphCLKFreq:srcclk <- $r1
	@DEBUG_VALUE: HAL_RCCEx_GetPeriphCLKFreq:frequency <- 0
	.loc	5 997 16 is_stmt 1              @ ../src/driver/stm32g4-v120/src/stm32g4xx_hal_rcc_ex.c:997:16
	ldr	r0, [r4]
	.loc	5 997 56 is_stmt 0              @ ../src/driver/stm32g4-v120/src/stm32g4xx_hal_rcc_ex.c:997:56
	cmp.w	r1, #524288
	bne	.LBB2_39
.Ltmp139:
@ %bb.38:
	@DEBUG_VALUE: HAL_RCCEx_GetPeriphCLKFreq:srcclk <- $r1
	@DEBUG_VALUE: HAL_RCCEx_GetPeriphCLKFreq:frequency <- 0
	.loc	5 0 0                           @ ../src/driver/stm32g4-v120/src/stm32g4xx_hal_rcc_ex.c:0:0
	ands	r0, r0, #1024
.Ltmp140:
	mov	r0, lr
	bne.w	.LBB2_113
.Ltmp141:
.LBB2_39:
	@DEBUG_VALUE: HAL_RCCEx_GetPeriphCLKFreq:srcclk <- $r1
	@DEBUG_VALUE: HAL_RCCEx_GetPeriphCLKFreq:frequency <- 0
	.loc	5 1001 17 is_stmt 1             @ ../src/driver/stm32g4-v120/src/stm32g4xx_hal_rcc_ex.c:1001:17
	ldr.w	r0, [r4, #144]
	.loc	5 1001 61 is_stmt 0             @ ../src/driver/stm32g4-v120/src/stm32g4xx_hal_rcc_ex.c:1001:61
	cmp.w	r1, #786432
	b	.LBB2_118
.Ltmp142:
.LBB2_40:
	@DEBUG_VALUE: HAL_RCCEx_GetPeriphCLKFreq:pllvco <- $r12
	@DEBUG_VALUE: HAL_RCCEx_GetPeriphCLKFreq:PeriphClk <- $r1
	@DEBUG_VALUE: HAL_RCCEx_GetPeriphCLKFreq:frequency <- 0
	.loc	5 720 5 is_stmt 1               @ ../src/driver/stm32g4-v120/src/stm32g4xx_hal_rcc_ex.c:720:5
	cmp.w	r1, #4096
	bge	.LBB2_56
.Ltmp143:
@ %bb.41:
	@DEBUG_VALUE: HAL_RCCEx_GetPeriphCLKFreq:pllvco <- $r12
	@DEBUG_VALUE: HAL_RCCEx_GetPeriphCLKFreq:PeriphClk <- $r1
	@DEBUG_VALUE: HAL_RCCEx_GetPeriphCLKFreq:frequency <- 0
	cmp.w	r1, #1024
	beq.w	.LBB2_95
.Ltmp144:
@ %bb.42:
	@DEBUG_VALUE: HAL_RCCEx_GetPeriphCLKFreq:pllvco <- $r12
	@DEBUG_VALUE: HAL_RCCEx_GetPeriphCLKFreq:PeriphClk <- $r1
	@DEBUG_VALUE: HAL_RCCEx_GetPeriphCLKFreq:frequency <- 0
	cmp.w	r1, #2048
	bne.w	.LBB2_113
.Ltmp145:
@ %bb.43:
	@DEBUG_VALUE: HAL_RCCEx_GetPeriphCLKFreq:pllvco <- $r12
	@DEBUG_VALUE: HAL_RCCEx_GetPeriphCLKFreq:PeriphClk <- $r1
	@DEBUG_VALUE: HAL_RCCEx_GetPeriphCLKFreq:frequency <- 0
	.loc	5 1047 16                       @ ../src/driver/stm32g4-v120/src/stm32g4xx_hal_rcc_ex.c:1047:16
	ldr.w	r0, [r4, #136]
	and	r1, r0, #12582912
.Ltmp146:
	@DEBUG_VALUE: HAL_RCCEx_GetPeriphCLKFreq:srcclk <- $r1
	.loc	5 1049 10                       @ ../src/driver/stm32g4-v120/src/stm32g4xx_hal_rcc_ex.c:1049:10
	cmp.w	r1, #8388608
	beq.w	.LBB2_114
.Ltmp147:
@ %bb.44:
	@DEBUG_VALUE: HAL_RCCEx_GetPeriphCLKFreq:pllvco <- $r12
	@DEBUG_VALUE: HAL_RCCEx_GetPeriphCLKFreq:srcclk <- $r1
	@DEBUG_VALUE: HAL_RCCEx_GetPeriphCLKFreq:frequency <- 0
	cmp.w	r1, #4194304
	beq.w	.LBB2_109
.Ltmp148:
@ %bb.45:
	@DEBUG_VALUE: HAL_RCCEx_GetPeriphCLKFreq:pllvco <- $r12
	@DEBUG_VALUE: HAL_RCCEx_GetPeriphCLKFreq:srcclk <- $r1
	@DEBUG_VALUE: HAL_RCCEx_GetPeriphCLKFreq:frequency <- 0
	cmp	r1, #0
	beq.w	.LBB2_104
.Ltmp149:
@ %bb.46:
	@DEBUG_VALUE: HAL_RCCEx_GetPeriphCLKFreq:pllvco <- $r12
	@DEBUG_VALUE: HAL_RCCEx_GetPeriphCLKFreq:srcclk <- $r1
	@DEBUG_VALUE: HAL_RCCEx_GetPeriphCLKFreq:frequency <- 0
	.loc	5 1067 16                       @ ../src/driver/stm32g4-v120/src/stm32g4xx_hal_rcc_ex.c:1067:16
	ldr	r0, [r4]
	ands	r0, r0, #1024
	.loc	5 1067 56 is_stmt 0             @ ../src/driver/stm32g4-v120/src/stm32g4xx_hal_rcc_ex.c:1067:56
	it	ne
	movne	r0, lr
	cmp.w	r1, #12582912
	b	.LBB2_9
.Ltmp150:
.LBB2_47:
	@DEBUG_VALUE: HAL_RCCEx_GetPeriphCLKFreq:pllvco <- $r12
	@DEBUG_VALUE: HAL_RCCEx_GetPeriphCLKFreq:PeriphClk <- $r1
	@DEBUG_VALUE: HAL_RCCEx_GetPeriphCLKFreq:frequency <- 0
	.loc	5 720 5 is_stmt 1               @ ../src/driver/stm32g4-v120/src/stm32g4xx_hal_rcc_ex.c:720:5
	cmp.w	r1, #16384
	beq	.LBB2_58
.Ltmp151:
@ %bb.48:
	@DEBUG_VALUE: HAL_RCCEx_GetPeriphCLKFreq:pllvco <- $r12
	@DEBUG_VALUE: HAL_RCCEx_GetPeriphCLKFreq:PeriphClk <- $r1
	@DEBUG_VALUE: HAL_RCCEx_GetPeriphCLKFreq:frequency <- 0
	cmp.w	r1, #32768
	bne.w	.LBB2_113
.Ltmp152:
@ %bb.49:
	@DEBUG_VALUE: HAL_RCCEx_GetPeriphCLKFreq:pllvco <- $r12
	@DEBUG_VALUE: HAL_RCCEx_GetPeriphCLKFreq:PeriphClk <- $r1
	@DEBUG_VALUE: HAL_RCCEx_GetPeriphCLKFreq:frequency <- 0
	.loc	5 1154 16                       @ ../src/driver/stm32g4-v120/src/stm32g4xx_hal_rcc_ex.c:1154:16
	ldr.w	r0, [r4, #136]
	and	r0, r0, #805306368
.Ltmp153:
	@DEBUG_VALUE: HAL_RCCEx_GetPeriphCLKFreq:srcclk <- $r0
	.loc	5 1156 10                       @ ../src/driver/stm32g4-v120/src/stm32g4xx_hal_rcc_ex.c:1156:10
	cmp.w	r0, #536870912
	beq.w	.LBB2_104
.Ltmp154:
@ %bb.50:
	@DEBUG_VALUE: HAL_RCCEx_GetPeriphCLKFreq:pllvco <- $r12
	@DEBUG_VALUE: HAL_RCCEx_GetPeriphCLKFreq:PeriphClk <- $r1
	@DEBUG_VALUE: HAL_RCCEx_GetPeriphCLKFreq:srcclk <- $r0
	@DEBUG_VALUE: HAL_RCCEx_GetPeriphCLKFreq:frequency <- 0
	cmp.w	r0, #268435456
	beq.w	.LBB2_83
	b	.LBB2_110
.Ltmp155:
.LBB2_51:
	@DEBUG_VALUE: HAL_RCCEx_GetPeriphCLKFreq:PeriphClk <- $r1
	@DEBUG_VALUE: HAL_RCCEx_GetPeriphCLKFreq:frequency <- 0
	.loc	5 720 5                         @ ../src/driver/stm32g4-v120/src/stm32g4xx_hal_rcc_ex.c:720:5
	cmp	r1, #32
	beq.w	.LBB2_99
.Ltmp156:
@ %bb.52:
	@DEBUG_VALUE: HAL_RCCEx_GetPeriphCLKFreq:PeriphClk <- $r1
	@DEBUG_VALUE: HAL_RCCEx_GetPeriphCLKFreq:frequency <- 0
	cmp	r1, #64
	bne.w	.LBB2_113
.Ltmp157:
@ %bb.53:
	@DEBUG_VALUE: HAL_RCCEx_GetPeriphCLKFreq:PeriphClk <- $r1
	@DEBUG_VALUE: HAL_RCCEx_GetPeriphCLKFreq:frequency <- 0
	.loc	5 891 16                        @ ../src/driver/stm32g4-v120/src/stm32g4xx_hal_rcc_ex.c:891:16
	ldr.w	r0, [r4, #136]
	and	r1, r0, #12288
.Ltmp158:
	@DEBUG_VALUE: HAL_RCCEx_GetPeriphCLKFreq:srcclk <- $r1
	.loc	5 893 10                        @ ../src/driver/stm32g4-v120/src/stm32g4xx_hal_rcc_ex.c:893:10
	cmp.w	r1, #4096
	beq.w	.LBB2_104
.Ltmp159:
@ %bb.54:
	@DEBUG_VALUE: HAL_RCCEx_GetPeriphCLKFreq:srcclk <- $r1
	@DEBUG_VALUE: HAL_RCCEx_GetPeriphCLKFreq:frequency <- 0
	cmp	r1, #0
	beq.w	.LBB2_108
.Ltmp160:
@ %bb.55:
	@DEBUG_VALUE: HAL_RCCEx_GetPeriphCLKFreq:srcclk <- $r1
	@DEBUG_VALUE: HAL_RCCEx_GetPeriphCLKFreq:frequency <- 0
	.loc	5 901 16                        @ ../src/driver/stm32g4-v120/src/stm32g4xx_hal_rcc_ex.c:901:16
	ldr	r0, [r4]
	ands	r0, r0, #1024
	.loc	5 901 56 is_stmt 0              @ ../src/driver/stm32g4-v120/src/stm32g4xx_hal_rcc_ex.c:901:56
	it	ne
	movne	r0, lr
	cmp.w	r1, #8192
	b	.LBB2_9
.Ltmp161:
.LBB2_56:
	@DEBUG_VALUE: HAL_RCCEx_GetPeriphCLKFreq:pllvco <- $r12
	@DEBUG_VALUE: HAL_RCCEx_GetPeriphCLKFreq:PeriphClk <- $r1
	@DEBUG_VALUE: HAL_RCCEx_GetPeriphCLKFreq:frequency <- 0
	.loc	5 720 5 is_stmt 1               @ ../src/driver/stm32g4-v120/src/stm32g4xx_hal_rcc_ex.c:720:5
	beq.w	.LBB2_105
.Ltmp162:
@ %bb.57:
	@DEBUG_VALUE: HAL_RCCEx_GetPeriphCLKFreq:pllvco <- $r12
	@DEBUG_VALUE: HAL_RCCEx_GetPeriphCLKFreq:PeriphClk <- $r1
	@DEBUG_VALUE: HAL_RCCEx_GetPeriphCLKFreq:frequency <- 0
	cmp.w	r1, #8192
	bne.w	.LBB2_113
.Ltmp163:
.LBB2_58:
	@DEBUG_VALUE: HAL_RCCEx_GetPeriphCLKFreq:pllvco <- $r12
	@DEBUG_VALUE: HAL_RCCEx_GetPeriphCLKFreq:PeriphClk <- $r1
	@DEBUG_VALUE: HAL_RCCEx_GetPeriphCLKFreq:frequency <- 0
	.loc	5 0 0 is_stmt 0                 @ ../src/driver/stm32g4-v120/src/stm32g4xx_hal_rcc_ex.c:0:0
	ldr.w	r0, [r4, #136]
	and	r1, r0, #201326592
.Ltmp164:
	@DEBUG_VALUE: HAL_RCCEx_GetPeriphCLKFreq:srcclk <- $r1
	cmp.w	r1, #134217728
	beq.w	.LBB2_111
.Ltmp165:
@ %bb.59:
	@DEBUG_VALUE: HAL_RCCEx_GetPeriphCLKFreq:pllvco <- $r12
	@DEBUG_VALUE: HAL_RCCEx_GetPeriphCLKFreq:srcclk <- $r1
	@DEBUG_VALUE: HAL_RCCEx_GetPeriphCLKFreq:frequency <- 0
	ldr.w	r0, [r4, #152]
	ands	r0, r0, #2
	itt	ne
	movwne	r0, #27648
	movtne	r0, #732
	cmp	r1, #0
	b	.LBB2_9
.Ltmp166:
.LBB2_60:
	@DEBUG_VALUE: HAL_RCCEx_GetPeriphCLKFreq:PeriphClk <- $r1
	@DEBUG_VALUE: HAL_RCCEx_GetPeriphCLKFreq:frequency <- 0
	.loc	5 720 5                         @ ../src/driver/stm32g4-v120/src/stm32g4xx_hal_rcc_ex.c:720:5
	cmp	r1, #16
	bne.w	.LBB2_113
.Ltmp167:
@ %bb.61:
	@DEBUG_VALUE: HAL_RCCEx_GetPeriphCLKFreq:PeriphClk <- $r1
	@DEBUG_VALUE: HAL_RCCEx_GetPeriphCLKFreq:frequency <- 0
	.loc	5 836 16 is_stmt 1              @ ../src/driver/stm32g4-v120/src/stm32g4xx_hal_rcc_ex.c:836:16
	ldr.w	r0, [r4, #136]
	and	r1, r0, #768
.Ltmp168:
	@DEBUG_VALUE: HAL_RCCEx_GetPeriphCLKFreq:srcclk <- $r1
	.loc	5 838 10                        @ ../src/driver/stm32g4-v120/src/stm32g4xx_hal_rcc_ex.c:838:10
	cmp.w	r1, #256
	beq.w	.LBB2_104
.Ltmp169:
@ %bb.62:
	@DEBUG_VALUE: HAL_RCCEx_GetPeriphCLKFreq:srcclk <- $r1
	@DEBUG_VALUE: HAL_RCCEx_GetPeriphCLKFreq:frequency <- 0
	cmp	r1, #0
	beq.w	.LBB2_108
.Ltmp170:
@ %bb.63:
	@DEBUG_VALUE: HAL_RCCEx_GetPeriphCLKFreq:srcclk <- $r1
	@DEBUG_VALUE: HAL_RCCEx_GetPeriphCLKFreq:frequency <- 0
	.loc	5 846 16                        @ ../src/driver/stm32g4-v120/src/stm32g4xx_hal_rcc_ex.c:846:16
	ldr	r0, [r4]
	.loc	5 846 56 is_stmt 0              @ ../src/driver/stm32g4-v120/src/stm32g4xx_hal_rcc_ex.c:846:56
	cmp.w	r1, #512
	bne	.LBB2_65
.Ltmp171:
@ %bb.64:
	@DEBUG_VALUE: HAL_RCCEx_GetPeriphCLKFreq:srcclk <- $r1
	@DEBUG_VALUE: HAL_RCCEx_GetPeriphCLKFreq:frequency <- 0
	.loc	5 0 0                           @ ../src/driver/stm32g4-v120/src/stm32g4xx_hal_rcc_ex.c:0:0
	ands	r0, r0, #1024
.Ltmp172:
	mov	r0, lr
	bne.w	.LBB2_113
.Ltmp173:
.LBB2_65:
	@DEBUG_VALUE: HAL_RCCEx_GetPeriphCLKFreq:srcclk <- $r1
	@DEBUG_VALUE: HAL_RCCEx_GetPeriphCLKFreq:frequency <- 0
	.loc	5 850 16 is_stmt 1              @ ../src/driver/stm32g4-v120/src/stm32g4xx_hal_rcc_ex.c:850:16
	ldr.w	r0, [r4, #144]
	.loc	5 850 60 is_stmt 0              @ ../src/driver/stm32g4-v120/src/stm32g4xx_hal_rcc_ex.c:850:60
	cmp.w	r1, #768
	b	.LBB2_118
.Ltmp174:
.LBB2_66:
	@DEBUG_VALUE: HAL_RCCEx_GetPeriphCLKFreq:frequency <- 0
	.loc	5 752 16 is_stmt 1              @ ../src/driver/stm32g4-v120/src/stm32g4xx_hal_rcc_ex.c:752:16
	ldr.w	r0, [r4, #136]
	and	r1, r0, #12
.Ltmp175:
	@DEBUG_VALUE: HAL_RCCEx_GetPeriphCLKFreq:srcclk <- $r1
	.loc	5 754 10                        @ ../src/driver/stm32g4-v120/src/stm32g4xx_hal_rcc_ex.c:754:10
	cmp	r1, #4
	beq.w	.LBB2_104
.Ltmp176:
@ %bb.67:
	@DEBUG_VALUE: HAL_RCCEx_GetPeriphCLKFreq:srcclk <- $r1
	@DEBUG_VALUE: HAL_RCCEx_GetPeriphCLKFreq:frequency <- 0
	cmp	r1, #0
	beq.w	.LBB2_108
.Ltmp177:
@ %bb.68:
	@DEBUG_VALUE: HAL_RCCEx_GetPeriphCLKFreq:srcclk <- $r1
	@DEBUG_VALUE: HAL_RCCEx_GetPeriphCLKFreq:frequency <- 0
	.loc	5 762 16                        @ ../src/driver/stm32g4-v120/src/stm32g4xx_hal_rcc_ex.c:762:16
	ldr	r0, [r4]
	.loc	5 762 56 is_stmt 0              @ ../src/driver/stm32g4-v120/src/stm32g4xx_hal_rcc_ex.c:762:56
	cmp	r1, #8
	bne	.LBB2_70
.Ltmp178:
@ %bb.69:
	@DEBUG_VALUE: HAL_RCCEx_GetPeriphCLKFreq:srcclk <- $r1
	@DEBUG_VALUE: HAL_RCCEx_GetPeriphCLKFreq:frequency <- 0
	.loc	5 0 0                           @ ../src/driver/stm32g4-v120/src/stm32g4xx_hal_rcc_ex.c:0:0
	ands	r0, r0, #1024
.Ltmp179:
	mov	r0, lr
.Ltmp180:
	.loc	5 762 56                        @ ../src/driver/stm32g4-v120/src/stm32g4xx_hal_rcc_ex.c:762:56
	bne.w	.LBB2_113
.Ltmp181:
.LBB2_70:
	@DEBUG_VALUE: HAL_RCCEx_GetPeriphCLKFreq:srcclk <- $r1
	@DEBUG_VALUE: HAL_RCCEx_GetPeriphCLKFreq:frequency <- 0
	.loc	5 766 16 is_stmt 1              @ ../src/driver/stm32g4-v120/src/stm32g4xx_hal_rcc_ex.c:766:16
	ldr.w	r0, [r4, #144]
	.loc	5 766 61 is_stmt 0              @ ../src/driver/stm32g4-v120/src/stm32g4xx_hal_rcc_ex.c:766:61
	cmp	r1, #12
	b	.LBB2_118
.Ltmp182:
.LBB2_71:
	@DEBUG_VALUE: HAL_RCCEx_GetPeriphCLKFreq:frequency <- 0
	.loc	5 779 16 is_stmt 1              @ ../src/driver/stm32g4-v120/src/stm32g4xx_hal_rcc_ex.c:779:16
	ldr.w	r0, [r4, #136]
	and	r1, r0, #48
.Ltmp183:
	@DEBUG_VALUE: HAL_RCCEx_GetPeriphCLKFreq:srcclk <- $r1
	.loc	5 781 10                        @ ../src/driver/stm32g4-v120/src/stm32g4xx_hal_rcc_ex.c:781:10
	cmp	r1, #16
	beq.w	.LBB2_104
.Ltmp184:
@ %bb.72:
	@DEBUG_VALUE: HAL_RCCEx_GetPeriphCLKFreq:srcclk <- $r1
	@DEBUG_VALUE: HAL_RCCEx_GetPeriphCLKFreq:frequency <- 0
	cmp	r1, #0
	beq.w	.LBB2_108
.Ltmp185:
@ %bb.73:
	@DEBUG_VALUE: HAL_RCCEx_GetPeriphCLKFreq:srcclk <- $r1
	@DEBUG_VALUE: HAL_RCCEx_GetPeriphCLKFreq:frequency <- 0
	.loc	5 789 16                        @ ../src/driver/stm32g4-v120/src/stm32g4xx_hal_rcc_ex.c:789:16
	ldr	r0, [r4]
	.loc	5 789 56 is_stmt 0              @ ../src/driver/stm32g4-v120/src/stm32g4xx_hal_rcc_ex.c:789:56
	cmp	r1, #32
	bne	.LBB2_75
.Ltmp186:
@ %bb.74:
	@DEBUG_VALUE: HAL_RCCEx_GetPeriphCLKFreq:srcclk <- $r1
	@DEBUG_VALUE: HAL_RCCEx_GetPeriphCLKFreq:frequency <- 0
	.loc	5 0 0                           @ ../src/driver/stm32g4-v120/src/stm32g4xx_hal_rcc_ex.c:0:0
	ands	r0, r0, #1024
.Ltmp187:
	mov	r0, lr
.Ltmp188:
	.loc	5 789 56                        @ ../src/driver/stm32g4-v120/src/stm32g4xx_hal_rcc_ex.c:789:56
	bne.w	.LBB2_113
.Ltmp189:
.LBB2_75:
	@DEBUG_VALUE: HAL_RCCEx_GetPeriphCLKFreq:srcclk <- $r1
	@DEBUG_VALUE: HAL_RCCEx_GetPeriphCLKFreq:frequency <- 0
	.loc	5 793 16 is_stmt 1              @ ../src/driver/stm32g4-v120/src/stm32g4xx_hal_rcc_ex.c:793:16
	ldr.w	r0, [r4, #144]
	.loc	5 793 60 is_stmt 0              @ ../src/driver/stm32g4-v120/src/stm32g4xx_hal_rcc_ex.c:793:60
	cmp	r1, #48
	b	.LBB2_118
.Ltmp190:
.LBB2_76:
	@DEBUG_VALUE: HAL_RCCEx_GetPeriphCLKFreq:frequency <- 0
	.loc	5 807 16 is_stmt 1              @ ../src/driver/stm32g4-v120/src/stm32g4xx_hal_rcc_ex.c:807:16
	ldr.w	r0, [r4, #136]
	and	r1, r0, #192
.Ltmp191:
	@DEBUG_VALUE: HAL_RCCEx_GetPeriphCLKFreq:srcclk <- $r1
	.loc	5 809 10                        @ ../src/driver/stm32g4-v120/src/stm32g4xx_hal_rcc_ex.c:809:10
	cmp	r1, #64
	beq.w	.LBB2_104
.Ltmp192:
@ %bb.77:
	@DEBUG_VALUE: HAL_RCCEx_GetPeriphCLKFreq:srcclk <- $r1
	@DEBUG_VALUE: HAL_RCCEx_GetPeriphCLKFreq:frequency <- 0
	cmp	r1, #0
	beq.w	.LBB2_108
.Ltmp193:
@ %bb.78:
	@DEBUG_VALUE: HAL_RCCEx_GetPeriphCLKFreq:srcclk <- $r1
	@DEBUG_VALUE: HAL_RCCEx_GetPeriphCLKFreq:frequency <- 0
	.loc	5 817 16                        @ ../src/driver/stm32g4-v120/src/stm32g4xx_hal_rcc_ex.c:817:16
	ldr	r0, [r4]
	.loc	5 817 56 is_stmt 0              @ ../src/driver/stm32g4-v120/src/stm32g4xx_hal_rcc_ex.c:817:56
	cmp	r1, #128
	bne	.LBB2_80
.Ltmp194:
@ %bb.79:
	@DEBUG_VALUE: HAL_RCCEx_GetPeriphCLKFreq:srcclk <- $r1
	@DEBUG_VALUE: HAL_RCCEx_GetPeriphCLKFreq:frequency <- 0
	.loc	5 0 0                           @ ../src/driver/stm32g4-v120/src/stm32g4xx_hal_rcc_ex.c:0:0
	ands	r0, r0, #1024
.Ltmp195:
	mov	r0, lr
.Ltmp196:
	.loc	5 817 56                        @ ../src/driver/stm32g4-v120/src/stm32g4xx_hal_rcc_ex.c:817:56
	bne.w	.LBB2_113
.Ltmp197:
.LBB2_80:
	@DEBUG_VALUE: HAL_RCCEx_GetPeriphCLKFreq:srcclk <- $r1
	@DEBUG_VALUE: HAL_RCCEx_GetPeriphCLKFreq:frequency <- 0
	.loc	5 821 16 is_stmt 1              @ ../src/driver/stm32g4-v120/src/stm32g4xx_hal_rcc_ex.c:821:16
	ldr.w	r0, [r4, #144]
	.loc	5 821 60 is_stmt 0              @ ../src/driver/stm32g4-v120/src/stm32g4xx_hal_rcc_ex.c:821:60
	cmp	r1, #192
	b	.LBB2_118
.Ltmp198:
.LBB2_81:
	@DEBUG_VALUE: HAL_RCCEx_GetPeriphCLKFreq:pllvco <- $r12
	@DEBUG_VALUE: HAL_RCCEx_GetPeriphCLKFreq:PeriphClk <- $r1
	@DEBUG_VALUE: HAL_RCCEx_GetPeriphCLKFreq:frequency <- 0
	.loc	5 1191 16 is_stmt 1             @ ../src/driver/stm32g4-v120/src/stm32g4xx_hal_rcc_ex.c:1191:16
	ldr.w	r0, [r4, #136]
	and	r0, r0, #-1073741824
.Ltmp199:
	@DEBUG_VALUE: HAL_RCCEx_GetPeriphCLKFreq:srcclk <- $r0
	.loc	5 1193 10                       @ ../src/driver/stm32g4-v120/src/stm32g4xx_hal_rcc_ex.c:1193:10
	cmp.w	r0, #-2147483648
	beq	.LBB2_104
.Ltmp200:
@ %bb.82:
	@DEBUG_VALUE: HAL_RCCEx_GetPeriphCLKFreq:pllvco <- $r12
	@DEBUG_VALUE: HAL_RCCEx_GetPeriphCLKFreq:PeriphClk <- $r1
	@DEBUG_VALUE: HAL_RCCEx_GetPeriphCLKFreq:srcclk <- $r0
	@DEBUG_VALUE: HAL_RCCEx_GetPeriphCLKFreq:frequency <- 0
	cmp.w	r0, #1073741824
	bne.w	.LBB2_110
.Ltmp201:
.LBB2_83:
	@DEBUG_VALUE: HAL_RCCEx_GetPeriphCLKFreq:pllvco <- $r12
	@DEBUG_VALUE: HAL_RCCEx_GetPeriphCLKFreq:PeriphClk <- $r1
	@DEBUG_VALUE: HAL_RCCEx_GetPeriphCLKFreq:srcclk <- $r0
	@DEBUG_VALUE: HAL_RCCEx_GetPeriphCLKFreq:frequency <- 0
	.loc	5 0 0 is_stmt 0                 @ ../src/driver/stm32g4-v120/src/stm32g4xx_hal_rcc_ex.c:0:0
	ldr	r0, [r4, #12]
.Ltmp202:
	lsls	r0, r0, #15
	mov.w	r0, #0
	bpl.w	.LBB2_113
.Ltmp203:
@ %bb.84:
	@DEBUG_VALUE: HAL_RCCEx_GetPeriphCLKFreq:pllvco <- $r12
	@DEBUG_VALUE: HAL_RCCEx_GetPeriphCLKFreq:PeriphClk <- $r1
	@DEBUG_VALUE: HAL_RCCEx_GetPeriphCLKFreq:frequency <- 0
	ldr	r2, [r4, #12]
	ldr	r1, [r4, #12]
.Ltmp204:
	@DEBUG_VALUE: HAL_RCCEx_GetPeriphCLKFreq:pllp <- undef
	cmp.w	r0, r1, lsr #27
	ubfx	r0, r2, #8, #7
.Ltmp205:
	@DEBUG_VALUE: HAL_RCCEx_GetPeriphCLKFreq:plln <- $r0
	beq.w	.LBB2_119
.Ltmp206:
@ %bb.85:
	@DEBUG_VALUE: HAL_RCCEx_GetPeriphCLKFreq:pllvco <- $r12
	@DEBUG_VALUE: HAL_RCCEx_GetPeriphCLKFreq:plln <- $r0
	@DEBUG_VALUE: HAL_RCCEx_GetPeriphCLKFreq:frequency <- 0
	lsrs	r1, r1, #27
.Ltmp207:
	@DEBUG_VALUE: HAL_RCCEx_GetPeriphCLKFreq:pllp <- $r1
	b	.LBB2_120
.Ltmp208:
.LBB2_86:
	@DEBUG_VALUE: HAL_RCCEx_GetPeriphCLKFreq:pllvco <- $r12
	@DEBUG_VALUE: HAL_RCCEx_GetPeriphCLKFreq:PeriphClk <- $r1
	@DEBUG_VALUE: HAL_RCCEx_GetPeriphCLKFreq:frequency <- 0
	.loc	5 962 16 is_stmt 1              @ ../src/driver/stm32g4-v120/src/stm32g4xx_hal_rcc_ex.c:962:16
	ldr.w	r0, [r4, #156]
	and	r1, r0, #3
.Ltmp209:
	@DEBUG_VALUE: HAL_RCCEx_GetPeriphCLKFreq:srcclk <- $r1
	.loc	5 964 10                        @ ../src/driver/stm32g4-v120/src/stm32g4xx_hal_rcc_ex.c:964:10
	cmp	r1, #1
	beq	.LBB2_104
.Ltmp210:
@ %bb.87:
	@DEBUG_VALUE: HAL_RCCEx_GetPeriphCLKFreq:pllvco <- $r12
	@DEBUG_VALUE: HAL_RCCEx_GetPeriphCLKFreq:srcclk <- $r1
	@DEBUG_VALUE: HAL_RCCEx_GetPeriphCLKFreq:frequency <- 0
	cmp	r1, #0
	beq	.LBB2_108
.Ltmp211:
@ %bb.88:
	@DEBUG_VALUE: HAL_RCCEx_GetPeriphCLKFreq:pllvco <- $r12
	@DEBUG_VALUE: HAL_RCCEx_GetPeriphCLKFreq:srcclk <- $r1
	@DEBUG_VALUE: HAL_RCCEx_GetPeriphCLKFreq:frequency <- 0
	.loc	5 972 16                        @ ../src/driver/stm32g4-v120/src/stm32g4xx_hal_rcc_ex.c:972:16
	ldr	r0, [r4]
	ands	r0, r0, #1024
	.loc	5 972 56 is_stmt 0              @ ../src/driver/stm32g4-v120/src/stm32g4xx_hal_rcc_ex.c:972:56
	it	ne
	movne	r0, lr
	cmp	r1, #2
	b	.LBB2_9
.Ltmp212:
.LBB2_89:
	@DEBUG_VALUE: HAL_RCCEx_GetPeriphCLKFreq:PeriphClk <- $r1
	@DEBUG_VALUE: HAL_RCCEx_GetPeriphCLKFreq:frequency <- 0
	.loc	5 914 16 is_stmt 1              @ ../src/driver/stm32g4-v120/src/stm32g4xx_hal_rcc_ex.c:914:16
	ldr.w	r0, [r4, #136]
	and	r1, r0, #49152
.Ltmp213:
	@DEBUG_VALUE: HAL_RCCEx_GetPeriphCLKFreq:srcclk <- $r1
	.loc	5 916 10                        @ ../src/driver/stm32g4-v120/src/stm32g4xx_hal_rcc_ex.c:916:10
	cmp.w	r1, #16384
	beq	.LBB2_104
.Ltmp214:
@ %bb.90:
	@DEBUG_VALUE: HAL_RCCEx_GetPeriphCLKFreq:srcclk <- $r1
	@DEBUG_VALUE: HAL_RCCEx_GetPeriphCLKFreq:frequency <- 0
	cmp	r1, #0
	beq	.LBB2_108
.Ltmp215:
@ %bb.91:
	@DEBUG_VALUE: HAL_RCCEx_GetPeriphCLKFreq:srcclk <- $r1
	@DEBUG_VALUE: HAL_RCCEx_GetPeriphCLKFreq:frequency <- 0
	.loc	5 924 16                        @ ../src/driver/stm32g4-v120/src/stm32g4xx_hal_rcc_ex.c:924:16
	ldr	r0, [r4]
	ands	r0, r0, #1024
	.loc	5 924 56 is_stmt 0              @ ../src/driver/stm32g4-v120/src/stm32g4xx_hal_rcc_ex.c:924:56
	it	ne
	movne	r0, lr
	cmp.w	r1, #32768
	b	.LBB2_9
.Ltmp216:
.LBB2_92:
	@DEBUG_VALUE: HAL_RCCEx_GetPeriphCLKFreq:PeriphClk <- $r1
	@DEBUG_VALUE: HAL_RCCEx_GetPeriphCLKFreq:frequency <- 0
	.loc	5 937 16 is_stmt 1              @ ../src/driver/stm32g4-v120/src/stm32g4xx_hal_rcc_ex.c:937:16
	ldr.w	r0, [r4, #136]
	and	r1, r0, #196608
.Ltmp217:
	@DEBUG_VALUE: HAL_RCCEx_GetPeriphCLKFreq:srcclk <- $r1
	.loc	5 939 10                        @ ../src/driver/stm32g4-v120/src/stm32g4xx_hal_rcc_ex.c:939:10
	cmp.w	r1, #65536
	beq	.LBB2_104
.Ltmp218:
@ %bb.93:
	@DEBUG_VALUE: HAL_RCCEx_GetPeriphCLKFreq:srcclk <- $r1
	@DEBUG_VALUE: HAL_RCCEx_GetPeriphCLKFreq:frequency <- 0
	cmp	r1, #0
	beq	.LBB2_108
.Ltmp219:
@ %bb.94:
	@DEBUG_VALUE: HAL_RCCEx_GetPeriphCLKFreq:srcclk <- $r1
	@DEBUG_VALUE: HAL_RCCEx_GetPeriphCLKFreq:frequency <- 0
	.loc	5 947 16                        @ ../src/driver/stm32g4-v120/src/stm32g4xx_hal_rcc_ex.c:947:16
	ldr	r0, [r4]
	ands	r0, r0, #1024
	.loc	5 947 56 is_stmt 0              @ ../src/driver/stm32g4-v120/src/stm32g4xx_hal_rcc_ex.c:947:56
	it	ne
	movne	r0, lr
	cmp.w	r1, #131072
	b	.LBB2_9
.Ltmp220:
.LBB2_95:
	@DEBUG_VALUE: HAL_RCCEx_GetPeriphCLKFreq:pllvco <- $r12
	@DEBUG_VALUE: HAL_RCCEx_GetPeriphCLKFreq:PeriphClk <- $r1
	@DEBUG_VALUE: HAL_RCCEx_GetPeriphCLKFreq:frequency <- 0
	.loc	5 1014 16 is_stmt 1             @ ../src/driver/stm32g4-v120/src/stm32g4xx_hal_rcc_ex.c:1014:16
	ldr.w	r0, [r4, #136]
	and	r1, r0, #3145728
.Ltmp221:
	@DEBUG_VALUE: HAL_RCCEx_GetPeriphCLKFreq:srcclk <- $r1
	.loc	5 1016 10                       @ ../src/driver/stm32g4-v120/src/stm32g4xx_hal_rcc_ex.c:1016:10
	cmp.w	r1, #2097152
	beq	.LBB2_114
.Ltmp222:
@ %bb.96:
	@DEBUG_VALUE: HAL_RCCEx_GetPeriphCLKFreq:pllvco <- $r12
	@DEBUG_VALUE: HAL_RCCEx_GetPeriphCLKFreq:srcclk <- $r1
	@DEBUG_VALUE: HAL_RCCEx_GetPeriphCLKFreq:frequency <- 0
	cmp.w	r1, #1048576
	beq	.LBB2_109
.Ltmp223:
@ %bb.97:
	@DEBUG_VALUE: HAL_RCCEx_GetPeriphCLKFreq:pllvco <- $r12
	@DEBUG_VALUE: HAL_RCCEx_GetPeriphCLKFreq:srcclk <- $r1
	@DEBUG_VALUE: HAL_RCCEx_GetPeriphCLKFreq:frequency <- 0
	cbz	r1, .LBB2_104
.Ltmp224:
@ %bb.98:
	@DEBUG_VALUE: HAL_RCCEx_GetPeriphCLKFreq:pllvco <- $r12
	@DEBUG_VALUE: HAL_RCCEx_GetPeriphCLKFreq:srcclk <- $r1
	@DEBUG_VALUE: HAL_RCCEx_GetPeriphCLKFreq:frequency <- 0
	.loc	5 1034 16                       @ ../src/driver/stm32g4-v120/src/stm32g4xx_hal_rcc_ex.c:1034:16
	ldr	r0, [r4]
	ands	r0, r0, #1024
	.loc	5 1034 56 is_stmt 0             @ ../src/driver/stm32g4-v120/src/stm32g4xx_hal_rcc_ex.c:1034:56
	it	ne
	movne	r0, lr
	cmp.w	r1, #3145728
	b	.LBB2_9
.Ltmp225:
.LBB2_99:
	@DEBUG_VALUE: HAL_RCCEx_GetPeriphCLKFreq:PeriphClk <- $r1
	@DEBUG_VALUE: HAL_RCCEx_GetPeriphCLKFreq:frequency <- 0
	.loc	5 864 16 is_stmt 1              @ ../src/driver/stm32g4-v120/src/stm32g4xx_hal_rcc_ex.c:864:16
	ldr.w	r0, [r4, #136]
	and	r1, r0, #3072
.Ltmp226:
	@DEBUG_VALUE: HAL_RCCEx_GetPeriphCLKFreq:srcclk <- $r1
	.loc	5 866 10                        @ ../src/driver/stm32g4-v120/src/stm32g4xx_hal_rcc_ex.c:866:10
	cmp.w	r1, #1024
	beq	.LBB2_104
.Ltmp227:
@ %bb.100:
	@DEBUG_VALUE: HAL_RCCEx_GetPeriphCLKFreq:srcclk <- $r1
	@DEBUG_VALUE: HAL_RCCEx_GetPeriphCLKFreq:frequency <- 0
	cbz	r1, .LBB2_108
.Ltmp228:
@ %bb.101:
	@DEBUG_VALUE: HAL_RCCEx_GetPeriphCLKFreq:srcclk <- $r1
	@DEBUG_VALUE: HAL_RCCEx_GetPeriphCLKFreq:frequency <- 0
	.loc	5 874 16                        @ ../src/driver/stm32g4-v120/src/stm32g4xx_hal_rcc_ex.c:874:16
	ldr	r0, [r4]
	.loc	5 874 56 is_stmt 0              @ ../src/driver/stm32g4-v120/src/stm32g4xx_hal_rcc_ex.c:874:56
	cmp.w	r1, #2048
	bne	.LBB2_103
.Ltmp229:
@ %bb.102:
	@DEBUG_VALUE: HAL_RCCEx_GetPeriphCLKFreq:srcclk <- $r1
	@DEBUG_VALUE: HAL_RCCEx_GetPeriphCLKFreq:frequency <- 0
	.loc	5 0 0                           @ ../src/driver/stm32g4-v120/src/stm32g4xx_hal_rcc_ex.c:0:0
	ands	r0, r0, #1024
.Ltmp230:
	mov	r0, lr
.Ltmp231:
	.loc	5 874 56                        @ ../src/driver/stm32g4-v120/src/stm32g4xx_hal_rcc_ex.c:874:56
	bne	.LBB2_113
.Ltmp232:
.LBB2_103:
	@DEBUG_VALUE: HAL_RCCEx_GetPeriphCLKFreq:srcclk <- $r1
	@DEBUG_VALUE: HAL_RCCEx_GetPeriphCLKFreq:frequency <- 0
	.loc	5 878 16 is_stmt 1              @ ../src/driver/stm32g4-v120/src/stm32g4xx_hal_rcc_ex.c:878:16
	ldr.w	r0, [r4, #144]
	.loc	5 878 60 is_stmt 0              @ ../src/driver/stm32g4-v120/src/stm32g4xx_hal_rcc_ex.c:878:60
	cmp.w	r1, #3072
	b	.LBB2_118
.Ltmp233:
.LBB2_104:
	@DEBUG_VALUE: HAL_RCCEx_GetPeriphCLKFreq:frequency <- 0
	.loc	5 0 0                           @ ../src/driver/stm32g4-v120/src/stm32g4xx_hal_rcc_ex.c:0:0
	pop.w	{r4, lr}
.Ltmp234:
	b	HAL_RCC_GetSysClockFreq
.Ltmp235:
.LBB2_105:
	@DEBUG_VALUE: HAL_RCCEx_GetPeriphCLKFreq:pllvco <- $r12
	@DEBUG_VALUE: HAL_RCCEx_GetPeriphCLKFreq:PeriphClk <- $r1
	@DEBUG_VALUE: HAL_RCCEx_GetPeriphCLKFreq:frequency <- 0
	.loc	5 1081 16 is_stmt 1             @ ../src/driver/stm32g4-v120/src/stm32g4xx_hal_rcc_ex.c:1081:16
	ldr.w	r0, [r4, #136]
	ands	r1, r0, #50331648
.Ltmp236:
	@DEBUG_VALUE: HAL_RCCEx_GetPeriphCLKFreq:srcclk <- $r1
	.loc	5 0 0 is_stmt 0                 @ ../src/driver/stm32g4-v120/src/stm32g4xx_hal_rcc_ex.c:0:0
	mov	r0, lr
.Ltmp237:
	.loc	5 1083 10 is_stmt 1             @ ../src/driver/stm32g4-v120/src/stm32g4xx_hal_rcc_ex.c:1083:10
	beq	.LBB2_113
.Ltmp238:
@ %bb.106:
	@DEBUG_VALUE: HAL_RCCEx_GetPeriphCLKFreq:pllvco <- $r12
	@DEBUG_VALUE: HAL_RCCEx_GetPeriphCLKFreq:srcclk <- $r1
	@DEBUG_VALUE: HAL_RCCEx_GetPeriphCLKFreq:frequency <- 0
	cmp.w	r1, #16777216
	beq	.LBB2_109
.Ltmp239:
@ %bb.107:
	@DEBUG_VALUE: HAL_RCCEx_GetPeriphCLKFreq:pllvco <- $r12
	@DEBUG_VALUE: HAL_RCCEx_GetPeriphCLKFreq:srcclk <- $r1
	@DEBUG_VALUE: HAL_RCCEx_GetPeriphCLKFreq:frequency <- 0
	cmp.w	r1, #33554432
	bne	.LBB2_110
.Ltmp240:
.LBB2_108:
	@DEBUG_VALUE: HAL_RCCEx_GetPeriphCLKFreq:srcclk <- $r1
	@DEBUG_VALUE: HAL_RCCEx_GetPeriphCLKFreq:frequency <- 0
	.loc	5 0 0 is_stmt 0                 @ ../src/driver/stm32g4-v120/src/stm32g4xx_hal_rcc_ex.c:0:0
	pop.w	{r4, lr}
.Ltmp241:
	b	HAL_RCC_GetPCLK1Freq
.Ltmp242:
.LBB2_109:
	@DEBUG_VALUE: HAL_RCCEx_GetPeriphCLKFreq:pllvco <- $r12
	@DEBUG_VALUE: HAL_RCCEx_GetPeriphCLKFreq:srcclk <- $r1
	@DEBUG_VALUE: HAL_RCCEx_GetPeriphCLKFreq:frequency <- 0
	ldr	r0, [r4, #12]
	lsls	r0, r0, #11
	bmi	.LBB2_111
.Ltmp243:
.LBB2_110:
	@DEBUG_VALUE: HAL_RCCEx_GetPeriphCLKFreq:pllvco <- $r12
	movs	r0, #0
.Ltmp244:
	@DEBUG_VALUE: HAL_RCCEx_GetPeriphCLKFreq:frequency <- $r0
	.loc	5 1259 3 is_stmt 1              @ ../src/driver/stm32g4-v120/src/stm32g4xx_hal_rcc_ex.c:1259:3
	pop	{r4, pc}
.Ltmp245:
.LBB2_111:
	@DEBUG_VALUE: HAL_RCCEx_GetPeriphCLKFreq:pllvco <- $r12
	@DEBUG_VALUE: HAL_RCCEx_GetPeriphCLKFreq:srcclk <- $r1
	.loc	5 0 0 is_stmt 0                 @ ../src/driver/stm32g4-v120/src/stm32g4xx_hal_rcc_ex.c:0:0
	ldr	r0, [r4, #12]
	ldr	r1, [r4, #12]
.Ltmp246:
	ubfx	r0, r0, #8, #7
.Ltmp247:
	@DEBUG_VALUE: HAL_RCCEx_GetPeriphCLKFreq:plln <- $r0
	ubfx	r1, r1, #21, #2
	movs	r2, #2
	mul	r0, r0, r12
.Ltmp248:
	add.w	r1, r2, r1, lsl #1
.Ltmp249:
.LBB2_112:
	@DEBUG_VALUE: HAL_RCCEx_GetPeriphCLKFreq:pllvco <- $r12
	udiv	r0, r0, r1
.Ltmp250:
	@DEBUG_VALUE: HAL_RCCEx_GetPeriphCLKFreq:frequency <- $r0
	@DEBUG_VALUE: HAL_RCCEx_GetPeriphCLKFreq:frequency <- $r0
.LBB2_113:
	@DEBUG_VALUE: HAL_RCCEx_GetPeriphCLKFreq:frequency <- $r0
	.loc	5 1259 3                        @ ../src/driver/stm32g4-v120/src/stm32g4xx_hal_rcc_ex.c:1259:3
	pop	{r4, pc}
.Ltmp251:
.LBB2_114:
	@DEBUG_VALUE: HAL_RCCEx_GetPeriphCLKFreq:pllvco <- $r12
	@DEBUG_VALUE: HAL_RCCEx_GetPeriphCLKFreq:srcclk <- $r1
	@DEBUG_VALUE: HAL_RCCEx_GetPeriphCLKFreq:frequency <- 0
	.loc	5 0 3                           @ ../src/driver/stm32g4-v120/src/stm32g4xx_hal_rcc_ex.c:0:3
	movw	r0, #32768
	movt	r0, #187
.Ltmp252:
	@DEBUG_VALUE: HAL_RCCEx_GetPeriphCLKFreq:frequency <- $r0
	.loc	5 1259 3                        @ ../src/driver/stm32g4-v120/src/stm32g4xx_hal_rcc_ex.c:1259:3
	pop	{r4, pc}
.Ltmp253:
.LBB2_115:
	@DEBUG_VALUE: HAL_RCCEx_GetPeriphCLKFreq:srcclk <- $r1
	@DEBUG_VALUE: HAL_RCCEx_GetPeriphCLKFreq:frequency <- 0
	.loc	5 735 16 is_stmt 1              @ ../src/driver/stm32g4-v120/src/stm32g4xx_hal_rcc_ex.c:735:16
	ldr	r0, [r4]
	.loc	5 735 56 is_stmt 0              @ ../src/driver/stm32g4-v120/src/stm32g4xx_hal_rcc_ex.c:735:56
	cmp	r1, #2
	bne	.LBB2_117
.Ltmp254:
@ %bb.116:
	@DEBUG_VALUE: HAL_RCCEx_GetPeriphCLKFreq:srcclk <- $r1
	@DEBUG_VALUE: HAL_RCCEx_GetPeriphCLKFreq:frequency <- 0
	.loc	5 0 0                           @ ../src/driver/stm32g4-v120/src/stm32g4xx_hal_rcc_ex.c:0:0
	ands	r0, r0, #1024
.Ltmp255:
	mov	r0, lr
.Ltmp256:
	.loc	5 735 56                        @ ../src/driver/stm32g4-v120/src/stm32g4xx_hal_rcc_ex.c:735:56
	bne	.LBB2_113
.Ltmp257:
.LBB2_117:
	@DEBUG_VALUE: HAL_RCCEx_GetPeriphCLKFreq:srcclk <- $r1
	@DEBUG_VALUE: HAL_RCCEx_GetPeriphCLKFreq:frequency <- 0
	.loc	5 739 16 is_stmt 1              @ ../src/driver/stm32g4-v120/src/stm32g4xx_hal_rcc_ex.c:739:16
	ldr.w	r0, [r4, #144]
	.loc	5 739 60 is_stmt 0              @ ../src/driver/stm32g4-v120/src/stm32g4xx_hal_rcc_ex.c:739:60
	cmp	r1, #3
.Ltmp258:
.LBB2_118:
	@DEBUG_VALUE: HAL_RCCEx_GetPeriphCLKFreq:srcclk <- $r1
	@DEBUG_VALUE: HAL_RCCEx_GetPeriphCLKFreq:frequency <- 0
	.loc	5 0 0                           @ ../src/driver/stm32g4-v120/src/stm32g4xx_hal_rcc_ex.c:0:0
	and	r2, r0, #2
	mov.w	r0, #0
.Ltmp259:
	.loc	5 850 60 is_stmt 1              @ ../src/driver/stm32g4-v120/src/stm32g4xx_hal_rcc_ex.c:850:60
	it	eq
	lsleq	r0, r2, #14
.Ltmp260:
	@DEBUG_VALUE: HAL_RCCEx_GetPeriphCLKFreq:frequency <- $r0
	.loc	5 1259 3                        @ ../src/driver/stm32g4-v120/src/stm32g4xx_hal_rcc_ex.c:1259:3
	pop	{r4, pc}
.Ltmp261:
.LBB2_119:
	@DEBUG_VALUE: HAL_RCCEx_GetPeriphCLKFreq:pllvco <- $r12
	@DEBUG_VALUE: HAL_RCCEx_GetPeriphCLKFreq:plln <- $r0
	@DEBUG_VALUE: HAL_RCCEx_GetPeriphCLKFreq:frequency <- 0
	.loc	5 0 0 is_stmt 0                 @ ../src/driver/stm32g4-v120/src/stm32g4xx_hal_rcc_ex.c:0:0
	ldr	r1, [r4, #12]
	lsls	r1, r1, #14
	mov.w	r1, #17
	it	pl
	movpl	r1, #7
.Ltmp262:
.LBB2_120:
	@DEBUG_VALUE: HAL_RCCEx_GetPeriphCLKFreq:pllvco <- $r12
	@DEBUG_VALUE: HAL_RCCEx_GetPeriphCLKFreq:plln <- $r0
	@DEBUG_VALUE: HAL_RCCEx_GetPeriphCLKFreq:frequency <- 0
	@DEBUG_VALUE: HAL_RCCEx_GetPeriphCLKFreq:pllp <- $r1
	mul	r0, r0, r12
.Ltmp263:
	b	.LBB2_112
.Ltmp264:
.Lfunc_end2:
	.size	HAL_RCCEx_GetPeriphCLKFreq, .Lfunc_end2-HAL_RCCEx_GetPeriphCLKFreq
	.cfi_endproc
	.file	6 "C:\\Users\\grodriguez\\Documents\\iit\\icub-firmware\\emBODY\\eBcode\\arch-arm\\libs\\lowlevel\\stm32hal\\proj" "../api\\../src/driver/stm32g4-v120/inc/stm32g4xx_hal_rcc.h"
	.cantunwind
	.fnend
                                        @ -- End function
	.section	.text.HAL_RCCEx_EnableLSECSS,"ax",%progbits
	.hidden	HAL_RCCEx_EnableLSECSS          @ -- Begin function HAL_RCCEx_EnableLSECSS
	.globl	HAL_RCCEx_EnableLSECSS
	.p2align	1
	.type	HAL_RCCEx_EnableLSECSS,%function
	.code	16                              @ @HAL_RCCEx_EnableLSECSS
	.thumb_func
HAL_RCCEx_EnableLSECSS:
.Lfunc_begin3:
	.loc	5 1289 0 is_stmt 1              @ ../src/driver/stm32g4-v120/src/stm32g4xx_hal_rcc_ex.c:1289:0
	.fnstart
	.cfi_startproc
@ %bb.0:
	movw	r0, #4240
	movt	r0, #16386
.Ltmp265:
	.loc	5 1290 3 prologue_end           @ ../src/driver/stm32g4-v120/src/stm32g4xx_hal_rcc_ex.c:1290:3
	ldr	r1, [r0]
	orr	r1, r1, #32
	str	r1, [r0]
	.loc	5 1291 1                        @ ../src/driver/stm32g4-v120/src/stm32g4xx_hal_rcc_ex.c:1291:1
	bx	lr
.Ltmp266:
.Lfunc_end3:
	.size	HAL_RCCEx_EnableLSECSS, .Lfunc_end3-HAL_RCCEx_EnableLSECSS
	.cfi_endproc
	.cantunwind
	.fnend
                                        @ -- End function
	.section	.text.HAL_RCCEx_DisableLSECSS,"ax",%progbits
	.hidden	HAL_RCCEx_DisableLSECSS         @ -- Begin function HAL_RCCEx_DisableLSECSS
	.globl	HAL_RCCEx_DisableLSECSS
	.p2align	1
	.type	HAL_RCCEx_DisableLSECSS,%function
	.code	16                              @ @HAL_RCCEx_DisableLSECSS
	.thumb_func
HAL_RCCEx_DisableLSECSS:
.Lfunc_begin4:
	.loc	5 1299 0                        @ ../src/driver/stm32g4-v120/src/stm32g4xx_hal_rcc_ex.c:1299:0
	.fnstart
	.cfi_startproc
@ %bb.0:
	movw	r0, #4120
	movt	r0, #16386
.Ltmp267:
	.loc	5 1300 3 prologue_end           @ ../src/driver/stm32g4-v120/src/stm32g4xx_hal_rcc_ex.c:1300:3
	ldr	r1, [r0, #120]
	bic	r1, r1, #32
	str	r1, [r0, #120]
	.loc	5 1303 3                        @ ../src/driver/stm32g4-v120/src/stm32g4xx_hal_rcc_ex.c:1303:3
	ldr	r1, [r0]
	bic	r1, r1, #512
	str	r1, [r0]
	.loc	5 1304 1                        @ ../src/driver/stm32g4-v120/src/stm32g4xx_hal_rcc_ex.c:1304:1
	bx	lr
.Ltmp268:
.Lfunc_end4:
	.size	HAL_RCCEx_DisableLSECSS, .Lfunc_end4-HAL_RCCEx_DisableLSECSS
	.cfi_endproc
	.cantunwind
	.fnend
                                        @ -- End function
	.section	.text.HAL_RCCEx_EnableLSECSS_IT,"ax",%progbits
	.hidden	HAL_RCCEx_EnableLSECSS_IT       @ -- Begin function HAL_RCCEx_EnableLSECSS_IT
	.globl	HAL_RCCEx_EnableLSECSS_IT
	.p2align	1
	.type	HAL_RCCEx_EnableLSECSS_IT,%function
	.code	16                              @ @HAL_RCCEx_EnableLSECSS_IT
	.thumb_func
HAL_RCCEx_EnableLSECSS_IT:
.Lfunc_begin5:
	.loc	5 1312 0                        @ ../src/driver/stm32g4-v120/src/stm32g4xx_hal_rcc_ex.c:1312:0
	.fnstart
	.cfi_startproc
@ %bb.0:
	movw	r0, #4120
	movt	r0, #16386
.Ltmp269:
	.loc	5 1314 3 prologue_end           @ ../src/driver/stm32g4-v120/src/stm32g4xx_hal_rcc_ex.c:1314:3
	ldr	r1, [r0, #120]
	orr	r1, r1, #32
	str	r1, [r0, #120]
	.loc	5 1317 3                        @ ../src/driver/stm32g4-v120/src/stm32g4xx_hal_rcc_ex.c:1317:3
	ldr	r1, [r0]
	orr	r1, r1, #512
	str	r1, [r0]
	movw	r0, #1024
	movt	r0, #16385
	.loc	5 1320 3                        @ ../src/driver/stm32g4-v120/src/stm32g4xx_hal_rcc_ex.c:1320:3
	ldr	r1, [r0]
	orr	r1, r1, #524288
	str	r1, [r0]
	.loc	5 1321 3                        @ ../src/driver/stm32g4-v120/src/stm32g4xx_hal_rcc_ex.c:1321:3
	ldr	r1, [r0, #8]
	orr	r1, r1, #524288
	str	r1, [r0, #8]
	.loc	5 1322 1                        @ ../src/driver/stm32g4-v120/src/stm32g4xx_hal_rcc_ex.c:1322:1
	bx	lr
.Ltmp270:
.Lfunc_end5:
	.size	HAL_RCCEx_EnableLSECSS_IT, .Lfunc_end5-HAL_RCCEx_EnableLSECSS_IT
	.cfi_endproc
	.cantunwind
	.fnend
                                        @ -- End function
	.section	.text.HAL_RCCEx_LSECSS_IRQHandler,"ax",%progbits
	.hidden	HAL_RCCEx_LSECSS_IRQHandler     @ -- Begin function HAL_RCCEx_LSECSS_IRQHandler
	.globl	HAL_RCCEx_LSECSS_IRQHandler
	.p2align	1
	.type	HAL_RCCEx_LSECSS_IRQHandler,%function
	.code	16                              @ @HAL_RCCEx_LSECSS_IRQHandler
	.thumb_func
HAL_RCCEx_LSECSS_IRQHandler:
.Lfunc_begin6:
	.loc	5 1329 0                        @ ../src/driver/stm32g4-v120/src/stm32g4xx_hal_rcc_ex.c:1329:0
	.fnstart
	.cfi_startproc
@ %bb.0:
	.save	{r4, lr}
	push	{r4, lr}
	.cfi_def_cfa_offset 8
	.cfi_offset lr, -4
	.cfi_offset r4, -8
	movw	r4, #4124
	movt	r4, #16386
.Ltmp271:
	.loc	5 1331 6 prologue_end           @ ../src/driver/stm32g4-v120/src/stm32g4xx_hal_rcc_ex.c:1331:6
	ldr	r0, [r4]
.Ltmp272:
	.loc	5 1331 6 is_stmt 0              @ ../src/driver/stm32g4-v120/src/stm32g4xx_hal_rcc_ex.c:1331:6
	lsls	r0, r0, #22
	.loc	5 1339 1 is_stmt 1              @ ../src/driver/stm32g4-v120/src/stm32g4xx_hal_rcc_ex.c:1339:1
	it	pl
	poppl	{r4, pc}
.LBB6_1:
.Ltmp273:
	.loc	5 1334 5                        @ ../src/driver/stm32g4-v120/src/stm32g4xx_hal_rcc_ex.c:1334:5
	bl	HAL_RCCEx_LSECSS_Callback
.Ltmp274:
	.loc	5 0 5 is_stmt 0                 @ ../src/driver/stm32g4-v120/src/stm32g4xx_hal_rcc_ex.c:0:5
	mov.w	r0, #512
	.loc	5 1337 5 is_stmt 1              @ ../src/driver/stm32g4-v120/src/stm32g4xx_hal_rcc_ex.c:1337:5
	str	r0, [r4, #4]
.Ltmp275:
	.loc	5 1339 1                        @ ../src/driver/stm32g4-v120/src/stm32g4xx_hal_rcc_ex.c:1339:1
	pop	{r4, pc}
.Ltmp276:
.Lfunc_end6:
	.size	HAL_RCCEx_LSECSS_IRQHandler, .Lfunc_end6-HAL_RCCEx_LSECSS_IRQHandler
	.cfi_endproc
	.cantunwind
	.fnend
                                        @ -- End function
	.section	.text.HAL_RCCEx_LSECSS_Callback,"ax",%progbits
	.hidden	HAL_RCCEx_LSECSS_Callback       @ -- Begin function HAL_RCCEx_LSECSS_Callback
	.weak	HAL_RCCEx_LSECSS_Callback
	.p2align	1
	.type	HAL_RCCEx_LSECSS_Callback,%function
	.code	16                              @ @HAL_RCCEx_LSECSS_Callback
	.thumb_func
HAL_RCCEx_LSECSS_Callback:
.Lfunc_begin7:
	.loc	5 1346 0                        @ ../src/driver/stm32g4-v120/src/stm32g4xx_hal_rcc_ex.c:1346:0
	.fnstart
	.cfi_startproc
@ %bb.0:
	.loc	5 1350 1 prologue_end           @ ../src/driver/stm32g4-v120/src/stm32g4xx_hal_rcc_ex.c:1350:1
	bx	lr
.Ltmp277:
.Lfunc_end7:
	.size	HAL_RCCEx_LSECSS_Callback, .Lfunc_end7-HAL_RCCEx_LSECSS_Callback
	.cfi_endproc
	.cantunwind
	.fnend
                                        @ -- End function
	.section	.text.HAL_RCCEx_EnableLSCO,"ax",%progbits
	.hidden	HAL_RCCEx_EnableLSCO            @ -- Begin function HAL_RCCEx_EnableLSCO
	.globl	HAL_RCCEx_EnableLSCO
	.p2align	1
	.type	HAL_RCCEx_EnableLSCO,%function
	.code	16                              @ @HAL_RCCEx_EnableLSCO
	.thumb_func
HAL_RCCEx_EnableLSCO:
.Lfunc_begin8:
	.loc	5 1361 0                        @ ../src/driver/stm32g4-v120/src/stm32g4xx_hal_rcc_ex.c:1361:0
	.fnstart
	.cfi_startproc
@ %bb.0:
	@DEBUG_VALUE: HAL_RCCEx_EnableLSCO:LSCOSource <- $r0
	.save	{r4, r5, r6, lr}
	push	{r4, r5, r6, lr}
	.cfi_def_cfa_offset 16
	.cfi_offset lr, -4
	.cfi_offset r6, -8
	.cfi_offset r5, -12
	.cfi_offset r4, -16
	.pad	#24
	sub	sp, #24
	.cfi_def_cfa_offset 40
	movw	r5, #4172
	movt	r5, #16386
.Ltmp278:
	@DEBUG_VALUE: HAL_RCCEx_EnableLSCO:backupchanged <- 0
	@DEBUG_VALUE: HAL_RCCEx_EnableLSCO:pwrclkchanged <- 0
	.loc	5 1370 3 prologue_end           @ ../src/driver/stm32g4-v120/src/stm32g4xx_hal_rcc_ex.c:1370:3
	ldr	r1, [r5]
	mov	r4, r0
.Ltmp279:
	@DEBUG_VALUE: HAL_RCCEx_EnableLSCO:LSCOSource <- $r4
	@DEBUG_VALUE: HAL_RCCEx_EnableLSCO:LSCOSource <- $r4
	orr	r1, r1, #1
	str	r1, [r5]
	ldr	r1, [r5]
	and	r0, r1, #1
	str	r0, [sp, #4]
	ldr	r0, [sp, #4]
	movs	r0, #4
.Ltmp280:
	.loc	5 1373 23                       @ ../src/driver/stm32g4-v120/src/stm32g4xx_hal_rcc_ex.c:1373:23
	str	r0, [sp, #4]
	movs	r0, #3
	.loc	5 1374 24                       @ ../src/driver/stm32g4-v120/src/stm32g4xx_hal_rcc_ex.c:1374:24
	str	r0, [sp, #8]
	movs	r0, #2
	.loc	5 1375 25                       @ ../src/driver/stm32g4-v120/src/stm32g4xx_hal_rcc_ex.c:1375:25
	str	r0, [sp, #16]
	movs	r0, #0
	.loc	5 1376 24                       @ ../src/driver/stm32g4-v120/src/stm32g4xx_hal_rcc_ex.c:1376:24
	str	r0, [sp, #12]
	add	r1, sp, #4
	.loc	5 1377 3                        @ ../src/driver/stm32g4-v120/src/stm32g4xx_hal_rcc_ex.c:1377:3
	mov.w	r0, #1207959552
	bl	HAL_GPIO_Init
.Ltmp281:
	.loc	5 1380 6                        @ ../src/driver/stm32g4-v120/src/stm32g4xx_hal_rcc_ex.c:1380:6
	ldr	r0, [r5, #12]
	ands	r6, r0, #268435456
.Ltmp282:
	.loc	5 1380 6 is_stmt 0              @ ../src/driver/stm32g4-v120/src/stm32g4xx_hal_rcc_ex.c:1380:6
	bne	.LBB8_2
.Ltmp283:
@ %bb.1:
	@DEBUG_VALUE: HAL_RCCEx_EnableLSCO:LSCOSource <- $r4
	@DEBUG_VALUE: HAL_RCCEx_EnableLSCO:pwrclkchanged <- 0
	@DEBUG_VALUE: HAL_RCCEx_EnableLSCO:backupchanged <- 0
	.loc	5 1382 5 is_stmt 1              @ ../src/driver/stm32g4-v120/src/stm32g4xx_hal_rcc_ex.c:1382:5
	ldr	r0, [r5, #12]
	orr	r0, r0, #268435456
	str	r0, [r5, #12]
	ldr	r0, [r5, #12]
	and	r0, r0, #268435456
	str	r0, [sp]
	ldr	r0, [sp]
.Ltmp284:
	@DEBUG_VALUE: HAL_RCCEx_EnableLSCO:pwrclkchanged <- 1
.LBB8_2:
	@DEBUG_VALUE: HAL_RCCEx_EnableLSCO:LSCOSource <- $r4
	@DEBUG_VALUE: HAL_RCCEx_EnableLSCO:backupchanged <- 0
	@DEBUG_VALUE: HAL_RCCEx_EnableLSCO:pwrclkchanged <- undef
	.loc	5 0 5 is_stmt 0                 @ ../src/driver/stm32g4-v120/src/stm32g4xx_hal_rcc_ex.c:0:5
	movw	r0, #28672
	movt	r0, #16384
.Ltmp285:
	.loc	5 1385 6 is_stmt 1              @ ../src/driver/stm32g4-v120/src/stm32g4xx_hal_rcc_ex.c:1385:6
	ldr	r0, [r0]
.Ltmp286:
	.loc	5 1385 6 is_stmt 0              @ ../src/driver/stm32g4-v120/src/stm32g4xx_hal_rcc_ex.c:1385:6
	lsls	r0, r0, #23
	bmi	.LBB8_4
.Ltmp287:
@ %bb.3:
	@DEBUG_VALUE: HAL_RCCEx_EnableLSCO:LSCOSource <- $r4
	@DEBUG_VALUE: HAL_RCCEx_EnableLSCO:backupchanged <- 0
	.loc	5 1387 5 is_stmt 1              @ ../src/driver/stm32g4-v120/src/stm32g4xx_hal_rcc_ex.c:1387:5
	bl	HAL_PWR_EnableBkUpAccess
.Ltmp288:
	@DEBUG_VALUE: HAL_RCCEx_EnableLSCO:backupchanged <- undef
	.loc	5 1391 3                        @ ../src/driver/stm32g4-v120/src/stm32g4xx_hal_rcc_ex.c:1391:3
	ldr	r0, [r5, #68]
	bic	r0, r0, #50331648
	orrs	r0, r4
	orr	r0, r0, #16777216
	str	r0, [r5, #68]
.Ltmp289:
	.loc	5 1395 5                        @ ../src/driver/stm32g4-v120/src/stm32g4xx_hal_rcc_ex.c:1395:5
	bl	HAL_PWR_DisableBkUpAccess
.Ltmp290:
	.loc	5 0 5 is_stmt 0                 @ ../src/driver/stm32g4-v120/src/stm32g4xx_hal_rcc_ex.c:0:5
	b	.LBB8_5
.Ltmp291:
.LBB8_4:
	@DEBUG_VALUE: HAL_RCCEx_EnableLSCO:LSCOSource <- $r4
	@DEBUG_VALUE: HAL_RCCEx_EnableLSCO:backupchanged <- 0
	@DEBUG_VALUE: HAL_RCCEx_EnableLSCO:backupchanged <- undef
	.loc	5 1391 3 is_stmt 1              @ ../src/driver/stm32g4-v120/src/stm32g4xx_hal_rcc_ex.c:1391:3
	ldr	r0, [r5, #68]
	bic	r0, r0, #50331648
	orrs	r0, r4
	orr	r0, r0, #16777216
	str	r0, [r5, #68]
.Ltmp292:
.LBB8_5:
	@DEBUG_VALUE: HAL_RCCEx_EnableLSCO:LSCOSource <- $r4
	.loc	5 1397 6                        @ ../src/driver/stm32g4-v120/src/stm32g4xx_hal_rcc_ex.c:1397:6
	cbnz	r6, .LBB8_7
.Ltmp293:
@ %bb.6:
	@DEBUG_VALUE: HAL_RCCEx_EnableLSCO:LSCOSource <- $r4
	.loc	5 1399 5                        @ ../src/driver/stm32g4-v120/src/stm32g4xx_hal_rcc_ex.c:1399:5
	ldr	r0, [r5, #12]
	bic	r0, r0, #268435456
	str	r0, [r5, #12]
.Ltmp294:
.LBB8_7:
	@DEBUG_VALUE: HAL_RCCEx_EnableLSCO:LSCOSource <- $r4
	.loc	5 1401 1                        @ ../src/driver/stm32g4-v120/src/stm32g4xx_hal_rcc_ex.c:1401:1
	add	sp, #24
	pop	{r4, r5, r6, pc}
.Ltmp295:
.Lfunc_end8:
	.size	HAL_RCCEx_EnableLSCO, .Lfunc_end8-HAL_RCCEx_EnableLSCO
	.cfi_endproc
	.cantunwind
	.fnend
                                        @ -- End function
	.section	.text.HAL_RCCEx_DisableLSCO,"ax",%progbits
	.hidden	HAL_RCCEx_DisableLSCO           @ -- Begin function HAL_RCCEx_DisableLSCO
	.globl	HAL_RCCEx_DisableLSCO
	.p2align	1
	.type	HAL_RCCEx_DisableLSCO,%function
	.code	16                              @ @HAL_RCCEx_DisableLSCO
	.thumb_func
HAL_RCCEx_DisableLSCO:
.Lfunc_begin9:
	.loc	5 1408 0                        @ ../src/driver/stm32g4-v120/src/stm32g4xx_hal_rcc_ex.c:1408:0
	.fnstart
	.cfi_startproc
@ %bb.0:
	.save	{r4, r5, r7, lr}
	push	{r4, r5, r7, lr}
	.cfi_def_cfa_offset 16
	.cfi_offset lr, -4
	.cfi_offset r7, -8
	.cfi_offset r5, -12
	.cfi_offset r4, -16
	.pad	#8
	sub	sp, #8
	.cfi_def_cfa_offset 24
	movw	r4, #4184
	movt	r4, #16386
.Ltmp296:
	@DEBUG_VALUE: HAL_RCCEx_DisableLSCO:backupchanged <- 0
	@DEBUG_VALUE: HAL_RCCEx_DisableLSCO:pwrclkchanged <- 0
	.loc	5 1413 6 prologue_end           @ ../src/driver/stm32g4-v120/src/stm32g4xx_hal_rcc_ex.c:1413:6
	ldr	r0, [r4]
	ands	r5, r0, #268435456
.Ltmp297:
	.loc	5 1413 6 is_stmt 0              @ ../src/driver/stm32g4-v120/src/stm32g4xx_hal_rcc_ex.c:1413:6
	bne	.LBB9_2
.Ltmp298:
@ %bb.1:
	@DEBUG_VALUE: HAL_RCCEx_DisableLSCO:pwrclkchanged <- 0
	@DEBUG_VALUE: HAL_RCCEx_DisableLSCO:backupchanged <- 0
	.loc	5 1415 5 is_stmt 1              @ ../src/driver/stm32g4-v120/src/stm32g4xx_hal_rcc_ex.c:1415:5
	ldr	r0, [r4]
	orr	r0, r0, #268435456
	str	r0, [r4]
	ldr	r0, [r4]
	and	r0, r0, #268435456
	str	r0, [sp, #4]
	ldr	r0, [sp, #4]
.Ltmp299:
	@DEBUG_VALUE: HAL_RCCEx_DisableLSCO:pwrclkchanged <- 1
.LBB9_2:
	@DEBUG_VALUE: HAL_RCCEx_DisableLSCO:backupchanged <- 0
	@DEBUG_VALUE: HAL_RCCEx_DisableLSCO:pwrclkchanged <- undef
	.loc	5 0 5 is_stmt 0                 @ ../src/driver/stm32g4-v120/src/stm32g4xx_hal_rcc_ex.c:0:5
	movw	r0, #28672
	movt	r0, #16384
.Ltmp300:
	.loc	5 1418 6 is_stmt 1              @ ../src/driver/stm32g4-v120/src/stm32g4xx_hal_rcc_ex.c:1418:6
	ldr	r0, [r0]
.Ltmp301:
	.loc	5 1418 6 is_stmt 0              @ ../src/driver/stm32g4-v120/src/stm32g4xx_hal_rcc_ex.c:1418:6
	lsls	r0, r0, #23
	bmi	.LBB9_4
.Ltmp302:
@ %bb.3:
	@DEBUG_VALUE: HAL_RCCEx_DisableLSCO:backupchanged <- 0
	.loc	5 1421 5 is_stmt 1              @ ../src/driver/stm32g4-v120/src/stm32g4xx_hal_rcc_ex.c:1421:5
	bl	HAL_PWR_EnableBkUpAccess
.Ltmp303:
	@DEBUG_VALUE: HAL_RCCEx_DisableLSCO:backupchanged <- undef
	.loc	5 1425 3                        @ ../src/driver/stm32g4-v120/src/stm32g4xx_hal_rcc_ex.c:1425:3
	ldr	r0, [r4, #56]
	bic	r0, r0, #16777216
	str	r0, [r4, #56]
.Ltmp304:
	.loc	5 1431 5                        @ ../src/driver/stm32g4-v120/src/stm32g4xx_hal_rcc_ex.c:1431:5
	bl	HAL_PWR_DisableBkUpAccess
.Ltmp305:
	.loc	5 0 5 is_stmt 0                 @ ../src/driver/stm32g4-v120/src/stm32g4xx_hal_rcc_ex.c:0:5
	b	.LBB9_5
.Ltmp306:
.LBB9_4:
	@DEBUG_VALUE: HAL_RCCEx_DisableLSCO:backupchanged <- 0
	@DEBUG_VALUE: HAL_RCCEx_DisableLSCO:backupchanged <- undef
	.loc	5 1425 3 is_stmt 1              @ ../src/driver/stm32g4-v120/src/stm32g4xx_hal_rcc_ex.c:1425:3
	ldr	r0, [r4, #56]
	bic	r0, r0, #16777216
	str	r0, [r4, #56]
.Ltmp307:
.LBB9_5:
	.loc	5 1433 6                        @ ../src/driver/stm32g4-v120/src/stm32g4xx_hal_rcc_ex.c:1433:6
	cbnz	r5, .LBB9_7
@ %bb.6:
.Ltmp308:
	.loc	5 1435 5                        @ ../src/driver/stm32g4-v120/src/stm32g4xx_hal_rcc_ex.c:1435:5
	ldr	r0, [r4]
	bic	r0, r0, #268435456
	str	r0, [r4]
.Ltmp309:
.LBB9_7:
	.loc	5 1437 1                        @ ../src/driver/stm32g4-v120/src/stm32g4xx_hal_rcc_ex.c:1437:1
	add	sp, #8
	pop	{r4, r5, r7, pc}
.Ltmp310:
.Lfunc_end9:
	.size	HAL_RCCEx_DisableLSCO, .Lfunc_end9-HAL_RCCEx_DisableLSCO
	.cfi_endproc
	.cantunwind
	.fnend
                                        @ -- End function
	.section	.text.HAL_RCCEx_CRSConfig,"ax",%progbits
	.hidden	HAL_RCCEx_CRSConfig             @ -- Begin function HAL_RCCEx_CRSConfig
	.globl	HAL_RCCEx_CRSConfig
	.p2align	1
	.type	HAL_RCCEx_CRSConfig,%function
	.code	16                              @ @HAL_RCCEx_CRSConfig
	.thumb_func
HAL_RCCEx_CRSConfig:
.Lfunc_begin10:
	.loc	5 1516 0                        @ ../src/driver/stm32g4-v120/src/stm32g4xx_hal_rcc_ex.c:1516:0
	.fnstart
	.cfi_startproc
@ %bb.0:
	@DEBUG_VALUE: HAL_RCCEx_CRSConfig:pInit <- $r0
	movw	r1, #4152
	movt	r1, #16386
.Ltmp311:
	.loc	5 1530 3 prologue_end           @ ../src/driver/stm32g4-v120/src/stm32g4xx_hal_rcc_ex.c:1530:3
	ldr	r2, [r1]
	orr	r2, r2, #256
	str	r2, [r1]
	.loc	5 1531 3                        @ ../src/driver/stm32g4-v120/src/stm32g4xx_hal_rcc_ex.c:1531:3
	ldr	r2, [r1]
	@DEBUG_VALUE: HAL_RCCEx_CRSConfig:pInit <- $r0
	bic	r2, r2, #256
	str	r2, [r1]
	.loc	5 1536 19                       @ ../src/driver/stm32g4-v120/src/stm32g4xx_hal_rcc_ex.c:1536:19
	ldm.w	r0, {r1, r2, r3, r12}
	.loc	5 1536 29 is_stmt 0             @ ../src/driver/stm32g4-v120/src/stm32g4xx_hal_rcc_ex.c:1536:29
	orrs	r1, r2
	.loc	5 1536 45                       @ ../src/driver/stm32g4-v120/src/stm32g4xx_hal_rcc_ex.c:1536:45
	orrs	r1, r3
.Ltmp312:
	@DEBUG_VALUE: HAL_RCCEx_CRSConfig:value <- $r1
	.loc	5 1540 20 is_stmt 1             @ ../src/driver/stm32g4-v120/src/stm32g4xx_hal_rcc_ex.c:1540:20
	ldr	r2, [r0, #16]
	.loc	5 1538 9                        @ ../src/driver/stm32g4-v120/src/stm32g4xx_hal_rcc_ex.c:1538:9
	orr.w	r1, r1, r12
.Ltmp313:
	@DEBUG_VALUE: HAL_RCCEx_CRSConfig:value <- $r1
	.loc	5 1540 9                        @ ../src/driver/stm32g4-v120/src/stm32g4xx_hal_rcc_ex.c:1540:9
	orr.w	r1, r1, r2, lsl #16
.Ltmp314:
	@DEBUG_VALUE: HAL_RCCEx_CRSConfig:value <- $r1
	.loc	5 0 9 is_stmt 0                 @ ../src/driver/stm32g4-v120/src/stm32g4xx_hal_rcc_ex.c:0:9
	movw	r2, #8192
	movt	r2, #16384
	.loc	5 1541 3 is_stmt 1              @ ../src/driver/stm32g4-v120/src/stm32g4xx_hal_rcc_ex.c:1541:3
	str	r1, [r2, #4]
	.loc	5 1545 3                        @ ../src/driver/stm32g4-v120/src/stm32g4xx_hal_rcc_ex.c:1545:3
	ldr	r1, [r2]
.Ltmp315:
	ldr	r0, [r0, #20]
.Ltmp316:
	@DEBUG_VALUE: HAL_RCCEx_CRSConfig:pInit <- [DW_OP_LLVM_entry_value 1] $r0
	bic	r1, r1, #32512
	orr.w	r0, r1, r0, lsl #8
	str	r0, [r2]
	.loc	5 1550 3                        @ ../src/driver/stm32g4-v120/src/stm32g4xx_hal_rcc_ex.c:1550:3
	ldr	r0, [r2]
	orr	r0, r0, #96
	str	r0, [r2]
	.loc	5 1551 1                        @ ../src/driver/stm32g4-v120/src/stm32g4xx_hal_rcc_ex.c:1551:1
	bx	lr
.Ltmp317:
.Lfunc_end10:
	.size	HAL_RCCEx_CRSConfig, .Lfunc_end10-HAL_RCCEx_CRSConfig
	.cfi_endproc
	.cantunwind
	.fnend
                                        @ -- End function
	.section	.text.HAL_RCCEx_CRSSoftwareSynchronizationGenerate,"ax",%progbits
	.hidden	HAL_RCCEx_CRSSoftwareSynchronizationGenerate @ -- Begin function HAL_RCCEx_CRSSoftwareSynchronizationGenerate
	.globl	HAL_RCCEx_CRSSoftwareSynchronizationGenerate
	.p2align	1
	.type	HAL_RCCEx_CRSSoftwareSynchronizationGenerate,%function
	.code	16                              @ @HAL_RCCEx_CRSSoftwareSynchronizationGenerate
	.thumb_func
HAL_RCCEx_CRSSoftwareSynchronizationGenerate:
.Lfunc_begin11:
	.loc	5 1558 0                        @ ../src/driver/stm32g4-v120/src/stm32g4xx_hal_rcc_ex.c:1558:0
	.fnstart
	.cfi_startproc
@ %bb.0:
	movw	r0, #8192
	movt	r0, #16384
.Ltmp318:
	.loc	5 1559 3 prologue_end           @ ../src/driver/stm32g4-v120/src/stm32g4xx_hal_rcc_ex.c:1559:3
	ldr	r1, [r0]
	orr	r1, r1, #128
	str	r1, [r0]
	.loc	5 1560 1                        @ ../src/driver/stm32g4-v120/src/stm32g4xx_hal_rcc_ex.c:1560:1
	bx	lr
.Ltmp319:
.Lfunc_end11:
	.size	HAL_RCCEx_CRSSoftwareSynchronizationGenerate, .Lfunc_end11-HAL_RCCEx_CRSSoftwareSynchronizationGenerate
	.cfi_endproc
	.cantunwind
	.fnend
                                        @ -- End function
	.section	.text.HAL_RCCEx_CRSGetSynchronizationInfo,"ax",%progbits
	.hidden	HAL_RCCEx_CRSGetSynchronizationInfo @ -- Begin function HAL_RCCEx_CRSGetSynchronizationInfo
	.globl	HAL_RCCEx_CRSGetSynchronizationInfo
	.p2align	1
	.type	HAL_RCCEx_CRSGetSynchronizationInfo,%function
	.code	16                              @ @HAL_RCCEx_CRSGetSynchronizationInfo
	.thumb_func
HAL_RCCEx_CRSGetSynchronizationInfo:
.Lfunc_begin12:
	.loc	5 1568 0                        @ ../src/driver/stm32g4-v120/src/stm32g4xx_hal_rcc_ex.c:1568:0
	.fnstart
	.cfi_startproc
@ %bb.0:
	@DEBUG_VALUE: HAL_RCCEx_CRSGetSynchronizationInfo:pSynchroInfo <- $r0
	movw	r1, #8192
	movt	r1, #16384
.Ltmp320:
	.loc	5 1573 32 prologue_end          @ ../src/driver/stm32g4-v120/src/stm32g4xx_hal_rcc_ex.c:1573:32
	ldr	r2, [r1, #4]
	@DEBUG_VALUE: HAL_RCCEx_CRSGetSynchronizationInfo:pSynchroInfo <- $r0
	uxth	r2, r2
	.loc	5 1573 29 is_stmt 0             @ ../src/driver/stm32g4-v120/src/stm32g4xx_hal_rcc_ex.c:1573:29
	str	r2, [r0]
	.loc	5 1576 42 is_stmt 1             @ ../src/driver/stm32g4-v120/src/stm32g4xx_hal_rcc_ex.c:1576:42
	ldr	r2, [r1]
	.loc	5 1576 73 is_stmt 0             @ ../src/driver/stm32g4-v120/src/stm32g4xx_hal_rcc_ex.c:1576:73
	ubfx	r2, r2, #8, #7
	.loc	5 1576 39                       @ ../src/driver/stm32g4-v120/src/stm32g4xx_hal_rcc_ex.c:1576:39
	str	r2, [r0, #4]
	.loc	5 1579 37 is_stmt 1             @ ../src/driver/stm32g4-v120/src/stm32g4xx_hal_rcc_ex.c:1579:37
	ldr	r2, [r1, #8]
	.loc	5 1579 71 is_stmt 0             @ ../src/driver/stm32g4-v120/src/stm32g4xx_hal_rcc_ex.c:1579:71
	lsrs	r2, r2, #16
	.loc	5 1579 34                       @ ../src/driver/stm32g4-v120/src/stm32g4xx_hal_rcc_ex.c:1579:34
	str	r2, [r0, #8]
	.loc	5 1582 39 is_stmt 1             @ ../src/driver/stm32g4-v120/src/stm32g4xx_hal_rcc_ex.c:1582:39
	ldr	r1, [r1, #8]
	and	r1, r1, #32768
	.loc	5 1582 36 is_stmt 0             @ ../src/driver/stm32g4-v120/src/stm32g4xx_hal_rcc_ex.c:1582:36
	str	r1, [r0, #12]
	.loc	5 1583 1 is_stmt 1              @ ../src/driver/stm32g4-v120/src/stm32g4xx_hal_rcc_ex.c:1583:1
	bx	lr
.Ltmp321:
.Lfunc_end12:
	.size	HAL_RCCEx_CRSGetSynchronizationInfo, .Lfunc_end12-HAL_RCCEx_CRSGetSynchronizationInfo
	.cfi_endproc
	.cantunwind
	.fnend
                                        @ -- End function
	.section	.text.HAL_RCCEx_CRSWaitSynchronization,"ax",%progbits
	.hidden	HAL_RCCEx_CRSWaitSynchronization @ -- Begin function HAL_RCCEx_CRSWaitSynchronization
	.globl	HAL_RCCEx_CRSWaitSynchronization
	.p2align	1
	.type	HAL_RCCEx_CRSWaitSynchronization,%function
	.code	16                              @ @HAL_RCCEx_CRSWaitSynchronization
	.thumb_func
HAL_RCCEx_CRSWaitSynchronization:
.Lfunc_begin13:
	.loc	5 1601 0                        @ ../src/driver/stm32g4-v120/src/stm32g4xx_hal_rcc_ex.c:1601:0
	.fnstart
	.cfi_startproc
@ %bb.0:
	@DEBUG_VALUE: HAL_RCCEx_CRSWaitSynchronization:Timeout <- $r0
	.save	{r4, r5, r6, r7, r8, r9, r10, r11, lr}
	push.w	{r4, r5, r6, r7, r8, r9, r10, r11, lr}
	.cfi_def_cfa_offset 36
	.cfi_offset lr, -4
	.cfi_offset r11, -8
	.cfi_offset r10, -12
	.cfi_offset r9, -16
	.cfi_offset r8, -20
	.cfi_offset r7, -24
	.cfi_offset r6, -28
	.cfi_offset r5, -32
	.cfi_offset r4, -36
	.pad	#4
	sub	sp, #4
	.cfi_def_cfa_offset 40
	movw	r6, #8200
	mov	r4, r0
.Ltmp322:
	@DEBUG_VALUE: HAL_RCCEx_CRSWaitSynchronization:Timeout <- $r4
	movt	r6, #16384
.Ltmp323:
	@DEBUG_VALUE: HAL_RCCEx_CRSWaitSynchronization:crsstatus <- 0
	@DEBUG_VALUE: HAL_RCCEx_CRSWaitSynchronization:Timeout <- $r4
	.loc	5 1606 15 prologue_end          @ ../src/driver/stm32g4-v120/src/stm32g4xx_hal_rcc_ex.c:1606:15
	bl	HAL_GetTick
.Ltmp324:
	mov	r9, r0
.Ltmp325:
	@DEBUG_VALUE: HAL_RCCEx_CRSWaitSynchronization:tickstart <- $r9
	.loc	5 0 15 is_stmt 0                @ ../src/driver/stm32g4-v120/src/stm32g4xx_hal_rcc_ex.c:0:15
	clz	r0, r4
	adds	r7, r4, #1
	movs	r5, #4
	mov.w	r10, #2
	mov.w	r11, #1
	lsr.w	r8, r0, #5
.Ltmp326:
	.p2align	2
.LBB13_1:                               @ =>This Inner Loop Header: Depth=1
	@DEBUG_VALUE: HAL_RCCEx_CRSWaitSynchronization:tickstart <- $r9
	@DEBUG_VALUE: HAL_RCCEx_CRSWaitSynchronization:Timeout <- $r4
	@DEBUG_VALUE: HAL_RCCEx_CRSWaitSynchronization:crsstatus <- 0
	.loc	5 1611 8 is_stmt 1              @ ../src/driver/stm32g4-v120/src/stm32g4xx_hal_rcc_ex.c:1611:8
	cbz	r7, .LBB13_3
.Ltmp327:
@ %bb.2:                                @   in Loop: Header=BB13_1 Depth=1
	@DEBUG_VALUE: HAL_RCCEx_CRSWaitSynchronization:tickstart <- $r9
	@DEBUG_VALUE: HAL_RCCEx_CRSWaitSynchronization:Timeout <- $r4
	@DEBUG_VALUE: HAL_RCCEx_CRSWaitSynchronization:crsstatus <- 0
	.loc	5 1613 12                       @ ../src/driver/stm32g4-v120/src/stm32g4xx_hal_rcc_ex.c:1613:12
	bl	HAL_GetTick
.Ltmp328:
	.loc	5 1613 26 is_stmt 0             @ ../src/driver/stm32g4-v120/src/stm32g4xx_hal_rcc_ex.c:1613:26
	sub.w	r0, r0, r9
	.loc	5 1613 39                       @ ../src/driver/stm32g4-v120/src/stm32g4xx_hal_rcc_ex.c:1613:39
	cmp	r0, r4
	mov.w	r0, #0
	it	hi
	movhi	r0, #1
	.loc	5 1613 50                       @ ../src/driver/stm32g4-v120/src/stm32g4xx_hal_rcc_ex.c:1613:50
	orr.w	r0, r0, r8
	b	.LBB13_4
.Ltmp329:
	.p2align	2
.LBB13_3:                               @   in Loop: Header=BB13_1 Depth=1
	@DEBUG_VALUE: HAL_RCCEx_CRSWaitSynchronization:tickstart <- $r9
	@DEBUG_VALUE: HAL_RCCEx_CRSWaitSynchronization:Timeout <- $r4
	@DEBUG_VALUE: HAL_RCCEx_CRSWaitSynchronization:crsstatus <- 0
	.loc	5 0 50                          @ ../src/driver/stm32g4-v120/src/stm32g4xx_hal_rcc_ex.c:0:50
	movs	r0, #0
.Ltmp330:
.LBB13_4:                               @   in Loop: Header=BB13_1 Depth=1
	@DEBUG_VALUE: HAL_RCCEx_CRSWaitSynchronization:tickstart <- $r9
	@DEBUG_VALUE: HAL_RCCEx_CRSWaitSynchronization:Timeout <- $r4
	@DEBUG_VALUE: HAL_RCCEx_CRSWaitSynchronization:crsstatus <- 0
	@DEBUG_VALUE: HAL_RCCEx_CRSWaitSynchronization:crsstatus <- $r0
	.loc	5 1619 8 is_stmt 1              @ ../src/driver/stm32g4-v120/src/stm32g4xx_hal_rcc_ex.c:1619:8
	ldr	r1, [r6]
.Ltmp331:
	.loc	5 1619 8 is_stmt 0              @ ../src/driver/stm32g4-v120/src/stm32g4xx_hal_rcc_ex.c:1619:8
	lsls	r1, r1, #31
.Ltmp332:
	.loc	5 1622 17 is_stmt 1             @ ../src/driver/stm32g4-v120/src/stm32g4xx_hal_rcc_ex.c:1622:17
	itt	ne
	addne	r0, #2
.Ltmp333:
	@DEBUG_VALUE: HAL_RCCEx_CRSWaitSynchronization:crsstatus <- $r0
	.loc	5 1625 7                        @ ../src/driver/stm32g4-v120/src/stm32g4xx_hal_rcc_ex.c:1625:7
	strne.w	r11, [r6, #4]
.Ltmp334:
	@DEBUG_VALUE: HAL_RCCEx_CRSWaitSynchronization:crsstatus <- $r0
	.loc	5 1629 8                        @ ../src/driver/stm32g4-v120/src/stm32g4xx_hal_rcc_ex.c:1629:8
	ldr	r1, [r6]
.Ltmp335:
	.loc	5 1629 8 is_stmt 0              @ ../src/driver/stm32g4-v120/src/stm32g4xx_hal_rcc_ex.c:1629:8
	lsls	r1, r1, #30
.Ltmp336:
	.loc	5 1632 17 is_stmt 1             @ ../src/driver/stm32g4-v120/src/stm32g4xx_hal_rcc_ex.c:1632:17
	itt	mi
	addmi	r0, #4
.Ltmp337:
	@DEBUG_VALUE: HAL_RCCEx_CRSWaitSynchronization:crsstatus <- $r0
	.loc	5 1635 7                        @ ../src/driver/stm32g4-v120/src/stm32g4xx_hal_rcc_ex.c:1635:7
	strmi.w	r10, [r6, #4]
.Ltmp338:
	@DEBUG_VALUE: HAL_RCCEx_CRSWaitSynchronization:crsstatus <- $r0
	.loc	5 1639 8                        @ ../src/driver/stm32g4-v120/src/stm32g4xx_hal_rcc_ex.c:1639:8
	ldr	r1, [r6]
.Ltmp339:
	.loc	5 1639 8 is_stmt 0              @ ../src/driver/stm32g4-v120/src/stm32g4xx_hal_rcc_ex.c:1639:8
	lsls	r1, r1, #21
.Ltmp340:
	.loc	5 1642 17 is_stmt 1             @ ../src/driver/stm32g4-v120/src/stm32g4xx_hal_rcc_ex.c:1642:17
	itt	mi
	addmi	r0, #32
.Ltmp341:
	@DEBUG_VALUE: HAL_RCCEx_CRSWaitSynchronization:crsstatus <- $r0
	.loc	5 1645 7                        @ ../src/driver/stm32g4-v120/src/stm32g4xx_hal_rcc_ex.c:1645:7
	strmi	r5, [r6, #4]
.Ltmp342:
	@DEBUG_VALUE: HAL_RCCEx_CRSWaitSynchronization:crsstatus <- $r0
	.loc	5 1649 8                        @ ../src/driver/stm32g4-v120/src/stm32g4xx_hal_rcc_ex.c:1649:8
	ldr	r1, [r6]
.Ltmp343:
	.loc	5 1649 8 is_stmt 0              @ ../src/driver/stm32g4-v120/src/stm32g4xx_hal_rcc_ex.c:1649:8
	lsls	r1, r1, #23
.Ltmp344:
	.loc	5 1652 17 is_stmt 1             @ ../src/driver/stm32g4-v120/src/stm32g4xx_hal_rcc_ex.c:1652:17
	itt	mi
	orrmi	r0, r0, #8
.Ltmp345:
	@DEBUG_VALUE: HAL_RCCEx_CRSWaitSynchronization:crsstatus <- $r0
	.loc	5 1655 7                        @ ../src/driver/stm32g4-v120/src/stm32g4xx_hal_rcc_ex.c:1655:7
	strmi	r5, [r6, #4]
.Ltmp346:
	@DEBUG_VALUE: HAL_RCCEx_CRSWaitSynchronization:crsstatus <- $r0
	.loc	5 1659 8                        @ ../src/driver/stm32g4-v120/src/stm32g4xx_hal_rcc_ex.c:1659:8
	ldr	r1, [r6]
.Ltmp347:
	.loc	5 1659 8 is_stmt 0              @ ../src/driver/stm32g4-v120/src/stm32g4xx_hal_rcc_ex.c:1659:8
	lsls	r1, r1, #22
.Ltmp348:
	.loc	5 1662 17 is_stmt 1             @ ../src/driver/stm32g4-v120/src/stm32g4xx_hal_rcc_ex.c:1662:17
	itt	mi
	orrmi	r0, r0, #16
.Ltmp349:
	@DEBUG_VALUE: HAL_RCCEx_CRSWaitSynchronization:crsstatus <- $r0
	.loc	5 1665 7                        @ ../src/driver/stm32g4-v120/src/stm32g4xx_hal_rcc_ex.c:1665:7
	strmi	r5, [r6, #4]
.Ltmp350:
	@DEBUG_VALUE: HAL_RCCEx_CRSWaitSynchronization:crsstatus <- $r0
	.loc	5 1669 8                        @ ../src/driver/stm32g4-v120/src/stm32g4xx_hal_rcc_ex.c:1669:8
	ldr	r1, [r6]
.Ltmp351:
	.loc	5 1669 8 is_stmt 0              @ ../src/driver/stm32g4-v120/src/stm32g4xx_hal_rcc_ex.c:1669:8
	lsls	r1, r1, #28
.Ltmp352:
	.loc	5 1672 7 is_stmt 1              @ ../src/driver/stm32g4-v120/src/stm32g4xx_hal_rcc_ex.c:1672:7
	itt	mi
	movmi	r1, #8
	strmi	r1, [r6, #4]
.Ltmp353:
	.loc	5 1674 3                        @ ../src/driver/stm32g4-v120/src/stm32g4xx_hal_rcc_ex.c:1674:3
	cmp	r0, #0
	beq	.LBB13_1
.Ltmp354:
@ %bb.5:
	@DEBUG_VALUE: HAL_RCCEx_CRSWaitSynchronization:tickstart <- $r9
	@DEBUG_VALUE: HAL_RCCEx_CRSWaitSynchronization:Timeout <- $r4
	@DEBUG_VALUE: HAL_RCCEx_CRSWaitSynchronization:crsstatus <- $r0
	.loc	5 1676 3                        @ ../src/driver/stm32g4-v120/src/stm32g4xx_hal_rcc_ex.c:1676:3
	add	sp, #4
	pop.w	{r4, r5, r6, r7, r8, r9, r10, r11, pc}
.Ltmp355:
.Lfunc_end13:
	.size	HAL_RCCEx_CRSWaitSynchronization, .Lfunc_end13-HAL_RCCEx_CRSWaitSynchronization
	.cfi_endproc
	.cantunwind
	.fnend
                                        @ -- End function
	.section	.text.HAL_RCCEx_CRS_IRQHandler,"ax",%progbits
	.hidden	HAL_RCCEx_CRS_IRQHandler        @ -- Begin function HAL_RCCEx_CRS_IRQHandler
	.globl	HAL_RCCEx_CRS_IRQHandler
	.p2align	1
	.type	HAL_RCCEx_CRS_IRQHandler,%function
	.code	16                              @ @HAL_RCCEx_CRS_IRQHandler
	.thumb_func
HAL_RCCEx_CRS_IRQHandler:
.Lfunc_begin14:
	.loc	5 1684 0                        @ ../src/driver/stm32g4-v120/src/stm32g4xx_hal_rcc_ex.c:1684:0
	.fnstart
	.cfi_startproc
@ %bb.0:
	movw	r1, #8192
	movt	r1, #16384
.Ltmp356:
	@DEBUG_VALUE: HAL_RCCEx_CRS_IRQHandler:crserror <- 0
	.loc	5 1687 22 prologue_end          @ ../src/driver/stm32g4-v120/src/stm32g4xx_hal_rcc_ex.c:1687:22
	ldr	r0, [r1, #8]
.Ltmp357:
	@DEBUG_VALUE: HAL_RCCEx_CRS_IRQHandler:itflags <- $r0
	.loc	5 1688 24                       @ ../src/driver/stm32g4-v120/src/stm32g4xx_hal_rcc_ex.c:1688:24
	ldr	r2, [r1]
.Ltmp358:
	@DEBUG_VALUE: HAL_RCCEx_CRS_IRQHandler:itsources <- $r2
	.loc	5 1691 46                       @ ../src/driver/stm32g4-v120/src/stm32g4xx_hal_rcc_ex.c:1691:46
	ands	r2, r0
.Ltmp359:
	lsls	r3, r2, #31
	bne	.LBB14_5
.Ltmp360:
@ %bb.1:
	@DEBUG_VALUE: HAL_RCCEx_CRS_IRQHandler:itflags <- $r0
	@DEBUG_VALUE: HAL_RCCEx_CRS_IRQHandler:crserror <- 0
	.loc	5 1700 53                       @ ../src/driver/stm32g4-v120/src/stm32g4xx_hal_rcc_ex.c:1700:53
	lsls	r3, r2, #30
	bmi	.LBB14_6
.Ltmp361:
@ %bb.2:
	@DEBUG_VALUE: HAL_RCCEx_CRS_IRQHandler:itflags <- $r0
	@DEBUG_VALUE: HAL_RCCEx_CRS_IRQHandler:crserror <- 0
	.loc	5 1709 50                       @ ../src/driver/stm32g4-v120/src/stm32g4xx_hal_rcc_ex.c:1709:50
	lsls	r3, r2, #28
	bmi	.LBB14_7
.Ltmp362:
@ %bb.3:
	@DEBUG_VALUE: HAL_RCCEx_CRS_IRQHandler:itflags <- $r0
	@DEBUG_VALUE: HAL_RCCEx_CRS_IRQHandler:crserror <- 0
	.loc	5 1720 45                       @ ../src/driver/stm32g4-v120/src/stm32g4xx_hal_rcc_ex.c:1720:45
	lsls	r2, r2, #29
.Ltmp363:
	.loc	5 1742 1                        @ ../src/driver/stm32g4-v120/src/stm32g4xx_hal_rcc_ex.c:1742:1
	it	pl
	bxpl	lr
.Ltmp364:
.LBB14_4:
	@DEBUG_VALUE: HAL_RCCEx_CRS_IRQHandler:itflags <- $r0
	@DEBUG_VALUE: HAL_RCCEx_CRS_IRQHandler:crserror <- 0
	@DEBUG_VALUE: HAL_RCCEx_CRS_IRQHandler:crserror <- [DW_OP_constu 24, DW_OP_and, DW_OP_stack_value] undef
	.loc	5 0 1 is_stmt 0                 @ ../src/driver/stm32g4-v120/src/stm32g4xx_hal_rcc_ex.c:0:1
	movs	r2, #56
.Ltmp365:
	.loc	5 1730 10 is_stmt 1             @ ../src/driver/stm32g4-v120/src/stm32g4xx_hal_rcc_ex.c:1730:10
	and.w	r0, r2, r0, lsr #5
.Ltmp366:
	@DEBUG_VALUE: HAL_RCCEx_CRS_IRQHandler:crserror <- $r0
	.loc	5 0 10 is_stmt 0                @ ../src/driver/stm32g4-v120/src/stm32g4xx_hal_rcc_ex.c:0:10
	movs	r2, #4
	.loc	5 1736 7 is_stmt 1              @ ../src/driver/stm32g4-v120/src/stm32g4xx_hal_rcc_ex.c:1736:7
	str	r2, [r1, #12]
.Ltmp367:
	.loc	5 1739 7                        @ ../src/driver/stm32g4-v120/src/stm32g4xx_hal_rcc_ex.c:1739:7
	b	HAL_RCCEx_CRS_ErrorCallback
.Ltmp368:
.LBB14_5:
	@DEBUG_VALUE: HAL_RCCEx_CRS_IRQHandler:itflags <- $r0
	@DEBUG_VALUE: HAL_RCCEx_CRS_IRQHandler:crserror <- 0
	.loc	5 0 7 is_stmt 0                 @ ../src/driver/stm32g4-v120/src/stm32g4xx_hal_rcc_ex.c:0:7
	movs	r0, #1
.Ltmp369:
	.loc	5 1694 5 is_stmt 1              @ ../src/driver/stm32g4-v120/src/stm32g4xx_hal_rcc_ex.c:1694:5
	str	r0, [r1, #12]
.Ltmp370:
	.loc	5 1697 5                        @ ../src/driver/stm32g4-v120/src/stm32g4xx_hal_rcc_ex.c:1697:5
	b	HAL_RCCEx_CRS_SyncOkCallback
.Ltmp371:
.LBB14_6:
	@DEBUG_VALUE: HAL_RCCEx_CRS_IRQHandler:itflags <- $r0
	@DEBUG_VALUE: HAL_RCCEx_CRS_IRQHandler:crserror <- 0
	.loc	5 0 5 is_stmt 0                 @ ../src/driver/stm32g4-v120/src/stm32g4xx_hal_rcc_ex.c:0:5
	movs	r0, #2
.Ltmp372:
	.loc	5 1703 5 is_stmt 1              @ ../src/driver/stm32g4-v120/src/stm32g4xx_hal_rcc_ex.c:1703:5
	str	r0, [r1, #12]
.Ltmp373:
	.loc	5 1706 5                        @ ../src/driver/stm32g4-v120/src/stm32g4xx_hal_rcc_ex.c:1706:5
	b	HAL_RCCEx_CRS_SyncWarnCallback
.Ltmp374:
.LBB14_7:
	@DEBUG_VALUE: HAL_RCCEx_CRS_IRQHandler:itflags <- $r0
	@DEBUG_VALUE: HAL_RCCEx_CRS_IRQHandler:crserror <- 0
	.loc	5 0 5 is_stmt 0                 @ ../src/driver/stm32g4-v120/src/stm32g4xx_hal_rcc_ex.c:0:5
	movs	r0, #8
.Ltmp375:
	.loc	5 1712 5 is_stmt 1              @ ../src/driver/stm32g4-v120/src/stm32g4xx_hal_rcc_ex.c:1712:5
	str	r0, [r1, #12]
.Ltmp376:
	.loc	5 1715 5                        @ ../src/driver/stm32g4-v120/src/stm32g4xx_hal_rcc_ex.c:1715:5
	b	HAL_RCCEx_CRS_ExpectedSyncCallback
.Ltmp377:
.Lfunc_end14:
	.size	HAL_RCCEx_CRS_IRQHandler, .Lfunc_end14-HAL_RCCEx_CRS_IRQHandler
	.cfi_endproc
	.cantunwind
	.fnend
                                        @ -- End function
	.section	.text.HAL_RCCEx_CRS_SyncOkCallback,"ax",%progbits
	.hidden	HAL_RCCEx_CRS_SyncOkCallback    @ -- Begin function HAL_RCCEx_CRS_SyncOkCallback
	.weak	HAL_RCCEx_CRS_SyncOkCallback
	.p2align	1
	.type	HAL_RCCEx_CRS_SyncOkCallback,%function
	.code	16                              @ @HAL_RCCEx_CRS_SyncOkCallback
	.thumb_func
HAL_RCCEx_CRS_SyncOkCallback:
.Lfunc_begin15:
	.loc	5 1749 0                        @ ../src/driver/stm32g4-v120/src/stm32g4xx_hal_rcc_ex.c:1749:0
	.fnstart
	.cfi_startproc
@ %bb.0:
	.loc	5 1753 1 prologue_end           @ ../src/driver/stm32g4-v120/src/stm32g4xx_hal_rcc_ex.c:1753:1
	bx	lr
.Ltmp378:
.Lfunc_end15:
	.size	HAL_RCCEx_CRS_SyncOkCallback, .Lfunc_end15-HAL_RCCEx_CRS_SyncOkCallback
	.cfi_endproc
	.cantunwind
	.fnend
                                        @ -- End function
	.section	.text.HAL_RCCEx_CRS_SyncWarnCallback,"ax",%progbits
	.hidden	HAL_RCCEx_CRS_SyncWarnCallback  @ -- Begin function HAL_RCCEx_CRS_SyncWarnCallback
	.weak	HAL_RCCEx_CRS_SyncWarnCallback
	.p2align	1
	.type	HAL_RCCEx_CRS_SyncWarnCallback,%function
	.code	16                              @ @HAL_RCCEx_CRS_SyncWarnCallback
	.thumb_func
HAL_RCCEx_CRS_SyncWarnCallback:
.Lfunc_begin16:
	.loc	5 1760 0                        @ ../src/driver/stm32g4-v120/src/stm32g4xx_hal_rcc_ex.c:1760:0
	.fnstart
	.cfi_startproc
@ %bb.0:
	.loc	5 1764 1 prologue_end           @ ../src/driver/stm32g4-v120/src/stm32g4xx_hal_rcc_ex.c:1764:1
	bx	lr
.Ltmp379:
.Lfunc_end16:
	.size	HAL_RCCEx_CRS_SyncWarnCallback, .Lfunc_end16-HAL_RCCEx_CRS_SyncWarnCallback
	.cfi_endproc
	.cantunwind
	.fnend
                                        @ -- End function
	.section	.text.HAL_RCCEx_CRS_ExpectedSyncCallback,"ax",%progbits
	.hidden	HAL_RCCEx_CRS_ExpectedSyncCallback @ -- Begin function HAL_RCCEx_CRS_ExpectedSyncCallback
	.weak	HAL_RCCEx_CRS_ExpectedSyncCallback
	.p2align	1
	.type	HAL_RCCEx_CRS_ExpectedSyncCallback,%function
	.code	16                              @ @HAL_RCCEx_CRS_ExpectedSyncCallback
	.thumb_func
HAL_RCCEx_CRS_ExpectedSyncCallback:
.Lfunc_begin17:
	.loc	5 1771 0                        @ ../src/driver/stm32g4-v120/src/stm32g4xx_hal_rcc_ex.c:1771:0
	.fnstart
	.cfi_startproc
@ %bb.0:
	.loc	5 1775 1 prologue_end           @ ../src/driver/stm32g4-v120/src/stm32g4xx_hal_rcc_ex.c:1775:1
	bx	lr
.Ltmp380:
.Lfunc_end17:
	.size	HAL_RCCEx_CRS_ExpectedSyncCallback, .Lfunc_end17-HAL_RCCEx_CRS_ExpectedSyncCallback
	.cfi_endproc
	.cantunwind
	.fnend
                                        @ -- End function
	.section	.text.HAL_RCCEx_CRS_ErrorCallback,"ax",%progbits
	.hidden	HAL_RCCEx_CRS_ErrorCallback     @ -- Begin function HAL_RCCEx_CRS_ErrorCallback
	.weak	HAL_RCCEx_CRS_ErrorCallback
	.p2align	1
	.type	HAL_RCCEx_CRS_ErrorCallback,%function
	.code	16                              @ @HAL_RCCEx_CRS_ErrorCallback
	.thumb_func
HAL_RCCEx_CRS_ErrorCallback:
.Lfunc_begin18:
	.loc	5 1787 0                        @ ../src/driver/stm32g4-v120/src/stm32g4xx_hal_rcc_ex.c:1787:0
	.fnstart
	.cfi_startproc
@ %bb.0:
	@DEBUG_VALUE: HAL_RCCEx_CRS_ErrorCallback:Error <- $r0
	.loc	5 1794 1 prologue_end           @ ../src/driver/stm32g4-v120/src/stm32g4xx_hal_rcc_ex.c:1794:1
	bx	lr
.Ltmp381:
.Lfunc_end18:
	.size	HAL_RCCEx_CRS_ErrorCallback, .Lfunc_end18-HAL_RCCEx_CRS_ErrorCallback
	.cfi_endproc
	.cantunwind
	.fnend
                                        @ -- End function
	.file	7 "C:\\Users\\grodriguez\\Documents\\iit\\icub-firmware\\emBODY\\eBcode\\arch-arm\\libs\\lowlevel\\stm32hal\\proj" "../src/driver/stm32g4-v120/inc/stm32g4xx_hal_rcc_ex.h"
	.file	8 "C:\\Users\\grodriguez\\Documents\\iit\\icub-firmware\\emBODY\\eBcode\\arch-arm\\libs\\lowlevel\\stm32hal\\proj" "../api\\../src/driver/stm32g4-v120/inc/stm32g4xx_hal_gpio.h"
	.section	".note.GNU-stack","",%progbits
	.eabi_attribute	30, 3	@ Tag_ABI_optimization_goals
	.ARM_attribute	16, 1	@ Tag_AV_eba