	.text
	.syntax unified
	.eabi_attribute	67, "2.09"	@ Tag_conformance
	.cpu	cortex-m4
	.eabi_attribute	6, 13	@ Tag_CPU_arch
	.eabi_attribute	7, 77	@ Tag_CPU_arch_profile
	.eabi_attribute	8, 0	@ Tag_ARM_ISA_use
	.eabi_attribute	9, 2	@ Tag_THUMB_ISA_use
	.fpu	fpv4-sp-d16
	.eabi_attribute	27, 1	@ Tag_ABI_HardFP_use
	.eabi_attribute	36, 1	@ Tag_FP_HP_extension
	.eabi_attribute	34, 1	@ Tag_CPU_unaligned_access
	.eabi_attribute	17, 1	@ Tag_ABI_PCS_GOT_use
	.eabi_attribute	20, 2	@ Tag_ABI_FP_denormal
	.eabi_attribute	21, 0	@ Tag_ABI_FP_exceptions
	.eabi_attribute	23, 1	@ Tag_ABI_FP_number_model
	.eabi_attribute	24, 1	@ Tag_ABI_align_needed
	.eabi_attribute	25, 1	@ Tag_ABI_align_preserved
	.eabi_attribute	28, 1	@ Tag_ABI_VFP_args
	.eabi_attribute	38, 1	@ Tag_ABI_FP_16bit_format
	.eabi_attribute	18, 2	@ Tag_ABI_PCS_wchar_t
	.eabi_attribute	26, 1	@ Tag_ABI_enum_size
	.eabi_attribute	14, 0	@ Tag_ABI_PCS_R9_use
	.file	"stm32g4xx_hal_msp.c"
	.file	1 "C:\\Users\\grodriguez\\Documents\\iit\\icub-firmware\\emBODY\\eBcode\\arch-arm\\libs\\lowlevel\\stm32hal\\proj" "../src/driver/stm32g4-v120/inc/stm32g474xx.h"
	.file	2 "C:\\Users\\grodriguez\\Documents\\iit\\icub-firmware\\emBODY\\eBcode\\arch-arm\\libs\\lowlevel\\stm32hal\\proj" "../src/driver/stm32g4-v120/inc/stm32g4xx_hal_def.h"
	.file	3 "C:\\" "Keil_v5\\ARM\\ARMCLANG\\Bin\\..\\include\\stdint.h"
	.section	.text.HAL_MspInit,"ax",%progbits
	.hidden	HAL_MspInit                     @ -- Begin function HAL_MspInit
	.globl	HAL_MspInit
	.p2align	1
	.type	HAL_MspInit,%function
	.code	16                              @ @HAL_MspInit
	.thumb_func
HAL_MspInit:
.Lfunc_begin0:
	.file	4 "C:\\Users\\grodriguez\\Documents\\iit\\icub-firmware\\emBODY\\eBcode\\arch-arm\\libs\\lowlevel\\stm32hal\\proj" "../src/board/amcbldc/v120/src/stm32g4xx_hal_msp.c"
	.loc	4 65 0                          @ ../src/board/amcbldc/v120/src/stm32g4xx_hal_msp.c:65:0
	.fnstart
	.cfi_sections .debug_frame
	.cfi_startproc
@ %bb.0:
	.save	{r7, lr}
	push	{r7, lr}
	.cfi_def_cfa_offset 8
	.cfi_offset lr, -4
	.cfi_offset r7, -8
	.pad	#16
	sub	sp, #16
	.cfi_def_cfa_offset 24
	movs	r0, #0
.Ltmp0:
	.loc	4 69 18 prologue_end            @ ../src/board/amcbldc/v120/src/stm32g4xx_hal_msp.c:69:18
	str	r0, [sp, #12]
	movs	r0, #10
	str	r0, [sp, #8]
	movw	r0, #4184
	movt	r0, #16386
.Ltmp1:
	.loc	4 71 3                          @ ../src/board/amcbldc/v120/src/stm32g4xx_hal_msp.c:71:3
	ldr	r1, [r0, #8]
.Ltmp2:
	.loc	4 78 3                          @ ../src/board/amcbldc/v120/src/stm32g4xx_hal_msp.c:78:3
	movs	r2, #0
.Ltmp3:
	.loc	4 71 3                          @ ../src/board/amcbldc/v120/src/stm32g4xx_hal_msp.c:71:3
	orr	r1, r1, #1
	str	r1, [r0, #8]
	ldr	r1, [r0, #8]
	and	r1, r1, #1
	str	r1, [sp, #4]
	ldr	r1, [sp, #4]
.Ltmp4:
	.loc	4 72 3                          @ ../src/board/amcbldc/v120/src/stm32g4xx_hal_msp.c:72:3
	ldr	r1, [r0]
	orr	r1, r1, #268435456
	str	r1, [r0]
	ldr	r0, [r0]
.Ltmp5:
	.loc	4 78 3                          @ ../src/board/amcbldc/v120/src/stm32g4xx_hal_msp.c:78:3
	movs	r1, #0
.Ltmp6:
	.loc	4 72 3                          @ ../src/board/amcbldc/v120/src/stm32g4xx_hal_msp.c:72:3
	and	r0, r0, #268435456
	str	r0, [sp, #4]
	ldr	r0, [sp, #4]
.Ltmp7:
	.loc	4 78 3                          @ ../src/board/amcbldc/v120/src/stm32g4xx_hal_msp.c:78:3
	movs	r0, #5
	bl	HAL_NVIC_SetPriority
.Ltmp8:
	.loc	4 79 3                          @ ../src/board/amcbldc/v120/src/stm32g4xx_hal_msp.c:79:3
	movs	r0, #5
	bl	HAL_NVIC_EnableIRQ
.Ltmp9:
	.loc	4 0 3 is_stmt 0                 @ ../src/board/amcbldc/v120/src/stm32g4xx_hal_msp.c:0:3
	add	r0, sp, #8
	.loc	4 85 3 is_stmt 1                @ ../src/board/amcbldc/v120/src/stm32g4xx_hal_msp.c:85:3
	bl	HAL_PWR_ConfigPVD
.Ltmp10:
	.loc	4 88 3                          @ ../src/board/amcbldc/v120/src/stm32g4xx_hal_msp.c:88:3
	bl	HAL_PWR_EnablePVD
.Ltmp11:
	.loc	4 91 3                          @ ../src/board/amcbldc/v120/src/stm32g4xx_hal_msp.c:91:3
	bl	HAL_PWREx_DisableUCPDDeadBattery
.Ltmp12:
	.loc	4 96 1                          @ ../src/board/amcbldc/v120/src/stm32g4xx_hal_msp.c:96:1
	add	sp, #16
	pop	{r7, pc}
.Ltmp13:
.Lfunc_end0:
	.size	HAL_MspInit, .Lfunc_end0-HAL_MspInit
	.cfi_endproc
	.cantunwind
	.fnend
                                        @ -- End function
	.file	5 "C:\\Users\\grodriguez\\Documents\\iit\\icub-firmware\\emBODY\\eBcode\\arch-arm\\libs\\lowlevel\\stm32hal\\proj" "../api\\../src/driver/stm32g4-v120/inc/stm32g4xx_hal_pwr.h"
	.section	".note.GNU-stack","",%progbits
	.eabi_attribute	30, 3	@ Tag_ABI_optimization_goals
	.ARM_attribute	16, 1	@ Tag_AV_eba