	.text
	.syntax unified
	.eabi_attribute	67, "2.09"	@ Tag_conformance
	.cpu	cortex-m4
	.eabi_attribute	6, 13	@ Tag_CPU_arch
	.eabi_attribute	7, 77	@ Tag_CPU_arch_profile
	.eabi_attribute	8, 0	@ Tag_ARM_ISA_use
	.eabi_attribute	9, 2	@ Tag_THUMB_ISA_use
	.fpu	fpv4-sp-d16
	.eabi_attribute	27, 1	@ Tag_ABI_HardFP_use
	.eabi_attribute	36, 1	@ Tag_FP_HP_extension
	.eabi_attribute	34, 1	@ Tag_CPU_unaligned_access
	.eabi_attribute	17, 1	@ Tag_ABI_PCS_GOT_use
	.eabi_attribute	20, 2	@ Tag_ABI_FP_denormal
	.eabi_attribute	21, 0	@ Tag_ABI_FP_exceptions
	.eabi_attribute	23, 1	@ Tag_ABI_FP_number_model
	.eabi_attribute	24, 1	@ Tag_ABI_align_needed
	.eabi_attribute	25, 1	@ Tag_ABI_align_preserved
	.eabi_attribute	28, 1	@ Tag_ABI_VFP_args
	.eabi_attribute	38, 1	@ Tag_ABI_FP_16bit_format
	.eabi_attribute	18, 2	@ Tag_ABI_PCS_wchar_t
	.eabi_attribute	26, 1	@ Tag_ABI_enum_size
	.eabi_attribute	14, 0	@ Tag_ABI_PCS_R9_use
	.file	"stm32g4xx_hal_gpio.c"
	.file	1 "C:\\Users\\grodriguez\\Documents\\iit\\icub-firmware\\emBODY\\eBcode\\arch-arm\\libs\\lowlevel\\stm32hal\\proj" "../api\\../src/driver/stm32g4-v120/inc/stm32g4xx_hal_gpio.h"
	.file	2 "C:\\Users\\grodriguez\\Documents\\iit\\icub-firmware\\emBODY\\eBcode\\arch-arm\\libs\\lowlevel\\stm32hal\\proj" "../src/driver/stm32g4-v120/inc/stm32g4xx_hal_def.h"
	.file	3 "C:\\" "Keil_v5\\ARM\\ARMCLANG\\Bin\\..\\include\\stdint.h"
	.file	4 "C:\\Users\\grodriguez\\Documents\\iit\\icub-firmware\\emBODY\\eBcode\\arch-arm\\libs\\lowlevel\\stm32hal\\proj" "../src/driver/stm32g4-v120/inc/stm32g474xx.h"
	.section	.text.HAL_GPIO_Init,"ax",%progbits
	.hidden	HAL_GPIO_Init                   @ -- Begin function HAL_GPIO_Init
	.globl	HAL_GPIO_Init
	.p2align	1
	.type	HAL_GPIO_Init,%function
	.code	16                              @ @HAL_GPIO_Init
	.thumb_func
HAL_GPIO_Init:
.Lfunc_begin0:
	.file	5 "C:\\Users\\grodriguez\\Documents\\iit\\icub-firmware\\emBODY\\eBcode\\arch-arm\\libs\\lowlevel\\stm32hal\\proj" "../src/driver/stm32g4-v120/src/stm32g4xx_hal_gpio.c"
	.loc	5 171 0                         @ ../src/driver/stm32g4-v120/src/stm32g4xx_hal_gpio.c:171:0
	.fnstart
	.cfi_sections .debug_frame
	.cfi_startproc
@ %bb.0:
	@DEBUG_VALUE: HAL_GPIO_Init:GPIOx <- $r0
	@DEBUG_VALUE: HAL_GPIO_Init:GPIO_Init <- $r1
	@DEBUG_VALUE: HAL_GPIO_Init:GPIO_Init <- $r1
	.save	{r4, r5, r6, r7, r8, r9, r10, r11, lr}
	push.w	{r4, r5, r6, r7, r8, r9, r10, r11, lr}
	.cfi_def_cfa_offset 36
	.cfi_offset lr, -4
	.cfi_offset r11, -8
	.cfi_offset r10, -12
	.cfi_offset r9, -16
	.cfi_offset r8, -20
	.cfi_offset r7, -24
	.cfi_offset r6, -28
	.cfi_offset r5, -32
	.cfi_offset r4, -36
	.pad	#20
	sub	sp, #20
	.cfi_def_cfa_offset 56
.Ltmp0:
	.loc	5 183 23 prologue_end           @ ../src/driver/stm32g4-v120/src/stm32g4xx_hal_gpio.c:183:23
	ldr	r2, [r1]
	str	r0, [sp, #8]                    @ 4-byte Spill
.Ltmp1:
	@DEBUG_VALUE: HAL_GPIO_Init:GPIOx <- [DW_OP_plus_uconst 8] [$sp+0]
	@DEBUG_VALUE: HAL_GPIO_Init:position <- 0
	@DEBUG_VALUE: HAL_GPIO_Init:GPIOx <- [DW_OP_plus_uconst 8] [$sp+0]
	.loc	5 183 3 is_stmt 0               @ ../src/driver/stm32g4-v120/src/stm32g4xx_hal_gpio.c:183:3
	cmp	r2, #0
	beq.w	.LBB0_12
.Ltmp2:
@ %bb.1:
	@DEBUG_VALUE: HAL_GPIO_Init:GPIO_Init <- $r1
	@DEBUG_VALUE: HAL_GPIO_Init:GPIOx <- [DW_OP_plus_uconst 8] [$sp+0]
	@DEBUG_VALUE: HAL_GPIO_Init:position <- 0
	.loc	5 0 3                           @ ../src/driver/stm32g4-v120/src/stm32g4xx_hal_gpio.c:0:3
	ldr	r0, [sp, #8]                    @ 4-byte Reload
	movw	r5, #5120
	mov	lr, r1
.Ltmp3:
	@DEBUG_VALUE: HAL_GPIO_Init:GPIO_Init <- $lr
	@DEBUG_VALUE: HAL_GPIO_Init:GPIO_Init <- $lr
	add.w	r7, r0, #-1207959552
	movt	r5, #18432
	movs	r1, #6
	ror.w	r6, r7, #10
	cmp	r0, r5
	it	eq
	moveq	r1, #5
	cmp	r6, #5
	it	lo
	rorlo.w	r1, r7, #10
	mov.w	r12, #0
	movs	r6, #1
	movs	r7, #0
	mov.w	r8, #0
	str	r1, [sp]                        @ 4-byte Spill
	str.w	lr, [sp, #4]                    @ 4-byte Spill
.Ltmp4:
	.p2align	2
.LBB0_2:                                @ =>This Inner Loop Header: Depth=1
	@DEBUG_VALUE: HAL_GPIO_Init:GPIOx <- [DW_OP_plus_uconst 8] [$sp+0]
	@DEBUG_VALUE: HAL_GPIO_Init:position <- $r8
	.loc	5 186 41 is_stmt 1              @ ../src/driver/stm32g4-v120/src/stm32g4xx_hal_gpio.c:186:41
	sub.w	r9, r6, #1
	movs	r1, #1
	lsl.w	r11, r1, r9
	.loc	5 186 34 is_stmt 0              @ ../src/driver/stm32g4-v120/src/stm32g4xx_hal_gpio.c:186:34
	ands.w	r1, r2, r11
.Ltmp5:
	@DEBUG_VALUE: HAL_GPIO_Init:iocurrent <- $r1
	.loc	5 188 9 is_stmt 1               @ ../src/driver/stm32g4-v120/src/stm32g4xx_hal_gpio.c:188:9
	beq.w	.LBB0_10
.Ltmp6:
@ %bb.3:                                @   in Loop: Header=BB0_2 Depth=1
	@DEBUG_VALUE: HAL_GPIO_Init:position <- $r8
	@DEBUG_VALUE: HAL_GPIO_Init:iocurrent <- $r1
	@DEBUG_VALUE: HAL_GPIO_Init:GPIOx <- [DW_OP_plus_uconst 8] [$sp+0]
	.loc	5 192 23                        @ ../src/driver/stm32g4-v120/src/stm32g4xx_hal_gpio.c:192:23
	ldr.w	r10, [lr, #4]
	str	r1, [sp, #12]                   @ 4-byte Spill
.Ltmp7:
	@DEBUG_VALUE: HAL_GPIO_Init:iocurrent <- [DW_OP_plus_uconst 12] [$sp+0]
	@DEBUG_VALUE: HAL_GPIO_Init:iocurrent <- [DW_OP_plus_uconst 12] [$sp+0]
	.loc	5 192 52 is_stmt 0              @ ../src/driver/stm32g4-v120/src/stm32g4xx_hal_gpio.c:192:52
	cmp.w	r10, #18
	bhi.w	.LBB0_11
.Ltmp8:
@ %bb.4:                                @   in Loop: Header=BB0_2 Depth=1
	@DEBUG_VALUE: HAL_GPIO_Init:iocurrent <- [DW_OP_plus_uconst 12] [$sp+0]
	@DEBUG_VALUE: HAL_GPIO_Init:position <- $r8
	@DEBUG_VALUE: HAL_GPIO_Init:GPIOx <- [DW_OP_plus_uconst 8] [$sp+0]
	.loc	5 0 52                          @ ../src/driver/stm32g4-v120/src/stm32g4xx_hal_gpio.c:0:52
	movs	r1, #1
	lsl.w	r2, r1, r10
	tst.w	r2, #393222
	beq.w	.LBB0_11
.Ltmp9:
@ %bb.5:                                @   in Loop: Header=BB0_2 Depth=1
	@DEBUG_VALUE: HAL_GPIO_Init:iocurrent <- [DW_OP_plus_uconst 12] [$sp+0]
	@DEBUG_VALUE: HAL_GPIO_Init:position <- $r8
	@DEBUG_VALUE: HAL_GPIO_Init:GPIOx <- [DW_OP_plus_uconst 8] [$sp+0]
	ldr	r0, [sp, #8]                    @ 4-byte Reload
.Ltmp10:
	.loc	5 199 40 is_stmt 1              @ ../src/driver/stm32g4-v120/src/stm32g4xx_hal_gpio.c:199:40
	movs	r1, #3
	.loc	5 198 23                        @ ../src/driver/stm32g4-v120/src/stm32g4xx_hal_gpio.c:198:23
	ldr	r4, [r0, #8]
.Ltmp11:
	@DEBUG_VALUE: HAL_GPIO_Init:temp <- $r4
	.loc	5 200 29                        @ ../src/driver/stm32g4-v120/src/stm32g4xx_hal_gpio.c:200:29
	ldr.w	r2, [lr, #12]
	.loc	5 199 40                        @ ../src/driver/stm32g4-v120/src/stm32g4xx_hal_gpio.c:199:40
	lsl.w	r3, r1, r7
	.loc	5 199 14 is_stmt 0              @ ../src/driver/stm32g4-v120/src/stm32g4xx_hal_gpio.c:199:14
	bics	r4, r3
.Ltmp12:
	@DEBUG_VALUE: HAL_GPIO_Init:temp <- $r4
	.loc	5 200 35 is_stmt 1              @ ../src/driver/stm32g4-v120/src/stm32g4xx_hal_gpio.c:200:35
	lsls	r2, r7
	.loc	5 200 14 is_stmt 0              @ ../src/driver/stm32g4-v120/src/stm32g4xx_hal_gpio.c:200:14
	orrs	r2, r4
.Ltmp13:
	@DEBUG_VALUE: HAL_GPIO_Init:temp <- $r2
	.loc	5 201 24 is_stmt 1              @ ../src/driver/stm32g4-v120/src/stm32g4xx_hal_gpio.c:201:24
	str	r2, [r0, #8]
	.loc	5 204 23                        @ ../src/driver/stm32g4-v120/src/stm32g4xx_hal_gpio.c:204:23
	ldr	r2, [r0, #4]
.Ltmp14:
	@DEBUG_VALUE: HAL_GPIO_Init:temp <- $r2
	.loc	5 199 17                        @ ../src/driver/stm32g4-v120/src/stm32g4xx_hal_gpio.c:199:17
	mvns	r4, r3
	.loc	5 206 56                        @ ../src/driver/stm32g4-v120/src/stm32g4xx_hal_gpio.c:206:56
	lsr.w	r3, r10, #4
	.loc	5 205 14                        @ ../src/driver/stm32g4-v120/src/stm32g4xx_hal_gpio.c:205:14
	bic.w	r2, r2, r11
.Ltmp15:
	@DEBUG_VALUE: HAL_GPIO_Init:temp <- $r2
	.loc	5 206 63                        @ ../src/driver/stm32g4-v120/src/stm32g4xx_hal_gpio.c:206:63
	lsl.w	r3, r3, r9
	.loc	5 199 53                        @ ../src/driver/stm32g4-v120/src/stm32g4xx_hal_gpio.c:199:53
	lsl.w	r5, r8, #1
	.loc	5 206 14                        @ ../src/driver/stm32g4-v120/src/stm32g4xx_hal_gpio.c:206:14
	orrs	r2, r3
.Ltmp16:
	@DEBUG_VALUE: HAL_GPIO_Init:temp <- $r2
	.loc	5 207 23                        @ ../src/driver/stm32g4-v120/src/stm32g4xx_hal_gpio.c:207:23
	str	r2, [r0, #4]
.Ltmp17:
.LBB0_6:                                @   in Loop: Header=BB0_2 Depth=1
	@DEBUG_VALUE: HAL_GPIO_Init:iocurrent <- [DW_OP_plus_uconst 12] [$sp+0]
	@DEBUG_VALUE: HAL_GPIO_Init:position <- $r8
	@DEBUG_VALUE: HAL_GPIO_Init:GPIOx <- [DW_OP_plus_uconst 8] [$sp+0]
	.loc	5 211 21                        @ ../src/driver/stm32g4-v120/src/stm32g4xx_hal_gpio.c:211:21
	ldr	r2, [r0, #12]
.Ltmp18:
	@DEBUG_VALUE: HAL_GPIO_Init:temp <- $r2
	.loc	5 213 28                        @ ../src/driver/stm32g4-v120/src/stm32g4xx_hal_gpio.c:213:28
	ldr.w	r3, [lr, #8]
	.loc	5 212 12                        @ ../src/driver/stm32g4-v120/src/stm32g4xx_hal_gpio.c:212:12
	ands	r2, r4
.Ltmp19:
	@DEBUG_VALUE: HAL_GPIO_Init:temp <- $r2
	.loc	5 213 34                        @ ../src/driver/stm32g4-v120/src/stm32g4xx_hal_gpio.c:213:34
	lsls	r3, r5
	.loc	5 213 12 is_stmt 0              @ ../src/driver/stm32g4-v120/src/stm32g4xx_hal_gpio.c:213:12
	orrs	r2, r3
.Ltmp20:
	@DEBUG_VALUE: HAL_GPIO_Init:temp <- $r2
	.loc	5 217 48 is_stmt 1              @ ../src/driver/stm32g4-v120/src/stm32g4xx_hal_gpio.c:217:48
	orr	r3, r10, #16
	cmp	r3, #18
.Ltmp21:
	.loc	5 214 20                        @ ../src/driver/stm32g4-v120/src/stm32g4xx_hal_gpio.c:214:20
	str	r2, [r0, #12]
.Ltmp22:
	.loc	5 217 48                        @ ../src/driver/stm32g4-v120/src/stm32g4xx_hal_gpio.c:217:48
	bne	.LBB0_8
.Ltmp23:
@ %bb.7:                                @   in Loop: Header=BB0_2 Depth=1
	@DEBUG_VALUE: HAL_GPIO_Init:iocurrent <- [DW_OP_plus_uconst 12] [$sp+0]
	@DEBUG_VALUE: HAL_GPIO_Init:position <- $r8
	@DEBUG_VALUE: HAL_GPIO_Init:temp <- $r2
	@DEBUG_VALUE: HAL_GPIO_Init:GPIOx <- [DW_OP_plus_uconst 8] [$sp+0]
	.loc	5 224 36                        @ ../src/driver/stm32g4-v120/src/stm32g4xx_hal_gpio.c:224:36
	mvn	r1, #3
	and.w	r2, r1, r9, lsr #1
.Ltmp24:
	.loc	5 224 16 is_stmt 0              @ ../src/driver/stm32g4-v120/src/stm32g4xx_hal_gpio.c:224:16
	add	r2, r0
	ldr.w	r10, [r2, #32]
.Ltmp25:
	@DEBUG_VALUE: HAL_GPIO_Init:temp <- $r10
	.loc	5 0 16                          @ ../src/driver/stm32g4-v120/src/stm32g4xx_hal_gpio.c:0:16
	mov	r11, r4
	.loc	5 225 47 is_stmt 1              @ ../src/driver/stm32g4-v120/src/stm32g4xx_hal_gpio.c:225:47
	and	r4, r12, #28
	.loc	5 225 24 is_stmt 0              @ ../src/driver/stm32g4-v120/src/stm32g4xx_hal_gpio.c:225:24
	movs	r1, #15
	.loc	5 226 30 is_stmt 1              @ ../src/driver/stm32g4-v120/src/stm32g4xx_hal_gpio.c:226:30
	ldr.w	r3, [lr, #16]
	.loc	5 225 24                        @ ../src/driver/stm32g4-v120/src/stm32g4xx_hal_gpio.c:225:24
	lsls	r1, r4
	.loc	5 225 14 is_stmt 0              @ ../src/driver/stm32g4-v120/src/stm32g4xx_hal_gpio.c:225:14
	bic.w	r1, r10, r1
.Ltmp26:
	@DEBUG_VALUE: HAL_GPIO_Init:temp <- $r1
	.loc	5 226 41 is_stmt 1              @ ../src/driver/stm32g4-v120/src/stm32g4xx_hal_gpio.c:226:41
	lsls	r3, r4
	.loc	5 226 14 is_stmt 0              @ ../src/driver/stm32g4-v120/src/stm32g4xx_hal_gpio.c:226:14
	orrs	r1, r3
.Ltmp27:
	@DEBUG_VALUE: HAL_GPIO_Init:temp <- $r1
	.loc	5 227 36 is_stmt 1              @ ../src/driver/stm32g4-v120/src/stm32g4xx_hal_gpio.c:227:36
	str	r1, [r2, #32]
.Ltmp28:
	.loc	5 233 28                        @ ../src/driver/stm32g4-v120/src/stm32g4xx_hal_gpio.c:233:28
	ldr.w	r10, [lr, #4]
	mov	r4, r11
.Ltmp29:
.LBB0_8:                                @   in Loop: Header=BB0_2 Depth=1
	@DEBUG_VALUE: HAL_GPIO_Init:iocurrent <- [DW_OP_plus_uconst 12] [$sp+0]
	@DEBUG_VALUE: HAL_GPIO_Init:position <- $r8
	@DEBUG_VALUE: HAL_GPIO_Init:GPIOx <- [DW_OP_plus_uconst 8] [$sp+0]
	.loc	5 231 21                        @ ../src/driver/stm32g4-v120/src/stm32g4xx_hal_gpio.c:231:21
	ldr	r1, [r0]
.Ltmp30:
	@DEBUG_VALUE: HAL_GPIO_Init:temp <- $r1
	.loc	5 233 33                        @ ../src/driver/stm32g4-v120/src/stm32g4xx_hal_gpio.c:233:33
	and	r2, r10, #3
	.loc	5 232 12                        @ ../src/driver/stm32g4-v120/src/stm32g4xx_hal_gpio.c:232:12
	ands	r1, r4
.Ltmp31:
	@DEBUG_VALUE: HAL_GPIO_Init:temp <- $r1
	.loc	5 233 46                        @ ../src/driver/stm32g4-v120/src/stm32g4xx_hal_gpio.c:233:46
	lsls	r2, r5
	.loc	5 233 12 is_stmt 0              @ ../src/driver/stm32g4-v120/src/stm32g4xx_hal_gpio.c:233:12
	orrs	r1, r2
.Ltmp32:
	@DEBUG_VALUE: HAL_GPIO_Init:temp <- $r1
	.loc	5 234 20 is_stmt 1              @ ../src/driver/stm32g4-v120/src/stm32g4xx_hal_gpio.c:234:20
	str	r1, [r0]
	ldr.w	lr, [sp, #4]                    @ 4-byte Reload
.Ltmp33:
	@DEBUG_VALUE: HAL_GPIO_Init:GPIO_Init <- [DW_OP_LLVM_entry_value 1] $r1
	.loc	5 0 20 is_stmt 0                @ ../src/driver/stm32g4-v120/src/stm32g4xx_hal_gpio.c:0:20
	ldr	r5, [sp, #12]                   @ 4-byte Reload
.Ltmp34:
	@DEBUG_VALUE: HAL_GPIO_Init:iocurrent <- $r5
	@DEBUG_VALUE: HAL_GPIO_Init:iocurrent <- $r5
	.loc	5 238 11 is_stmt 1              @ ../src/driver/stm32g4-v120/src/stm32g4xx_hal_gpio.c:238:11
	lsls.w	r2, r10, #3
	bpl	.LBB0_10
.Ltmp35:
@ %bb.9:                                @   in Loop: Header=BB0_2 Depth=1
	@DEBUG_VALUE: HAL_GPIO_Init:position <- $r8
	@DEBUG_VALUE: HAL_GPIO_Init:iocurrent <- $r5
	@DEBUG_VALUE: HAL_GPIO_Init:temp <- $r1
	@DEBUG_VALUE: HAL_GPIO_Init:GPIOx <- [DW_OP_plus_uconst 8] [$sp+0]
	.loc	5 0 11 is_stmt 0                @ ../src/driver/stm32g4-v120/src/stm32g4xx_hal_gpio.c:0:11
	movw	r2, #4192
	movt	r2, #16386
.Ltmp36:
	.loc	5 241 9 is_stmt 1               @ ../src/driver/stm32g4-v120/src/stm32g4xx_hal_gpio.c:241:9
	ldr	r1, [r2]
.Ltmp37:
	.loc	5 0 9 is_stmt 0                 @ ../src/driver/stm32g4-v120/src/stm32g4xx_hal_gpio.c:0:9
	movw	r10, #1024
	.loc	5 241 9                         @ ../src/driver/stm32g4-v120/src/stm32g4xx_hal_gpio.c:241:9
	orr	r1, r1, #1
	str	r1, [r2]
	ldr	r1, [r2]
	movt	r10, #16385
	and	r1, r1, #1
	str	r1, [sp, #16]
	ldr	r1, [sp, #16]
.Ltmp38:
	.loc	5 243 40 is_stmt 1              @ ../src/driver/stm32g4-v120/src/stm32g4xx_hal_gpio.c:243:40
	bic	r1, r9, #3
	movw	r9, #64520
	.loc	5 243 16 is_stmt 0              @ ../src/driver/stm32g4-v120/src/stm32g4xx_hal_gpio.c:243:16
	add	r1, r10
	movt	r9, #65535
	ldr.w	r2, [r1, r9]
.Ltmp39:
	@DEBUG_VALUE: HAL_GPIO_Init:temp <- $r2
	.loc	5 244 33 is_stmt 1              @ ../src/driver/stm32g4-v120/src/stm32g4xx_hal_gpio.c:244:33
	and	r3, r12, #12
	.loc	5 244 26 is_stmt 0              @ ../src/driver/stm32g4-v120/src/stm32g4xx_hal_gpio.c:244:26
	movs	r4, #15
	lsls	r4, r3
	.loc	5 244 14                        @ ../src/driver/stm32g4-v120/src/stm32g4xx_hal_gpio.c:244:14
	bics	r2, r4
.Ltmp40:
	@DEBUG_VALUE: HAL_GPIO_Init:temp <- $r2
	.loc	5 245 40 is_stmt 1              @ ../src/driver/stm32g4-v120/src/stm32g4xx_hal_gpio.c:245:40
	ldr	r4, [sp]                        @ 4-byte Reload
	lsl.w	r3, r4, r3
	.loc	5 245 14 is_stmt 0              @ ../src/driver/stm32g4-v120/src/stm32g4xx_hal_gpio.c:245:14
	orrs	r2, r3
.Ltmp41:
	@DEBUG_VALUE: HAL_GPIO_Init:temp <- $r2
	.loc	5 246 40 is_stmt 1              @ ../src/driver/stm32g4-v120/src/stm32g4xx_hal_gpio.c:246:40
	str.w	r2, [r1, r9]
	.loc	5 249 22                        @ ../src/driver/stm32g4-v120/src/stm32g4xx_hal_gpio.c:249:22
	ldr.w	r1, [r10]
.Ltmp42:
	@DEBUG_VALUE: HAL_GPIO_Init:temp <- undef
	.loc	5 251 25                        @ ../src/driver/stm32g4-v120/src/stm32g4xx_hal_gpio.c:251:25
	ldr.w	r2, [lr, #4]
	orr.w	r3, r1, r5
.Ltmp43:
	.loc	5 251 13 is_stmt 0              @ ../src/driver/stm32g4-v120/src/stm32g4xx_hal_gpio.c:251:13
	lsls	r4, r2, #15
	it	pl
	bicpl.w	r3, r1, r5
.Ltmp44:
	@DEBUG_VALUE: HAL_GPIO_Init:temp <- $r3
	.loc	5 255 20 is_stmt 1              @ ../src/driver/stm32g4-v120/src/stm32g4xx_hal_gpio.c:255:20
	str.w	r3, [r10]
	.loc	5 257 22                        @ ../src/driver/stm32g4-v120/src/stm32g4xx_hal_gpio.c:257:22
	ldr.w	r1, [r10, #4]
.Ltmp45:
	@DEBUG_VALUE: HAL_GPIO_Init:temp <- undef
	.loc	5 259 13                        @ ../src/driver/stm32g4-v120/src/stm32g4xx_hal_gpio.c:259:13
	lsls	r4, r2, #14
	orr.w	r3, r1, r5
	it	pl
	bicpl.w	r3, r1, r5
.Ltmp46:
	@DEBUG_VALUE: HAL_GPIO_Init:temp <- $r3
	.loc	5 263 20                        @ ../src/driver/stm32g4-v120/src/stm32g4xx_hal_gpio.c:263:20
	str.w	r3, [r10, #4]
	.loc	5 266 22                        @ ../src/driver/stm32g4-v120/src/stm32g4xx_hal_gpio.c:266:22
	ldr.w	r1, [r10, #8]
.Ltmp47:
	@DEBUG_VALUE: HAL_GPIO_Init:temp <- undef
	.loc	5 268 13                        @ ../src/driver/stm32g4-v120/src/stm32g4xx_hal_gpio.c:268:13
	lsls	r4, r2, #11
	orr.w	r3, r1, r5
	movw	r4, #1036
	it	pl
	bicpl.w	r3, r1, r5
.Ltmp48:
	@DEBUG_VALUE: HAL_GPIO_Init:temp <- $r3
	.loc	5 272 21                        @ ../src/driver/stm32g4-v120/src/stm32g4xx_hal_gpio.c:272:21
	str.w	r3, [r10, #8]
	movt	r4, #16385
	.loc	5 274 22                        @ ../src/driver/stm32g4-v120/src/stm32g4xx_hal_gpio.c:274:22
	ldr	r1, [r4]
.Ltmp49:
	@DEBUG_VALUE: HAL_GPIO_Init:temp <- undef
	.loc	5 276 13                        @ ../src/driver/stm32g4-v120/src/stm32g4xx_hal_gpio.c:276:13
	lsls	r2, r2, #10
	orr.w	r3, r1, r5
	it	pl
	bicpl.w	r3, r1, r5
.Ltmp50:
	@DEBUG_VALUE: HAL_GPIO_Init:temp <- $r3
	.loc	5 280 21                        @ ../src/driver/stm32g4-v120/src/stm32g4xx_hal_gpio.c:280:21
	str	r3, [r4]
.Ltmp51:
.LBB0_10:                               @   in Loop: Header=BB0_2 Depth=1
	@DEBUG_VALUE: HAL_GPIO_Init:position <- $r8
	@DEBUG_VALUE: HAL_GPIO_Init:GPIOx <- [DW_OP_plus_uconst 8] [$sp+0]
	.loc	5 183 23                        @ ../src/driver/stm32g4-v120/src/stm32g4xx_hal_gpio.c:183:23
	ldr.w	r2, [lr]
.Ltmp52:
	.loc	5 284 13                        @ ../src/driver/stm32g4-v120/src/stm32g4xx_hal_gpio.c:284:13
	add.w	r8, r8, #1
.Ltmp53:
	@DEBUG_VALUE: HAL_GPIO_Init:position <- $r8
	.loc	5 183 28                        @ ../src/driver/stm32g4-v120/src/stm32g4xx_hal_gpio.c:183:28
	lsrs.w	r1, r2, r6
	.loc	5 183 3 is_stmt 0               @ ../src/driver/stm32g4-v120/src/stm32g4xx_hal_gpio.c:183:3
	add.w	r7, r7, #2
	add.w	r6, r6, #1
	add.w	r12, r12, #4
	bne.w	.LBB0_2
	b	.LBB0_12
.Ltmp54:
.LBB0_11:                               @   in Loop: Header=BB0_2 Depth=1
	@DEBUG_VALUE: HAL_GPIO_Init:iocurrent <- [DW_OP_plus_uconst 12] [$sp+0]
	@DEBUG_VALUE: HAL_GPIO_Init:position <- $r8
	@DEBUG_VALUE: HAL_GPIO_Init:GPIOx <- [DW_OP_plus_uconst 8] [$sp+0]
	.loc	5 212 34 is_stmt 1              @ ../src/driver/stm32g4-v120/src/stm32g4xx_hal_gpio.c:212:34
	movs	r1, #3
	lsl.w	r2, r1, r7
	ldr	r0, [sp, #8]                    @ 4-byte Reload
	.loc	5 212 15 is_stmt 0              @ ../src/driver/stm32g4-v120/src/stm32g4xx_hal_gpio.c:212:15
	mvns	r4, r2
	.loc	5 212 47                        @ ../src/driver/stm32g4-v120/src/stm32g4xx_hal_gpio.c:212:47
	mov	r5, r7
	b	.LBB0_6
.Ltmp55:
.LBB0_12:
	@DEBUG_VALUE: HAL_GPIO_Init:GPIOx <- [DW_OP_plus_uconst 8] [$sp+0]
	.loc	5 286 1 is_stmt 1               @ ../src/driver/stm32g4-v120/src/stm32g4xx_hal_gpio.c:286:1
	add	sp, #20
	pop.w	{r4, r5, r6, r7, r8, r9, r10, r11, pc}
.Ltmp56:
.Lfunc_end0:
	.size	HAL_GPIO_Init, .Lfunc_end0-HAL_GPIO_Init
	.cfi_endproc
	.cantunwind
	.fnend
                                        @ -- End function
	.section	.text.HAL_GPIO_DeInit,"ax",%progbits
	.hidden	HAL_GPIO_DeInit                 @ -- Begin function HAL_GPIO_DeInit
	.globl	HAL_GPIO_DeInit
	.p2align	1
	.type	HAL_GPIO_DeInit,%function
	.code	16                              @ @HAL_GPIO_DeInit
	.thumb_func
HAL_GPIO_DeInit:
.Lfunc_begin1:
	.loc	5 296 0                         @ ../src/driver/stm32g4-v120/src/stm32g4xx_hal_gpio.c:296:0
	.fnstart
	.cfi_startproc
@ %bb.0:
	@DEBUG_VALUE: HAL_GPIO_DeInit:GPIOx <- $r0
	@DEBUG_VALUE: HAL_GPIO_DeInit:GPIO_Pin <- $r1
	@DEBUG_VALUE: HAL_GPIO_DeInit:GPIO_Pin <- $r1
	.save	{r4, r5, r6, r7, r8, r9, r10, r11, lr}
	push.w	{r4, r5, r6, r7, r8, r9, r10, r11, lr}
	.cfi_def_cfa_offset 36
	.cfi_offset lr, -4
	.cfi_offset r11, -8
	.cfi_offset r10, -12
	.cfi_offset r9, -16
	.cfi_offset r8, -20
	.cfi_offset r7, -24
	.cfi_offset r6, -28
	.cfi_offset r5, -32
	.cfi_offset r4, -36
	.pad	#8
	sub	sp, #8
	.cfi_def_cfa_offset 44
.Ltmp57:
	.loc	5 306 3 prologue_end            @ ../src/driver/stm32g4-v120/src/stm32g4xx_hal_gpio.c:306:3
	cmp	r1, #0
.Ltmp58:
	@DEBUG_VALUE: HAL_GPIO_DeInit:position <- 0
	@DEBUG_VALUE: HAL_GPIO_DeInit:GPIOx <- $r0
	beq	.LBB1_7
.Ltmp59:
@ %bb.1:
	@DEBUG_VALUE: HAL_GPIO_DeInit:GPIO_Pin <- $r1
	@DEBUG_VALUE: HAL_GPIO_DeInit:GPIOx <- $r0
	@DEBUG_VALUE: HAL_GPIO_DeInit:position <- 0
	.loc	5 0 3 is_stmt 0                 @ ../src/driver/stm32g4-v120/src/stm32g4xx_hal_gpio.c:0:3
	movw	r6, #5120
	add.w	r2, r0, #-1207959552
	movt	r6, #18432
	ror.w	r7, r2, #10
	movs	r3, #6
	cmp	r0, r6
	it	eq
	moveq	r3, #5
	cmp	r7, #5
	mov.w	r4, #0
	mov.w	r6, #0
	mov.w	r7, #1
	it	lo
	rorlo.w	r3, r2, #10
	str	r3, [sp]                        @ 4-byte Spill
	str	r1, [sp, #4]                    @ 4-byte Spill
.Ltmp60:
	.p2align	2
.LBB1_2:                                @ =>This Inner Loop Header: Depth=1
	@DEBUG_VALUE: HAL_GPIO_DeInit:GPIOx <- $r0
	@DEBUG_VALUE: HAL_GPIO_DeInit:position <- [DW_OP_constu 1, DW_OP_minus, DW_OP_stack_value] $r7
	.loc	5 309 35 is_stmt 1              @ ../src/driver/stm32g4-v120/src/stm32g4xx_hal_gpio.c:309:35
	subs	r2, r7, #1
	movs	r3, #1
	lsl.w	lr, r3, r2
	.loc	5 309 28 is_stmt 0              @ ../src/driver/stm32g4-v120/src/stm32g4xx_hal_gpio.c:309:28
	ands.w	r8, lr, r1
.Ltmp61:
	@DEBUG_VALUE: HAL_GPIO_DeInit:iocurrent <- $r8
	.loc	5 311 9 is_stmt 1               @ ../src/driver/stm32g4-v120/src/stm32g4xx_hal_gpio.c:311:9
	beq	.LBB1_6
.Ltmp62:
@ %bb.3:                                @   in Loop: Header=BB1_2 Depth=1
	@DEBUG_VALUE: HAL_GPIO_DeInit:iocurrent <- $r8
	@DEBUG_VALUE: HAL_GPIO_DeInit:position <- [DW_OP_constu 1, DW_OP_minus, DW_OP_stack_value] $r7
	@DEBUG_VALUE: HAL_GPIO_DeInit:GPIOx <- $r0
	.loc	5 316 13                        @ ../src/driver/stm32g4-v120/src/stm32g4xx_hal_gpio.c:316:13
	movw	r1, #1024
.Ltmp63:
	@DEBUG_VALUE: HAL_GPIO_DeInit:GPIO_Pin <- [DW_OP_LLVM_entry_value 1] $r1
	movt	r1, #16385
	.loc	5 316 37 is_stmt 0              @ ../src/driver/stm32g4-v120/src/stm32g4xx_hal_gpio.c:316:37
	lsr.w	r12, r2, #2
	.loc	5 316 13                        @ ../src/driver/stm32g4-v120/src/stm32g4xx_hal_gpio.c:316:13
	sub.w	r9, r1, #1016
	movs	r3, #15
	ldr.w	r10, [r9, r12, lsl #2]
.Ltmp64:
	@DEBUG_VALUE: HAL_GPIO_DeInit:tmp <- $r10
	.loc	5 317 29 is_stmt 1              @ ../src/driver/stm32g4-v120/src/stm32g4xx_hal_gpio.c:317:29
	and	r11, r6, #12
.Ltmp65:
	.loc	5 318 41                        @ ../src/driver/stm32g4-v120/src/stm32g4xx_hal_gpio.c:318:41
	ldr	r5, [sp]                        @ 4-byte Reload
.Ltmp66:
	.loc	5 317 22                        @ ../src/driver/stm32g4-v120/src/stm32g4xx_hal_gpio.c:317:22
	lsl.w	r1, r3, r11
	.loc	5 317 11 is_stmt 0              @ ../src/driver/stm32g4-v120/src/stm32g4xx_hal_gpio.c:317:11
	and.w	r3, r10, r1
.Ltmp67:
	@DEBUG_VALUE: HAL_GPIO_DeInit:tmp <- $r3
	.loc	5 318 41 is_stmt 1              @ ../src/driver/stm32g4-v120/src/stm32g4xx_hal_gpio.c:318:41
	lsl.w	r5, r5, r11
.Ltmp68:
	.loc	5 318 11 is_stmt 0              @ ../src/driver/stm32g4-v120/src/stm32g4xx_hal_gpio.c:318:11
	cmp	r3, r5
	bne	.LBB1_5
.Ltmp69:
@ %bb.4:                                @   in Loop: Header=BB1_2 Depth=1
	@DEBUG_VALUE: HAL_GPIO_DeInit:iocurrent <- $r8
	@DEBUG_VALUE: HAL_GPIO_DeInit:position <- [DW_OP_constu 1, DW_OP_minus, DW_OP_stack_value] $r7
	@DEBUG_VALUE: HAL_GPIO_DeInit:tmp <- $r3
	@DEBUG_VALUE: HAL_GPIO_DeInit:GPIOx <- $r0
	.loc	5 0 11                          @ ../src/driver/stm32g4-v120/src/stm32g4xx_hal_gpio.c:0:11
	movw	r5, #1024
	movt	r5, #16385
.Ltmp70:
	.loc	5 321 20 is_stmt 1              @ ../src/driver/stm32g4-v120/src/stm32g4xx_hal_gpio.c:321:20
	ldr	r3, [r5]
.Ltmp71:
	bic.w	r3, r3, r8
	str	r3, [r5]
	.loc	5 322 20                        @ ../src/driver/stm32g4-v120/src/stm32g4xx_hal_gpio.c:322:20
	ldr	r3, [r5, #4]
	bic.w	r3, r3, r8
	str	r3, [r5, #4]
	.loc	5 325 21                        @ ../src/driver/stm32g4-v120/src/stm32g4xx_hal_gpio.c:325:21
	ldr	r3, [r5, #8]
	bic.w	r3, r3, r8
	str	r3, [r5, #8]
	movw	r5, #1036
	movt	r5, #16385
	.loc	5 326 21                        @ ../src/driver/stm32g4-v120/src/stm32g4xx_hal_gpio.c:326:21
	ldr	r3, [r5]
	bic.w	r3, r3, r8
	str	r3, [r5]
.Ltmp72:
	@DEBUG_VALUE: HAL_GPIO_DeInit:tmp <- $r1
	.loc	5 329 40                        @ ../src/driver/stm32g4-v120/src/stm32g4xx_hal_gpio.c:329:40
	ldr.w	r3, [r9, r12, lsl #2]
	bic.w	r1, r3, r1
.Ltmp73:
	str.w	r1, [r9, r12, lsl #2]
.Ltmp74:
.LBB1_5:                                @   in Loop: Header=BB1_2 Depth=1
	@DEBUG_VALUE: HAL_GPIO_DeInit:iocurrent <- $r8
	@DEBUG_VALUE: HAL_GPIO_DeInit:position <- [DW_OP_constu 1, DW_OP_minus, DW_OP_stack_value] $r7
	@DEBUG_VALUE: HAL_GPIO_DeInit:GPIOx <- $r0
	.loc	5 334 20                        @ ../src/driver/stm32g4-v120/src/stm32g4xx_hal_gpio.c:334:20
	ldr	r1, [r0]
	.loc	5 334 41 is_stmt 0              @ ../src/driver/stm32g4-v120/src/stm32g4xx_hal_gpio.c:334:41
	movs	r3, #3
	lsls	r3, r4
	.loc	5 337 27 is_stmt 1              @ ../src/driver/stm32g4-v120/src/stm32g4xx_hal_gpio.c:337:27
	mvn	r5, #3
	.loc	5 334 20                        @ ../src/driver/stm32g4-v120/src/stm32g4xx_hal_gpio.c:334:20
	orrs	r1, r3
	.loc	5 337 27                        @ ../src/driver/stm32g4-v120/src/stm32g4xx_hal_gpio.c:337:27
	and.w	r2, r5, r2, lsr #1
	.loc	5 334 20                        @ ../src/driver/stm32g4-v120/src/stm32g4xx_hal_gpio.c:334:20
	str	r1, [r0]
	.loc	5 337 7                         @ ../src/driver/stm32g4-v120/src/stm32g4xx_hal_gpio.c:337:7
	add	r2, r0
	.loc	5 337 67 is_stmt 0              @ ../src/driver/stm32g4-v120/src/stm32g4xx_hal_gpio.c:337:67
	and	r12, r6, #28
	.loc	5 337 34                        @ ../src/driver/stm32g4-v120/src/stm32g4xx_hal_gpio.c:337:34
	ldr	r5, [r2, #32]
	.loc	5 337 44                        @ ../src/driver/stm32g4-v120/src/stm32g4xx_hal_gpio.c:337:44
	movs	r1, #15
	lsl.w	r1, r1, r12
	.loc	5 337 34                        @ ../src/driver/stm32g4-v120/src/stm32g4xx_hal_gpio.c:337:34
	bic.w	r1, r5, r1
	str	r1, [r2, #32]
	.loc	5 340 20 is_stmt 1              @ ../src/driver/stm32g4-v120/src/stm32g4xx_hal_gpio.c:340:20
	ldr	r1, [r0, #12]
	bics	r1, r3
	str	r1, [r0, #12]
	.loc	5 343 22                        @ ../src/driver/stm32g4-v120/src/stm32g4xx_hal_gpio.c:343:22
	ldr	r1, [r0, #4]
	bic.w	r1, r1, lr
	str	r1, [r0, #4]
	.loc	5 346 22                        @ ../src/driver/stm32g4-v120/src/stm32g4xx_hal_gpio.c:346:22
	ldr	r1, [r0, #8]
	bics	r1, r3
	str	r1, [r0, #8]
	ldr	r1, [sp, #4]                    @ 4-byte Reload
.Ltmp75:
.LBB1_6:                                @   in Loop: Header=BB1_2 Depth=1
	@DEBUG_VALUE: HAL_GPIO_DeInit:iocurrent <- $r8
	@DEBUG_VALUE: HAL_GPIO_DeInit:position <- [DW_OP_constu 1, DW_OP_minus, DW_OP_stack_value] $r7
	@DEBUG_VALUE: HAL_GPIO_DeInit:GPIOx <- $r0
	@DEBUG_VALUE: HAL_GPIO_DeInit:position <- $r7
	.loc	5 306 20                        @ ../src/driver/stm32g4-v120/src/stm32g4xx_hal_gpio.c:306:20
	lsrs.w	r2, r1, r7
	.loc	5 306 3 is_stmt 0               @ ../src/driver/stm32g4-v120/src/stm32g4xx_hal_gpio.c:306:3
	add.w	r7, r7, #1
.Ltmp76:
	add.w	r6, r6, #4
	add.w	r4, r4, #2
	bne	.LBB1_2
.Ltmp77:
.LBB1_7:
	@DEBUG_VALUE: HAL_GPIO_DeInit:GPIOx <- $r0
	.loc	5 351 1 is_stmt 1               @ ../src/driver/stm32g4-v120/src/stm32g4xx_hal_gpio.c:351:1
	add	sp, #8
	pop.w	{r4, r5, r6, r7, r8, r9, r10, r11, pc}
.Ltmp78:
.Lfunc_end1:
	.size	HAL_GPIO_DeInit, .Lfunc_end1-HAL_GPIO_DeInit
	.cfi_endproc
	.cantunwind
	.fnend
                                        @ -- End function
	.section	.text.HAL_GPIO_ReadPin,"ax",%progbits
	.hidden	HAL_GPIO_ReadPin                @ -- Begin function HAL_GPIO_ReadPin
	.globl	HAL_GPIO_ReadPin
	.p2align	1
	.type	HAL_GPIO_ReadPin,%function
	.code	16                              @ @HAL_GPIO_ReadPin
	.thumb_func
HAL_GPIO_ReadPin:
.Lfunc_begin2:
	.loc	5 377 0                         @ ../src/driver/stm32g4-v120/src/stm32g4xx_hal_gpio.c:377:0
	.fnstart
	.cfi_startproc
@ %bb.0:
	@DEBUG_VALUE: HAL_GPIO_ReadPin:GPIOx <- $r0
	@DEBUG_VALUE: HAL_GPIO_ReadPin:GPIOx <- $r0
	@DEBUG_VALUE: HAL_GPIO_ReadPin:GPIO_Pin <- $r1
	.loc	5 383 15 prologue_end           @ ../src/driver/stm32g4-v120/src/stm32g4xx_hal_gpio.c:383:15
	ldr	r0, [r0, #16]
.Ltmp79:
	@DEBUG_VALUE: HAL_GPIO_ReadPin:GPIOx <- [DW_OP_LLVM_entry_value 1] $r0
	@DEBUG_VALUE: HAL_GPIO_ReadPin:GPIO_Pin <- $r1
	.loc	5 383 19 is_stmt 0              @ ../src/driver/stm32g4-v120/src/stm32g4xx_hal_gpio.c:383:19
	ands	r0, r1
	.loc	5 383 31                        @ ../src/driver/stm32g4-v120/src/stm32g4xx_hal_gpio.c:383:31
	it	ne
	movne	r0, #1
.Ltmp80:
	@DEBUG_VALUE: HAL_GPIO_ReadPin:bitstatus <- undef
	.loc	5 391 3 is_stmt 1               @ ../src/driver/stm32g4-v120/src/stm32g4xx_hal_gpio.c:391:3
	bx	lr
.Ltmp81:
.Lfunc_end2:
	.size	HAL_GPIO_ReadPin, .Lfunc_end2-HAL_GPIO_ReadPin
	.cfi_endproc
	.cantunwind
	.fnend
                                        @ -- End function
	.section	.text.HAL_GPIO_WritePin,"ax",%progbits
	.hidden	HAL_GPIO_WritePin               @ -- Begin function HAL_GPIO_WritePin
	.globl	HAL_GPIO_WritePin
	.p2align	1
	.type	HAL_GPIO_WritePin,%function
	.code	16                              @ @HAL_GPIO_WritePin
	.thumb_func
HAL_GPIO_WritePin:
.Lfunc_begin3:
	.loc	5 411 0                         @ ../src/driver/stm32g4-v120/src/stm32g4xx_hal_gpio.c:411:0
	.fnstart
	.cfi_startproc
@ %bb.0:
	@DEBUG_VALUE: HAL_GPIO_WritePin:GPIOx <- $r0
	@DEBUG_VALUE: HAL_GPIO_WritePin:GPIO_Pin <- $r1
	@DEBUG_VALUE: HAL_GPIO_WritePin:PinState <- $r2
	movs	r3, #24
	@DEBUG_VALUE: HAL_GPIO_WritePin:PinState <- $r2
	@DEBUG_VALUE: HAL_GPIO_WritePin:GPIO_Pin <- $r1
	@DEBUG_VALUE: HAL_GPIO_WritePin:GPIOx <- $r0
.Ltmp82:
	.loc	5 416 7 prologue_end            @ ../src/driver/stm32g4-v120/src/stm32g4xx_hal_gpio.c:416:7
	cmp	r2, #0
	it	eq
	moveq	r3, #40
.Ltmp83:
	.loc	5 0 0 is_stmt 0                 @ ../src/driver/stm32g4-v120/src/stm32g4xx_hal_gpio.c:0:0
	str	r1, [r0, r3]
.Ltmp84:
	.loc	5 424 1 is_stmt 1               @ ../src/driver/stm32g4-v120/src/stm32g4xx_hal_gpio.c:424:1
	bx	lr
.Ltmp85:
.Lfunc_end3:
	.size	HAL_GPIO_WritePin, .Lfunc_end3-HAL_GPIO_WritePin
	.cfi_endproc
	.cantunwind
	.fnend
                                        @ -- End function
	.section	.text.HAL_GPIO_TogglePin,"ax",%progbits
	.hidden	HAL_GPIO_TogglePin              @ -- Begin function HAL_GPIO_TogglePin
	.globl	HAL_GPIO_TogglePin
	.p2align	1
	.type	HAL_GPIO_TogglePin,%function
	.code	16                              @ @HAL_GPIO_TogglePin
	.thumb_func
HAL_GPIO_TogglePin:
.Lfunc_begin4:
	.loc	5 434 0                         @ ../src/driver/stm32g4-v120/src/stm32g4xx_hal_gpio.c:434:0
	.fnstart
	.cfi_startproc
@ %bb.0:
	@DEBUG_VALUE: HAL_GPIO_TogglePin:GPIOx <- $r0
	@DEBUG_VALUE: HAL_GPIO_TogglePin:GPIOx <- $r0
	@DEBUG_VALUE: HAL_GPIO_TogglePin:GPIO_Pin <- $r1
	.loc	5 441 16 prologue_end           @ ../src/driver/stm32g4-v120/src/stm32g4xx_hal_gpio.c:441:16
	ldr	r2, [r0, #20]
.Ltmp86:
	@DEBUG_VALUE: HAL_GPIO_TogglePin:odr <- $r2
	@DEBUG_VALUE: HAL_GPIO_TogglePin:GPIO_Pin <- $r1
	.loc	5 444 23                        @ ../src/driver/stm32g4-v120/src/stm32g4xx_hal_gpio.c:444:23
	and.w	r3, r2, r1
	.loc	5 444 59 is_stmt 0              @ ../src/driver/stm32g4-v120/src/stm32g4xx_hal_gpio.c:444:59
	bics	r1, r2
.Ltmp87:
	@DEBUG_VALUE: HAL_GPIO_TogglePin:GPIO_Pin <- [DW_OP_LLVM_entry_value 1] $r1
	.loc	5 444 51                        @ ../src/driver/stm32g4-v120/src/stm32g4xx_hal_gpio.c:444:51
	orr.w	r1, r1, r3, lsl #16
	.loc	5 444 15                        @ ../src/driver/stm32g4-v120/src/stm32g4xx_hal_gpio.c:444:15
	str	r1, [r0, #24]
	.loc	5 445 1 is_stmt 1               @ ../src/driver/stm32g4-v120/src/stm32g4xx_hal_gpio.c:445:1
	bx	lr
.Ltmp88:
.Lfunc_end4:
	.size	HAL_GPIO_TogglePin, .Lfunc_end4-HAL_GPIO_TogglePin
	.cfi_endproc
	.cantunwind
	.fnend
                                        @ -- End function
	.section	.text.HAL_GPIO_LockPin,"ax",%progbits
	.hidden	HAL_GPIO_LockPin                @ -- Begin function HAL_GPIO_LockPin
	.globl	HAL_GPIO_LockPin
	.p2align	1
	.type	HAL_GPIO_LockPin,%function
	.code	16                              @ @HAL_GPIO_LockPin
	.thumb_func
HAL_GPIO_LockPin:
.Lfunc_begin5:
	.loc	5 459 0                         @ ../src/driver/stm32g4-v120/src/stm32g4xx_hal_gpio.c:459:0
	.fnstart
	.cfi_startproc
@ %bb.0:
	@DEBUG_VALUE: HAL_GPIO_LockPin:GPIOx <- $r0
	@DEBUG_VALUE: HAL_GPIO_LockPin:GPIO_Pin <- $r1
	.pad	#4
	sub	sp, #4
	.cfi_def_cfa_offset 4
	mov.w	r2, #65536
.Ltmp89:
	.loc	5 460 17 prologue_end           @ ../src/driver/stm32g4-v120/src/stm32g4xx_hal_gpio.c:460:17
	str	r2, [sp]
	.loc	5 467 7                         @ ../src/driver/stm32g4-v120/src/stm32g4xx_hal_gpio.c:467:7
	ldr	r2, [sp]
	@DEBUG_VALUE: HAL_GPIO_LockPin:GPIO_Pin <- $r1
	orrs	r2, r1
	str	r2, [sp]
	.loc	5 469 17                        @ ../src/driver/stm32g4-v120/src/stm32g4xx_hal_gpio.c:469:17
	ldr	r2, [sp]
	@DEBUG_VALUE: HAL_GPIO_LockPin:GPIOx <- $r0
	.loc	5 469 15 is_stmt 0              @ ../src/driver/stm32g4-v120/src/stm32g4xx_hal_gpio.c:469:15
	str	r2, [r0, #28]
	.loc	5 471 15 is_stmt 1              @ ../src/driver/stm32g4-v120/src/stm32g4xx_hal_gpio.c:471:15
	str	r1, [r0, #28]
	.loc	5 473 17                        @ ../src/driver/stm32g4-v120/src/stm32g4xx_hal_gpio.c:473:17
	ldr	r1, [sp]
.Ltmp90:
	@DEBUG_VALUE: HAL_GPIO_LockPin:GPIO_Pin <- [DW_OP_LLVM_entry_value 1] $r1
	.loc	5 473 15 is_stmt 0              @ ../src/driver/stm32g4-v120/src/stm32g4xx_hal_gpio.c:473:15
	str	r1, [r0, #28]
	.loc	5 475 16 is_stmt 1              @ ../src/driver/stm32g4-v120/src/stm32g4xx_hal_gpio.c:475:16
	ldr	r1, [r0, #28]
	.loc	5 475 7 is_stmt 0               @ ../src/driver/stm32g4-v120/src/stm32g4xx_hal_gpio.c:475:7
	str	r1, [sp]
.Ltmp91:
	.loc	5 478 15 is_stmt 1              @ ../src/driver/stm32g4-v120/src/stm32g4xx_hal_gpio.c:478:15
	ldr	r0, [r0, #28]
.Ltmp92:
	@DEBUG_VALUE: HAL_GPIO_LockPin:GPIOx <- [DW_OP_LLVM_entry_value 1] $r0
	.loc	5 0 15 is_stmt 0                @ ../src/driver/stm32g4-v120/src/stm32g4xx_hal_gpio.c:0:15
	movs	r1, #1
.Ltmp93:
	.loc	5 478 7                         @ ../src/driver/stm32g4-v120/src/stm32g4xx_hal_gpio.c:478:7
	bic.w	r0, r1, r0, lsr #16
	.loc	5 486 1 is_stmt 1               @ ../src/driver/stm32g4-v120/src/stm32g4xx_hal_gpio.c:486:1
	add	sp, #4
	bx	lr
.Ltmp94:
.Lfunc_end5:
	.size	HAL_GPIO_LockPin, .Lfunc_end5-HAL_GPIO_LockPin
	.cfi_endproc
	.cantunwind
	.fnend
                                        @ -- End function
	.section	.text.HAL_GPIO_EXTI_IRQHandler,"ax",%progbits
	.hidden	HAL_GPIO_EXTI_IRQHandler        @ -- Begin function HAL_GPIO_EXTI_IRQHandler
	.globl	HAL_GPIO_EXTI_IRQHandler
	.p2align	1
	.type	HAL_GPIO_EXTI_IRQHandler,%function
	.code	16                              @ @HAL_GPIO_EXTI_IRQHandler
	.thumb_func
HAL_GPIO_EXTI_IRQHandler:
.Lfunc_begin6:
	.loc	5 494 0                         @ ../src/driver/stm32g4-v120/src/stm32g4xx_hal_gpio.c:494:0
	.fnstart
	.cfi_startproc
@ %bb.0:
	@DEBUG_VALUE: HAL_GPIO_EXTI_IRQHandler:GPIO_Pin <- $r0
	movw	r1, #1044
	movt	r1, #16385
.Ltmp95:
	.loc	5 496 7 prologue_end            @ ../src/driver/stm32g4-v120/src/stm32g4xx_hal_gpio.c:496:7
	ldr	r2, [r1]
.Ltmp96:
	@DEBUG_VALUE: HAL_GPIO_EXTI_IRQHandler:GPIO_Pin <- $r0
	.loc	5 496 7 is_stmt 0               @ ../src/driver/stm32g4-v120/src/stm32g4xx_hal_gpio.c:496:7
	tst	r2, r0
.Ltmp97:
	.loc	5 498 5 is_stmt 1               @ ../src/driver/stm32g4-v120/src/stm32g4xx_hal_gpio.c:498:5
	ite	ne
	strne	r0, [r1]
.Ltmp98:
	.loc	5 501 1                         @ ../src/driver/stm32g4-v120/src/stm32g4xx_hal_gpio.c:501:1
	bxeq	lr
.Ltmp99:
	.loc	5 499 5                         @ ../src/driver/stm32g4-v120/src/stm32g4xx_hal_gpio.c:499:5
	b	HAL_GPIO_EXTI_Callback
.Ltmp100:
.Lfunc_end6:
	.size	HAL_GPIO_EXTI_IRQHandler, .Lfunc_end6-HAL_GPIO_EXTI_IRQHandler
	.cfi_endproc
	.cantunwind
	.fnend
                                        @ -- End function
	.section	.text.HAL_GPIO_EXTI_Callback,"ax",%progbits
	.hidden	HAL_GPIO_EXTI_Callback          @ -- Begin function HAL_GPIO_EXTI_Callback
	.weak	HAL_GPIO_EXTI_Callback
	.p2align	1
	.type	HAL_GPIO_EXTI_Callback,%function
	.code	16                              @ @HAL_GPIO_EXTI_Callback
	.thumb_func
HAL_GPIO_EXTI_Callback:
.Lfunc_begin7:
	.loc	5 509 0                         @ ../src/driver/stm32g4-v120/src/stm32g4xx_hal_gpio.c:509:0
	.fnstart
	.cfi_startproc
@ %bb.0:
	@DEBUG_VALUE: HAL_GPIO_EXTI_Callback:GPIO_Pin <- $r0
	.loc	5 516 1 prologue_end            @ ../src/driver/stm32g4-v120/src/stm32g4xx_hal_gpio.c:516:1
	bx	lr
.Ltmp101:
.Lfunc_end7:
	.size	HAL_GPIO_EXTI_Callback, .Lfunc_end7-HAL_GPIO_EXTI_Callback
	.cfi_endproc
	.cantunwind
	.fnend
                                        @ -- End function
	.section	".note.GNU-stack","",%progbits
	.eabi_attribute	30, 3	@ Tag_ABI_optimization_goals
	.ARM_attribute	16, 1	@ Tag_AV_eba