	.text
	.syntax unified
	.eabi_attribute	67, "2.09"	@ Tag_conformance
	.cpu	cortex-m4
	.eabi_attribute	6, 13	@ Tag_CPU_arch
	.eabi_attribute	7, 77	@ Tag_CPU_arch_profile
	.eabi_attribute	8, 0	@ Tag_ARM_ISA_use
	.eabi_attribute	9, 2	@ Tag_THUMB_ISA_use
	.fpu	fpv4-sp-d16
	.eabi_attribute	27, 1	@ Tag_ABI_HardFP_use
	.eabi_attribute	36, 1	@ Tag_FP_HP_extension
	.eabi_attribute	34, 1	@ Tag_CPU_unaligned_access
	.eabi_attribute	17, 1	@ Tag_ABI_PCS_GOT_use
	.eabi_attribute	20, 2	@ Tag_ABI_FP_denormal
	.eabi_attribute	21, 0	@ Tag_ABI_FP_exceptions
	.eabi_attribute	23, 1	@ Tag_ABI_FP_number_model
	.eabi_attribute	24, 1	@ Tag_ABI_align_needed
	.eabi_attribute	25, 1	@ Tag_ABI_align_preserved
	.eabi_attribute	28, 1	@ Tag_ABI_VFP_args
	.eabi_attribute	38, 1	@ Tag_ABI_FP_16bit_format
	.eabi_attribute	18, 2	@ Tag_ABI_PCS_wchar_t
	.eabi_attribute	26, 1	@ Tag_ABI_enum_size
	.eabi_attribute	14, 0	@ Tag_ABI_PCS_R9_use
	.file	"stm32hal.c"
	.file	1 "C:\\Users\\grodriguez\\Documents\\iit\\icub-firmware\\emBODY\\eBcode\\arch-arm\\libs\\lowlevel\\stm32hal\\proj" "../api\\stm32hal.h"
	.file	2 "C:\\" "Keil_v5\\ARM\\ARMCLANG\\Bin\\..\\include\\stdint.h"
	.file	3 "C:\\Users\\grodriguez\\Documents\\iit\\icub-firmware\\emBODY\\eBcode\\arch-arm\\libs\\lowlevel\\stm32hal\\proj" "../src/stm32hal/stm32hal.c"
	.file	4 "C:\\Users\\grodriguez\\Documents\\iit\\icub-firmware\\emBODY\\eBcode\\arch-arm\\libs\\lowlevel\\stm32hal\\proj" "../src/driver/stm32g4-v120/inc/stm32g4xx_hal_def.h"
	.section	.text.stm32hal_init,"ax",%progbits
	.hidden	stm32hal_init                   @ -- Begin function stm32hal_init
	.globl	stm32hal_init
	.p2align	2
	.type	stm32hal_init,%function
	.code	16                              @ @stm32hal_init
	.thumb_func
stm32hal_init:
.Lfunc_begin0:
	.loc	3 81 0                          @ ../src/stm32hal/stm32hal.c:81:0
	.fnstart
	.cfi_sections .debug_frame
	.cfi_startproc
@ %bb.0:
	@DEBUG_VALUE: stm32hal_init:cfg <- $r0
	@DEBUG_VALUE: stm32hal_init:cfg <- $r0
	.save	{r7, lr}
	push	{r7, lr}
	.cfi_def_cfa_offset 8
	.cfi_offset lr, -4
	.cfi_offset r7, -8
.Ltmp0:
	.loc	3 88 8 prologue_end             @ ../src/stm32hal/stm32hal.c:88:8
	adr	r1, .LCPI0_0
	cmp	r0, #0
	it	ne
	movne	r1, r0
.Ltmp1:
	@DEBUG_VALUE: stm32hal_init:cfg <- $r1
	.loc	3 93 5                          @ ../src/stm32hal/stm32hal.c:93:5
	ldrd	r2, r1, [r1]
.Ltmp2:
	movw	r0, :lower16:s_stm32hal_bsp_config
	movt	r0, :upper16:s_stm32hal_bsp_config
	strd	r2, r1, [r0]
	.loc	3 95 8                          @ ../src/stm32hal/stm32hal.c:95:8
	cbnz	r2, .LBB0_2
@ %bb.1:
.Ltmp3:
	.loc	3 97 44                         @ ../src/stm32hal/stm32hal.c:97:44
	movw	r2, :lower16:s_stm32hal_bps_dummy_tick1msinit
	movt	r2, :upper16:s_stm32hal_bps_dummy_tick1msinit
	str	r2, [r0]
.Ltmp4:
.LBB0_2:
	.loc	3 100 8                         @ ../src/stm32hal/stm32hal.c:100:8
	cbnz	r1, .LBB0_4
@ %bb.3:
.Ltmp5:
	.loc	3 102 43                        @ ../src/stm32hal/stm32hal.c:102:43
	movw	r1, :lower16:s_stm32hal_bps_dummy_tick1msget
	movt	r1, :upper16:s_stm32hal_bps_dummy_tick1msget
	str	r1, [r0, #4]
.Ltmp6:
.LBB0_4:
	.loc	3 106 5                         @ ../src/stm32hal/stm32hal.c:106:5
	bl	stm32hal_board_init
.Ltmp7:
	.loc	3 108 5                         @ ../src/stm32hal/stm32hal.c:108:5
	movs	r0, #0
	pop	{r7, pc}
.Ltmp8:
	.p2align	2
@ %bb.5:
	.loc	3 0 5 is_stmt 0                 @ ../src/stm32hal/stm32hal.c:0:5
.LCPI0_0:
stm32hal_init.s_config:
	.long	s_stm32hal_bps_dummy_tick1msinit
	.long	s_stm32hal_bps_dummy_tick1msget
.Lfunc_end0:
	.size	stm32hal_init, .Lfunc_end0-stm32hal_init
	.cfi_endproc
	.cantunwind
	.fnend
                                        @ -- End function
	.section	.text.s_stm32hal_bps_dummy_tick1msinit,"ax",%progbits
	.p2align	1                               @ -- Begin function s_stm32hal_bps_dummy_tick1msinit
	.type	s_stm32hal_bps_dummy_tick1msinit,%function
	.code	16                              @ @s_stm32hal_bps_dummy_tick1msinit
	.thumb_func
s_stm32hal_bps_dummy_tick1msinit:
.Lfunc_begin1:
	.loc	3 119 0 is_stmt 1               @ ../src/stm32hal/stm32hal.c:119:0
	.fnstart
	.cfi_startproc
@ %bb.0:
	.loc	3 120 1 prologue_end            @ ../src/stm32hal/stm32hal.c:120:1
	bx	lr
.Ltmp9:
.Lfunc_end1:
	.size	s_stm32hal_bps_dummy_tick1msinit, .Lfunc_end1-s_stm32hal_bps_dummy_tick1msinit
	.cfi_endproc
	.cantunwind
	.fnend
                                        @ -- End function
	.section	.text.s_stm32hal_bps_dummy_tick1msget,"ax",%progbits
	.p2align	1                               @ -- Begin function s_stm32hal_bps_dummy_tick1msget
	.type	s_stm32hal_bps_dummy_tick1msget,%function
	.code	16                              @ @s_stm32hal_bps_dummy_tick1msget
	.thumb_func
s_stm32hal_bps_dummy_tick1msget:
.Lfunc_begin2:
	.loc	3 123 0                         @ ../src/stm32hal/stm32hal.c:123:0
	.fnstart
	.cfi_startproc
@ %bb.0:
	.loc	3 126 18 prologue_end           @ ../src/stm32hal/stm32hal.c:126:18
	movw	r0, :lower16:SystemCoreClock
	movt	r0, :upper16:SystemCoreClock
	ldr	r0, [r0]
.Ltmp10:
	@DEBUG_VALUE: i <- undef
	.loc	3 0 18 is_stmt 0                @ ../src/stm32hal/stm32hal.c:0:18
	movs	r1, #0
	.loc	3 126 5                         @ ../src/stm32hal/stm32hal.c:126:5
	cmp.w	r1, r0, lsr #14
	beq	.LBB2_3
.Ltmp11:
@ %bb.1:
	.loc	3 0 5                           @ ../src/stm32hal/stm32hal.c:0:5
	lsrs	r0, r0, #14
.Ltmp12:
	@DEBUG_VALUE: i <- $r0
	.p2align	2
.LBB2_2:                                @ =>This Inner Loop Header: Depth=1
	@DEBUG_VALUE: i <- $r0
	@DEBUG_VALUE: i <- $r0
	.loc	3 127 9 is_stmt 1               @ ../src/stm32hal/stm32hal.c:127:9
	nop
	.loc	3 127 18 is_stmt 0              @ ../src/stm32hal/stm32hal.c:127:18
	nop
	.loc	3 127 27                        @ ../src/stm32hal/stm32hal.c:127:27
	nop
	.loc	3 127 36                        @ ../src/stm32hal/stm32hal.c:127:36
	nop
	.loc	3 127 45                        @ ../src/stm32hal/stm32hal.c:127:45
	nop
	.loc	3 127 54                        @ ../src/stm32hal/stm32hal.c:127:54
	nop
	.loc	3 128 9 is_stmt 1               @ ../src/stm32hal/stm32hal.c:128:9
	nop
	.loc	3 128 18 is_stmt 0              @ ../src/stm32hal/stm32hal.c:128:18
	nop
	.loc	3 128 27                        @ ../src/stm32hal/stm32hal.c:128:27
	nop
	.loc	3 128 36                        @ ../src/stm32hal/stm32hal.c:128:36
	nop
	.loc	3 128 45                        @ ../src/stm32hal/stm32hal.c:128:45
	nop
.Ltmp13:
	.loc	3 126 52 is_stmt 1              @ ../src/stm32hal/stm32hal.c:126:52
	subs	r0, #1
.Ltmp14:
	@DEBUG_VALUE: i <- $r0
	.loc	3 128 54                        @ ../src/stm32hal/stm32hal.c:128:54
	nop
.Ltmp15:
	.loc	3 126 5                         @ ../src/stm32hal/stm32hal.c:126:5
	bne	.LBB2_2
.Ltmp16:
.LBB2_3:
	.loc	3 130 12                        @ ../src/stm32hal/stm32hal.c:130:12
	movw	r1, :lower16:s_stm32hal_bps_dummy_tick1msget.cnt
	movt	r1, :upper16:s_stm32hal_bps_dummy_tick1msget.cnt
	ldrd	r0, r2, [r1]
	adds	r0, #1
	adc	r2, r2, #0
	strd	r0, r2, [r1]
	.loc	3 130 5 is_stmt 0               @ ../src/stm32hal/stm32hal.c:130:5
	bx	lr
.Ltmp17:
.Lfunc_end2:
	.size	s_stm32hal_bps_dummy_tick1msget, .Lfunc_end2-s_stm32hal_bps_dummy_tick1msget
	.cfi_endproc
	.cantunwind
	.fnend
                                        @ -- End function
	.section	.text.HAL_InitTick,"ax",%progbits
	.hidden	HAL_InitTick                    @ -- Begin function HAL_InitTick
	.globl	HAL_InitTick
	.p2align	1
	.type	HAL_InitTick,%function
	.code	16                              @ @HAL_InitTick
	.thumb_func
HAL_InitTick:
.Lfunc_begin3:
	.loc	3 149 0 is_stmt 1               @ ../src/stm32hal/stm32hal.c:149:0
	.fnstart
	.cfi_startproc
@ %bb.0:
	@DEBUG_VALUE: HAL_InitTick:TickPriority <- $r0
	.save	{r7, lr}
	push	{r7, lr}
	.cfi_def_cfa_offset 8
	.cfi_offset lr, -4
	.cfi_offset r7, -8
.Ltmp18:
	.loc	3 159 27 prologue_end           @ ../src/stm32hal/stm32hal.c:159:27
	movw	r0, :lower16:s_stm32hal_bsp_config
.Ltmp19:
	@DEBUG_VALUE: HAL_InitTick:TickPriority <- [DW_OP_LLVM_entry_value 1] $r0
	movt	r0, :upper16:s_stm32hal_bsp_config
	ldr	r0, [r0]
	.loc	3 159 5 is_stmt 0               @ ../src/stm32hal/stm32hal.c:159:5
	blx	r0
.Ltmp20:
	.loc	3 161 5 is_stmt 1               @ ../src/stm32hal/stm32hal.c:161:5
	movs	r0, #0
	pop	{r7, pc}
.Ltmp21:
.Lfunc_end3:
	.size	HAL_InitTick, .Lfunc_end3-HAL_InitTick
	.cfi_endproc
	.cantunwind
	.fnend
                                        @ -- End function
	.section	.text.HAL_IncTick,"ax",%progbits
	.hidden	HAL_IncTick                     @ -- Begin function HAL_IncTick
	.globl	HAL_IncTick
	.p2align	1
	.type	HAL_IncTick,%function
	.code	16                              @ @HAL_IncTick
	.thumb_func
HAL_IncTick:
.Lfunc_begin4:
	.loc	3 165 0                         @ ../src/stm32hal/stm32hal.c:165:0
	.fnstart
	.cfi_startproc
@ %bb.0:
	.loc	3 167 1 prologue_end            @ ../src/stm32hal/stm32hal.c:167:1
	bx	lr
.Ltmp22:
.Lfunc_end4:
	.size	HAL_IncTick, .Lfunc_end4-HAL_IncTick
	.cfi_endproc
	.cantunwind
	.fnend
                                        @ -- End function
	.section	.text.HAL_GetTick,"ax",%progbits
	.hidden	HAL_GetTick                     @ -- Begin function HAL_GetTick
	.globl	HAL_GetTick
	.p2align	1
	.type	HAL_GetTick,%function
	.code	16                              @ @HAL_GetTick
	.thumb_func
HAL_GetTick:
.Lfunc_begin5:
	.loc	3 170 0                         @ ../src/stm32hal/stm32hal.c:170:0
	.fnstart
	.cfi_startproc
@ %bb.0:
	.save	{r7, lr}
	push	{r7, lr}
	.cfi_def_cfa_offset 8
	.cfi_offset lr, -4
	.cfi_offset r7, -8
.Ltmp23:
	.loc	3 174 43 prologue_end           @ ../src/stm32hal/stm32hal.c:174:43
	movw	r0, :lower16:s_stm32hal_bsp_config
	movt	r0, :upper16:s_stm32hal_bsp_config
	ldr	r0, [r0, #4]
	.loc	3 174 21 is_stmt 0              @ ../src/stm32hal/stm32hal.c:174:21
	blx	r0
.Ltmp24:
	@DEBUG_VALUE: HAL_GetTick:tick <- $r0
	.loc	3 175 8 is_stmt 1               @ ../src/stm32hal/stm32hal.c:175:8
	cbz	r0, .LBB5_2
.Ltmp25:
@ %bb.1:
	@DEBUG_VALUE: HAL_GetTick:tick <- $r0
	@DEBUG_VALUE: HAL_GetTick:tick <- $r0
	.loc	3 179 5                         @ ../src/stm32hal/stm32hal.c:179:5
	pop	{r7, pc}
.Ltmp26:
.LBB5_2:
	@DEBUG_VALUE: HAL_GetTick:tick <- $r0
	.loc	3 177 16                        @ ../src/stm32hal/stm32hal.c:177:16
	pop.w	{r7, lr}
.Ltmp27:
	b	s_stm32hal_bps_dummy_tick1msget
.Ltmp28:
.Lfunc_end5:
	.size	HAL_GetTick, .Lfunc_end5-HAL_GetTick
	.cfi_endproc
	.cantunwind
	.fnend
                                        @ -- End function
	.section	.text.HAL_Delay,"ax",%progbits
	.hidden	HAL_Delay                       @ -- Begin function HAL_Delay
	.globl	HAL_Delay
	.p2align	1
	.type	HAL_Delay,%function
	.code	16                              @ @HAL_Delay
	.thumb_func
HAL_Delay:
.Lfunc_begin6:
	.loc	3 184 0                         @ ../src/stm32hal/stm32hal.c:184:0
	.fnstart
	.cfi_startproc
@ %bb.0:
	@DEBUG_VALUE: HAL_Delay:Delay <- $r0
	.save	{r4, r5, r6, lr}
	push	{r4, r5, r6, lr}
	.cfi_def_cfa_offset 16
	.cfi_offset lr, -4
	.cfi_offset r6, -8
	.cfi_offset r5, -12
	.cfi_offset r4, -16
.Ltmp29:
	.loc	3 174 43 prologue_end           @ ../src/stm32hal/stm32hal.c:174:43
	movw	r6, :lower16:s_stm32hal_bsp_config
	movt	r6, :upper16:s_stm32hal_bsp_config
	ldr	r1, [r6, #4]
	mov	r4, r0
.Ltmp30:
	@DEBUG_VALUE: HAL_Delay:Delay <- $r4
	@DEBUG_VALUE: HAL_Delay:tickstart <- 0
	@DEBUG_VALUE: HAL_Delay:Delay <- $r4
	.loc	3 174 21 is_stmt 0              @ ../src/stm32hal/stm32hal.c:174:21
	blx	r1
.Ltmp31:
	mov	r5, r0
.Ltmp32:
	@DEBUG_VALUE: HAL_GetTick:tick <- $r5
	.loc	3 175 8 is_stmt 1               @ ../src/stm32hal/stm32hal.c:175:8
	cbnz	r0, .LBB6_2
.Ltmp33:
@ %bb.1:
	@DEBUG_VALUE: HAL_GetTick:tick <- $r5
	@DEBUG_VALUE: HAL_Delay:Delay <- $r4
	@DEBUG_VALUE: HAL_Delay:tickstart <- 0
	.loc	3 177 16                        @ ../src/stm32hal/stm32hal.c:177:16
	bl	s_stm32hal_bps_dummy_tick1msget
.Ltmp34:
	mov	r5, r0
.Ltmp35:
	@DEBUG_VALUE: HAL_GetTick:tick <- $r5
	@DEBUG_VALUE: HAL_Delay:tickstart <- $r5
	.p2align	2
.LBB6_2:                                @ =>This Inner Loop Header: Depth=1
	.loc	3 174 43                        @ ../src/stm32hal/stm32hal.c:174:43
	ldr	r0, [r6, #4]
	.loc	3 174 21 is_stmt 0              @ ../src/stm32hal/stm32hal.c:174:21
	blx	r0
.Ltmp36:
	@DEBUG_VALUE: HAL_GetTick:tick <- $r0
	.loc	3 175 8 is_stmt 1               @ ../src/stm32hal/stm32hal.c:175:8
	cbnz	r0, .LBB6_4
.Ltmp37:
@ %bb.3:                                @   in Loop: Header=BB6_2 Depth=1
	@DEBUG_VALUE: HAL_GetTick:tick <- $r0
	.loc	3 177 16                        @ ../src/stm32hal/stm32hal.c:177:16
	bl	s_stm32hal_bps_dummy_tick1msget
.Ltmp38:
	@DEBUG_VALUE: HAL_GetTick:tick <- $r0
.LBB6_4:                                @   in Loop: Header=BB6_2 Depth=1
	.loc	3 187 24                        @ ../src/stm32hal/stm32hal.c:187:24
	subs	r0, r0, r5
	.loc	3 187 3 is_stmt 0               @ ../src/stm32hal/stm32hal.c:187:3
	cmp	r0, r4
	.loc	3 190 1 is_stmt 1               @ ../src/stm32hal/stm32hal.c:190:1
	it	hs
	pophs	{r4, r5, r6, pc}
	b	.LBB6_2
.Ltmp39:
.Lfunc_end6:
	.size	HAL_Delay, .Lfunc_end6-HAL_Delay
	.cfi_endproc
	.cantunwind
	.fnend
                                        @ -- End function
	.section	.text.HAL_SuspendTick,"ax",%progbits
	.hidden	HAL_SuspendTick                 @ -- Begin function HAL_SuspendTick
	.globl	HAL_SuspendTick
	.p2align	1
	.type	HAL_SuspendTick,%function
	.code	16                              @ @HAL_SuspendTick
	.thumb_func
HAL_SuspendTick:
.Lfunc_begin7:
	.loc	3 194 0                         @ ../src/stm32hal/stm32hal.c:194:0
	.fnstart
	.cfi_startproc
@ %bb.0:
	.loc	3 197 1 prologue_end            @ ../src/stm32hal/stm32hal.c:197:1
	bx	lr
.Ltmp40:
.Lfunc_end7:
	.size	HAL_SuspendTick, .Lfunc_end7-HAL_SuspendTick
	.cfi_endproc
	.cantunwind
	.fnend
                                        @ -- End function
	.section	.text.HAL_ResumeTick,"ax",%progbits
	.hidden	HAL_ResumeTick                  @ -- Begin function HAL_ResumeTick
	.globl	HAL_ResumeTick
	.p2align	1
	.type	HAL_ResumeTick,%function
	.code	16                              @ @HAL_ResumeTick
	.thumb_func
HAL_ResumeTick:
.Lfunc_begin8:
	.loc	3 201 0                         @ ../src/stm32hal/stm32hal.c:201:0
	.fnstart
	.cfi_startproc
@ %bb.0:
	.loc	3 204 1 prologue_end            @ ../src/stm32hal/stm32hal.c:204:1
	bx	lr
.Ltmp41:
.Lfunc_end8:
	.size	HAL_ResumeTick, .Lfunc_end8-HAL_ResumeTick
	.cfi_endproc
	.cantunwind
	.fnend
                                        @ -- End function
	.type	s_stm32hal_bsp_config,%object   @ @s_stm32hal_bsp_config
	.section	.data.s_stm32hal_bsp_config,"aw",%progbits
	.p2align	3
s_stm32hal_bsp_config:
	.long	s_stm32hal_bps_dummy_tick1msinit
	.long	s_stm32hal_bps_dummy_tick1msget
	.size	s_stm32hal_bsp_config, 8

	.type	s_stm32hal_bps_dummy_tick1msget.cnt,%object @ @s_stm32hal_bps_dummy_tick1msget.cnt
	.section	.bss.s_stm32hal_bps_dummy_tick1msget.cnt,"aw",%nobits
	.p2align	3
s_stm32hal_bps_dummy_tick1msget.cnt:
	.long	0                               @ 0x0
	.long	0
	.size	s_stm32hal_bps_dummy_tick1msget.cnt, 8

	.section	".note.GNU-stack","",%progbits
	.eabi_attribute	30, 3	@ Tag_ABI_optimization_goals
	.ARM_attribute	16, 1	@ Tag_AV_eba