	.text
	.syntax unified
	.eabi_attribute	67, "2.09"	@ Tag_conformance
	.cpu	cortex-m4
	.eabi_attribute	6, 13	@ Tag_CPU_arch
	.eabi_attribute	7, 77	@ Tag_CPU_arch_profile
	.eabi_attribute	8, 0	@ Tag_ARM_ISA_use
	.eabi_attribute	9, 2	@ Tag_THUMB_ISA_use
	.fpu	fpv4-sp-d16
	.eabi_attribute	27, 1	@ Tag_ABI_HardFP_use
	.eabi_attribute	36, 1	@ Tag_FP_HP_extension
	.eabi_attribute	34, 1	@ Tag_CPU_unaligned_access
	.eabi_attribute	17, 1	@ Tag_ABI_PCS_GOT_use
	.eabi_attribute	20, 2	@ Tag_ABI_FP_denormal
	.eabi_attribute	21, 0	@ Tag_ABI_FP_exceptions
	.eabi_attribute	23, 1	@ Tag_ABI_FP_number_model
	.eabi_attribute	24, 1	@ Tag_ABI_align_needed
	.eabi_attribute	25, 1	@ Tag_ABI_align_preserved
	.eabi_attribute	28, 1	@ Tag_ABI_VFP_args
	.eabi_attribute	38, 1	@ Tag_ABI_FP_16bit_format
	.eabi_attribute	18, 2	@ Tag_ABI_PCS_wchar_t
	.eabi_attribute	26, 1	@ Tag_ABI_enum_size
	.eabi_attribute	14, 0	@ Tag_ABI_PCS_R9_use
	.file	"stm32g4xx_hal_adc_ex.c"
	.file	1 "C:\\Users\\grodriguez\\Documents\\iit\\icub-firmware\\emBODY\\eBcode\\arch-arm\\libs\\lowlevel\\stm32hal\\proj" "../src/driver/stm32g4-v120/inc/stm32g4xx_hal_def.h"
	.file	2 "C:\\Users\\grodriguez\\Documents\\iit\\icub-firmware\\emBODY\\eBcode\\arch-arm\\libs\\lowlevel\\stm32hal\\proj" "../src/driver/stm32g4-v120/inc/stm32g4xx.h"
	.file	3 "C:\\Users\\grodriguez\\Documents\\iit\\icub-firmware\\emBODY\\eBcode\\arch-arm\\libs\\lowlevel\\stm32hal\\proj" "../api\\../src/driver/stm32g4-v120/inc/stm32g4xx_hal_dma.h"
	.file	4 "C:\\" "Keil_v5\\ARM\\ARMCLANG\\Bin\\..\\include\\stdint.h"
	.file	5 "C:\\Users\\grodriguez\\Documents\\iit\\icub-firmware\\emBODY\\eBcode\\arch-arm\\libs\\lowlevel\\stm32hal\\proj" "../src/driver/stm32g4-v120/inc/stm32g474xx.h"
	.section	.text.HAL_ADCEx_Calibration_Start,"ax",%progbits
	.hidden	HAL_ADCEx_Calibration_Start     @ -- Begin function HAL_ADCEx_Calibration_Start
	.globl	HAL_ADCEx_Calibration_Start
	.p2align	1
	.type	HAL_ADCEx_Calibration_Start,%function
	.code	16                              @ @HAL_ADCEx_Calibration_Start
	.thumb_func
HAL_ADCEx_Calibration_Start:
.Lfunc_begin0:
	.file	6 "C:\\Users\\grodriguez\\Documents\\iit\\icub-firmware\\emBODY\\eBcode\\arch-arm\\libs\\lowlevel\\stm32hal\\proj" "../src/driver/stm32g4-v120/src/stm32g4xx_hal_adc_ex.c"
	.loc	6 137 0                         @ ../src/driver/stm32g4-v120/src/stm32g4xx_hal_adc_ex.c:137:0
	.fnstart
	.cfi_sections .debug_frame
	.cfi_startproc
@ %bb.0:
	@DEBUG_VALUE: HAL_ADCEx_Calibration_Start:hadc <- $r0
	@DEBUG_VALUE: HAL_ADCEx_Calibration_Start:SingleDiff <- $r1
	.save	{r4, r5, r7, lr}
	push	{r4, r5, r7, lr}
	.cfi_def_cfa_offset 16
	.cfi_offset lr, -4
	.cfi_offset r7, -8
	.cfi_offset r5, -12
	.cfi_offset r4, -16
	.pad	#8
	sub	sp, #8
	.cfi_def_cfa_offset 24
	mov	r4, r0
.Ltmp0:
	@DEBUG_VALUE: HAL_ADCEx_Calibration_Start:hadc <- $r4
	movs	r0, #0
	@DEBUG_VALUE: HAL_ADCEx_Calibration_Start:hadc <- $r4
.Ltmp1:
	.loc	6 139 17 prologue_end           @ ../src/driver/stm32g4-v120/src/stm32g4xx_hal_adc_ex.c:139:17
	str	r0, [sp, #4]
.Ltmp2:
	.loc	6 146 3                         @ ../src/driver/stm32g4-v120/src/stm32g4xx_hal_adc_ex.c:146:3
	ldrb.w	r0, [r4, #88]
.Ltmp3:
	.loc	6 146 3 is_stmt 0               @ ../src/driver/stm32g4-v120/src/stm32g4xx_hal_adc_ex.c:146:3
	cmp	r0, #1
	@DEBUG_VALUE: HAL_ADCEx_Calibration_Start:SingleDiff <- $r1
	bne	.LBB0_2
.Ltmp4:
@ %bb.1:
	@DEBUG_VALUE: HAL_ADCEx_Calibration_Start:hadc <- $r4
	@DEBUG_VALUE: HAL_ADCEx_Calibration_Start:SingleDiff <- $r1
	.loc	6 0 3                           @ ../src/driver/stm32g4-v120/src/stm32g4xx_hal_adc_ex.c:0:3
	movs	r0, #2
	b	.LBB0_10
.Ltmp5:
.LBB0_2:
	@DEBUG_VALUE: HAL_ADCEx_Calibration_Start:hadc <- $r4
	@DEBUG_VALUE: HAL_ADCEx_Calibration_Start:SingleDiff <- $r1
	movs	r0, #1
.Ltmp6:
	.loc	6 146 3                         @ ../src/driver/stm32g4-v120/src/stm32g4xx_hal_adc_ex.c:146:3
	strb.w	r0, [r4, #88]
.Ltmp7:
	.loc	6 151 20 is_stmt 1              @ ../src/driver/stm32g4-v120/src/stm32g4xx_hal_adc_ex.c:151:20
	mov	r0, r4
	mov	r5, r1
.Ltmp8:
	@DEBUG_VALUE: HAL_ADCEx_Calibration_Start:SingleDiff <- $r5
	@DEBUG_VALUE: HAL_ADCEx_Calibration_Start:SingleDiff <- $r5
	bl	ADC_Disable
.Ltmp9:
	@DEBUG_VALUE: HAL_ADCEx_Calibration_Start:tmp_hal_status <- $r0
	.loc	6 0 0 is_stmt 0                 @ ../src/driver/stm32g4-v120/src/stm32g4xx_hal_adc_ex.c:0:0
	ldr	r1, [r4, #92]
.Ltmp10:
	.loc	6 154 7 is_stmt 1               @ ../src/driver/stm32g4-v120/src/stm32g4xx_hal_adc_ex.c:154:7
	cbz	r0, .LBB0_4
.Ltmp11:
@ %bb.3:
	@DEBUG_VALUE: HAL_ADCEx_Calibration_Start:SingleDiff <- $r5
	@DEBUG_VALUE: HAL_ADCEx_Calibration_Start:hadc <- $r4
	@DEBUG_VALUE: HAL_ADCEx_Calibration_Start:tmp_hal_status <- $r0
	.loc	6 189 5                         @ ../src/driver/stm32g4-v120/src/stm32g4xx_hal_adc_ex.c:189:5
	orr	r1, r1, #16
	b	.LBB0_9
.Ltmp12:
.LBB0_4:
	@DEBUG_VALUE: HAL_ADCEx_Calibration_Start:SingleDiff <- $r5
	@DEBUG_VALUE: HAL_ADCEx_Calibration_Start:hadc <- $r4
	@DEBUG_VALUE: HAL_ADCEx_Calibration_Start:tmp_hal_status <- $r0
	.loc	6 0 5 is_stmt 0                 @ ../src/driver/stm32g4-v120/src/stm32g4xx_hal_adc_ex.c:0:5
	movw	r2, #4354
.Ltmp13:
	.loc	6 157 5 is_stmt 1               @ ../src/driver/stm32g4-v120/src/stm32g4xx_hal_adc_ex.c:157:5
	bics	r1, r2
	adds	r1, #2
	str	r1, [r4, #92]
	.loc	6 162 35                        @ ../src/driver/stm32g4-v120/src/stm32g4xx_hal_adc_ex.c:162:35
	ldr	r1, [r4]
.Ltmp14:
	@DEBUG_VALUE: LL_ADC_StartCalibration:SingleDiff <- $r5
	@DEBUG_VALUE: LL_ADC_StartCalibration:ADCx <- $r1
	.loc	6 0 35 is_stmt 0                @ ../src/driver/stm32g4-v120/src/stm32g4xx_hal_adc_ex.c:0:35
	movw	r3, #65472
.Ltmp15:
	.file	7 "C:\\Users\\grodriguez\\Documents\\iit\\icub-firmware\\emBODY\\eBcode\\arch-arm\\libs\\lowlevel\\stm32hal\\proj" "../src/driver/stm32g4-v120/inc/stm32g4xx_ll_adc.h"
	.loc	7 6758 3 is_stmt 1              @ ../src/driver/stm32g4-v120/inc/stm32g4xx_ll_adc.h:6758:3
	ldr	r2, [r1, #8]
	movt	r3, #16383
	ands	r2, r3
	and	r3, r5, #1073741824
	add	r2, r3
	add.w	r2, r2, #-2147483648
	str	r2, [r1, #8]
	movw	r2, #56834
	movt	r2, #4
.Ltmp16:
	.p2align	2
.LBB0_5:                                @ =>This Inner Loop Header: Depth=1
	@DEBUG_VALUE: HAL_ADCEx_Calibration_Start:SingleDiff <- $r5
	@DEBUG_VALUE: HAL_ADCEx_Calibration_Start:hadc <- $r4
	@DEBUG_VALUE: HAL_ADCEx_Calibration_Start:tmp_hal_status <- $r0
	@DEBUG_VALUE: LL_ADC_IsCalibrationOnGoing:ADCx <- $r1
	.loc	7 6771 12                       @ ../src/driver/stm32g4-v120/inc/stm32g4xx_ll_adc.h:6771:12
	ldr	r3, [r1, #8]
.Ltmp17:
	.loc	6 165 5                         @ ../src/driver/stm32g4-v120/src/stm32g4xx_hal_adc_ex.c:165:5
	cmp.w	r3, #-1
	bgt	.LBB0_8
.Ltmp18:
@ %bb.6:                                @   in Loop: Header=BB0_5 Depth=1
	@DEBUG_VALUE: HAL_ADCEx_Calibration_Start:SingleDiff <- $r5
	@DEBUG_VALUE: HAL_ADCEx_Calibration_Start:hadc <- $r4
	@DEBUG_VALUE: HAL_ADCEx_Calibration_Start:tmp_hal_status <- $r0
	.loc	6 167 22                        @ ../src/driver/stm32g4-v120/src/stm32g4xx_hal_adc_ex.c:167:22
	ldr	r3, [sp, #4]
	adds	r3, #1
	str	r3, [sp, #4]
.Ltmp19:
	.loc	6 168 11                        @ ../src/driver/stm32g4-v120/src/stm32g4xx_hal_adc_ex.c:168:11
	ldr	r3, [sp, #4]
.Ltmp20:
	.loc	6 168 11 is_stmt 0              @ ../src/driver/stm32g4-v120/src/stm32g4xx_hal_adc_ex.c:168:11
	cmp	r3, r2
	blo	.LBB0_5
.Ltmp21:
@ %bb.7:
	@DEBUG_VALUE: HAL_ADCEx_Calibration_Start:SingleDiff <- $r5
	@DEBUG_VALUE: HAL_ADCEx_Calibration_Start:hadc <- $r4
	@DEBUG_VALUE: HAL_ADCEx_Calibration_Start:tmp_hal_status <- $r0
	.loc	6 171 9 is_stmt 1               @ ../src/driver/stm32g4-v120/src/stm32g4xx_hal_adc_ex.c:171:9
	ldr	r0, [r4, #92]
.Ltmp22:
	orr	r0, r0, #16
	bic	r1, r0, #2
	movs	r0, #1
	b	.LBB0_9
.Ltmp23:
.LBB0_8:
	@DEBUG_VALUE: HAL_ADCEx_Calibration_Start:SingleDiff <- $r5
	@DEBUG_VALUE: HAL_ADCEx_Calibration_Start:hadc <- $r4
	@DEBUG_VALUE: HAL_ADCEx_Calibration_Start:tmp_hal_status <- $r0
	.loc	6 183 5                         @ ../src/driver/stm32g4-v120/src/stm32g4xx_hal_adc_ex.c:183:5
	ldr	r1, [r4, #92]
	movs	r2, #1
	bfi	r1, r2, #0, #2
.Ltmp24:
.LBB0_9:
	@DEBUG_VALUE: HAL_ADCEx_Calibration_Start:SingleDiff <- $r5
	@DEBUG_VALUE: HAL_ADCEx_Calibration_Start:hadc <- $r4
	.loc	6 0 0 is_stmt 0                 @ ../src/driver/stm32g4-v120/src/stm32g4xx_hal_adc_ex.c:0:0
	str	r1, [r4, #92]
	movs	r1, #0
.Ltmp25:
	strb.w	r1, [r4, #88]
.Ltmp26:
.LBB0_10:
	@DEBUG_VALUE: HAL_ADCEx_Calibration_Start:hadc <- $r4
	.loc	6 200 1 is_stmt 1               @ ../src/driver/stm32g4-v120/src/stm32g4xx_hal_adc_ex.c:200:1
	add	sp, #8
	pop	{r4, r5, r7, pc}
.Ltmp27:
.Lfunc_end0:
	.size	HAL_ADCEx_Calibration_Start, .Lfunc_end0-HAL_ADCEx_Calibration_Start
	.cfi_endproc
	.cantunwind
	.fnend
                                        @ -- End function
	.section	.text.HAL_ADCEx_Calibration_GetValue,"ax",%progbits
	.hidden	HAL_ADCEx_Calibration_GetValue  @ -- Begin function HAL_ADCEx_Calibration_GetValue
	.globl	HAL_ADCEx_Calibration_GetValue
	.p2align	1
	.type	HAL_ADCEx_Calibration_GetValue,%function
	.code	16                              @ @HAL_ADCEx_Calibration_GetValue
	.thumb_func
HAL_ADCEx_Calibration_GetValue:
.Lfunc_begin1:
	.loc	6 211 0                         @ ../src/driver/stm32g4-v120/src/stm32g4xx_hal_adc_ex.c:211:0
	.fnstart
	.cfi_startproc
@ %bb.0:
	@DEBUG_VALUE: HAL_ADCEx_Calibration_GetValue:hadc <- $r0
	@DEBUG_VALUE: HAL_ADCEx_Calibration_GetValue:hadc <- $r0
	@DEBUG_VALUE: HAL_ADCEx_Calibration_GetValue:SingleDiff <- $r1
	.loc	6 217 44 prologue_end           @ ../src/driver/stm32g4-v120/src/stm32g4xx_hal_adc_ex.c:217:44
	ldr	r0, [r0]
.Ltmp28:
	@DEBUG_VALUE: HAL_ADCEx_Calibration_GetValue:hadc <- [DW_OP_LLVM_entry_value 1] $r0
	@DEBUG_VALUE: LL_ADC_GetCalibrationFactor:SingleDiff <- undef
	@DEBUG_VALUE: LL_ADC_GetCalibrationFactor:ADCx <- $r0
	.loc	6 0 44 is_stmt 0                @ ../src/driver/stm32g4-v120/src/stm32g4xx_hal_adc_ex.c:0:44
	movs	r2, #16
.Ltmp29:
	.loc	7 2947 21 is_stmt 1             @ ../src/driver/stm32g4-v120/inc/stm32g4xx_ll_adc.h:2947:21
	ldr.w	r0, [r0, #180]
.Ltmp30:
	@DEBUG_VALUE: HAL_ADCEx_Calibration_GetValue:SingleDiff <- $r1
	ands	r0, r1
	and	r0, r0, #8323199
	.loc	7 2947 147 is_stmt 0            @ ../src/driver/stm32g4-v120/inc/stm32g4xx_ll_adc.h:2947:147
	and.w	r1, r2, r1, lsr #12
.Ltmp31:
	@DEBUG_VALUE: HAL_ADCEx_Calibration_GetValue:SingleDiff <- [DW_OP_LLVM_entry_value 1] $r1
	.loc	7 2947 94                       @ ../src/driver/stm32g4-v120/inc/stm32g4xx_ll_adc.h:2947:94
	lsrs	r0, r1
.Ltmp32:
	.loc	6 217 3 is_stmt 1               @ ../src/driver/stm32g4-v120/src/stm32g4xx_hal_adc_ex.c:217:3
	bx	lr
.Ltmp33:
.Lfunc_end1:
	.size	HAL_ADCEx_Calibration_GetValue, .Lfunc_end1-HAL_ADCEx_Calibration_GetValue
	.cfi_endproc
	.cantunwind
	.fnend
                                        @ -- End function
	.section	.text.HAL_ADCEx_Calibration_SetValue,"ax",%progbits
	.hidden	HAL_ADCEx_Calibration_SetValue  @ -- Begin function HAL_ADCEx_Calibration_SetValue
	.globl	HAL_ADCEx_Calibration_SetValue
	.p2align	1
	.type	HAL_ADCEx_Calibration_SetValue,%function
	.code	16                              @ @HAL_ADCEx_Calibration_SetValue
	.thumb_func
HAL_ADCEx_Calibration_SetValue:
.Lfunc_begin2:
	.loc	6 231 0                         @ ../src/driver/stm32g4-v120/src/stm32g4xx_hal_adc_ex.c:231:0
	.fnstart
	.cfi_startproc
@ %bb.0:
	@DEBUG_VALUE: HAL_ADCEx_Calibration_SetValue:hadc <- $r0
	@DEBUG_VALUE: HAL_ADCEx_Calibration_SetValue:hadc <- $r0
	@DEBUG_VALUE: HAL_ADCEx_Calibration_SetValue:SingleDiff <- $r1
	@DEBUG_VALUE: HAL_ADCEx_Calibration_SetValue:CalibrationFactor <- $r2
	.save	{r4, lr}
	push	{r4, lr}
	.cfi_def_cfa_offset 8
	.cfi_offset lr, -4
	.cfi_offset r4, -8
.Ltmp34:
	@DEBUG_VALUE: HAL_ADCEx_Calibration_SetValue:tmp_hal_status <- 0
	.loc	6 242 3 prologue_end            @ ../src/driver/stm32g4-v120/src/stm32g4xx_hal_adc_ex.c:242:3
	ldrb.w	r3, [r0, #88]
.Ltmp35:
	@DEBUG_VALUE: HAL_ADCEx_Calibration_SetValue:CalibrationFactor <- $r2
	.loc	6 242 3 is_stmt 0               @ ../src/driver/stm32g4-v120/src/stm32g4xx_hal_adc_ex.c:242:3
	cmp	r3, #1
	@DEBUG_VALUE: HAL_ADCEx_Calibration_SetValue:SingleDiff <- $r1
	bne	.LBB2_2
.Ltmp36:
@ %bb.1:
	@DEBUG_VALUE: HAL_ADCEx_Calibration_SetValue:CalibrationFactor <- $r2
	@DEBUG_VALUE: HAL_ADCEx_Calibration_SetValue:SingleDiff <- $r1
	@DEBUG_VALUE: HAL_ADCEx_Calibration_SetValue:hadc <- $r0
	@DEBUG_VALUE: HAL_ADCEx_Calibration_SetValue:tmp_hal_status <- 0
	.loc	6 0 3                           @ ../src/driver/stm32g4-v120/src/stm32g4xx_hal_adc_ex.c:0:3
	movs	r1, #2
.Ltmp37:
	@DEBUG_VALUE: HAL_ADCEx_Calibration_SetValue:SingleDiff <- [DW_OP_LLVM_entry_value 1] $r1
	b	.LBB2_7
.Ltmp38:
.LBB2_2:
	@DEBUG_VALUE: HAL_ADCEx_Calibration_SetValue:CalibrationFactor <- $r2
	@DEBUG_VALUE: HAL_ADCEx_Calibration_SetValue:SingleDiff <- $r1
	@DEBUG_VALUE: HAL_ADCEx_Calibration_SetValue:hadc <- $r0
	@DEBUG_VALUE: HAL_ADCEx_Calibration_SetValue:tmp_hal_status <- 0
	.loc	6 246 81 is_stmt 1              @ ../src/driver/stm32g4-v120/src/stm32g4xx_hal_adc_ex.c:246:81
	ldr	r3, [r0]
.Ltmp39:
	@DEBUG_VALUE: LL_ADC_REG_IsConversionOngoing:ADCx <- $r3
	.loc	7 6838 12                       @ ../src/driver/stm32g4-v120/inc/stm32g4xx_ll_adc.h:6838:12
	ldr.w	r12, [r3, #8]
.Ltmp40:
	@DEBUG_VALUE: LL_ADC_INJ_IsConversionOngoing:ADCx <- $r3
	@DEBUG_VALUE: HAL_ADCEx_Calibration_SetValue:tmp_adc_is_conversion_on_going_regular <- [DW_OP_constu 1, DW_OP_and, DW_OP_stack_value] undef
	.loc	7 7063 12                       @ ../src/driver/stm32g4-v120/inc/stm32g4xx_ll_adc.h:7063:12
	ldr.w	lr, [r3, #8]
.Ltmp41:
	@DEBUG_VALUE: LL_ADC_IsEnabled:ADCx <- $r3
	@DEBUG_VALUE: HAL_ADCEx_Calibration_SetValue:tmp_adc_is_conversion_on_going_injected <- [DW_OP_constu 1, DW_OP_and, DW_OP_stack_value] undef
	.loc	7 6716 12                       @ ../src/driver/stm32g4-v120/inc/stm32g4xx_ll_adc.h:6716:12
	ldr	r4, [r3, #8]
.Ltmp42:
	.loc	6 250 7                         @ ../src/driver/stm32g4-v120/src/stm32g4xx_hal_adc_ex.c:250:7
	lsls	r4, r4, #31
	beq	.LBB2_5
.Ltmp43:
@ %bb.3:
	@DEBUG_VALUE: HAL_ADCEx_Calibration_SetValue:CalibrationFactor <- $r2
	@DEBUG_VALUE: HAL_ADCEx_Calibration_SetValue:SingleDiff <- $r1
	@DEBUG_VALUE: HAL_ADCEx_Calibration_SetValue:hadc <- $r0
	@DEBUG_VALUE: HAL_ADCEx_Calibration_SetValue:tmp_hal_status <- 0
	.loc	6 0 0 is_stmt 0                 @ ../src/driver/stm32g4-v120/src/stm32g4xx_hal_adc_ex.c:0:0
	lsr.w	r4, lr, #3
.Ltmp44:
	@DEBUG_VALUE: HAL_ADCEx_Calibration_SetValue:tmp_adc_is_conversion_on_going_injected <- [DW_OP_constu 1, DW_OP_and, DW_OP_stack_value] $r4
	.loc	6 250 7                         @ ../src/driver/stm32g4-v120/src/stm32g4xx_hal_adc_ex.c:250:7
	orr.w	r4, r4, r12, lsr #2
.Ltmp45:
	ands	r4, r4, #1
	bne	.LBB2_5
.Ltmp46:
@ %bb.4:
	@DEBUG_VALUE: HAL_ADCEx_Calibration_SetValue:CalibrationFactor <- $r2
	@DEBUG_VALUE: HAL_ADCEx_Calibration_SetValue:SingleDiff <- $r1
	@DEBUG_VALUE: HAL_ADCEx_Calibration_SetValue:hadc <- $r0
	@DEBUG_VALUE: HAL_ADCEx_Calibration_SetValue:tmp_hal_status <- 0
	@DEBUG_VALUE: LL_ADC_SetCalibrationFactor:ADCx <- $r3
	@DEBUG_VALUE: LL_ADC_SetCalibrationFactor:SingleDiff <- $r1
	@DEBUG_VALUE: LL_ADC_SetCalibrationFactor:CalibrationFactor <- $r2
	.loc	7 2920 3 is_stmt 1              @ ../src/driver/stm32g4-v120/inc/stm32g4xx_ll_adc.h:2920:3
	ldr	r12, [r3, #180]!
.Ltmp47:
	.loc	7 0 3 is_stmt 0                 @ ../src/driver/stm32g4-v120/inc/stm32g4xx_ll_adc.h:0:3
	mvn	r4, #8323199
	.loc	7 2920 3                        @ ../src/driver/stm32g4-v120/inc/stm32g4xx_ll_adc.h:2920:3
	orn	r4, r4, r1
	and.w	r12, r12, r4
	mvns	r4, r1
	and.w	r1, r4, r1, lsr #12
.Ltmp48:
	@DEBUG_VALUE: HAL_ADCEx_Calibration_SetValue:SingleDiff <- [DW_OP_LLVM_entry_value 1] $r1
	and	r1, r1, #16
	lsl.w	r1, r2, r1
	orr.w	r2, r12, r1
.Ltmp49:
	@DEBUG_VALUE: HAL_ADCEx_Calibration_SetValue:CalibrationFactor <- [DW_OP_LLVM_entry_value 1] $r2
	.loc	7 0 3                           @ ../src/driver/stm32g4-v120/inc/stm32g4xx_ll_adc.h:0:3
	movs	r1, #0
	b	.LBB2_6
.Ltmp50:
.LBB2_5:
	@DEBUG_VALUE: HAL_ADCEx_Calibration_SetValue:CalibrationFactor <- $r2
	@DEBUG_VALUE: HAL_ADCEx_Calibration_SetValue:SingleDiff <- $r1
	@DEBUG_VALUE: HAL_ADCEx_Calibration_SetValue:hadc <- $r0
	@DEBUG_VALUE: HAL_ADCEx_Calibration_SetValue:tmp_hal_status <- 0
	.loc	6 260 5 is_stmt 1               @ ../src/driver/stm32g4-v120/src/stm32g4xx_hal_adc_ex.c:260:5
	ldr	r1, [r0, #92]
.Ltmp51:
	@DEBUG_VALUE: HAL_ADCEx_Calibration_SetValue:SingleDiff <- [DW_OP_LLVM_entry_value 1] $r1
	.loc	6 262 5                         @ ../src/driver/stm32g4-v120/src/stm32g4xx_hal_adc_ex.c:262:5
	mov	r3, r0
	.loc	6 260 5                         @ ../src/driver/stm32g4-v120/src/stm32g4xx_hal_adc_ex.c:260:5
	orr	r1, r1, #32
	str	r1, [r0, #92]
	.loc	6 262 5                         @ ../src/driver/stm32g4-v120/src/stm32g4xx_hal_adc_ex.c:262:5
	ldr	r1, [r3, #96]!
	orr	r2, r1, #1
.Ltmp52:
	@DEBUG_VALUE: HAL_ADCEx_Calibration_SetValue:CalibrationFactor <- [DW_OP_LLVM_entry_value 1] $r2
	.loc	6 0 5 is_stmt 0                 @ ../src/driver/stm32g4-v120/src/stm32g4xx_hal_adc_ex.c:0:5
	movs	r1, #1
.Ltmp53:
	@DEBUG_VALUE: HAL_ADCEx_Calibration_SetValue:tmp_hal_status <- 1
.LBB2_6:
	@DEBUG_VALUE: HAL_ADCEx_Calibration_SetValue:hadc <- $r0
	@DEBUG_VALUE: HAL_ADCEx_Calibration_SetValue:CalibrationFactor <- [DW_OP_LLVM_entry_value 1] $r2
	@DEBUG_VALUE: HAL_ADCEx_Calibration_SetValue:SingleDiff <- [DW_OP_LLVM_entry_value 1] $r1
	str	r2, [r3]
	movs	r2, #0
.Ltmp54:
	@DEBUG_VALUE: HAL_ADCEx_Calibration_SetValue:tmp_hal_status <- $r1
	.loc	6 269 3 is_stmt 1               @ ../src/driver/stm32g4-v120/src/stm32g4xx_hal_adc_ex.c:269:3
	strb.w	r2, [r0, #88]
.Ltmp55:
.LBB2_7:
	@DEBUG_VALUE: HAL_ADCEx_Calibration_SetValue:hadc <- $r0
	@DEBUG_VALUE: HAL_ADCEx_Calibration_SetValue:SingleDiff <- [DW_OP_LLVM_entry_value 1] $r1
	.loc	6 273 1                         @ ../src/driver/stm32g4-v120/src/stm32g4xx_hal_adc_ex.c:273:1
	mov	r0, r1
.Ltmp56:
	@DEBUG_VALUE: HAL_ADCEx_Calibration_SetValue:hadc <- [DW_OP_LLVM_entry_value 1] $r0
	pop	{r4, pc}
.Ltmp57:
.Lfunc_end2:
	.size	HAL_ADCEx_Calibration_SetValue, .Lfunc_end2-HAL_ADCEx_Calibration_SetValue
	.cfi_endproc
	.cantunwind
	.fnend
                                        @ -- End function
	.section	.text.HAL_ADCEx_InjectedStart,"ax",%progbits
	.hidden	HAL_ADCEx_InjectedStart         @ -- Begin function HAL_ADCEx_InjectedStart
	.globl	HAL_ADCEx_InjectedStart
	.p2align	1
	.type	HAL_ADCEx_InjectedStart,%function
	.code	16                              @ @HAL_ADCEx_InjectedStart
	.thumb_func
HAL_ADCEx_InjectedStart:
.Lfunc_begin3:
	.loc	6 287 0                         @ ../src/driver/stm32g4-v120/src/stm32g4xx_hal_adc_ex.c:287:0
	.fnstart
	.cfi_startproc
@ %bb.0:
	@DEBUG_VALUE: HAL_ADCEx_InjectedStart:hadc <- $r0
	.save	{r4, r5, r6, lr}
	push	{r4, r5, r6, lr}
	.cfi_def_cfa_offset 16
	.cfi_offset lr, -4
	.cfi_offset r6, -8
	.cfi_offset r5, -12
	.cfi_offset r4, -16
	movw	r5, #776
	mov	r4, r0
	movt	r5, #20480
.Ltmp58:
	@DEBUG_VALUE: HAL_ADCEx_InjectedStart:hadc <- $r4
	.loc	6 291 55 prologue_end           @ ../src/driver/stm32g4-v120/src/stm32g4xx_hal_adc_ex.c:291:55
	ldr	r0, [r0]
	sub.w	r1, r5, #520
.Ltmp59:
	@DEBUG_VALUE: LL_ADC_GetMultimode:ADCxy_COMMON <- undef
	.loc	7 6379 21                       @ ../src/driver/stm32g4-v120/inc/stm32g4xx_ll_adc.h:6379:21
	add.w	r2, r5, #1024
	cmp	r0, r1
	itt	eq
	movweq	r2, #776
	movteq	r2, #20480
	cmp.w	r0, #1342177280
	itt	eq
	movweq	r2, #776
	movteq	r2, #20480
	ldr	r6, [r2]
.Ltmp60:
	@DEBUG_VALUE: LL_ADC_INJ_IsConversionOngoing:ADCx <- $r0
	@DEBUG_VALUE: HAL_ADCEx_InjectedStart:tmp_multimode_config <- undef
	.loc	7 7063 12                       @ ../src/driver/stm32g4-v120/inc/stm32g4xx_ll_adc.h:7063:12
	ldr	r1, [r0, #8]
.Ltmp61:
	.loc	6 297 7                         @ ../src/driver/stm32g4-v120/src/stm32g4xx_hal_adc_ex.c:297:7
	lsls	r1, r1, #28
	bmi	.LBB3_5
.Ltmp62:
@ %bb.1:
	@DEBUG_VALUE: HAL_ADCEx_InjectedStart:hadc <- $r4
	@DEBUG_VALUE: HAL_ADCEx_InjectedStart:tmp_multimode_config <- undef
	.loc	6 310 33                        @ ../src/driver/stm32g4-v120/src/stm32g4xx_hal_adc_ex.c:310:33
	ldr	r1, [r0, #12]
.Ltmp63:
	@DEBUG_VALUE: HAL_ADCEx_InjectedStart:tmp_config_injected_queue <- [DW_OP_constu 18446744071562067968, DW_OP_and, DW_OP_stack_value] $r1
	.loc	6 312 10                        @ ../src/driver/stm32g4-v120/src/stm32g4xx_hal_adc_ex.c:312:10
	ldr	r0, [r0, #76]
	.loc	6 313 9                         @ ../src/driver/stm32g4-v120/src/stm32g4xx_hal_adc_ex.c:313:9
	cmp	r1, #0
	bmi	.LBB3_4
.Ltmp64:
@ %bb.2:
	@DEBUG_VALUE: HAL_ADCEx_InjectedStart:hadc <- $r4
	@DEBUG_VALUE: HAL_ADCEx_InjectedStart:tmp_config_injected_queue <- [DW_OP_constu 18446744071562067968, DW_OP_and, DW_OP_stack_value] $r1
	.loc	6 0 0 is_stmt 0                 @ ../src/driver/stm32g4-v120/src/stm32g4xx_hal_adc_ex.c:0:0
	ands	r0, r0, #384
	.loc	6 313 9                         @ ../src/driver/stm32g4-v120/src/stm32g4xx_hal_adc_ex.c:313:9
	bne	.LBB3_4
.Ltmp65:
@ %bb.3:
	@DEBUG_VALUE: HAL_ADCEx_InjectedStart:hadc <- $r4
	@DEBUG_VALUE: HAL_ADCEx_InjectedStart:tmp_config_injected_queue <- [DW_OP_constu 18446744071562067968, DW_OP_and, DW_OP_stack_value] $r1
	.loc	6 316 7 is_stmt 1               @ ../src/driver/stm32g4-v120/src/stm32g4xx_hal_adc_ex.c:316:7
	ldr	r0, [r4, #92]
	orr	r0, r0, #32
	str	r0, [r4, #92]
	movs	r0, #1
.Ltmp66:
	.loc	6 417 1                         @ ../src/driver/stm32g4-v120/src/stm32g4xx_hal_adc_ex.c:417:1
	pop	{r4, r5, r6, pc}
.Ltmp67:
.LBB3_4:
	@DEBUG_VALUE: HAL_ADCEx_InjectedStart:hadc <- $r4
	@DEBUG_VALUE: HAL_ADCEx_InjectedStart:tmp_config_injected_queue <- [DW_OP_constu 18446744071562067968, DW_OP_and, DW_OP_stack_value] $r1
	@DEBUG_VALUE: HAL_ADCEx_InjectedStart:tmp_multimode_config <- undef
	.loc	6 321 5                         @ ../src/driver/stm32g4-v120/src/stm32g4xx_hal_adc_ex.c:321:5
	ldrb.w	r0, [r4, #88]
.Ltmp68:
	.loc	6 321 5 is_stmt 0               @ ../src/driver/stm32g4-v120/src/stm32g4xx_hal_adc_ex.c:321:5
	cmp	r0, #1
	bne	.LBB3_6
.Ltmp69:
.LBB3_5:
	@DEBUG_VALUE: HAL_ADCEx_InjectedStart:hadc <- $r4
	.loc	6 0 5                           @ ../src/driver/stm32g4-v120/src/stm32g4xx_hal_adc_ex.c:0:5
	movs	r0, #2
	.loc	6 417 1 is_stmt 1               @ ../src/driver/stm32g4-v120/src/stm32g4xx_hal_adc_ex.c:417:1
	pop	{r4, r5, r6, pc}
.Ltmp70:
.LBB3_6:
	@DEBUG_VALUE: HAL_ADCEx_InjectedStart:hadc <- $r4
	@DEBUG_VALUE: HAL_ADCEx_InjectedStart:tmp_config_injected_queue <- [DW_OP_constu 18446744071562067968, DW_OP_and, DW_OP_stack_value] $r1
	@DEBUG_VALUE: HAL_ADCEx_InjectedStart:tmp_multimode_config <- undef
	.loc	6 0 1 is_stmt 0                 @ ../src/driver/stm32g4-v120/src/stm32g4xx_hal_adc_ex.c:0:1
	movs	r0, #1
.Ltmp71:
	.loc	6 321 5 is_stmt 1               @ ../src/driver/stm32g4-v120/src/stm32g4xx_hal_adc_ex.c:321:5
	strb.w	r0, [r4, #88]
.Ltmp72:
	.loc	6 324 22                        @ ../src/driver/stm32g4-v120/src/stm32g4xx_hal_adc_ex.c:324:22
	mov	r0, r4
	bl	ADC_Enable
.Ltmp73:
	@DEBUG_VALUE: HAL_ADCEx_InjectedStart:tmp_hal_status <- $r0
	.loc	6 327 9                         @ ../src/driver/stm32g4-v120/src/stm32g4xx_hal_adc_ex.c:327:9
	cbz	r0, .LBB3_8
.Ltmp74:
@ %bb.7:
	@DEBUG_VALUE: HAL_ADCEx_InjectedStart:hadc <- $r4
	@DEBUG_VALUE: HAL_ADCEx_InjectedStart:tmp_hal_status <- $r0
	.loc	6 0 9 is_stmt 0                 @ ../src/driver/stm32g4-v120/src/stm32g4xx_hal_adc_ex.c:0:9
	movs	r1, #0
.Ltmp75:
	.loc	6 411 7 is_stmt 1               @ ../src/driver/stm32g4-v120/src/stm32g4xx_hal_adc_ex.c:411:7
	strb.w	r1, [r4, #88]
.Ltmp76:
	.loc	6 417 1                         @ ../src/driver/stm32g4-v120/src/stm32g4xx_hal_adc_ex.c:417:1
	pop	{r4, r5, r6, pc}
.Ltmp77:
.LBB3_8:
	@DEBUG_VALUE: HAL_ADCEx_InjectedStart:hadc <- $r4
	@DEBUG_VALUE: HAL_ADCEx_InjectedStart:tmp_hal_status <- $r0
	@DEBUG_VALUE: HAL_ADCEx_InjectedStart:tmp_multimode_config <- undef
	.loc	6 330 18                        @ ../src/driver/stm32g4-v120/src/stm32g4xx_hal_adc_ex.c:330:18
	ldr	r0, [r4, #92]
.Ltmp78:
	.loc	6 0 18 is_stmt 0                @ ../src/driver/stm32g4-v120/src/stm32g4xx_hal_adc_ex.c:0:18
	movw	r2, #12289
.Ltmp79:
	.loc	6 330 11                        @ ../src/driver/stm32g4-v120/src/stm32g4xx_hal_adc_ex.c:330:11
	lsls	r0, r0, #23
.Ltmp80:
	.loc	6 333 9 is_stmt 1               @ ../src/driver/stm32g4-v120/src/stm32g4xx_hal_adc_ex.c:333:9
	itte	mi
	ldrmi	r0, [r4, #96]
	bicmi	r0, r0, #8
	movpl	r0, #0
.Ltmp81:
	.loc	6 0 0 is_stmt 0                 @ ../src/driver/stm32g4-v120/src/stm32g4xx_hal_adc_ex.c:0:0
	str	r0, [r4, #96]
.Ltmp82:
	.loc	6 344 7 is_stmt 1               @ ../src/driver/stm32g4-v120/src/stm32g4xx_hal_adc_ex.c:344:7
	ldr	r0, [r4, #92]
	movw	r3, #256
	bics	r0, r2
	add.w	r0, r0, #4096
	str	r0, [r4, #92]
.Ltmp83:
	.loc	6 352 12                        @ ../src/driver/stm32g4-v120/src/stm32g4xx_hal_adc_ex.c:352:12
	ldr	r0, [r4]
	movt	r3, #20480
	movw	r2, #1280
	and	r1, r6, #31
.Ltmp84:
	@DEBUG_VALUE: HAL_ADCEx_InjectedStart:tmp_multimode_config <- $r1
	cmp	r0, r3
	movt	r2, #20480
	beq	.LBB3_11
.Ltmp85:
@ %bb.9:
	@DEBUG_VALUE: HAL_ADCEx_InjectedStart:hadc <- $r4
	@DEBUG_VALUE: HAL_ADCEx_InjectedStart:tmp_multimode_config <- $r1
	cmp	r0, r2
	bne	.LBB3_14
.Ltmp86:
@ %bb.10:
	@DEBUG_VALUE: HAL_ADCEx_InjectedStart:hadc <- $r4
	@DEBUG_VALUE: HAL_ADCEx_InjectedStart:tmp_multimode_config <- $r1
	add.w	r6, r5, #248
	b	.LBB3_12
.Ltmp87:
.LBB3_11:
	@DEBUG_VALUE: HAL_ADCEx_InjectedStart:hadc <- $r4
	@DEBUG_VALUE: HAL_ADCEx_InjectedStart:tmp_multimode_config <- $r1
	.loc	6 0 12 is_stmt 0                @ ../src/driver/stm32g4-v120/src/stm32g4xx_hal_adc_ex.c:0:12
	mov.w	r6, #1342177280
.Ltmp88:
.LBB3_12:
	@DEBUG_VALUE: HAL_ADCEx_InjectedStart:hadc <- $r4
	@DEBUG_VALUE: HAL_ADCEx_InjectedStart:tmp_multimode_config <- $r1
	.loc	6 353 11 is_stmt 1              @ ../src/driver/stm32g4-v120/src/stm32g4xx_hal_adc_ex.c:353:11
	cbz	r1, .LBB3_14
.Ltmp89:
@ %bb.13:
	@DEBUG_VALUE: HAL_ADCEx_InjectedStart:hadc <- $r4
	@DEBUG_VALUE: HAL_ADCEx_InjectedStart:tmp_multimode_config <- $r1
	cmp	r6, r0
	bne	.LBB3_15
.Ltmp90:
.LBB3_14:
	@DEBUG_VALUE: HAL_ADCEx_InjectedStart:hadc <- $r4
	@DEBUG_VALUE: HAL_ADCEx_InjectedStart:tmp_multimode_config <- $r1
	.loc	6 356 9                         @ ../src/driver/stm32g4-v120/src/stm32g4xx_hal_adc_ex.c:356:9
	ldr	r6, [r4, #92]
	bic	r6, r6, #1048576
	str	r6, [r4, #92]
.Ltmp91:
.LBB3_15:
	@DEBUG_VALUE: HAL_ADCEx_InjectedStart:hadc <- $r4
	@DEBUG_VALUE: HAL_ADCEx_InjectedStart:tmp_multimode_config <- $r1
	.loc	6 0 9 is_stmt 0                 @ ../src/driver/stm32g4-v120/src/stm32g4xx_hal_adc_ex.c:0:9
	movs	r6, #96
	.loc	6 362 7 is_stmt 1               @ ../src/driver/stm32g4-v120/src/stm32g4xx_hal_adc_ex.c:362:7
	str	r6, [r0]
	movs	r6, #0
.Ltmp92:
	.loc	6 382 12                        @ ../src/driver/stm32g4-v120/src/stm32g4xx_hal_adc_ex.c:382:12
	cmp	r0, r3
.Ltmp93:
	.loc	6 367 7                         @ ../src/driver/stm32g4-v120/src/stm32g4xx_hal_adc_ex.c:367:7
	strb.w	r6, [r4, #88]
.Ltmp94:
	.loc	6 382 12                        @ ../src/driver/stm32g4-v120/src/stm32g4xx_hal_adc_ex.c:382:12
	beq	.LBB3_18
.Ltmp95:
@ %bb.16:
	@DEBUG_VALUE: HAL_ADCEx_InjectedStart:hadc <- $r4
	@DEBUG_VALUE: HAL_ADCEx_InjectedStart:tmp_multimode_config <- $r1
	cmp	r0, r2
	bne	.LBB3_22
.Ltmp96:
@ %bb.17:
	@DEBUG_VALUE: HAL_ADCEx_InjectedStart:hadc <- $r4
	@DEBUG_VALUE: HAL_ADCEx_InjectedStart:tmp_multimode_config <- $r1
	add.w	r2, r5, #248
	b	.LBB3_19
.Ltmp97:
.LBB3_18:
	@DEBUG_VALUE: HAL_ADCEx_InjectedStart:hadc <- $r4
	@DEBUG_VALUE: HAL_ADCEx_InjectedStart:tmp_multimode_config <- $r1
	.loc	6 0 12 is_stmt 0                @ ../src/driver/stm32g4-v120/src/stm32g4xx_hal_adc_ex.c:0:12
	mov.w	r2, #1342177280
.Ltmp98:
.LBB3_19:
	@DEBUG_VALUE: HAL_ADCEx_InjectedStart:hadc <- $r4
	@DEBUG_VALUE: HAL_ADCEx_InjectedStart:tmp_multimode_config <- $r1
	.loc	6 383 11 is_stmt 1              @ ../src/driver/stm32g4-v120/src/stm32g4xx_hal_adc_ex.c:383:11
	cmp	r2, r0
	beq	.LBB3_22
.Ltmp99:
@ %bb.20:
	@DEBUG_VALUE: HAL_ADCEx_InjectedStart:hadc <- $r4
	@DEBUG_VALUE: HAL_ADCEx_InjectedStart:tmp_multimode_config <- $r1
	cmp	r1, #7
	bhi	.LBB3_24
.Ltmp100:
@ %bb.21:
	@DEBUG_VALUE: HAL_ADCEx_InjectedStart:hadc <- $r4
	@DEBUG_VALUE: HAL_ADCEx_InjectedStart:tmp_multimode_config <- $r1
	.loc	6 0 11 is_stmt 0                @ ../src/driver/stm32g4-v120/src/stm32g4xx_hal_adc_ex.c:0:11
	movs	r2, #1
	lsl.w	r1, r2, r1
.Ltmp101:
	tst.w	r1, #193
	beq	.LBB3_24
.Ltmp102:
.LBB3_22:
	@DEBUG_VALUE: HAL_ADCEx_InjectedStart:hadc <- $r4
	@DEBUG_VALUE: LL_ADC_INJ_GetTrigAuto:ADCx <- $r0
	.loc	7 4855 21 is_stmt 1             @ ../src/driver/stm32g4-v120/inc/stm32g4xx_ll_adc.h:4855:21
	ldr	r1, [r0, #12]
.Ltmp103:
	.loc	6 389 13                        @ ../src/driver/stm32g4-v120/src/stm32g4xx_hal_adc_ex.c:389:13
	lsls	r1, r1, #6
	bmi	.LBB3_25
.Ltmp104:
@ %bb.23:
	@DEBUG_VALUE: HAL_ADCEx_InjectedStart:hadc <- $r4
	@DEBUG_VALUE: LL_ADC_INJ_StartConversion:ADCx <- $r0
	.loc	7 7030 3                        @ ../src/driver/stm32g4-v120/inc/stm32g4xx_ll_adc.h:7030:3
	ldr	r1, [r0, #8]
	movw	r2, #65472
	movt	r2, #32767
	ands	r1, r2
	adds	r1, #8
	str	r1, [r0, #8]
	b	.LBB3_25
.Ltmp105:
.LBB3_24:
	@DEBUG_VALUE: HAL_ADCEx_InjectedStart:hadc <- $r4
	.loc	6 397 9                         @ ../src/driver/stm32g4-v120/src/stm32g4xx_hal_adc_ex.c:397:9
	ldr	r0, [r4, #92]
	orr	r0, r0, #1048576
	str	r0, [r4, #92]
.Ltmp106:
.LBB3_25:
	@DEBUG_VALUE: HAL_ADCEx_InjectedStart:hadc <- $r4
	.loc	6 0 9 is_stmt 0                 @ ../src/driver/stm32g4-v120/src/stm32g4xx_hal_adc_ex.c:0:9
	movs	r0, #0
	.loc	6 417 1 is_stmt 1               @ ../src/driver/stm32g4-v120/src/stm32g4xx_hal_adc_ex.c:417:1
	pop	{r4, r5, r6, pc}
.Ltmp107:
.Lfunc_end3:
	.size	HAL_ADCEx_InjectedStart, .Lfunc_end3-HAL_ADCEx_InjectedStart
	.cfi_endproc
	.cantunwind
	.fnend
                                        @ -- End function
	.section	.text.HAL_ADCEx_InjectedStop,"ax",%progbits
	.hidden	HAL_ADCEx_InjectedStop          @ -- Begin function HAL_ADCEx_InjectedStop
	.globl	HAL_ADCEx_InjectedStop
	.p2align	1
	.type	HAL_ADCEx_InjectedStop,%function
	.code	16                              @ @HAL_ADCEx_InjectedStop
	.thumb_func
HAL_ADCEx_InjectedStop:
.Lfunc_begin4:
	.loc	6 436 0                         @ ../src/driver/stm32g4-v120/src/stm32g4xx_hal_adc_ex.c:436:0
	.fnstart
	.cfi_startproc
@ %bb.0:
	@DEBUG_VALUE: HAL_ADCEx_InjectedStop:hadc <- $r0
	.save	{r4, lr}
	push	{r4, lr}
	.cfi_def_cfa_offset 8
	.cfi_offset lr, -4
	.cfi_offset r4, -8
	mov	r4, r0
.Ltmp108:
	@DEBUG_VALUE: HAL_ADCEx_InjectedStop:hadc <- $r4
	.loc	6 443 3 prologue_end            @ ../src/driver/stm32g4-v120/src/stm32g4xx_hal_adc_ex.c:443:3
	ldrb.w	r0, [r0, #88]
.Ltmp109:
	.loc	6 443 3 is_stmt 0               @ ../src/driver/stm32g4-v120/src/stm32g4xx_hal_adc_ex.c:443:3
	cmp	r0, #1
	itt	eq
	moveq	r0, #2
.Ltmp110:
	.loc	6 480 1 is_stmt 1               @ ../src/driver/stm32g4-v120/src/stm32g4xx_hal_adc_ex.c:480:1
	popeq	{r4, pc}
.Ltmp111:
.LBB4_1:
	.loc	6 0 1 is_stmt 0                 @ ../src/driver/stm32g4-v120/src/stm32g4xx_hal_adc_ex.c:0:1
	movs	r0, #1
.Ltmp112:
	.loc	6 443 3 is_stmt 1               @ ../src/driver/stm32g4-v120/src/stm32g4xx_hal_adc_ex.c:443:3
	strb.w	r0, [r4, #88]
.Ltmp113:
	.loc	6 446 20                        @ ../src/driver/stm32g4-v120/src/stm32g4xx_hal_adc_ex.c:446:20
	mov	r0, r4
	movs	r1, #2
	bl	ADC_ConversionStop
.Ltmp114:
	@DEBUG_VALUE: HAL_ADCEx_InjectedStop:tmp_hal_status <- $r0
	.loc	6 450 7                         @ ../src/driver/stm32g4-v120/src/stm32g4xx_hal_adc_ex.c:450:7
	cbnz	r0, .LBB4_7
.Ltmp115:
@ %bb.2:
	@DEBUG_VALUE: HAL_ADCEx_InjectedStop:tmp_hal_status <- $r0
	.loc	6 452 46                        @ ../src/driver/stm32g4-v120/src/stm32g4xx_hal_adc_ex.c:452:46
	ldr	r0, [r4]
.Ltmp116:
	@DEBUG_VALUE: LL_ADC_REG_IsConversionOngoing:ADCx <- $r0
	.loc	7 6838 12                       @ ../src/driver/stm32g4-v120/inc/stm32g4xx_ll_adc.h:6838:12
	ldr	r0, [r0, #8]
.Ltmp117:
	.loc	6 452 9                         @ ../src/driver/stm32g4-v120/src/stm32g4xx_hal_adc_ex.c:452:9
	lsls	r0, r0, #29
	bmi	.LBB4_5
@ %bb.3:
.Ltmp118:
	.loc	6 455 24                        @ ../src/driver/stm32g4-v120/src/stm32g4xx_hal_adc_ex.c:455:24
	mov	r0, r4
	bl	ADC_Disable
.Ltmp119:
	@DEBUG_VALUE: HAL_ADCEx_InjectedStop:tmp_hal_status <- $r0
	.loc	6 458 11                        @ ../src/driver/stm32g4-v120/src/stm32g4xx_hal_adc_ex.c:458:11
	cbnz	r0, .LBB4_7
.Ltmp120:
@ %bb.4:
	@DEBUG_VALUE: HAL_ADCEx_InjectedStop:tmp_hal_status <- $r0
	.loc	6 461 9                         @ ../src/driver/stm32g4-v120/src/stm32g4xx_hal_adc_ex.c:461:9
	ldr	r0, [r4, #92]
.Ltmp121:
	.loc	6 0 9 is_stmt 0                 @ ../src/driver/stm32g4-v120/src/stm32g4xx_hal_adc_ex.c:0:9
	movw	r1, #4353
	.loc	6 461 9                         @ ../src/driver/stm32g4-v120/src/stm32g4xx_hal_adc_ex.c:461:9
	bics	r0, r1
	adds	r0, #1
	b	.LBB4_6
.Ltmp122:
.LBB4_5:
	.loc	6 471 7 is_stmt 1               @ ../src/driver/stm32g4-v120/src/stm32g4xx_hal_adc_ex.c:471:7
	ldr	r0, [r4, #92]
	bic	r0, r0, #4096
.Ltmp123:
.LBB4_6:
	.loc	6 0 0 is_stmt 0                 @ ../src/driver/stm32g4-v120/src/stm32g4xx_hal_adc_ex.c:0:0
	str	r0, [r4, #92]
	movs	r0, #0
.Ltmp124:
.LBB4_7:
	@DEBUG_VALUE: HAL_ADCEx_InjectedStop:tmp_hal_status <- $r0
	movs	r1, #0
.Ltmp125:
	.loc	6 476 3 is_stmt 1               @ ../src/driver/stm32g4-v120/src/stm32g4xx_hal_adc_ex.c:476:3
	strb.w	r1, [r4, #88]
.Ltmp126:
	.loc	6 480 1                         @ ../src/driver/stm32g4-v120/src/stm32g4xx_hal_adc_ex.c:480:1
	pop	{r4, pc}
.Ltmp127:
.Lfunc_end4:
	.size	HAL_ADCEx_InjectedStop, .Lfunc_end4-HAL_ADCEx_InjectedStop
	.cfi_endproc
	.cantunwind
	.fnend
                                        @ -- End function
	.section	.text.HAL_ADCEx_InjectedPollForConversion,"ax",%progbits
	.hidden	HAL_ADCEx_InjectedPollForConversion @ -- Begin function HAL_ADCEx_InjectedPollForConversion
	.globl	HAL_ADCEx_InjectedPollForConversion
	.p2align	1
	.type	HAL_ADCEx_InjectedPollForConversion,%function
	.code	16                              @ @HAL_ADCEx_InjectedPollForConversion
	.thumb_func
HAL_ADCEx_InjectedPollForConversion:
.Lfunc_begin5:
	.loc	6 491 0                         @ ../src/driver/stm32g4-v120/src/stm32g4xx_hal_adc_ex.c:491:0
	.fnstart
	.cfi_startproc
@ %bb.0:
	@DEBUG_VALUE: HAL_ADCEx_InjectedPollForConversion:hadc <- $r0
	@DEBUG_VALUE: HAL_ADCEx_InjectedPollForConversion:Timeout <- $r1
	.save	{r4, r5, r6, r7, r8, r9, r10, r11, lr}
	push.w	{r4, r5, r6, r7, r8, r9, r10, r11, lr}
	.cfi_def_cfa_offset 36
	.cfi_offset lr, -4
	.cfi_offset r11, -8
	.cfi_offset r10, -12
	.cfi_offset r9, -16
	.cfi_offset r8, -20
	.cfi_offset r7, -24
	.cfi_offset r6, -28
	.cfi_offset r5, -32
	.cfi_offset r4, -36
	.pad	#4
	sub	sp, #4
	.cfi_def_cfa_offset 40
	mov	r11, r0
.Ltmp128:
	@DEBUG_VALUE: HAL_ADCEx_InjectedPollForConversion:hadc <- $r11
	movw	r8, #776
	movt	r8, #20480
.Ltmp129:
	@DEBUG_VALUE: HAL_ADCEx_InjectedPollForConversion:Timeout <- $r5
	@DEBUG_VALUE: HAL_ADCEx_InjectedPollForConversion:hadc <- $r11
	.loc	6 499 55 prologue_end           @ ../src/driver/stm32g4-v120/src/stm32g4xx_hal_adc_ex.c:499:55
	ldr.w	r2, [r11]
	mov	r5, r1
.Ltmp130:
	sub.w	r0, r8, #520
.Ltmp131:
	@DEBUG_VALUE: LL_ADC_GetMultimode:ADCxy_COMMON <- undef
	.loc	7 6379 21                       @ ../src/driver/stm32g4-v120/inc/stm32g4xx_ll_adc.h:6379:21
	add.w	r1, r8, #1024
.Ltmp132:
	.loc	6 506 18                        @ ../src/driver/stm32g4-v120/src/stm32g4xx_hal_adc_ex.c:506:18
	ldr.w	r10, [r11, #24]
.Ltmp133:
	.loc	7 6379 21                       @ ../src/driver/stm32g4-v120/inc/stm32g4xx_ll_adc.h:6379:21
	cmp	r2, r0
	itt	eq
	movweq	r1, #776
	movteq	r1, #20480
	cmp.w	r2, #1342177280
	itt	eq
	movweq	r1, #776
	movteq	r1, #20480
	ldr.w	r9, [r1]
.Ltmp134:
	@DEBUG_VALUE: HAL_ADCEx_InjectedPollForConversion:tmp_multimode_config <- undef
	.loc	7 0 21 is_stmt 0                @ ../src/driver/stm32g4-v120/inc/stm32g4xx_ll_adc.h:0:21
	movs	r7, #32
.Ltmp135:
	.loc	6 506 7 is_stmt 1               @ ../src/driver/stm32g4-v120/src/stm32g4xx_hal_adc_ex.c:506:7
	cmp.w	r10, #8
	it	eq
	moveq	r7, #64
.Ltmp136:
	@DEBUG_VALUE: HAL_ADCEx_InjectedPollForConversion:tmp_Flag_End <- $r7
	.loc	6 516 15                        @ ../src/driver/stm32g4-v120/src/stm32g4xx_hal_adc_ex.c:516:15
	bl	HAL_GetTick
.Ltmp137:
	.loc	6 519 17                        @ ../src/driver/stm32g4-v120/src/stm32g4xx_hal_adc_ex.c:519:17
	ldr.w	r1, [r11]
	.loc	6 519 27 is_stmt 0              @ ../src/driver/stm32g4-v120/src/stm32g4xx_hal_adc_ex.c:519:27
	ldr	r2, [r1]
	.loc	6 519 3                         @ ../src/driver/stm32g4-v120/src/stm32g4xx_hal_adc_ex.c:519:3
	tst	r2, r7
.Ltmp138:
	@DEBUG_VALUE: HAL_ADCEx_InjectedPollForConversion:tickstart <- $r0
	bne	.LBB5_7
.Ltmp139:
@ %bb.1:
	@DEBUG_VALUE: HAL_ADCEx_InjectedPollForConversion:hadc <- $r11
	@DEBUG_VALUE: HAL_ADCEx_InjectedPollForConversion:tmp_Flag_End <- $r7
	@DEBUG_VALUE: HAL_ADCEx_InjectedPollForConversion:tickstart <- $r0
	.loc	6 0 3                           @ ../src/driver/stm32g4-v120/src/stm32g4xx_hal_adc_ex.c:0:3
	mov	r6, r0
.Ltmp140:
	@DEBUG_VALUE: HAL_ADCEx_InjectedPollForConversion:tickstart <- $r6
	@DEBUG_VALUE: HAL_ADCEx_InjectedPollForConversion:tickstart <- $r6
	adds	r4, r5, #1
.Ltmp141:
	.p2align	2
.LBB5_2:                                @ =>This Inner Loop Header: Depth=1
	@DEBUG_VALUE: HAL_ADCEx_InjectedPollForConversion:hadc <- $r11
	@DEBUG_VALUE: HAL_ADCEx_InjectedPollForConversion:tmp_Flag_End <- $r7
	@DEBUG_VALUE: HAL_ADCEx_InjectedPollForConversion:tickstart <- $r6
	.loc	6 522 9 is_stmt 1               @ ../src/driver/stm32g4-v120/src/stm32g4xx_hal_adc_ex.c:522:9
	cbz	r4, .LBB5_6
.Ltmp142:
@ %bb.3:                                @   in Loop: Header=BB5_2 Depth=1
	@DEBUG_VALUE: HAL_ADCEx_InjectedPollForConversion:hadc <- $r11
	@DEBUG_VALUE: HAL_ADCEx_InjectedPollForConversion:tmp_Flag_End <- $r7
	@DEBUG_VALUE: HAL_ADCEx_InjectedPollForConversion:tickstart <- $r6
	.loc	6 524 13                        @ ../src/driver/stm32g4-v120/src/stm32g4xx_hal_adc_ex.c:524:13
	bl	HAL_GetTick
.Ltmp143:
	.loc	6 524 51 is_stmt 0              @ ../src/driver/stm32g4-v120/src/stm32g4xx_hal_adc_ex.c:524:51
	cmp	r5, #0
	beq	.LBB5_27
.Ltmp144:
@ %bb.4:                                @   in Loop: Header=BB5_2 Depth=1
	@DEBUG_VALUE: HAL_ADCEx_InjectedPollForConversion:hadc <- $r11
	@DEBUG_VALUE: HAL_ADCEx_InjectedPollForConversion:tmp_Flag_End <- $r7
	@DEBUG_VALUE: HAL_ADCEx_InjectedPollForConversion:tickstart <- $r6
	.loc	6 0 0                           @ ../src/driver/stm32g4-v120/src/stm32g4xx_hal_adc_ex.c:0:0
	subs	r0, r0, r6
	.loc	6 524 51                        @ ../src/driver/stm32g4-v120/src/stm32g4xx_hal_adc_ex.c:524:51
	cmp	r0, r5
	bhi	.LBB5_27
.Ltmp145:
@ %bb.5:                                @   in Loop: Header=BB5_2 Depth=1
	@DEBUG_VALUE: HAL_ADCEx_InjectedPollForConversion:hadc <- $r11
	@DEBUG_VALUE: HAL_ADCEx_InjectedPollForConversion:tmp_Flag_End <- $r7
	@DEBUG_VALUE: HAL_ADCEx_InjectedPollForConversion:tickstart <- $r6
	.loc	6 519 17 is_stmt 1              @ ../src/driver/stm32g4-v120/src/stm32g4xx_hal_adc_ex.c:519:17
	ldr.w	r1, [r11]
.Ltmp146:
.LBB5_6:                                @   in Loop: Header=BB5_2 Depth=1
	@DEBUG_VALUE: HAL_ADCEx_InjectedPollForConversion:hadc <- $r11
	@DEBUG_VALUE: HAL_ADCEx_InjectedPollForConversion:tmp_Flag_End <- $r7
	@DEBUG_VALUE: HAL_ADCEx_InjectedPollForConversion:tickstart <- $r6
	.loc	6 519 27 is_stmt 0              @ ../src/driver/stm32g4-v120/src/stm32g4xx_hal_adc_ex.c:519:27
	ldr	r0, [r1]
	.loc	6 519 3                         @ ../src/driver/stm32g4-v120/src/stm32g4xx_hal_adc_ex.c:519:3
	tst	r0, r7
	beq	.LBB5_2
.Ltmp147:
.LBB5_7:
	@DEBUG_VALUE: HAL_ADCEx_InjectedPollForConversion:hadc <- $r11
	@DEBUG_VALUE: HAL_ADCEx_InjectedPollForConversion:tmp_Flag_End <- $r7
	.loc	7 4531 12 is_stmt 1             @ ../src/driver/stm32g4-v120/inc/stm32g4xx_ll_adc.h:4531:12
	ldr	r3, [r1, #76]
	movw	r7, #256
.Ltmp148:
	.loc	7 3744 12                       @ ../src/driver/stm32g4-v120/inc/stm32g4xx_ll_adc.h:3744:12
	ldr	r2, [r1, #12]
.Ltmp149:
	@DEBUG_VALUE: HAL_ADCEx_InjectedPollForConversion:tmp_adc_reg_is_trigger_source_sw_start <- [DW_OP_LLVM_convert 1 7, DW_OP_LLVM_convert 32 7, DW_OP_stack_value] undef
	.loc	7 0 12 is_stmt 0                @ ../src/driver/stm32g4-v120/inc/stm32g4xx_ll_adc.h:0:12
	movt	r7, #20480
.Ltmp150:
	.loc	6 519 27 is_stmt 1              @ ../src/driver/stm32g4-v120/src/stm32g4xx_hal_adc_ex.c:519:27
	mov	r0, r1
.Ltmp151:
	@DEBUG_VALUE: HAL_ADCEx_InjectedPollForConversion:tmp_multimode_config <- undef
	@DEBUG_VALUE: LL_ADC_INJ_IsTriggerSourceSWStart:ADCx <- $r1
	.loc	6 544 8                         @ ../src/driver/stm32g4-v120/src/stm32g4xx_hal_adc_ex.c:544:8
	cmp	r1, r7
.Ltmp152:
	.loc	7 4531 12                       @ ../src/driver/stm32g4-v120/inc/stm32g4xx_ll_adc.h:4531:12
	and	r3, r3, #384
.Ltmp153:
	@DEBUG_VALUE: LL_ADC_REG_IsTriggerSourceSWStart:ADCx <- $r1
	@DEBUG_VALUE: HAL_ADCEx_InjectedPollForConversion:tmp_adc_inj_is_trigger_source_sw_start <- [DW_OP_LLVM_convert 1 7, DW_OP_LLVM_convert 32 7, DW_OP_stack_value] undef
	@DEBUG_VALUE: LL_ADC_INJ_IsTriggerSourceSWStart:ADCx <- $r1
	.loc	6 544 8                         @ ../src/driver/stm32g4-v120/src/stm32g4xx_hal_adc_ex.c:544:8
	beq	.LBB5_10
.Ltmp154:
@ %bb.8:
	@DEBUG_VALUE: HAL_ADCEx_InjectedPollForConversion:hadc <- $r11
	.loc	6 0 8 is_stmt 0                 @ ../src/driver/stm32g4-v120/src/stm32g4xx_hal_adc_ex.c:0:8
	movw	r6, #1280
	movt	r6, #20480
	.loc	6 544 8                         @ ../src/driver/stm32g4-v120/src/stm32g4xx_hal_adc_ex.c:544:8
	cmp	r1, r6
	bne	.LBB5_14
.Ltmp155:
@ %bb.9:
	@DEBUG_VALUE: HAL_ADCEx_InjectedPollForConversion:hadc <- $r11
	add.w	r6, r8, #248
	b	.LBB5_11
.Ltmp156:
.LBB5_10:
	@DEBUG_VALUE: HAL_ADCEx_InjectedPollForConversion:hadc <- $r11
	@DEBUG_VALUE: LL_ADC_REG_IsTriggerSourceSWStart:ADCx <- $r1
	@DEBUG_VALUE: LL_ADC_INJ_IsTriggerSourceSWStart:ADCx <- $r1
	.loc	6 0 8                           @ ../src/driver/stm32g4-v120/src/stm32g4xx_hal_adc_ex.c:0:8
	mov.w	r6, #1342177280
.Ltmp157:
.LBB5_11:
	@DEBUG_VALUE: HAL_ADCEx_InjectedPollForConversion:hadc <- $r11
	@DEBUG_VALUE: HAL_ADCEx_InjectedPollForConversion:tmp_multimode_config <- undef
	.loc	6 545 7 is_stmt 1               @ ../src/driver/stm32g4-v120/src/stm32g4xx_hal_adc_ex.c:545:7
	cmp	r6, r1
	beq	.LBB5_14
.Ltmp158:
@ %bb.12:
	@DEBUG_VALUE: HAL_ADCEx_InjectedPollForConversion:hadc <- $r11
	.loc	6 0 0 is_stmt 0                 @ ../src/driver/stm32g4-v120/src/stm32g4xx_hal_adc_ex.c:0:0
	and	r6, r9, #31
.Ltmp159:
	@DEBUG_VALUE: HAL_ADCEx_InjectedPollForConversion:tmp_multimode_config <- $r6
	.loc	6 545 7                         @ ../src/driver/stm32g4-v120/src/stm32g4xx_hal_adc_ex.c:545:7
	cmp	r6, #7
	bhi	.LBB5_28
.Ltmp160:
@ %bb.13:
	@DEBUG_VALUE: HAL_ADCEx_InjectedPollForConversion:hadc <- $r11
	@DEBUG_VALUE: HAL_ADCEx_InjectedPollForConversion:tmp_multimode_config <- $r6
	.loc	6 0 7                           @ ../src/driver/stm32g4-v120/src/stm32g4xx_hal_adc_ex.c:0:7
	movs	r5, #1
	lsl.w	r6, r5, r6
.Ltmp161:
	tst.w	r6, #193
	beq	.LBB5_28
.Ltmp162:
.LBB5_14:
	@DEBUG_VALUE: HAL_ADCEx_InjectedPollForConversion:hadc <- $r11
	ldr	r1, [r1, #12]
.Ltmp163:
	@DEBUG_VALUE: HAL_ADCEx_InjectedPollForConversion:tmp_cfgr <- $r1
	.loc	6 562 3 is_stmt 1               @ ../src/driver/stm32g4-v120/src/stm32g4xx_hal_adc_ex.c:562:3
	ldr.w	r7, [r11, #92]
	orr	r7, r7, #8192
	str.w	r7, [r11, #92]
.Ltmp164:
	.loc	6 567 66                        @ ../src/driver/stm32g4-v120/src/stm32g4xx_hal_adc_ex.c:567:66
	cbz	r3, .LBB5_16
.Ltmp165:
@ %bb.15:
	@DEBUG_VALUE: HAL_ADCEx_InjectedPollForConversion:hadc <- $r11
	@DEBUG_VALUE: HAL_ADCEx_InjectedPollForConversion:tmp_cfgr <- $r1
	.loc	6 0 0 is_stmt 0                 @ ../src/driver/stm32g4-v120/src/stm32g4xx_hal_adc_ex.c:0:0
	and	r2, r2, #3072
.Ltmp166:
	.loc	6 568 9 is_stmt 1               @ ../src/driver/stm32g4-v120/src/stm32g4xx_hal_adc_ex.c:568:9
	and	r3, r1, #33554432
	.loc	6 568 57 is_stmt 0              @ ../src/driver/stm32g4-v120/src/stm32g4xx_hal_adc_ex.c:568:57
	add	r2, r3
	and	r3, r1, #8192
	adds	r2, r2, r3
	bne	.LBB5_20
.Ltmp167:
.LBB5_16:
	@DEBUG_VALUE: HAL_ADCEx_InjectedPollForConversion:hadc <- $r11
	@DEBUG_VALUE: HAL_ADCEx_InjectedPollForConversion:tmp_cfgr <- $r1
	.loc	6 573 9 is_stmt 1               @ ../src/driver/stm32g4-v120/src/stm32g4xx_hal_adc_ex.c:573:9
	ldr	r2, [r0]
.Ltmp168:
	.loc	6 573 9 is_stmt 0               @ ../src/driver/stm32g4-v120/src/stm32g4xx_hal_adc_ex.c:573:9
	lsls	r3, r1, #10
	bmi	.LBB5_20
.Ltmp169:
@ %bb.17:
	@DEBUG_VALUE: HAL_ADCEx_InjectedPollForConversion:hadc <- $r11
	@DEBUG_VALUE: HAL_ADCEx_InjectedPollForConversion:tmp_cfgr <- $r1
	.loc	6 0 0                           @ ../src/driver/stm32g4-v120/src/stm32g4xx_hal_adc_ex.c:0:0
	ands	r2, r2, #64
	.loc	6 573 9                         @ ../src/driver/stm32g4-v120/src/stm32g4xx_hal_adc_ex.c:573:9
	beq	.LBB5_20
.Ltmp170:
@ %bb.18:
	@DEBUG_VALUE: HAL_ADCEx_InjectedPollForConversion:hadc <- $r11
	@DEBUG_VALUE: HAL_ADCEx_InjectedPollForConversion:tmp_cfgr <- $r1
	.loc	6 584 9 is_stmt 1               @ ../src/driver/stm32g4-v120/src/stm32g4xx_hal_adc_ex.c:584:9
	ldr.w	r2, [r11, #92]
	bic	r2, r2, #4096
	str.w	r2, [r11, #92]
.Ltmp171:
	.loc	6 586 20                        @ ../src/driver/stm32g4-v120/src/stm32g4xx_hal_adc_ex.c:586:20
	ldr.w	r2, [r11, #92]
.Ltmp172:
	.loc	6 586 13 is_stmt 0              @ ../src/driver/stm32g4-v120/src/stm32g4xx_hal_adc_ex.c:586:13
	lsls	r2, r2, #23
	bmi	.LBB5_20
.Ltmp173:
@ %bb.19:
	@DEBUG_VALUE: HAL_ADCEx_InjectedPollForConversion:hadc <- $r11
	@DEBUG_VALUE: HAL_ADCEx_InjectedPollForConversion:tmp_cfgr <- $r1
	.loc	6 588 11 is_stmt 1              @ ../src/driver/stm32g4-v120/src/stm32g4xx_hal_adc_ex.c:588:11
	ldr.w	r2, [r11, #92]
	orr	r2, r2, #1
	str.w	r2, [r11, #92]
.Ltmp174:
.LBB5_20:
	@DEBUG_VALUE: HAL_ADCEx_InjectedPollForConversion:hadc <- $r11
	@DEBUG_VALUE: HAL_ADCEx_InjectedPollForConversion:tmp_cfgr <- $r1
	.loc	6 595 7                         @ ../src/driver/stm32g4-v120/src/stm32g4xx_hal_adc_ex.c:595:7
	cmp.w	r10, #8
	bne	.LBB5_23
.Ltmp175:
@ %bb.21:
	@DEBUG_VALUE: HAL_ADCEx_InjectedPollForConversion:hadc <- $r11
	@DEBUG_VALUE: HAL_ADCEx_InjectedPollForConversion:tmp_cfgr <- $r1
	.loc	6 601 9                         @ ../src/driver/stm32g4-v120/src/stm32g4xx_hal_adc_ex.c:601:9
	lsls	r1, r1, #17
.Ltmp176:
	bmi	.LBB5_25
.Ltmp177:
@ %bb.22:
	@DEBUG_VALUE: HAL_ADCEx_InjectedPollForConversion:hadc <- $r11
	.loc	6 0 9 is_stmt 0                 @ ../src/driver/stm32g4-v120/src/stm32g4xx_hal_adc_ex.c:0:9
	movs	r1, #96
	b	.LBB5_24
.Ltmp178:
.LBB5_23:
	@DEBUG_VALUE: HAL_ADCEx_InjectedPollForConversion:hadc <- $r11
	@DEBUG_VALUE: HAL_ADCEx_InjectedPollForConversion:tmp_cfgr <- $r1
	movs	r1, #32
.Ltmp179:
.LBB5_24:
	@DEBUG_VALUE: HAL_ADCEx_InjectedPollForConversion:hadc <- $r11
	str	r1, [r0]
.Ltmp180:
.LBB5_25:
	@DEBUG_VALUE: HAL_ADCEx_InjectedPollForConversion:hadc <- $r11
	movs	r0, #0
.Ltmp181:
.LBB5_26:
	@DEBUG_VALUE: HAL_ADCEx_InjectedPollForConversion:hadc <- $r11
	.loc	6 613 1 is_stmt 1               @ ../src/driver/stm32g4-v120/src/stm32g4xx_hal_adc_ex.c:613:1
	add	sp, #4
	pop.w	{r4, r5, r6, r7, r8, r9, r10, r11, pc}
.Ltmp182:
.LBB5_27:
	@DEBUG_VALUE: HAL_ADCEx_InjectedPollForConversion:hadc <- $r11
	@DEBUG_VALUE: HAL_ADCEx_InjectedPollForConversion:tmp_Flag_End <- $r7
	@DEBUG_VALUE: HAL_ADCEx_InjectedPollForConversion:tickstart <- $r6
	.loc	6 527 9                         @ ../src/driver/stm32g4-v120/src/stm32g4xx_hal_adc_ex.c:527:9
	ldr.w	r0, [r11, #92]
	orr	r0, r0, #4
	str.w	r0, [r11, #92]
	movs	r0, #0
.Ltmp183:
	.loc	6 530 9                         @ ../src/driver/stm32g4-v120/src/stm32g4xx_hal_adc_ex.c:530:9
	strb.w	r0, [r11, #88]
	movs	r0, #3
	b	.LBB5_26
.Ltmp184:
.LBB5_28:
	@DEBUG_VALUE: HAL_ADCEx_InjectedPollForConversion:hadc <- $r11
	.loc	6 554 21                        @ ../src/driver/stm32g4-v120/src/stm32g4xx_hal_adc_ex.c:554:21
	cmp	r1, r7
	beq	.LBB5_30
.Ltmp185:
@ %bb.29:
	@DEBUG_VALUE: HAL_ADCEx_InjectedPollForConversion:hadc <- $r11
	.loc	6 0 21 is_stmt 0                @ ../src/driver/stm32g4-v120/src/stm32g4xx_hal_adc_ex.c:0:21
	movw	r7, #1280
	movt	r7, #20480
	.loc	6 554 21                        @ ../src/driver/stm32g4-v120/src/stm32g4xx_hal_adc_ex.c:554:21
	cmp	r1, r7
	it	eq
	addeq.w	r1, r8, #248
	b	.LBB5_14
.Ltmp186:
.LBB5_30:
	@DEBUG_VALUE: HAL_ADCEx_InjectedPollForConversion:hadc <- $r11
	.loc	6 0 21                          @ ../src/driver/stm32g4-v120/src/stm32g4xx_hal_adc_ex.c:0:21
	mov.w	r1, #1342177280
	b	.LBB5_14
.Lfunc_end5:
	.size	HAL_ADCEx_InjectedPollForConversion, .Lfunc_end5-HAL_ADCEx_InjectedPollForConversion
	.cfi_endproc
	.cantunwind
	.fnend
                                        @ -- End function
	.section	.text.HAL_ADCEx_InjectedStart_IT,"ax",%progbits
	.hidden	HAL_ADCEx_InjectedStart_IT      @ -- Begin function HAL_ADCEx_InjectedStart_IT
	.globl	HAL_ADCEx_InjectedStart_IT
	.p2align	1
	.type	HAL_ADCEx_InjectedStart_IT,%function
	.code	16                              @ @HAL_ADCEx_InjectedStart_IT
	.thumb_func
HAL_ADCEx_InjectedStart_IT:
.Lfunc_begin6:
	.loc	6 628 0 is_stmt 1               @ ../src/driver/stm32g4-v120/src/stm32g4xx_hal_adc_ex.c:628:0
	.fnstart
	.cfi_startproc
@ %bb.0:
	@DEBUG_VALUE: HAL_ADCEx_InjectedStart_IT:hadc <- $r0
	.save	{r4, r5, r6, lr}
	push	{r4, r5, r6, lr}
	.cfi_def_cfa_offset 16
	.cfi_offset lr, -4
	.cfi_offset r6, -8
	.cfi_offset r5, -12
	.cfi_offset r4, -16
	movw	r5, #776
	mov	r4, r0
	movt	r5, #20480
.Ltmp187:
	@DEBUG_VALUE: HAL_ADCEx_InjectedStart_IT:hadc <- $r4
	.loc	6 632 55 prologue_end           @ ../src/driver/stm32g4-v120/src/stm32g4xx_hal_adc_ex.c:632:55
	ldr	r0, [r0]
	sub.w	r1, r5, #520
.Ltmp188:
	@DEBUG_VALUE: LL_ADC_GetMultimode:ADCxy_COMMON <- undef
	.loc	7 6379 21                       @ ../src/driver/stm32g4-v120/inc/stm32g4xx_ll_adc.h:6379:21
	add.w	r2, r5, #1024
	cmp	r0, r1
	itt	eq
	movweq	r2, #776
	movteq	r2, #20480
	cmp.w	r0, #1342177280
	itt	eq
	movweq	r2, #776
	movteq	r2, #20480
	ldr	r6, [r2]
.Ltmp189:
	@DEBUG_VALUE: LL_ADC_INJ_IsConversionOngoing:ADCx <- $r0
	@DEBUG_VALUE: HAL_ADCEx_InjectedStart_IT:tmp_multimode_config <- undef
	.loc	7 7063 12                       @ ../src/driver/stm32g4-v120/inc/stm32g4xx_ll_adc.h:7063:12
	ldr	r1, [r0, #8]
.Ltmp190:
	.loc	6 638 7                         @ ../src/driver/stm32g4-v120/src/stm32g4xx_hal_adc_ex.c:638:7
	lsls	r1, r1, #28
	bmi	.LBB6_5
.Ltmp191:
@ %bb.1:
	@DEBUG_VALUE: HAL_ADCEx_InjectedStart_IT:hadc <- $r4
	@DEBUG_VALUE: HAL_ADCEx_InjectedStart_IT:tmp_multimode_config <- undef
	.loc	6 651 33                        @ ../src/driver/stm32g4-v120/src/stm32g4xx_hal_adc_ex.c:651:33
	ldr	r1, [r0, #12]
.Ltmp192:
	@DEBUG_VALUE: HAL_ADCEx_InjectedStart_IT:tmp_config_injected_queue <- [DW_OP_constu 18446744071562067968, DW_OP_and, DW_OP_stack_value] $r1
	.loc	6 653 10                        @ ../src/driver/stm32g4-v120/src/stm32g4xx_hal_adc_ex.c:653:10
	ldr	r0, [r0, #76]
	.loc	6 654 9                         @ ../src/driver/stm32g4-v120/src/stm32g4xx_hal_adc_ex.c:654:9
	cmp	r1, #0
	bmi	.LBB6_4
.Ltmp193:
@ %bb.2:
	@DEBUG_VALUE: HAL_ADCEx_InjectedStart_IT:hadc <- $r4
	@DEBUG_VALUE: HAL_ADCEx_InjectedStart_IT:tmp_config_injected_queue <- [DW_OP_constu 18446744071562067968, DW_OP_and, DW_OP_stack_value] $r1
	.loc	6 0 0 is_stmt 0                 @ ../src/driver/stm32g4-v120/src/stm32g4xx_hal_adc_ex.c:0:0
	ands	r0, r0, #384
	.loc	6 654 9                         @ ../src/driver/stm32g4-v120/src/stm32g4xx_hal_adc_ex.c:654:9
	bne	.LBB6_4
.Ltmp194:
@ %bb.3:
	@DEBUG_VALUE: HAL_ADCEx_InjectedStart_IT:hadc <- $r4
	@DEBUG_VALUE: HAL_ADCEx_InjectedStart_IT:tmp_config_injected_queue <- [DW_OP_constu 18446744071562067968, DW_OP_and, DW_OP_stack_value] $r1
	.loc	6 657 7 is_stmt 1               @ ../src/driver/stm32g4-v120/src/stm32g4xx_hal_adc_ex.c:657:7
	ldr	r0, [r4, #92]
	orr	r0, r0, #32
	str	r0, [r4, #92]
	movs	r0, #1
.Ltmp195:
	.loc	6 779 1                         @ ../src/driver/stm32g4-v120/src/stm32g4xx_hal_adc_ex.c:779:1
	pop	{r4, r5, r6, pc}
.Ltmp196:
.LBB6_4:
	@DEBUG_VALUE: HAL_ADCEx_InjectedStart_IT:hadc <- $r4
	@DEBUG_VALUE: HAL_ADCEx_InjectedStart_IT:tmp_config_injected_queue <- [DW_OP_constu 18446744071562067968, DW_OP_and, DW_OP_stack_value] $r1
	@DEBUG_VALUE: HAL_ADCEx_InjectedStart_IT:tmp_multimode_config <- undef
	.loc	6 662 5                         @ ../src/driver/stm32g4-v120/src/stm32g4xx_hal_adc_ex.c:662:5
	ldrb.w	r0, [r4, #88]
.Ltmp197:
	.loc	6 662 5 is_stmt 0               @ ../src/driver/stm32g4-v120/src/stm32g4xx_hal_adc_ex.c:662:5
	cmp	r0, #1
	bne	.LBB6_6
.Ltmp198:
.LBB6_5:
	@DEBUG_VALUE: HAL_ADCEx_InjectedStart_IT:hadc <- $r4
	.loc	6 0 5                           @ ../src/driver/stm32g4-v120/src/stm32g4xx_hal_adc_ex.c:0:5
	movs	r0, #2
	.loc	6 779 1 is_stmt 1               @ ../src/driver/stm32g4-v120/src/stm32g4xx_hal_adc_ex.c:779:1
	pop	{r4, r5, r6, pc}
.Ltmp199:
.LBB6_6:
	@DEBUG_VALUE: HAL_ADCEx_InjectedStart_IT:hadc <- $r4
	@DEBUG_VALUE: HAL_ADCEx_InjectedStart_IT:tmp_config_injected_queue <- [DW_OP_constu 18446744071562067968, DW_OP_and, DW_OP_stack_value] $r1
	@DEBUG_VALUE: HAL_ADCEx_InjectedStart_IT:tmp_multimode_config <- undef
	.loc	6 0 1 is_stmt 0                 @ ../src/driver/stm32g4-v120/src/stm32g4xx_hal_adc_ex.c:0:1
	movs	r0, #1
.Ltmp200:
	.loc	6 662 5 is_stmt 1               @ ../src/driver/stm32g4-v120/src/stm32g4xx_hal_adc_ex.c:662:5
	strb.w	r0, [r4, #88]
.Ltmp201:
	.loc	6 665 22                        @ ../src/driver/stm32g4-v120/src/stm32g4xx_hal_adc_ex.c:665:22
	mov	r0, r4
	bl	ADC_Enable
.Ltmp202:
	@DEBUG_VALUE: HAL_ADCEx_InjectedStart_IT:tmp_hal_status <- $r0
	.loc	6 668 9                         @ ../src/driver/stm32g4-v120/src/stm32g4xx_hal_adc_ex.c:668:9
	cbz	r0, .LBB6_8
.Ltmp203:
@ %bb.7:
	@DEBUG_VALUE: HAL_ADCEx_InjectedStart_IT:hadc <- $r4
	@DEBUG_VALUE: HAL_ADCEx_InjectedStart_IT:tmp_hal_status <- $r0
	.loc	6 0 9 is_stmt 0                 @ ../src/driver/stm32g4-v120/src/stm32g4xx_hal_adc_ex.c:0:9
	movs	r1, #0
.Ltmp204:
	.loc	6 773 7 is_stmt 1               @ ../src/driver/stm32g4-v120/src/stm32g4xx_hal_adc_ex.c:773:7
	strb.w	r1, [r4, #88]
.Ltmp205:
	.loc	6 779 1                         @ ../src/driver/stm32g4-v120/src/stm32g4xx_hal_adc_ex.c:779:1
	pop	{r4, r5, r6, pc}
.Ltmp206:
.LBB6_8:
	@DEBUG_VALUE: HAL_ADCEx_InjectedStart_IT:hadc <- $r4
	@DEBUG_VALUE: HAL_ADCEx_InjectedStart_IT:tmp_hal_status <- $r0
	@DEBUG_VALUE: HAL_ADCEx_InjectedStart_IT:tmp_multimode_config <- undef
	.loc	6 671 18                        @ ../src/driver/stm32g4-v120/src/stm32g4xx_hal_adc_ex.c:671:18
	ldr	r0, [r4, #92]
.Ltmp207:
	.loc	6 0 18 is_stmt 0                @ ../src/driver/stm32g4-v120/src/stm32g4xx_hal_adc_ex.c:0:18
	movw	r2, #12289
.Ltmp208:
	.loc	6 671 11                        @ ../src/driver/stm32g4-v120/src/stm32g4xx_hal_adc_ex.c:671:11
	lsls	r0, r0, #23
.Ltmp209:
	.loc	6 674 9 is_stmt 1               @ ../src/driver/stm32g4-v120/src/stm32g4xx_hal_adc_ex.c:674:9
	itte	mi
	ldrmi	r0, [r4, #96]
	bicmi	r0, r0, #8
	movpl	r0, #0
.Ltmp210:
	.loc	6 0 0 is_stmt 0                 @ ../src/driver/stm32g4-v120/src/stm32g4xx_hal_adc_ex.c:0:0
	str	r0, [r4, #96]
.Ltmp211:
	.loc	6 685 7 is_stmt 1               @ ../src/driver/stm32g4-v120/src/stm32g4xx_hal_adc_ex.c:685:7
	ldr	r0, [r4, #92]
	movw	lr, #256
	bics	r0, r2
	add.w	r0, r0, #4096
	str	r0, [r4, #92]
.Ltmp212:
	.loc	6 693 12                        @ ../src/driver/stm32g4-v120/src/stm32g4xx_hal_adc_ex.c:693:12
	ldr	r0, [r4]
	movt	lr, #20480
	movw	r12, #1280
	and	r1, r6, #31
.Ltmp213:
	@DEBUG_VALUE: HAL_ADCEx_InjectedStart_IT:tmp_multimode_config <- $r1
	cmp	r0, lr
	movt	r12, #20480
	beq	.LBB6_11
.Ltmp214:
@ %bb.9:
	@DEBUG_VALUE: HAL_ADCEx_InjectedStart_IT:hadc <- $r4
	@DEBUG_VALUE: HAL_ADCEx_InjectedStart_IT:tmp_multimode_config <- $r1
	cmp	r0, r12
	bne	.LBB6_14
.Ltmp215:
@ %bb.10:
	@DEBUG_VALUE: HAL_ADCEx_InjectedStart_IT:hadc <- $r4
	@DEBUG_VALUE: HAL_ADCEx_InjectedStart_IT:tmp_multimode_config <- $r1
	add.w	r6, r5, #248
	b	.LBB6_12
.Ltmp216:
.LBB6_11:
	@DEBUG_VALUE: HAL_ADCEx_InjectedStart_IT:hadc <- $r4
	@DEBUG_VALUE: HAL_ADCEx_InjectedStart_IT:tmp_multimode_config <- $r1
	.loc	6 0 12 is_stmt 0                @ ../src/driver/stm32g4-v120/src/stm32g4xx_hal_adc_ex.c:0:12
	mov.w	r6, #1342177280
.Ltmp217:
.LBB6_12:
	@DEBUG_VALUE: HAL_ADCEx_InjectedStart_IT:hadc <- $r4
	@DEBUG_VALUE: HAL_ADCEx_InjectedStart_IT:tmp_multimode_config <- $r1
	.loc	6 694 11 is_stmt 1              @ ../src/driver/stm32g4-v120/src/stm32g4xx_hal_adc_ex.c:694:11
	cbz	r1, .LBB6_14
.Ltmp218:
@ %bb.13:
	@DEBUG_VALUE: HAL_ADCEx_InjectedStart_IT:hadc <- $r4
	@DEBUG_VALUE: HAL_ADCEx_InjectedStart_IT:tmp_multimode_config <- $r1
	cmp	r6, r0
	bne	.LBB6_15
.Ltmp219:
.LBB6_14:
	@DEBUG_VALUE: HAL_ADCEx_InjectedStart_IT:hadc <- $r4
	@DEBUG_VALUE: HAL_ADCEx_InjectedStart_IT:tmp_multimode_config <- $r1
	.loc	6 697 9                         @ ../src/driver/stm32g4-v120/src/stm32g4xx_hal_adc_ex.c:697:9
	ldr	r6, [r4, #92]
	bic	r6, r6, #1048576
	str	r6, [r4, #92]
.Ltmp220:
.LBB6_15:
	@DEBUG_VALUE: HAL_ADCEx_InjectedStart_IT:hadc <- $r4
	@DEBUG_VALUE: HAL_ADCEx_InjectedStart_IT:tmp_multimode_config <- $r1
	.loc	6 0 9 is_stmt 0                 @ ../src/driver/stm32g4-v120/src/stm32g4xx_hal_adc_ex.c:0:9
	movs	r6, #96
	.loc	6 703 7 is_stmt 1               @ ../src/driver/stm32g4-v120/src/stm32g4xx_hal_adc_ex.c:703:7
	str	r6, [r0]
	movs	r6, #0
.Ltmp221:
	.loc	6 708 7                         @ ../src/driver/stm32g4-v120/src/stm32g4xx_hal_adc_ex.c:708:7
	strb.w	r6, [r4, #88]
.Ltmp222:
	.loc	6 712 28                        @ ../src/driver/stm32g4-v120/src/stm32g4xx_hal_adc_ex.c:712:28
	ldr	r6, [r0, #12]
.Ltmp223:
	.loc	6 712 11 is_stmt 0              @ ../src/driver/stm32g4-v120/src/stm32g4xx_hal_adc_ex.c:712:11
	lsls	r6, r6, #10
	bpl	.LBB6_17
.Ltmp224:
@ %bb.16:
	@DEBUG_VALUE: HAL_ADCEx_InjectedStart_IT:hadc <- $r4
	@DEBUG_VALUE: HAL_ADCEx_InjectedStart_IT:tmp_multimode_config <- $r1
	.loc	6 714 9 is_stmt 1               @ ../src/driver/stm32g4-v120/src/stm32g4xx_hal_adc_ex.c:714:9
	ldr	r6, [r0, #4]
	orr	r6, r6, #1024
	str	r6, [r0, #4]
.Ltmp225:
.LBB6_17:
	@DEBUG_VALUE: HAL_ADCEx_InjectedStart_IT:hadc <- $r4
	@DEBUG_VALUE: HAL_ADCEx_InjectedStart_IT:tmp_multimode_config <- $r1
	.loc	6 718 26                        @ ../src/driver/stm32g4-v120/src/stm32g4xx_hal_adc_ex.c:718:26
	ldr	r6, [r4, #24]
.Ltmp226:
	.loc	6 0 0 is_stmt 0                 @ ../src/driver/stm32g4-v120/src/stm32g4xx_hal_adc_ex.c:0:0
	ldr	r2, [r0, #4]
	mvn	r3, #64
.Ltmp227:
	.loc	6 718 7                         @ ../src/driver/stm32g4-v120/src/stm32g4xx_hal_adc_ex.c:718:7
	cmp	r6, #8
	it	eq
	mvneq	r3, #32
.Ltmp228:
	.loc	6 0 0                           @ ../src/driver/stm32g4-v120/src/stm32g4xx_hal_adc_ex.c:0:0
	and.w	r2, r2, r3
	str	r2, [r0, #4]
	ldr	r2, [r0, #4]
	mov.w	r6, #32
.Ltmp229:
	.loc	6 718 7                         @ ../src/driver/stm32g4-v120/src/stm32g4xx_hal_adc_ex.c:718:7
	it	eq
	moveq	r6, #64
.Ltmp230:
	.loc	6 0 0                           @ ../src/driver/stm32g4-v120/src/stm32g4xx_hal_adc_ex.c:0:0
	orrs	r2, r6
.Ltmp231:
	.loc	6 744 12 is_stmt 1              @ ../src/driver/stm32g4-v120/src/stm32g4xx_hal_adc_ex.c:744:12
	cmp	r0, lr
.Ltmp232:
	.loc	6 0 0 is_stmt 0                 @ ../src/driver/stm32g4-v120/src/stm32g4xx_hal_adc_ex.c:0:0
	str	r2, [r0, #4]
.Ltmp233:
	.loc	6 744 12                        @ ../src/driver/stm32g4-v120/src/stm32g4xx_hal_adc_ex.c:744:12
	beq	.LBB6_20
.Ltmp234:
@ %bb.18:
	@DEBUG_VALUE: HAL_ADCEx_InjectedStart_IT:hadc <- $r4
	@DEBUG_VALUE: HAL_ADCEx_InjectedStart_IT:tmp_multimode_config <- $r1
	cmp	r0, r12
	bne	.LBB6_24
.Ltmp235:
@ %bb.19:
	@DEBUG_VALUE: HAL_ADCEx_InjectedStart_IT:hadc <- $r4
	@DEBUG_VALUE: HAL_ADCEx_InjectedStart_IT:tmp_multimode_config <- $r1
	add.w	r2, r5, #248
	b	.LBB6_21
.Ltmp236:
.LBB6_20:
	@DEBUG_VALUE: HAL_ADCEx_InjectedStart_IT:hadc <- $r4
	@DEBUG_VALUE: HAL_ADCEx_InjectedStart_IT:tmp_multimode_config <- $r1
	.loc	6 0 12                          @ ../src/driver/stm32g4-v120/src/stm32g4xx_hal_adc_ex.c:0:12
	mov.w	r2, #1342177280
.Ltmp237:
.LBB6_21:
	@DEBUG_VALUE: HAL_ADCEx_InjectedStart_IT:hadc <- $r4
	@DEBUG_VALUE: HAL_ADCEx_InjectedStart_IT:tmp_multimode_config <- $r1
	.loc	6 745 11 is_stmt 1              @ ../src/driver/stm32g4-v120/src/stm32g4xx_hal_adc_ex.c:745:11
	cmp	r2, r0
	beq	.LBB6_24
.Ltmp238:
@ %bb.22:
	@DEBUG_VALUE: HAL_ADCEx_InjectedStart_IT:hadc <- $r4
	@DEBUG_VALUE: HAL_ADCEx_InjectedStart_IT:tmp_multimode_config <- $r1
	cmp	r1, #7
	bhi	.LBB6_26
.Ltmp239:
@ %bb.23:
	@DEBUG_VALUE: HAL_ADCEx_InjectedStart_IT:hadc <- $r4
	@DEBUG_VALUE: HAL_ADCEx_InjectedStart_IT:tmp_multimode_config <- $r1
	.loc	6 0 11 is_stmt 0                @ ../src/driver/stm32g4-v120/src/stm32g4xx_hal_adc_ex.c:0:11
	movs	r2, #1
	lsl.w	r1, r2, r1
.Ltmp240:
	tst.w	r1, #193
	beq	.LBB6_26
.Ltmp241:
.LBB6_24:
	@DEBUG_VALUE: HAL_ADCEx_InjectedStart_IT:hadc <- $r4
	@DEBUG_VALUE: LL_ADC_INJ_GetTrigAuto:ADCx <- $r0
	.loc	7 4855 21 is_stmt 1             @ ../src/driver/stm32g4-v120/inc/stm32g4xx_ll_adc.h:4855:21
	ldr	r1, [r0, #12]
.Ltmp242:
	.loc	6 751 13                        @ ../src/driver/stm32g4-v120/src/stm32g4xx_hal_adc_ex.c:751:13
	lsls	r1, r1, #6
	bmi	.LBB6_27
.Ltmp243:
@ %bb.25:
	@DEBUG_VALUE: HAL_ADCEx_InjectedStart_IT:hadc <- $r4
	@DEBUG_VALUE: LL_ADC_INJ_StartConversion:ADCx <- $r0
	.loc	7 7030 3                        @ ../src/driver/stm32g4-v120/inc/stm32g4xx_ll_adc.h:7030:3
	ldr	r1, [r0, #8]
	movw	r2, #65472
	movt	r2, #32767
	ands	r1, r2
	adds	r1, #8
	str	r1, [r0, #8]
	b	.LBB6_27
.Ltmp244:
.LBB6_26:
	@DEBUG_VALUE: HAL_ADCEx_InjectedStart_IT:hadc <- $r4
	.loc	6 759 9                         @ ../src/driver/stm32g4-v120/src/stm32g4xx_hal_adc_ex.c:759:9
	ldr	r0, [r4, #92]
	orr	r0, r0, #1048576
	str	r0, [r4, #92]
.Ltmp245:
.LBB6_27:
	@DEBUG_VALUE: HAL_ADCEx_InjectedStart_IT:hadc <- $r4
	.loc	6 0 9 is_stmt 0                 @ ../src/driver/stm32g4-v120/src/stm32g4xx_hal_adc_ex.c:0:9
	movs	r0, #0
	.loc	6 779 1 is_stmt 1               @ ../src/driver/stm32g4-v120/src/stm32g4xx_hal_adc_ex.c:779:1
	pop	{r4, r5, r6, pc}
.Ltmp246:
.Lfunc_end6:
	.size	HAL_ADCEx_InjectedStart_IT, .Lfunc_end6-HAL_ADCEx_InjectedStart_IT
	.cfi_endproc
	.cantunwind
	.fnend
                                        @ -- End function
	.section	.text.HAL_ADCEx_InjectedStop_IT,"ax",%progbits
	.hidden	HAL_ADCEx_InjectedStop_IT       @ -- Begin function HAL_ADCEx_InjectedStop_IT
	.globl	HAL_ADCEx_InjectedStop_IT
	.p2align	1
	.type	HAL_ADCEx_InjectedStop_IT,%function
	.code	16                              @ @HAL_ADCEx_InjectedStop_IT
	.thumb_func
HAL_ADCEx_InjectedStop_IT:
.Lfunc_begin7:
	.loc	6 801 0                         @ ../src/driver/stm32g4-v120/src/stm32g4xx_hal_adc_ex.c:801:0
	.fnstart
	.cfi_startproc
@ %bb.0:
	@DEBUG_VALUE: HAL_ADCEx_InjectedStop_IT:hadc <- $r0
	.save	{r4, lr}
	push	{r4, lr}
	.cfi_def_cfa_offset 8
	.cfi_offset lr, -4
	.cfi_offset r4, -8
	mov	r4, r0
.Ltmp247:
	@DEBUG_VALUE: HAL_ADCEx_InjectedStop_IT:hadc <- $r4
	.loc	6 808 3 prologue_end            @ ../src/driver/stm32g4-v120/src/stm32g4xx_hal_adc_ex.c:808:3
	ldrb.w	r0, [r0, #88]
.Ltmp248:
	.loc	6 808 3 is_stmt 0               @ ../src/driver/stm32g4-v120/src/stm32g4xx_hal_adc_ex.c:808:3
	cmp	r0, #1
	itt	eq
	moveq	r0, #2
.Ltmp249:
	.loc	6 849 1 is_stmt 1               @ ../src/driver/stm32g4-v120/src/stm32g4xx_hal_adc_ex.c:849:1
	popeq	{r4, pc}
.Ltmp250:
.LBB7_1:
	.loc	6 0 1 is_stmt 0                 @ ../src/driver/stm32g4-v120/src/stm32g4xx_hal_adc_ex.c:0:1
	movs	r0, #1
.Ltmp251:
	.loc	6 808 3 is_stmt 1               @ ../src/driver/stm32g4-v120/src/stm32g4xx_hal_adc_ex.c:808:3
	strb.w	r0, [r4, #88]
.Ltmp252:
	.loc	6 811 20                        @ ../src/driver/stm32g4-v120/src/stm32g4xx_hal_adc_ex.c:811:20
	mov	r0, r4
	movs	r1, #2
	bl	ADC_ConversionStop
.Ltmp253:
	@DEBUG_VALUE: HAL_ADCEx_InjectedStop_IT:tmp_hal_status <- $r0
	.loc	6 816 7                         @ ../src/driver/stm32g4-v120/src/stm32g4xx_hal_adc_ex.c:816:7
	cbnz	r0, .LBB7_7
.Ltmp254:
@ %bb.2:
	@DEBUG_VALUE: HAL_ADCEx_InjectedStop_IT:tmp_hal_status <- $r0
	.loc	6 819 5                         @ ../src/driver/stm32g4-v120/src/stm32g4xx_hal_adc_ex.c:819:5
	ldr	r0, [r4]
.Ltmp255:
	ldr	r1, [r0, #4]
	bic	r1, r1, #1120
	str	r1, [r0, #4]
.Ltmp256:
	@DEBUG_VALUE: LL_ADC_REG_IsConversionOngoing:ADCx <- $r0
	.loc	7 6838 12                       @ ../src/driver/stm32g4-v120/inc/stm32g4xx_ll_adc.h:6838:12
	ldr	r0, [r0, #8]
.Ltmp257:
	.loc	6 821 9                         @ ../src/driver/stm32g4-v120/src/stm32g4xx_hal_adc_ex.c:821:9
	lsls	r0, r0, #29
	bmi	.LBB7_5
@ %bb.3:
.Ltmp258:
	.loc	6 824 24                        @ ../src/driver/stm32g4-v120/src/stm32g4xx_hal_adc_ex.c:824:24
	mov	r0, r4
	bl	ADC_Disable
.Ltmp259:
	@DEBUG_VALUE: HAL_ADCEx_InjectedStop_IT:tmp_hal_status <- $r0
	.loc	6 827 11                        @ ../src/driver/stm32g4-v120/src/stm32g4xx_hal_adc_ex.c:827:11
	cbnz	r0, .LBB7_7
.Ltmp260:
@ %bb.4:
	@DEBUG_VALUE: HAL_ADCEx_InjectedStop_IT:tmp_hal_status <- $r0
	.loc	6 830 9                         @ ../src/driver/stm32g4-v120/src/stm32g4xx_hal_adc_ex.c:830:9
	ldr	r0, [r4, #92]
.Ltmp261:
	.loc	6 0 9 is_stmt 0                 @ ../src/driver/stm32g4-v120/src/stm32g4xx_hal_adc_ex.c:0:9
	movw	r1, #4353
	.loc	6 830 9                         @ ../src/driver/stm32g4-v120/src/stm32g4xx_hal_adc_ex.c:830:9
	bics	r0, r1
	adds	r0, #1
	b	.LBB7_6
.Ltmp262:
.LBB7_5:
	.loc	6 840 7 is_stmt 1               @ ../src/driver/stm32g4-v120/src/stm32g4xx_hal_adc_ex.c:840:7
	ldr	r0, [r4, #92]
	bic	r0, r0, #4096
.Ltmp263:
.LBB7_6:
	.loc	6 0 0 is_stmt 0                 @ ../src/driver/stm32g4-v120/src/stm32g4xx_hal_adc_ex.c:0:0
	str	r0, [r4, #92]
	movs	r0, #0
.Ltmp264:
.LBB7_7:
	@DEBUG_VALUE: HAL_ADCEx_InjectedStop_IT:tmp_hal_status <- $r0
	movs	r1, #0
.Ltmp265:
	.loc	6 845 3 is_stmt 1               @ ../src/driver/stm32g4-v120/src/stm32g4xx_hal_adc_ex.c:845:3
	strb.w	r1, [r4, #88]
.Ltmp266:
	.loc	6 849 1                         @ ../src/driver/stm32g4-v120/src/stm32g4xx_hal_adc_ex.c:849:1
	pop	{r4, pc}
.Ltmp267:
.Lfunc_end7:
	.size	HAL_ADCEx_InjectedStop_IT, .Lfunc_end7-HAL_ADCEx_InjectedStop_IT
	.cfi_endproc
	.cantunwind
	.fnend
                                        @ -- End function
	.section	.text.HAL_ADCEx_MultiModeStart_DMA,"ax",%progbits
	.hidden	HAL_ADCEx_MultiModeStart_DMA    @ -- Begin function HAL_ADCEx_MultiModeStart_DMA
	.globl	HAL_ADCEx_MultiModeStart_DMA
	.p2align	1
	.type	HAL_ADCEx_MultiModeStart_DMA,%function
	.code	16                              @ @HAL_ADCEx_MultiModeStart_DMA
	.thumb_func
HAL_ADCEx_MultiModeStart_DMA:
.Lfunc_begin8:
	.loc	6 868 0                         @ ../src/driver/stm32g4-v120/src/stm32g4xx_hal_adc_ex.c:868:0
	.fnstart
	.cfi_startproc
@ %bb.0:
	@DEBUG_VALUE: HAL_ADCEx_MultiModeStart_DMA:hadc <- $r0
	@DEBUG_VALUE: HAL_ADCEx_MultiModeStart_DMA:pData <- $r1
	@DEBUG_VALUE: HAL_ADCEx_MultiModeStart_DMA:Length <- $r2
	.save	{r4, r5, r6, lr}
	push	{r4, r5, r6, lr}
	.cfi_def_cfa_offset 16
	.cfi_offset lr, -4
	.cfi_offset r6, -8
	.cfi_offset r5, -12
	.cfi_offset r4, -16
	.pad	#152
	sub	sp, #152
	.cfi_def_cfa_offset 168
	mov	r4, r0
.Ltmp268:
	@DEBUG_VALUE: HAL_ADCEx_MultiModeStart_DMA:hadc <- $r4
	.loc	6 879 44 prologue_end           @ ../src/driver/stm32g4-v120/src/stm32g4xx_hal_adc_ex.c:879:44
	ldr	r0, [r0]
.Ltmp269:
	@DEBUG_VALUE: LL_ADC_REG_IsConversionOngoing:ADCx <- $r0
	.loc	6 0 44 is_stmt 0                @ ../src/driver/stm32g4-v120/src/stm32g4xx_hal_adc_ex.c:0:44
	mov	r5, r2
.Ltmp270:
	@DEBUG_VALUE: HAL_ADCEx_MultiModeStart_DMA:Length <- $r5
	@DEBUG_VALUE: HAL_ADCEx_MultiModeStart_DMA:Length <- $r5
	.loc	7 6838 12 is_stmt 1             @ ../src/driver/stm32g4-v120/inc/stm32g4xx_ll_adc.h:6838:12
	ldr	r3, [r0, #8]
.Ltmp271:
	.loc	6 879 7                         @ ../src/driver/stm32g4-v120/src/stm32g4xx_hal_adc_ex.c:879:7
	lsls	r2, r3, #29
	@DEBUG_VALUE: HAL_ADCEx_MultiModeStart_DMA:pData <- $r1
	bmi	.LBB8_2
.Ltmp272:
@ %bb.1:
	@DEBUG_VALUE: HAL_ADCEx_MultiModeStart_DMA:Length <- $r5
	@DEBUG_VALUE: HAL_ADCEx_MultiModeStart_DMA:hadc <- $r4
	@DEBUG_VALUE: HAL_ADCEx_MultiModeStart_DMA:pData <- $r1
	.loc	6 0 7 is_stmt 0                 @ ../src/driver/stm32g4-v120/src/stm32g4xx_hal_adc_ex.c:0:7
	mov	r6, r1
.Ltmp273:
	@DEBUG_VALUE: HAL_ADCEx_MultiModeStart_DMA:pData <- $r6
	@DEBUG_VALUE: HAL_ADCEx_MultiModeStart_DMA:pData <- $r6
	.loc	6 886 5 is_stmt 1               @ ../src/driver/stm32g4-v120/src/stm32g4xx_hal_adc_ex.c:886:5
	ldrb.w	r1, [r4, #88]
.Ltmp274:
	.loc	6 886 5 is_stmt 0               @ ../src/driver/stm32g4-v120/src/stm32g4xx_hal_adc_ex.c:886:5
	cmp	r1, #1
	bne	.LBB8_4
.Ltmp275:
.LBB8_2:
	@DEBUG_VALUE: HAL_ADCEx_MultiModeStart_DMA:Length <- $r5
	@DEBUG_VALUE: HAL_ADCEx_MultiModeStart_DMA:hadc <- $r4
	.loc	6 0 5                           @ ../src/driver/stm32g4-v120/src/stm32g4xx_hal_adc_ex.c:0:5
	movs	r0, #2
.Ltmp276:
.LBB8_3:
	@DEBUG_VALUE: HAL_ADCEx_MultiModeStart_DMA:Length <- $r5
	@DEBUG_VALUE: HAL_ADCEx_MultiModeStart_DMA:hadc <- $r4
	.loc	6 967 1 is_stmt 1               @ ../src/driver/stm32g4-v120/src/stm32g4xx_hal_adc_ex.c:967:1
	add	sp, #152
	pop	{r4, r5, r6, pc}
.Ltmp277:
.LBB8_4:
	@DEBUG_VALUE: HAL_ADCEx_MultiModeStart_DMA:pData <- $r6
	@DEBUG_VALUE: HAL_ADCEx_MultiModeStart_DMA:Length <- $r5
	@DEBUG_VALUE: HAL_ADCEx_MultiModeStart_DMA:hadc <- $r4
	.loc	6 0 1 is_stmt 0                 @ ../src/driver/stm32g4-v120/src/stm32g4xx_hal_adc_ex.c:0:1
	movw	r2, #1024
	movt	r2, #20480
	movs	r1, #1
.Ltmp278:
	.loc	6 889 5 is_stmt 1               @ ../src/driver/stm32g4-v120/src/stm32g4xx_hal_adc_ex.c:889:5
	cmp	r0, r2
.Ltmp279:
	.loc	6 886 5                         @ ../src/driver/stm32g4-v120/src/stm32g4xx_hal_adc_ex.c:886:5
	strb.w	r1, [r4, #88]
.Ltmp280:
	.loc	6 889 5                         @ ../src/driver/stm32g4-v120/src/stm32g4xx_hal_adc_ex.c:889:5
	beq	.LBB8_7
.Ltmp281:
@ %bb.5:
	@DEBUG_VALUE: HAL_ADCEx_MultiModeStart_DMA:pData <- $r6
	@DEBUG_VALUE: HAL_ADCEx_MultiModeStart_DMA:Length <- $r5
	@DEBUG_VALUE: HAL_ADCEx_MultiModeStart_DMA:hadc <- $r4
	cmp.w	r0, #1342177280
	bne	.LBB8_11
.Ltmp282:
@ %bb.6:
	@DEBUG_VALUE: HAL_ADCEx_MultiModeStart_DMA:pData <- $r6
	@DEBUG_VALUE: HAL_ADCEx_MultiModeStart_DMA:Length <- $r5
	@DEBUG_VALUE: HAL_ADCEx_MultiModeStart_DMA:hadc <- $r4
	.loc	6 0 5 is_stmt 0                 @ ../src/driver/stm32g4-v120/src/stm32g4xx_hal_adc_ex.c:0:5
	movw	r0, #256
	movt	r0, #20480
	b	.LBB8_8
.Ltmp283:
.LBB8_7:
	@DEBUG_VALUE: HAL_ADCEx_MultiModeStart_DMA:pData <- $r6
	@DEBUG_VALUE: HAL_ADCEx_MultiModeStart_DMA:Length <- $r5
	@DEBUG_VALUE: HAL_ADCEx_MultiModeStart_DMA:hadc <- $r4
	movw	r0, #256
	movt	r0, #20480
	.loc	6 889 5                         @ ../src/driver/stm32g4-v120/src/stm32g4xx_hal_adc_ex.c:889:5
	add.w	r0, r0, #1024
.Ltmp284:
.LBB8_8:
	@DEBUG_VALUE: HAL_ADCEx_MultiModeStart_DMA:pData <- $r6
	@DEBUG_VALUE: HAL_ADCEx_MultiModeStart_DMA:Length <- $r5
	@DEBUG_VALUE: HAL_ADCEx_MultiModeStart_DMA:hadc <- $r4
	str	r0, [sp]
	.loc	6 904 22 is_stmt 1              @ ../src/driver/stm32g4-v120/src/stm32g4xx_hal_adc_ex.c:904:22
	mov	r0, r4
	bl	ADC_Enable
.Ltmp285:
	@DEBUG_VALUE: HAL_ADCEx_MultiModeStart_DMA:tmp_hal_status <- $r0
	.loc	6 905 9                         @ ../src/driver/stm32g4-v120/src/stm32g4xx_hal_adc_ex.c:905:9
	cbnz	r0, .LBB8_10
.Ltmp286:
@ %bb.9:
	@DEBUG_VALUE: HAL_ADCEx_MultiModeStart_DMA:pData <- $r6
	@DEBUG_VALUE: HAL_ADCEx_MultiModeStart_DMA:Length <- $r5
	@DEBUG_VALUE: HAL_ADCEx_MultiModeStart_DMA:hadc <- $r4
	@DEBUG_VALUE: HAL_ADCEx_MultiModeStart_DMA:tmp_hal_status <- $r0
	.loc	6 0 9 is_stmt 0                 @ ../src/driver/stm32g4-v120/src/stm32g4xx_hal_adc_ex.c:0:9
	mov	r0, sp
.Ltmp287:
	.loc	6 907 24 is_stmt 1              @ ../src/driver/stm32g4-v120/src/stm32g4xx_hal_adc_ex.c:907:24
	bl	ADC_Enable
.Ltmp288:
	@DEBUG_VALUE: HAL_ADCEx_MultiModeStart_DMA:tmp_hal_status <- $r0
	.loc	6 911 9                         @ ../src/driver/stm32g4-v120/src/stm32g4xx_hal_adc_ex.c:911:9
	cbz	r0, .LBB8_12
.Ltmp289:
.LBB8_10:
	@DEBUG_VALUE: HAL_ADCEx_MultiModeStart_DMA:pData <- $r6
	@DEBUG_VALUE: HAL_ADCEx_MultiModeStart_DMA:Length <- $r5
	@DEBUG_VALUE: HAL_ADCEx_MultiModeStart_DMA:hadc <- $r4
	@DEBUG_VALUE: HAL_ADCEx_MultiModeStart_DMA:tmp_hal_status <- $r0
	.loc	6 0 9 is_stmt 0                 @ ../src/driver/stm32g4-v120/src/stm32g4xx_hal_adc_ex.c:0:9
	movs	r1, #0
.Ltmp290:
	.loc	6 961 7 is_stmt 1               @ ../src/driver/stm32g4-v120/src/stm32g4xx_hal_adc_ex.c:961:7
	strb.w	r1, [r4, #88]
	b	.LBB8_3
.Ltmp291:
.LBB8_11:
	@DEBUG_VALUE: HAL_ADCEx_MultiModeStart_DMA:pData <- $r6
	@DEBUG_VALUE: HAL_ADCEx_MultiModeStart_DMA:Length <- $r5
	@DEBUG_VALUE: HAL_ADCEx_MultiModeStart_DMA:hadc <- $r4
	.loc	6 894 7                         @ ../src/driver/stm32g4-v120/src/stm32g4xx_hal_adc_ex.c:894:7
	ldr	r0, [r4, #92]
	orr	r0, r0, #32
	str	r0, [r4, #92]
	movs	r0, #0
.Ltmp292:
	.loc	6 897 7                         @ ../src/driver/stm32g4-v120/src/stm32g4xx_hal_adc_ex.c:897:7
	strb.w	r0, [r4, #88]
	movs	r0, #1
	b	.LBB8_3
.Ltmp293:
.LBB8_12:
	@DEBUG_VALUE: HAL_ADCEx_MultiModeStart_DMA:pData <- $r6
	@DEBUG_VALUE: HAL_ADCEx_MultiModeStart_DMA:Length <- $r5
	@DEBUG_VALUE: HAL_ADCEx_MultiModeStart_DMA:hadc <- $r4
	@DEBUG_VALUE: HAL_ADCEx_MultiModeStart_DMA:tmp_hal_status <- $r0
	.loc	6 931 23                        @ ../src/driver/stm32g4-v120/src/stm32g4xx_hal_adc_ex.c:931:23
	ldr	r2, [r4]
	.loc	6 922 13                        @ ../src/driver/stm32g4-v120/src/stm32g4xx_hal_adc_ex.c:922:13
	ldr	r0, [r4, #84]
.Ltmp294:
	.loc	6 914 7                         @ ../src/driver/stm32g4-v120/src/stm32g4xx_hal_adc_ex.c:914:7
	ldr	r1, [r4, #92]
	movw	r3, #3841
	bics	r1, r3
	add.w	r1, r1, #256
	.loc	6 922 42                        @ ../src/driver/stm32g4-v120/src/stm32g4xx_hal_adc_ex.c:922:42
	movw	r3, :lower16:ADC_DMAConvCplt
	.loc	6 914 7                         @ ../src/driver/stm32g4-v120/src/stm32g4xx_hal_adc_ex.c:914:7
	str	r1, [r4, #92]
	movs	r1, #0
	.loc	6 922 42                        @ ../src/driver/stm32g4-v120/src/stm32g4xx_hal_adc_ex.c:922:42
	movt	r3, :upper16:ADC_DMAConvCplt
	.loc	6 925 46                        @ ../src/driver/stm32g4-v120/src/stm32g4xx_hal_adc_ex.c:925:46
	movw	r12, :lower16:ADC_DMAHalfConvCplt
	.loc	6 928 43                        @ ../src/driver/stm32g4-v120/src/stm32g4xx_hal_adc_ex.c:928:43
	movw	lr, :lower16:ADC_DMAError
	.loc	6 919 7                         @ ../src/driver/stm32g4-v120/src/stm32g4xx_hal_adc_ex.c:919:7
	str	r1, [r4, #96]
	.loc	6 925 46                        @ ../src/driver/stm32g4-v120/src/stm32g4xx_hal_adc_ex.c:925:46
	movt	r12, :upper16:ADC_DMAHalfConvCplt
	.loc	6 928 43                        @ ../src/driver/stm32g4-v120/src/stm32g4xx_hal_adc_ex.c:928:43
	movt	lr, :upper16:ADC_DMAError
	.loc	6 922 42                        @ ../src/driver/stm32g4-v120/src/stm32g4xx_hal_adc_ex.c:922:42
	str	r3, [r0, #44]
	movs	r3, #28
.Ltmp295:
	@DEBUG_VALUE: HAL_ADCEx_MultiModeStart_DMA:tmpADC_Common <- undef
	.loc	6 925 46                        @ ../src/driver/stm32g4-v120/src/stm32g4xx_hal_adc_ex.c:925:46
	str.w	r12, [r0, #48]
	.loc	6 928 43                        @ ../src/driver/stm32g4-v120/src/stm32g4xx_hal_adc_ex.c:928:43
	str.w	lr, [r0, #52]
	.loc	6 938 7                         @ ../src/driver/stm32g4-v120/src/stm32g4xx_hal_adc_ex.c:938:7
	str	r3, [r2]
.Ltmp296:
	.loc	6 943 7                         @ ../src/driver/stm32g4-v120/src/stm32g4xx_hal_adc_ex.c:943:7
	strb.w	r1, [r4, #88]
.Ltmp297:
	.loc	6 946 7                         @ ../src/driver/stm32g4-v120/src/stm32g4xx_hal_adc_ex.c:946:7
	ldr	r1, [r2, #4]
	movw	r12, #256
	orr	r1, r1, #16
	str	r1, [r2, #4]
	movw	r1, #1804
	movt	r12, #20480
	movt	r1, #20480
	.loc	6 949 59                        @ ../src/driver/stm32g4-v120/src/stm32g4xx_hal_adc_ex.c:949:59
	add.w	r3, r12, #524
	cmp	r2, r12
	it	eq
	moveq	r1, r3
	cmp.w	r2, #1342177280
	it	eq
	moveq	r1, r3
	.loc	6 949 24 is_stmt 0              @ ../src/driver/stm32g4-v120/src/stm32g4xx_hal_adc_ex.c:949:24
	mov	r2, r6
	mov	r3, r5
	bl	HAL_DMA_Start_IT
.Ltmp298:
	.loc	6 956 40 is_stmt 1              @ ../src/driver/stm32g4-v120/src/stm32g4xx_hal_adc_ex.c:956:40
	ldr	r1, [r4]
.Ltmp299:
	@DEBUG_VALUE: LL_ADC_REG_StartConversion:ADCx <- $r1
	@DEBUG_VALUE: HAL_ADCEx_MultiModeStart_DMA:tmp_hal_status <- undef
	.loc	6 0 40 is_stmt 0                @ ../src/driver/stm32g4-v120/src/stm32g4xx_hal_adc_ex.c:0:40
	movw	r3, #65472
.Ltmp300:
	.loc	7 6805 3 is_stmt 1              @ ../src/driver/stm32g4-v120/inc/stm32g4xx_ll_adc.h:6805:3
	ldr	r2, [r1, #8]
	movt	r3, #32767
	ands	r2, r3
	adds	r2, #4
	str	r2, [r1, #8]
	b	.LBB8_3
.Ltmp301:
.Lfunc_end8:
	.size	HAL_ADCEx_MultiModeStart_DMA, .Lfunc_end8-HAL_ADCEx_MultiModeStart_DMA
	.cfi_endproc
	.cantunwind
	.fnend
                                        @ -- End function
	.section	.text.HAL_ADCEx_MultiModeStop_DMA,"ax",%progbits
	.hidden	HAL_ADCEx_MultiModeStop_DMA     @ -- Begin function HAL_ADCEx_MultiModeStop_DMA
	.globl	HAL_ADCEx_MultiModeStop_DMA
	.p2align	1
	.type	HAL_ADCEx_MultiModeStop_DMA,%function
	.code	16                              @ @HAL_ADCEx_MultiModeStop_DMA
	.thumb_func
HAL_ADCEx_MultiModeStop_DMA:
.Lfunc_begin9:
	.loc	6 983 0                         @ ../src/driver/stm32g4-v120/src/stm32g4xx_hal_adc_ex.c:983:0
	.fnstart
	.cfi_startproc
@ %bb.0:
	@DEBUG_VALUE: HAL_ADCEx_MultiModeStop_DMA:hadc <- $r0
	.save	{r4, r5, r6, lr}
	push	{r4, r5, r6, lr}
	.cfi_def_cfa_offset 16
	.cfi_offset lr, -4
	.cfi_offset r6, -8
	.cfi_offset r5, -12
	.cfi_offset r4, -16
	.pad	#152
	sub	sp, #152
	.cfi_def_cfa_offset 168
	mov	r4, r0
.Ltmp302:
	@DEBUG_VALUE: HAL_ADCEx_MultiModeStop_DMA:hadc <- $r4
	.loc	6 994 3 prologue_end            @ ../src/driver/stm32g4-v120/src/stm32g4xx_hal_adc_ex.c:994:3
	ldrb.w	r0, [r0, #88]
.Ltmp303:
	.loc	6 994 3 is_stmt 0               @ ../src/driver/stm32g4-v120/src/stm32g4xx_hal_adc_ex.c:994:3
	cmp	r0, #1
	bne	.LBB9_2
.Ltmp304:
@ %bb.1:
	@DEBUG_VALUE: HAL_ADCEx_MultiModeStop_DMA:hadc <- $r4
	.loc	6 0 3                           @ ../src/driver/stm32g4-v120/src/stm32g4xx_hal_adc_ex.c:0:3
	movs	r5, #2
	b	.LBB9_21
.Ltmp305:
.LBB9_2:
	@DEBUG_VALUE: HAL_ADCEx_MultiModeStop_DMA:hadc <- $r4
	movs	r0, #1
.Ltmp306:
	.loc	6 994 3                         @ ../src/driver/stm32g4-v120/src/stm32g4xx_hal_adc_ex.c:994:3
	strb.w	r0, [r4, #88]
.Ltmp307:
	.loc	6 998 20 is_stmt 1              @ ../src/driver/stm32g4-v120/src/stm32g4xx_hal_adc_ex.c:998:20
	mov	r0, r4
	movs	r1, #3
	bl	ADC_ConversionStop
.Ltmp308:
	mov	r5, r0
.Ltmp309:
	@DEBUG_VALUE: HAL_ADCEx_MultiModeStop_DMA:tmp_hal_status <- $r5
	.loc	6 1001 7                        @ ../src/driver/stm32g4-v120/src/stm32g4xx_hal_adc_ex.c:1001:7
	cmp	r0, #0
	bne	.LBB9_20
.Ltmp310:
@ %bb.3:
	@DEBUG_VALUE: HAL_ADCEx_MultiModeStop_DMA:tmp_hal_status <- $r5
	@DEBUG_VALUE: HAL_ADCEx_MultiModeStop_DMA:hadc <- $r4
	.loc	6 1004 5                        @ ../src/driver/stm32g4-v120/src/stm32g4xx_hal_adc_ex.c:1004:5
	ldr	r0, [r4]
	movw	r1, #1024
	movt	r1, #20480
	cmp	r0, r1
	beq	.LBB9_6
.Ltmp311:
@ %bb.4:
	@DEBUG_VALUE: HAL_ADCEx_MultiModeStop_DMA:tmp_hal_status <- $r5
	@DEBUG_VALUE: HAL_ADCEx_MultiModeStop_DMA:hadc <- $r4
	cmp.w	r0, #1342177280
	bne	.LBB9_13
.Ltmp312:
@ %bb.5:
	@DEBUG_VALUE: HAL_ADCEx_MultiModeStop_DMA:tmp_hal_status <- $r5
	@DEBUG_VALUE: HAL_ADCEx_MultiModeStop_DMA:hadc <- $r4
	.loc	6 0 5 is_stmt 0                 @ ../src/driver/stm32g4-v120/src/stm32g4xx_hal_adc_ex.c:0:5
	movw	r6, #256
	movt	r6, #20480
	b	.LBB9_7
.Ltmp313:
.LBB9_6:
	@DEBUG_VALUE: HAL_ADCEx_MultiModeStop_DMA:tmp_hal_status <- $r5
	@DEBUG_VALUE: HAL_ADCEx_MultiModeStop_DMA:hadc <- $r4
	movw	r0, #256
	movt	r0, #20480
	.loc	6 1004 5                        @ ../src/driver/stm32g4-v120/src/stm32g4xx_hal_adc_ex.c:1004:5
	add.w	r6, r0, #1024
.Ltmp314:
.LBB9_7:
	@DEBUG_VALUE: HAL_ADCEx_MultiModeStop_DMA:tmp_hal_status <- $r5
	@DEBUG_VALUE: HAL_ADCEx_MultiModeStop_DMA:hadc <- $r4
	str	r6, [sp]
	.loc	6 1021 17 is_stmt 1             @ ../src/driver/stm32g4-v120/src/stm32g4xx_hal_adc_ex.c:1021:17
	bl	HAL_GetTick
.Ltmp315:
	.loc	6 0 0 is_stmt 0                 @ ../src/driver/stm32g4-v120/src/stm32g4xx_hal_adc_ex.c:0:0
	ldr	r1, [r6, #8]
.Ltmp316:
	@DEBUG_VALUE: HAL_ADCEx_MultiModeStop_DMA:tmphadcSlave_conversion_on_going <- [DW_OP_constu 2, DW_OP_shr, DW_OP_constu 1, DW_OP_and, DW_OP_stack_value] $r1
	.loc	6 1024 50 is_stmt 1             @ ../src/driver/stm32g4-v120/src/stm32g4xx_hal_adc_ex.c:1024:50
	ldr	r2, [r4]
.Ltmp317:
	@DEBUG_VALUE: LL_ADC_REG_IsConversionOngoing:ADCx <- $r2
	.loc	7 6838 12                       @ ../src/driver/stm32g4-v120/inc/stm32g4xx_ll_adc.h:6838:12
	ldr	r2, [r2, #8]
.Ltmp318:
	.loc	6 1025 12                       @ ../src/driver/stm32g4-v120/src/stm32g4xx_hal_adc_ex.c:1025:12
	orrs	r1, r2
.Ltmp319:
	.loc	6 1024 5                        @ ../src/driver/stm32g4-v120/src/stm32g4xx_hal_adc_ex.c:1024:5
	lsls	r1, r1, #29
.Ltmp320:
	@DEBUG_VALUE: LL_ADC_REG_IsConversionOngoing:ADCx <- 0
	@DEBUG_VALUE: HAL_ADCEx_MultiModeStop_DMA:tickstart <- $r0
	@DEBUG_VALUE: HAL_ADCEx_MultiModeStop_DMA:tmphadcSlave_conversion_on_going <- [DW_OP_constu 2, DW_OP_shr, DW_OP_constu 1, DW_OP_and, DW_OP_stack_value] undef
	bpl	.LBB9_11
.Ltmp321:
@ %bb.8:
	@DEBUG_VALUE: HAL_ADCEx_MultiModeStop_DMA:tmp_hal_status <- $r5
	@DEBUG_VALUE: HAL_ADCEx_MultiModeStop_DMA:hadc <- $r4
	@DEBUG_VALUE: HAL_ADCEx_MultiModeStop_DMA:tickstart <- $r0
	@DEBUG_VALUE: LL_ADC_REG_IsConversionOngoing:ADCx <- 0
	.loc	6 0 5 is_stmt 0                 @ ../src/driver/stm32g4-v120/src/stm32g4xx_hal_adc_ex.c:0:5
	mov	r5, r0
.Ltmp322:
	@DEBUG_VALUE: HAL_ADCEx_MultiModeStop_DMA:tickstart <- $r5
	@DEBUG_VALUE: HAL_ADCEx_MultiModeStop_DMA:tickstart <- $r5
	.p2align	2
.LBB9_9:                                @ =>This Inner Loop Header: Depth=1
	@DEBUG_VALUE: HAL_ADCEx_MultiModeStop_DMA:tickstart <- $r5
	@DEBUG_VALUE: HAL_ADCEx_MultiModeStop_DMA:hadc <- $r4
	.loc	6 1028 12 is_stmt 1             @ ../src/driver/stm32g4-v120/src/stm32g4xx_hal_adc_ex.c:1028:12
	bl	HAL_GetTick
.Ltmp323:
	.loc	6 1028 26 is_stmt 0             @ ../src/driver/stm32g4-v120/src/stm32g4xx_hal_adc_ex.c:1028:26
	subs	r0, r0, r5
.Ltmp324:
	.loc	6 1028 11                       @ ../src/driver/stm32g4-v120/src/stm32g4xx_hal_adc_ex.c:1028:11
	cmp	r0, #6
	bhs	.LBB9_16
.Ltmp325:
@ %bb.10:                               @   in Loop: Header=BB9_9 Depth=1
	@DEBUG_VALUE: HAL_ADCEx_MultiModeStop_DMA:tickstart <- $r5
	@DEBUG_VALUE: HAL_ADCEx_MultiModeStop_DMA:hadc <- $r4
	@DEBUG_VALUE: HAL_ADCEx_MultiModeStop_DMA:tmphadcSlave_conversion_on_going <- [DW_OP_constu 2, DW_OP_shr, DW_OP_constu 1, DW_OP_and, DW_OP_stack_value] undef
	@DEBUG_VALUE: LL_ADC_REG_IsConversionOngoing:ADCx <- 0
	.loc	6 0 0                           @ ../src/driver/stm32g4-v120/src/stm32g4xx_hal_adc_ex.c:0:0
	ldr	r0, [r6, #8]
.Ltmp326:
	@DEBUG_VALUE: HAL_ADCEx_MultiModeStop_DMA:tmphadcSlave_conversion_on_going <- [DW_OP_constu 2, DW_OP_shr, DW_OP_constu 1, DW_OP_and, DW_OP_stack_value] $r0
	.loc	6 1024 50 is_stmt 1             @ ../src/driver/stm32g4-v120/src/stm32g4xx_hal_adc_ex.c:1024:50
	ldr	r1, [r4]
.Ltmp327:
	@DEBUG_VALUE: LL_ADC_REG_IsConversionOngoing:ADCx <- $r1
	.loc	7 6838 12                       @ ../src/driver/stm32g4-v120/inc/stm32g4xx_ll_adc.h:6838:12
	ldr	r1, [r1, #8]
.Ltmp328:
	.loc	6 1025 12                       @ ../src/driver/stm32g4-v120/src/stm32g4xx_hal_adc_ex.c:1025:12
	orrs	r0, r1
.Ltmp329:
	.loc	6 1024 5                        @ ../src/driver/stm32g4-v120/src/stm32g4xx_hal_adc_ex.c:1024:5
	lsls	r0, r0, #29
	bmi	.LBB9_9
.Ltmp330:
.LBB9_11:
	@DEBUG_VALUE: HAL_ADCEx_MultiModeStop_DMA:hadc <- $r4
	.loc	6 1046 42                       @ ../src/driver/stm32g4-v120/src/stm32g4xx_hal_adc_ex.c:1046:42
	ldr	r0, [r4, #84]
	.loc	6 1046 22 is_stmt 0             @ ../src/driver/stm32g4-v120/src/stm32g4xx_hal_adc_ex.c:1046:22
	bl	HAL_DMA_Abort
.Ltmp331:
	mov	r5, r0
.Ltmp332:
	@DEBUG_VALUE: HAL_ADCEx_MultiModeStop_DMA:tmp_hal_status <- $r5
	.loc	6 1049 9 is_stmt 1              @ ../src/driver/stm32g4-v120/src/stm32g4xx_hal_adc_ex.c:1049:9
	cmp	r0, #1
	bne	.LBB9_14
.Ltmp333:
@ %bb.12:
	@DEBUG_VALUE: HAL_ADCEx_MultiModeStop_DMA:tmp_hal_status <- $r5
	@DEBUG_VALUE: HAL_ADCEx_MultiModeStop_DMA:hadc <- $r4
	.loc	6 1056 5                        @ ../src/driver/stm32g4-v120/src/stm32g4xx_hal_adc_ex.c:1056:5
	ldr	r0, [r4]
.Ltmp334:
	.loc	6 1052 7                        @ ../src/driver/stm32g4-v120/src/stm32g4xx_hal_adc_ex.c:1052:7
	ldr	r1, [r4, #92]
	orr	r1, r1, #64
	str	r1, [r4, #92]
.Ltmp335:
	.loc	6 1056 5                        @ ../src/driver/stm32g4-v120/src/stm32g4xx_hal_adc_ex.c:1056:5
	ldr	r1, [r0, #4]
	bic	r1, r1, #16
	str	r1, [r0, #4]
	b	.LBB9_15
.Ltmp336:
.LBB9_13:
	@DEBUG_VALUE: HAL_ADCEx_MultiModeStop_DMA:tmp_hal_status <- $r5
	@DEBUG_VALUE: HAL_ADCEx_MultiModeStop_DMA:hadc <- $r4
	.loc	6 1009 7                        @ ../src/driver/stm32g4-v120/src/stm32g4xx_hal_adc_ex.c:1009:7
	mov	r0, r4
	ldr	r1, [r0, #92]!
	movs	r5, #1
.Ltmp337:
	orr	r1, r1, #32
	b	.LBB9_19
.Ltmp338:
.LBB9_14:
	@DEBUG_VALUE: HAL_ADCEx_MultiModeStop_DMA:tmp_hal_status <- $r5
	@DEBUG_VALUE: HAL_ADCEx_MultiModeStop_DMA:hadc <- $r4
	.loc	6 1056 5                        @ ../src/driver/stm32g4-v120/src/stm32g4xx_hal_adc_ex.c:1056:5
	ldr	r0, [r4]
	ldr	r1, [r0, #4]
	bic	r1, r1, #16
	str	r1, [r0, #4]
	.loc	6 1061 9                        @ ../src/driver/stm32g4-v120/src/stm32g4xx_hal_adc_ex.c:1061:9
	cbz	r5, .LBB9_17
.Ltmp339:
.LBB9_15:
	@DEBUG_VALUE: HAL_ADCEx_MultiModeStop_DMA:tmp_hal_status <- $r5
	@DEBUG_VALUE: HAL_ADCEx_MultiModeStop_DMA:hadc <- $r4
	.loc	6 1073 14                       @ ../src/driver/stm32g4-v120/src/stm32g4xx_hal_adc_ex.c:1073:14
	mov	r0, r4
	bl	ADC_Disable
.Ltmp340:
	.loc	6 0 14 is_stmt 0                @ ../src/driver/stm32g4-v120/src/stm32g4xx_hal_adc_ex.c:0:14
	mov	r0, sp
	b	.LBB9_18
.Ltmp341:
.LBB9_16:
	@DEBUG_VALUE: HAL_ADCEx_MultiModeStop_DMA:tickstart <- $r5
	@DEBUG_VALUE: HAL_ADCEx_MultiModeStop_DMA:hadc <- $r4
	.loc	6 1031 9 is_stmt 1              @ ../src/driver/stm32g4-v120/src/stm32g4xx_hal_adc_ex.c:1031:9
	mov	r0, r4
	ldr	r1, [r0, #92]!
	movs	r5, #1
.Ltmp342:
	orr	r1, r1, #16
	b	.LBB9_19
.Ltmp343:
.LBB9_17:
	@DEBUG_VALUE: HAL_ADCEx_MultiModeStop_DMA:tmp_hal_status <- $r5
	@DEBUG_VALUE: HAL_ADCEx_MultiModeStop_DMA:hadc <- $r4
	.loc	6 0 9 is_stmt 0                 @ ../src/driver/stm32g4-v120/src/stm32g4xx_hal_adc_ex.c:0:9
	mov	r0, sp
.Ltmp344:
	.loc	6 1063 37 is_stmt 1             @ ../src/driver/stm32g4-v120/src/stm32g4xx_hal_adc_ex.c:1063:37
	bl	ADC_Disable
.Ltmp345:
	@DEBUG_VALUE: HAL_ADCEx_MultiModeStop_DMA:tmphadcSlave_disable_status <- undef
	.loc	6 0 37 is_stmt 0                @ ../src/driver/stm32g4-v120/src/stm32g4xx_hal_adc_ex.c:0:37
	mov	r0, r4
.Ltmp346:
.LBB9_18:
	@DEBUG_VALUE: HAL_ADCEx_MultiModeStop_DMA:tmp_hal_status <- $r5
	@DEBUG_VALUE: HAL_ADCEx_MultiModeStop_DMA:hadc <- $r4
	bl	ADC_Disable
.Ltmp347:
	@DEBUG_VALUE: HAL_ADCEx_MultiModeStop_DMA:tmp_hal_status <- $r5
	.loc	6 1078 5 is_stmt 1              @ ../src/driver/stm32g4-v120/src/stm32g4xx_hal_adc_ex.c:1078:5
	mov	r0, r4
	ldr	r1, [r0, #92]!
	movw	r2, #4353
	bics	r1, r2
	adds	r1, #1
.Ltmp348:
.LBB9_19:
	@DEBUG_VALUE: HAL_ADCEx_MultiModeStop_DMA:hadc <- $r4
	.loc	6 0 0 is_stmt 0                 @ ../src/driver/stm32g4-v120/src/stm32g4xx_hal_adc_ex.c:0:0
	str	r1, [r0]
.Ltmp349:
.LBB9_20:
	@DEBUG_VALUE: HAL_ADCEx_MultiModeStop_DMA:hadc <- $r4
	movs	r0, #0
	strb.w	r0, [r4, #88]
.Ltmp350:
.LBB9_21:
	@DEBUG_VALUE: HAL_ADCEx_MultiModeStop_DMA:hadc <- $r4
	.loc	6 1088 1 is_stmt 1              @ ../src/driver/stm32g4-v120/src/stm32g4xx_hal_adc_ex.c:1088:1
	mov	r0, r5
	add	sp, #152
	pop	{r4, r5, r6, pc}
.Ltmp351:
.Lfunc_end9:
	.size	HAL_ADCEx_MultiModeStop_DMA, .Lfunc_end9-HAL_ADCEx_MultiModeStop_DMA
	.cfi_endproc
	.cantunwind
	.fnend
                                        @ -- End function
	.section	.text.HAL_ADCEx_MultiModeGetValue,"ax",%progbits
	.hidden	HAL_ADCEx_MultiModeGetValue     @ -- Begin function HAL_ADCEx_MultiModeGetValue
	.globl	HAL_ADCEx_MultiModeGetValue
	.p2align	1
	.type	HAL_ADCEx_MultiModeGetValue,%function
	.code	16                              @ @HAL_ADCEx_MultiModeGetValue
	.thumb_func
HAL_ADCEx_MultiModeGetValue:
.Lfunc_begin10:
	.loc	6 1096 0                        @ ../src/driver/stm32g4-v120/src/stm32g4xx_hal_adc_ex.c:1096:0
	.fnstart
	.cfi_startproc
@ %bb.0:
	@DEBUG_VALUE: HAL_ADCEx_MultiModeGetValue:hadc <- $r0
	@DEBUG_VALUE: HAL_ADCEx_MultiModeGetValue:hadc <- $r0
	.loc	6 1107 19 prologue_end          @ ../src/driver/stm32g4-v120/src/stm32g4xx_hal_adc_ex.c:1107:19
	ldr	r0, [r0]
.Ltmp352:
	@DEBUG_VALUE: HAL_ADCEx_MultiModeGetValue:hadc <- [DW_OP_LLVM_entry_value 1] $r0
	.loc	6 0 19 is_stmt 0                @ ../src/driver/stm32g4-v120/src/stm32g4xx_hal_adc_ex.c:0:19
	movw	r1, #256
	movw	r3, #1804
	movt	r1, #20480
.Ltmp353:
	@DEBUG_VALUE: HAL_ADCEx_MultiModeGetValue:tmpADC_Common <- undef
	movt	r3, #20480
	.loc	6 1110 25 is_stmt 1             @ ../src/driver/stm32g4-v120/src/stm32g4xx_hal_adc_ex.c:1110:25
	add.w	r2, r1, #524
	cmp	r0, r1
	it	eq
	moveq	r3, r2
	cmp.w	r0, #1342177280
	it	eq
	moveq	r3, r2
	ldr	r0, [r3]
	.loc	6 1110 3 is_stmt 0              @ ../src/driver/stm32g4-v120/src/stm32g4xx_hal_adc_ex.c:1110:3
	bx	lr
.Ltmp354:
.Lfunc_end10:
	.size	HAL_ADCEx_MultiModeGetValue, .Lfunc_end10-HAL_ADCEx_MultiModeGetValue
	.cfi_endproc
	.cantunwind
	.fnend
                                        @ -- End function
	.section	.text.HAL_ADCEx_InjectedGetValue,"ax",%progbits
	.hidden	HAL_ADCEx_InjectedGetValue      @ -- Begin function HAL_ADCEx_InjectedGetValue
	.globl	HAL_ADCEx_InjectedGetValue
	.p2align	1
	.type	HAL_ADCEx_InjectedGetValue,%function
	.code	16                              @ @HAL_ADCEx_InjectedGetValue
	.thumb_func
HAL_ADCEx_InjectedGetValue:
.Lfunc_begin11:
	.loc	6 1143 0 is_stmt 1              @ ../src/driver/stm32g4-v120/src/stm32g4xx_hal_adc_ex.c:1143:0
	.fnstart
	.cfi_startproc
@ %bb.0:
	@DEBUG_VALUE: HAL_ADCEx_InjectedGetValue:hadc <- $r0
	@DEBUG_VALUE: HAL_ADCEx_InjectedGetValue:InjectedRank <- $r1
	movw	r2, #271
	@DEBUG_VALUE: HAL_ADCEx_InjectedGetValue:InjectedRank <- $r1
.Ltmp355:
	.loc	6 1151 3 prologue_end           @ ../src/driver/stm32g4-v120/src/stm32g4xx_hal_adc_ex.c:1151:3
	cmp	r1, r2
	@DEBUG_VALUE: HAL_ADCEx_InjectedGetValue:hadc <- $r0
	beq	.LBB11_3
.Ltmp356:
@ %bb.1:
	@DEBUG_VALUE: HAL_ADCEx_InjectedGetValue:InjectedRank <- $r1
	@DEBUG_VALUE: HAL_ADCEx_InjectedGetValue:hadc <- $r0
	.loc	6 0 3 is_stmt 0                 @ ../src/driver/stm32g4-v120/src/stm32g4xx_hal_adc_ex.c:0:3
	movw	r2, #533
	.loc	6 1151 3                        @ ../src/driver/stm32g4-v120/src/stm32g4xx_hal_adc_ex.c:1151:3
	cmp	r1, r2
	beq	.LBB11_4
.Ltmp357:
@ %bb.2:
	@DEBUG_VALUE: HAL_ADCEx_InjectedGetValue:InjectedRank <- $r1
	@DEBUG_VALUE: HAL_ADCEx_InjectedGetValue:hadc <- $r0
	.loc	6 0 3                           @ ../src/driver/stm32g4-v120/src/stm32g4xx_hal_adc_ex.c:0:3
	movw	r2, #795
.Ltmp358:
	.loc	6 1164 23 is_stmt 1             @ ../src/driver/stm32g4-v120/src/stm32g4xx_hal_adc_ex.c:1164:23
	ldr	r0, [r0]
.Ltmp359:
	@DEBUG_VALUE: HAL_ADCEx_InjectedGetValue:hadc <- [DW_OP_LLVM_entry_value 1] $r0
	.loc	6 1151 3                        @ ../src/driver/stm32g4-v120/src/stm32g4xx_hal_adc_ex.c:1151:3
	cmp	r1, r2
.Ltmp360:
	.loc	6 1164 33                       @ ../src/driver/stm32g4-v120/src/stm32g4xx_hal_adc_ex.c:1164:33
	ite	ne
	addne	r0, #128
	.loc	6 1154 33                       @ ../src/driver/stm32g4-v120/src/stm32g4xx_hal_adc_ex.c:1154:33
	addeq	r0, #140
.Ltmp361:
	@DEBUG_VALUE: HAL_ADCEx_InjectedGetValue:tmp_jdr <- undef
	.loc	6 0 33 is_stmt 0                @ ../src/driver/stm32g4-v120/src/stm32g4xx_hal_adc_ex.c:0:33
	b	.LBB11_5
.Ltmp362:
.LBB11_3:
	@DEBUG_VALUE: HAL_ADCEx_InjectedGetValue:InjectedRank <- $r1
	@DEBUG_VALUE: HAL_ADCEx_InjectedGetValue:hadc <- $r0
	.loc	6 1160 23 is_stmt 1             @ ../src/driver/stm32g4-v120/src/stm32g4xx_hal_adc_ex.c:1160:23
	ldr	r0, [r0]
.Ltmp363:
	@DEBUG_VALUE: HAL_ADCEx_InjectedGetValue:hadc <- [DW_OP_LLVM_entry_value 1] $r0
	.loc	6 1160 33 is_stmt 0             @ ../src/driver/stm32g4-v120/src/stm32g4xx_hal_adc_ex.c:1160:33
	adds	r0, #132
.Ltmp364:
	@DEBUG_VALUE: HAL_ADCEx_InjectedGetValue:tmp_jdr <- undef
	.loc	6 0 33                          @ ../src/driver/stm32g4-v120/src/stm32g4xx_hal_adc_ex.c:0:33
	b	.LBB11_5
.Ltmp365:
.LBB11_4:
	@DEBUG_VALUE: HAL_ADCEx_InjectedGetValue:InjectedRank <- $r1
	@DEBUG_VALUE: HAL_ADCEx_InjectedGetValue:hadc <- $r0
	.loc	6 1157 23 is_stmt 1             @ ../src/driver/stm32g4-v120/src/stm32g4xx_hal_adc_ex.c:1157:23
	ldr	r0, [r0]
.Ltmp366:
	@DEBUG_VALUE: HAL_ADCEx_InjectedGetValue:hadc <- [DW_OP_LLVM_entry_value 1] $r0
	.loc	6 1157 33 is_stmt 0             @ ../src/driver/stm32g4-v120/src/stm32g4xx_hal_adc_ex.c:1157:33
	adds	r0, #136
.Ltmp367:
	@DEBUG_VALUE: HAL_ADCEx_InjectedGetValue:tmp_jdr <- undef
.LBB11_5:
	@DEBUG_VALUE: HAL_ADCEx_InjectedGetValue:InjectedRank <- $r1
	@DEBUG_VALUE: HAL_ADCEx_InjectedGetValue:hadc <- [DW_OP_LLVM_entry_value 1] $r0
	.loc	6 0 0                           @ ../src/driver/stm32g4-v120/src/stm32g4xx_hal_adc_ex.c:0:0
	ldr	r0, [r0]
.Ltmp368:
	@DEBUG_VALUE: HAL_ADCEx_InjectedGetValue:tmp_jdr <- $r0
	.loc	6 1169 3 is_stmt 1              @ ../src/driver/stm32g4-v120/src/stm32g4xx_hal_adc_ex.c:1169:3
	bx	lr
.Ltmp369:
.Lfunc_end11:
	.size	HAL_ADCEx_InjectedGetValue, .Lfunc_end11-HAL_ADCEx_InjectedGetValue
	.cfi_endproc
	.cantunwind
	.fnend
                                        @ -- End function
	.section	.text.HAL_ADCEx_InjectedConvCpltCallback,"ax",%progbits
	.hidden	HAL_ADCEx_InjectedConvCpltCallback @ -- Begin function HAL_ADCEx_InjectedConvCpltCallback
	.weak	HAL_ADCEx_InjectedConvCpltCallback
	.p2align	1
	.type	HAL_ADCEx_InjectedConvCpltCallback,%function
	.code	16                              @ @HAL_ADCEx_InjectedConvCpltCallback
	.thumb_func
HAL_ADCEx_InjectedConvCpltCallback:
.Lfunc_begin12:
	.loc	6 1178 0                        @ ../src/driver/stm32g4-v120/src/stm32g4xx_hal_adc_ex.c:1178:0
	.fnstart
	.cfi_startproc
@ %bb.0:
	@DEBUG_VALUE: HAL_ADCEx_InjectedConvCpltCallback:hadc <- $r0
	.loc	6 1185 1 prologue_end           @ ../src/driver/stm32g4-v120/src/stm32g4xx_hal_adc_ex.c:1185:1
	bx	lr
.Ltmp370:
.Lfunc_end12:
	.size	HAL_ADCEx_InjectedConvCpltCallback, .Lfunc_end12-HAL_ADCEx_InjectedConvCpltCallback
	.cfi_endproc
	.cantunwind
	.fnend
                                        @ -- End function
	.section	.text.HAL_ADCEx_InjectedQueueOverflowCallback,"ax",%progbits
	.hidden	HAL_ADCEx_InjectedQueueOverflowCallback @ -- Begin function HAL_ADCEx_InjectedQueueOverflowCallback
	.weak	HAL_ADCEx_InjectedQueueOverflowCallback
	.p2align	1
	.type	HAL_ADCEx_InjectedQueueOverflowCallback,%function
	.code	16                              @ @HAL_ADCEx_InjectedQueueOverflowCallback
	.thumb_func
HAL_ADCEx_InjectedQueueOverflowCallback:
.Lfunc_begin13:
	.loc	6 1197 0                        @ ../src/driver/stm32g4-v120/src/stm32g4xx_hal_adc_ex.c:1197:0
	.fnstart
	.cfi_startproc
@ %bb.0:
	@DEBUG_VALUE: HAL_ADCEx_InjectedQueueOverflowCallback:hadc <- $r0
	.loc	6 1204 1 prologue_end           @ ../src/driver/stm32g4-v120/src/stm32g4xx_hal_adc_ex.c:1204:1
	bx	lr
.Ltmp371:
.Lfunc_end13:
	.size	HAL_ADCEx_InjectedQueueOverflowCallback, .Lfunc_end13-HAL_ADCEx_InjectedQueueOverflowCallback
	.cfi_endproc
	.cantunwind
	.fnend
                                        @ -- End function
	.section	.text.HAL_ADCEx_LevelOutOfWindow2Callback,"ax",%progbits
	.hidden	HAL_ADCEx_LevelOutOfWindow2Callback @ -- Begin function HAL_ADCEx_LevelOutOfWindow2Callback
	.weak	HAL_ADCEx_LevelOutOfWindow2Callback
	.p2align	1
	.type	HAL_ADCEx_LevelOutOfWindow2Callback,%function
	.code	16                              @ @HAL_ADCEx_LevelOutOfWindow2Callback
	.thumb_func
HAL_ADCEx_LevelOutOfWindow2Callback:
.Lfunc_begin14:
	.loc	6 1212 0                        @ ../src/driver/stm32g4-v120/src/stm32g4xx_hal_adc_ex.c:1212:0
	.fnstart
	.cfi_startproc
@ %bb.0:
	@DEBUG_VALUE: HAL_ADCEx_LevelOutOfWindow2Callback:hadc <- $r0
	.loc	6 1219 1 prologue_end           @ ../src/driver/stm32g4-v120/src/stm32g4xx_hal_adc_ex.c:1219:1
	bx	lr
.Ltmp372:
.Lfunc_end14:
	.size	HAL_ADCEx_LevelOutOfWindow2Callback, .Lfunc_end14-HAL_ADCEx_LevelOutOfWindow2Callback
	.cfi_endproc
	.cantunwind
	.fnend
                                        @ -- End function
	.section	.text.HAL_ADCEx_LevelOutOfWindow3Callback,"ax",%progbits
	.hidden	HAL_ADCEx_LevelOutOfWindow3Callback @ -- Begin function HAL_ADCEx_LevelOutOfWindow3Callback
	.weak	HAL_ADCEx_LevelOutOfWindow3Callback
	.p2align	1
	.type	HAL_ADCEx_LevelOutOfWindow3Callback,%function
	.code	16                              @ @HAL_ADCEx_LevelOutOfWindow3Callback
	.thumb_func
HAL_ADCEx_LevelOutOfWindow3Callback:
.Lfunc_begin15:
	.loc	6 1227 0                        @ ../src/driver/stm32g4-v120/src/stm32g4xx_hal_adc_ex.c:1227:0
	.fnstart
	.cfi_startproc
@ %bb.0:
	@DEBUG_VALUE: HAL_ADCEx_LevelOutOfWindow3Callback:hadc <- $r0
	.loc	6 1234 1 prologue_end           @ ../src/driver/stm32g4-v120/src/stm32g4xx_hal_adc_ex.c:1234:1
	bx	lr
.Ltmp373:
.Lfunc_end15:
	.size	HAL_ADCEx_LevelOutOfWindow3Callback, .Lfunc_end15-HAL_ADCEx_LevelOutOfWindow3Callback
	.cfi_endproc
	.cantunwind
	.fnend
                                        @ -- End function
	.section	.text.HAL_ADCEx_EndOfSamplingCallback,"ax",%progbits
	.hidden	HAL_ADCEx_EndOfSamplingCallback @ -- Begin function HAL_ADCEx_EndOfSamplingCallback
	.weak	HAL_ADCEx_EndOfSamplingCallback
	.p2align	1
	.type	HAL_ADCEx_EndOfSamplingCallback,%function
	.code	16                              @ @HAL_ADCEx_EndOfSamplingCallback
	.thumb_func
HAL_ADCEx_EndOfSamplingCallback:
.Lfunc_begin16:
	.loc	6 1243 0                        @ ../src/driver/stm32g4-v120/src/stm32g4xx_hal_adc_ex.c:1243:0
	.fnstart
	.cfi_startproc
@ %bb.0:
	@DEBUG_VALUE: HAL_ADCEx_EndOfSamplingCallback:hadc <- $r0
	.loc	6 1250 1 prologue_end           @ ../src/driver/stm32g4-v120/src/stm32g4xx_hal_adc_ex.c:1250:1
	bx	lr
.Ltmp374:
.Lfunc_end16:
	.size	HAL_ADCEx_EndOfSamplingCallback, .Lfunc_end16-HAL_ADCEx_EndOfSamplingCallback
	.cfi_endproc
	.cantunwind
	.fnend
                                        @ -- End function
	.section	.text.HAL_ADCEx_RegularStop,"ax",%progbits
	.hidden	HAL_ADCEx_RegularStop           @ -- Begin function HAL_ADCEx_RegularStop
	.globl	HAL_ADCEx_RegularStop
	.p2align	1
	.type	HAL_ADCEx_RegularStop,%function
	.code	16                              @ @HAL_ADCEx_RegularStop
	.thumb_func
HAL_ADCEx_RegularStop:
.Lfunc_begin17:
	.loc	6 1260 0                        @ ../src/driver/stm32g4-v120/src/stm32g4xx_hal_adc_ex.c:1260:0
	.fnstart
	.cfi_startproc
@ %bb.0:
	@DEBUG_VALUE: HAL_ADCEx_RegularStop:hadc <- $r0
	.save	{r4, lr}
	push	{r4, lr}
	.cfi_def_cfa_offset 8
	.cfi_offset lr, -4
	.cfi_offset r4, -8
	mov	r4, r0
.Ltmp375:
	@DEBUG_VALUE: HAL_ADCEx_RegularStop:hadc <- $r4
	.loc	6 1267 3 prologue_end           @ ../src/driver/stm32g4-v120/src/stm32g4xx_hal_adc_ex.c:1267:3
	ldrb.w	r0, [r0, #88]
.Ltmp376:
	.loc	6 1267 3 is_stmt 0              @ ../src/driver/stm32g4-v120/src/stm32g4xx_hal_adc_ex.c:1267:3
	cmp	r0, #1
	itt	eq
	moveq	r0, #2
.Ltmp377:
	.loc	6 1306 1 is_stmt 1              @ ../src/driver/stm32g4-v120/src/stm32g4xx_hal_adc_ex.c:1306:1
	popeq	{r4, pc}
.Ltmp378:
.LBB17_1:
	.loc	6 0 1 is_stmt 0                 @ ../src/driver/stm32g4-v120/src/stm32g4xx_hal_adc_ex.c:0:1
	movs	r0, #1
.Ltmp379:
	.loc	6 1267 3 is_stmt 1              @ ../src/driver/stm32g4-v120/src/stm32g4xx_hal_adc_ex.c:1267:3
	strb.w	r0, [r4, #88]
.Ltmp380:
	.loc	6 1270 20                       @ ../src/driver/stm32g4-v120/src/stm32g4xx_hal_adc_ex.c:1270:20
	mov	r0, r4
	movs	r1, #1
	bl	ADC_ConversionStop
.Ltmp381:
	@DEBUG_VALUE: HAL_ADCEx_RegularStop:tmp_hal_status <- $r0
	.loc	6 1274 7                        @ ../src/driver/stm32g4-v120/src/stm32g4xx_hal_adc_ex.c:1274:7
	cbnz	r0, .LBB17_7
.Ltmp382:
@ %bb.2:
	@DEBUG_VALUE: HAL_ADCEx_RegularStop:tmp_hal_status <- $r0
	.loc	6 1279 46                       @ ../src/driver/stm32g4-v120/src/stm32g4xx_hal_adc_ex.c:1279:46
	ldr	r0, [r4]
.Ltmp383:
	.loc	6 1277 5                        @ ../src/driver/stm32g4-v120/src/stm32g4xx_hal_adc_ex.c:1277:5
	ldr	r1, [r4, #92]
	bic	r1, r1, #256
	str	r1, [r4, #92]
.Ltmp384:
	@DEBUG_VALUE: LL_ADC_INJ_IsConversionOngoing:ADCx <- $r0
	.loc	7 7063 12                       @ ../src/driver/stm32g4-v120/inc/stm32g4xx_ll_adc.h:7063:12
	ldr	r0, [r0, #8]
.Ltmp385:
	.loc	6 1279 9                        @ ../src/driver/stm32g4-v120/src/stm32g4xx_hal_adc_ex.c:1279:9
	lsls	r0, r0, #28
	bmi	.LBB17_5
@ %bb.3:
.Ltmp386:
	.loc	6 1282 24                       @ ../src/driver/stm32g4-v120/src/stm32g4xx_hal_adc_ex.c:1282:24
	mov	r0, r4
	bl	ADC_Disable
.Ltmp387:
	@DEBUG_VALUE: HAL_ADCEx_RegularStop:tmp_hal_status <- $r0
	.loc	6 1285 11                       @ ../src/driver/stm32g4-v120/src/stm32g4xx_hal_adc_ex.c:1285:11
	cbnz	r0, .LBB17_7
.Ltmp388:
@ %bb.4:
	@DEBUG_VALUE: HAL_ADCEx_RegularStop:tmp_hal_status <- $r0
	.loc	6 1288 9                        @ ../src/driver/stm32g4-v120/src/stm32g4xx_hal_adc_ex.c:1288:9
	ldr	r0, [r4, #92]
.Ltmp389:
	.loc	6 0 9 is_stmt 0                 @ ../src/driver/stm32g4-v120/src/stm32g4xx_hal_adc_ex.c:0:9
	movw	r1, #4097
	.loc	6 1288 9                        @ ../src/driver/stm32g4-v120/src/stm32g4xx_hal_adc_ex.c:1288:9
	bics	r0, r1
	adds	r0, #1
	b	.LBB17_6
.Ltmp390:
.LBB17_5:
	.loc	6 1297 7 is_stmt 1              @ ../src/driver/stm32g4-v120/src/stm32g4xx_hal_adc_ex.c:1297:7
	ldr	r0, [r4, #92]
	orr	r0, r0, #4096
.Ltmp391:
.LBB17_6:
	.loc	6 0 0 is_stmt 0                 @ ../src/driver/stm32g4-v120/src/stm32g4xx_hal_adc_ex.c:0:0
	str	r0, [r4, #92]
	movs	r0, #0
.Ltmp392:
.LBB17_7:
	@DEBUG_VALUE: HAL_ADCEx_RegularStop:tmp_hal_status <- $r0
	movs	r1, #0
.Ltmp393:
	.loc	6 1302 3 is_stmt 1              @ ../src/driver/stm32g4-v120/src/stm32g4xx_hal_adc_ex.c:1302:3
	strb.w	r1, [r4, #88]
.Ltmp394:
	.loc	6 1306 1                        @ ../src/driver/stm32g4-v120/src/stm32g4xx_hal_adc_ex.c:1306:1
	pop	{r4, pc}
.Ltmp395:
.Lfunc_end17:
	.size	HAL_ADCEx_RegularStop, .Lfunc_end17-HAL_ADCEx_RegularStop
	.cfi_endproc
	.cantunwind
	.fnend
                                        @ -- End function
	.section	.text.HAL_ADCEx_RegularStop_IT,"ax",%progbits
	.hidden	HAL_ADCEx_RegularStop_IT        @ -- Begin function HAL_ADCEx_RegularStop_IT
	.globl	HAL_ADCEx_RegularStop_IT
	.p2align	1
	.type	HAL_ADCEx_RegularStop_IT,%function
	.code	16                              @ @HAL_ADCEx_RegularStop_IT
	.thumb_func
HAL_ADCEx_RegularStop_IT:
.Lfunc_begin18:
	.loc	6 1318 0                        @ ../src/driver/stm32g4-v120/src/stm32g4xx_hal_adc_ex.c:1318:0
	.fnstart
	.cfi_startproc
@ %bb.0:
	@DEBUG_VALUE: HAL_ADCEx_RegularStop_IT:hadc <- $r0
	.save	{r4, lr}
	push	{r4, lr}
	.cfi_def_cfa_offset 8
	.cfi_offset lr, -4
	.cfi_offset r4, -8
	mov	r4, r0
.Ltmp396:
	@DEBUG_VALUE: HAL_ADCEx_RegularStop_IT:hadc <- $r4
	.loc	6 1325 3 prologue_end           @ ../src/driver/stm32g4-v120/src/stm32g4xx_hal_adc_ex.c:1325:3
	ldrb.w	r0, [r0, #88]
.Ltmp397:
	.loc	6 1325 3 is_stmt 0              @ ../src/driver/stm32g4-v120/src/stm32g4xx_hal_adc_ex.c:1325:3
	cmp	r0, #1
	itt	eq
	moveq	r0, #2
.Ltmp398:
	.loc	6 1364 1 is_stmt 1              @ ../src/driver/stm32g4-v120/src/stm32g4xx_hal_adc_ex.c:1364:1
	popeq	{r4, pc}
.Ltmp399:
.LBB18_1:
	.loc	6 0 1 is_stmt 0                 @ ../src/driver/stm32g4-v120/src/stm32g4xx_hal_adc_ex.c:0:1
	movs	r0, #1
.Ltmp400:
	.loc	6 1325 3 is_stmt 1              @ ../src/driver/stm32g4-v120/src/stm32g4xx_hal_adc_ex.c:1325:3
	strb.w	r0, [r4, #88]
.Ltmp401:
	.loc	6 1328 20                       @ ../src/driver/stm32g4-v120/src/stm32g4xx_hal_adc_ex.c:1328:20
	mov	r0, r4
	movs	r1, #1
	bl	ADC_ConversionStop
.Ltmp402:
	@DEBUG_VALUE: HAL_ADCEx_RegularStop_IT:tmp_hal_status <- $r0
	.loc	6 1332 7                        @ ../src/driver/stm32g4-v120/src/stm32g4xx_hal_adc_ex.c:1332:7
	cbnz	r0, .LBB18_7
.Ltmp403:
@ %bb.2:
	@DEBUG_VALUE: HAL_ADCEx_RegularStop_IT:tmp_hal_status <- $r0
	.loc	6 1338 5                        @ ../src/driver/stm32g4-v120/src/stm32g4xx_hal_adc_ex.c:1338:5
	ldr	r0, [r4]
.Ltmp404:
	.loc	6 1335 5                        @ ../src/driver/stm32g4-v120/src/stm32g4xx_hal_adc_ex.c:1335:5
	ldr	r1, [r4, #92]
	bic	r1, r1, #256
	str	r1, [r4, #92]
	.loc	6 1338 5                        @ ../src/driver/stm32g4-v120/src/stm32g4xx_hal_adc_ex.c:1338:5
	ldr	r1, [r0, #4]
	bic	r1, r1, #28
	str	r1, [r0, #4]
.Ltmp405:
	@DEBUG_VALUE: LL_ADC_INJ_IsConversionOngoing:ADCx <- $r0
	.loc	7 7063 12                       @ ../src/driver/stm32g4-v120/inc/stm32g4xx_ll_adc.h:7063:12
	ldr	r0, [r0, #8]
.Ltmp406:
	.loc	6 1341 9                        @ ../src/driver/stm32g4-v120/src/stm32g4xx_hal_adc_ex.c:1341:9
	lsls	r0, r0, #28
	bmi	.LBB18_5
@ %bb.3:
.Ltmp407:
	.loc	6 1343 24                       @ ../src/driver/stm32g4-v120/src/stm32g4xx_hal_adc_ex.c:1343:24
	mov	r0, r4
	bl	ADC_Disable
.Ltmp408:
	@DEBUG_VALUE: HAL_ADCEx_RegularStop_IT:tmp_hal_status <- $r0
	.loc	6 1345 11                       @ ../src/driver/stm32g4-v120/src/stm32g4xx_hal_adc_ex.c:1345:11
	cbnz	r0, .LBB18_7
.Ltmp409:
@ %bb.4:
	@DEBUG_VALUE: HAL_ADCEx_RegularStop_IT:tmp_hal_status <- $r0
	.loc	6 1348 9                        @ ../src/driver/stm32g4-v120/src/stm32g4xx_hal_adc_ex.c:1348:9
	ldr	r0, [r4, #92]
.Ltmp410:
	.loc	6 0 9 is_stmt 0                 @ ../src/driver/stm32g4-v120/src/stm32g4xx_hal_adc_ex.c:0:9
	movw	r1, #4097
	.loc	6 1348 9                        @ ../src/driver/stm32g4-v120/src/stm32g4xx_hal_adc_ex.c:1348:9
	bics	r0, r1
	adds	r0, #1
	b	.LBB18_6
.Ltmp411:
.LBB18_5:
	.loc	6 1355 7 is_stmt 1              @ ../src/driver/stm32g4-v120/src/stm32g4xx_hal_adc_ex.c:1355:7
	ldr	r0, [r4, #92]
	orr	r0, r0, #4096
.Ltmp412:
.LBB18_6:
	.loc	6 0 0 is_stmt 0                 @ ../src/driver/stm32g4-v120/src/stm32g4xx_hal_adc_ex.c:0:0
	str	r0, [r4, #92]
	movs	r0, #0
.Ltmp413:
.LBB18_7:
	@DEBUG_VALUE: HAL_ADCEx_RegularStop_IT:tmp_hal_status <- $r0
	movs	r1, #0
.Ltmp414:
	.loc	6 1360 3 is_stmt 1              @ ../src/driver/stm32g4-v120/src/stm32g4xx_hal_adc_ex.c:1360:3
	strb.w	r1, [r4, #88]
.Ltmp415:
	.loc	6 1364 1                        @ ../src/driver/stm32g4-v120/src/stm32g4xx_hal_adc_ex.c:1364:1
	pop	{r4, pc}
.Ltmp416:
.Lfunc_end18:
	.size	HAL_ADCEx_RegularStop_IT, .Lfunc_end18-HAL_ADCEx_RegularStop_IT
	.cfi_endproc
	.cantunwind
	.fnend
                                        @ -- End function
	.section	.text.HAL_ADCEx_RegularStop_DMA,"ax",%progbits
	.hidden	HAL_ADCEx_RegularStop_DMA       @ -- Begin function HAL_ADCEx_RegularStop_DMA
	.globl	HAL_ADCEx_RegularStop_DMA
	.p2align	1
	.type	HAL_ADCEx_RegularStop_DMA,%function
	.code	16                              @ @HAL_ADCEx_RegularStop_DMA
	.thumb_func
HAL_ADCEx_RegularStop_DMA:
.Lfunc_begin19:
	.loc	6 1378 0                        @ ../src/driver/stm32g4-v120/src/stm32g4xx_hal_adc_ex.c:1378:0
	.fnstart
	.cfi_startproc
@ %bb.0:
	@DEBUG_VALUE: HAL_ADCEx_RegularStop_DMA:hadc <- $r0
	.save	{r4, r5, r7, lr}
	push	{r4, r5, r7, lr}
	.cfi_def_cfa_offset 16
	.cfi_offset lr, -4
	.cfi_offset r7, -8
	.cfi_offset r5, -12
	.cfi_offset r4, -16
	mov	r4, r0
.Ltmp417:
	@DEBUG_VALUE: HAL_ADCEx_RegularStop_DMA:hadc <- $r4
	.loc	6 1385 3 prologue_end           @ ../src/driver/stm32g4-v120/src/stm32g4xx_hal_adc_ex.c:1385:3
	ldrb.w	r0, [r0, #88]
.Ltmp418:
	.loc	6 1385 3 is_stmt 0              @ ../src/driver/stm32g4-v120/src/stm32g4xx_hal_adc_ex.c:1385:3
	cmp	r0, #1
	bne	.LBB19_2
.Ltmp419:
@ %bb.1:
	@DEBUG_VALUE: HAL_ADCEx_RegularStop_DMA:hadc <- $r4
	.loc	6 0 3                           @ ../src/driver/stm32g4-v120/src/stm32g4xx_hal_adc_ex.c:0:3
	movs	r5, #2
	b	.LBB19_11
.Ltmp420:
.LBB19_2:
	@DEBUG_VALUE: HAL_ADCEx_RegularStop_DMA:hadc <- $r4
	movs	r0, #1
.Ltmp421:
	.loc	6 1385 3                        @ ../src/driver/stm32g4-v120/src/stm32g4xx_hal_adc_ex.c:1385:3
	strb.w	r0, [r4, #88]
.Ltmp422:
	.loc	6 1388 20 is_stmt 1             @ ../src/driver/stm32g4-v120/src/stm32g4xx_hal_adc_ex.c:1388:20
	mov	r0, r4
	movs	r1, #1
	bl	ADC_ConversionStop
.Ltmp423:
	mov	r5, r0
.Ltmp424:
	@DEBUG_VALUE: HAL_ADCEx_RegularStop_DMA:tmp_hal_status <- $r5
	.loc	6 1392 7                        @ ../src/driver/stm32g4-v120/src/stm32g4xx_hal_adc_ex.c:1392:7
	cbnz	r0, .LBB19_10
.Ltmp425:
@ %bb.3:
	@DEBUG_VALUE: HAL_ADCEx_RegularStop_DMA:tmp_hal_status <- $r5
	@DEBUG_VALUE: HAL_ADCEx_RegularStop_DMA:hadc <- $r4
	.loc	6 1398 5                        @ ../src/driver/stm32g4-v120/src/stm32g4xx_hal_adc_ex.c:1398:5
	ldr	r1, [r4]
	.loc	6 1402 42                       @ ../src/driver/stm32g4-v120/src/stm32g4xx_hal_adc_ex.c:1402:42
	ldr	r0, [r4, #84]
	.loc	6 1395 5                        @ ../src/driver/stm32g4-v120/src/stm32g4xx_hal_adc_ex.c:1395:5
	ldr	r2, [r4, #92]
	bic	r2, r2, #256
	str	r2, [r4, #92]
	.loc	6 1398 5                        @ ../src/driver/stm32g4-v120/src/stm32g4xx_hal_adc_ex.c:1398:5
	ldr	r2, [r1, #12]
	bic	r2, r2, #1
	str	r2, [r1, #12]
	.loc	6 1402 22                       @ ../src/driver/stm32g4-v120/src/stm32g4xx_hal_adc_ex.c:1402:22
	bl	HAL_DMA_Abort
.Ltmp426:
	mov	r5, r0
.Ltmp427:
	@DEBUG_VALUE: HAL_ADCEx_RegularStop_DMA:tmp_hal_status <- $r5
	.loc	6 1405 9                        @ ../src/driver/stm32g4-v120/src/stm32g4xx_hal_adc_ex.c:1405:9
	cbz	r0, .LBB19_5
.Ltmp428:
@ %bb.4:
	@DEBUG_VALUE: HAL_ADCEx_RegularStop_DMA:tmp_hal_status <- $r5
	@DEBUG_VALUE: HAL_ADCEx_RegularStop_DMA:hadc <- $r4
	.loc	6 1408 7                        @ ../src/driver/stm32g4-v120/src/stm32g4xx_hal_adc_ex.c:1408:7
	ldr	r0, [r4, #92]
	orr	r0, r0, #64
	str	r0, [r4, #92]
.Ltmp429:
.LBB19_5:
	@DEBUG_VALUE: HAL_ADCEx_RegularStop_DMA:tmp_hal_status <- $r5
	@DEBUG_VALUE: HAL_ADCEx_RegularStop_DMA:hadc <- $r4
	.loc	6 1412 5                        @ ../src/driver/stm32g4-v120/src/stm32g4xx_hal_adc_ex.c:1412:5
	ldr	r0, [r4]
	ldr	r1, [r0, #4]
	bic	r1, r1, #16
	str	r1, [r0, #4]
.Ltmp430:
	@DEBUG_VALUE: LL_ADC_INJ_IsConversionOngoing:ADCx <- $r0
	.loc	7 7063 12                       @ ../src/driver/stm32g4-v120/inc/stm32g4xx_ll_adc.h:7063:12
	ldr	r0, [r0, #8]
.Ltmp431:
	.loc	6 1417 9                        @ ../src/driver/stm32g4-v120/src/stm32g4xx_hal_adc_ex.c:1417:9
	lsls	r0, r0, #28
	bmi	.LBB19_9
.Ltmp432:
@ %bb.6:
	@DEBUG_VALUE: HAL_ADCEx_RegularStop_DMA:tmp_hal_status <- $r5
	@DEBUG_VALUE: HAL_ADCEx_RegularStop_DMA:hadc <- $r4
	.loc	6 0 0 is_stmt 0                 @ ../src/driver/stm32g4-v120/src/stm32g4xx_hal_adc_ex.c:0:0
	mov	r0, r4
	bl	ADC_Disable
.Ltmp433:
	@DEBUG_VALUE: HAL_ADCEx_RegularStop_DMA:tmp_hal_status <- undef
	.loc	6 1419 11 is_stmt 1             @ ../src/driver/stm32g4-v120/src/stm32g4xx_hal_adc_ex.c:1419:11
	cbnz	r5, .LBB19_10
.Ltmp434:
@ %bb.7:
	@DEBUG_VALUE: HAL_ADCEx_RegularStop_DMA:hadc <- $r4
	.loc	6 0 0 is_stmt 0                 @ ../src/driver/stm32g4-v120/src/stm32g4xx_hal_adc_ex.c:0:0
	mov	r5, r0
.Ltmp435:
	.loc	6 1429 11 is_stmt 1             @ ../src/driver/stm32g4-v120/src/stm32g4xx_hal_adc_ex.c:1429:11
	cbnz	r0, .LBB19_10
.Ltmp436:
@ %bb.8:
	@DEBUG_VALUE: HAL_ADCEx_RegularStop_DMA:hadc <- $r4
	.loc	6 1432 9                        @ ../src/driver/stm32g4-v120/src/stm32g4xx_hal_adc_ex.c:1432:9
	ldr	r0, [r4, #92]
	movw	r1, #4097
	bics	r0, r1
	adds	r0, #1
	str	r0, [r4, #92]
	movs	r5, #0
	b	.LBB19_10
.Ltmp437:
.LBB19_9:
	@DEBUG_VALUE: HAL_ADCEx_RegularStop_DMA:tmp_hal_status <- $r5
	@DEBUG_VALUE: HAL_ADCEx_RegularStop_DMA:hadc <- $r4
	.loc	6 1439 7                        @ ../src/driver/stm32g4-v120/src/stm32g4xx_hal_adc_ex.c:1439:7
	ldr	r0, [r4, #92]
	orr	r0, r0, #4096
	str	r0, [r4, #92]
.Ltmp438:
.LBB19_10:
	@DEBUG_VALUE: HAL_ADCEx_RegularStop_DMA:hadc <- $r4
	@DEBUG_VALUE: HAL_ADCEx_RegularStop_DMA:tmp_hal_status <- $r5
	.loc	6 0 7 is_stmt 0                 @ ../src/driver/stm32g4-v120/src/stm32g4xx_hal_adc_ex.c:0:7
	movs	r0, #0
.Ltmp439:
	.loc	6 1444 3 is_stmt 1              @ ../src/driver/stm32g4-v120/src/stm32g4xx_hal_adc_ex.c:1444:3
	strb.w	r0, [r4, #88]
.Ltmp440:
.LBB19_11:
	@DEBUG_VALUE: HAL_ADCEx_RegularStop_DMA:hadc <- $r4
	.loc	6 1448 1                        @ ../src/driver/stm32g4-v120/src/stm32g4xx_hal_adc_ex.c:1448:1
	mov	r0, r5
	pop	{r4, r5, r7, pc}
.Ltmp441:
.Lfunc_end19:
	.size	HAL_ADCEx_RegularStop_DMA, .Lfunc_end19-HAL_ADCEx_RegularStop_DMA
	.cfi_endproc
	.cantunwind
	.fnend
                                        @ -- End function
	.section	.text.HAL_ADCEx_RegularMultiModeStop_DMA,"ax",%progbits
	.hidden	HAL_ADCEx_RegularMultiModeStop_DMA @ -- Begin function HAL_ADCEx_RegularMultiModeStop_DMA
	.globl	HAL_ADCEx_RegularMultiModeStop_DMA
	.p2align	1
	.type	HAL_ADCEx_RegularMultiModeStop_DMA,%function
	.code	16                              @ @HAL_ADCEx_RegularMultiModeStop_DMA
	.thumb_func
HAL_ADCEx_RegularMultiModeStop_DMA:
.Lfunc_begin20:
	.loc	6 1465 0                        @ ../src/driver/stm32g4-v120/src/stm32g4xx_hal_adc_ex.c:1465:0
	.fnstart
	.cfi_startproc
@ %bb.0:
	@DEBUG_VALUE: HAL_ADCEx_RegularMultiModeStop_DMA:hadc <- $r0
	.save	{r4, r5, r6, lr}
	push	{r4, r5, r6, lr}
	.cfi_def_cfa_offset 16
	.cfi_offset lr, -4
	.cfi_offset r6, -8
	.cfi_offset r5, -12
	.cfi_offset r4, -16
	.pad	#152
	sub	sp, #152
	.cfi_def_cfa_offset 168
	mov	r4, r0
.Ltmp442:
	@DEBUG_VALUE: HAL_ADCEx_RegularMultiModeStop_DMA:hadc <- $r4
	.loc	6 1475 3 prologue_end           @ ../src/driver/stm32g4-v120/src/stm32g4xx_hal_adc_ex.c:1475:3
	ldrb.w	r0, [r0, #88]
.Ltmp443:
	.loc	6 1475 3 is_stmt 0              @ ../src/driver/stm32g4-v120/src/stm32g4xx_hal_adc_ex.c:1475:3
	cmp	r0, #1
	bne	.LBB20_2
.Ltmp444:
@ %bb.1:
	@DEBUG_VALUE: HAL_ADCEx_RegularMultiModeStop_DMA:hadc <- $r4
	.loc	6 0 3                           @ ../src/driver/stm32g4-v120/src/stm32g4xx_hal_adc_ex.c:0:3
	movs	r0, #2
	b	.LBB20_22
.Ltmp445:
.LBB20_2:
	@DEBUG_VALUE: HAL_ADCEx_RegularMultiModeStop_DMA:hadc <- $r4
	movs	r0, #1
.Ltmp446:
	.loc	6 1475 3                        @ ../src/driver/stm32g4-v120/src/stm32g4xx_hal_adc_ex.c:1475:3
	strb.w	r0, [r4, #88]
.Ltmp447:
	.loc	6 1479 20 is_stmt 1             @ ../src/driver/stm32g4-v120/src/stm32g4xx_hal_adc_ex.c:1479:20
	mov	r0, r4
	movs	r1, #1
	bl	ADC_ConversionStop
.Ltmp448:
	@DEBUG_VALUE: HAL_ADCEx_RegularMultiModeStop_DMA:tmp_hal_status <- $r0
	.loc	6 1482 7                        @ ../src/driver/stm32g4-v120/src/stm32g4xx_hal_adc_ex.c:1482:7
	cmp	r0, #0
	bne	.LBB20_21
.Ltmp449:
@ %bb.3:
	@DEBUG_VALUE: HAL_ADCEx_RegularMultiModeStop_DMA:hadc <- $r4
	@DEBUG_VALUE: HAL_ADCEx_RegularMultiModeStop_DMA:tmp_hal_status <- $r0
	.loc	6 1488 5                        @ ../src/driver/stm32g4-v120/src/stm32g4xx_hal_adc_ex.c:1488:5
	ldr	r0, [r4]
.Ltmp450:
	.loc	6 1485 5                        @ ../src/driver/stm32g4-v120/src/stm32g4xx_hal_adc_ex.c:1485:5
	ldr	r1, [r4, #92]
	movw	r2, #1024
	movt	r2, #20480
	bic	r1, r1, #256
	.loc	6 1488 5                        @ ../src/driver/stm32g4-v120/src/stm32g4xx_hal_adc_ex.c:1488:5
	cmp	r0, r2
	.loc	6 1485 5                        @ ../src/driver/stm32g4-v120/src/stm32g4xx_hal_adc_ex.c:1485:5
	str	r1, [r4, #92]
	.loc	6 1488 5                        @ ../src/driver/stm32g4-v120/src/stm32g4xx_hal_adc_ex.c:1488:5
	beq	.LBB20_6
.Ltmp451:
@ %bb.4:
	@DEBUG_VALUE: HAL_ADCEx_RegularMultiModeStop_DMA:hadc <- $r4
	cmp.w	r0, #1342177280
	bne	.LBB20_13
.Ltmp452:
@ %bb.5:
	@DEBUG_VALUE: HAL_ADCEx_RegularMultiModeStop_DMA:hadc <- $r4
	.loc	6 0 5 is_stmt 0                 @ ../src/driver/stm32g4-v120/src/stm32g4xx_hal_adc_ex.c:0:5
	movw	r6, #256
	movt	r6, #20480
	b	.LBB20_7
.Ltmp453:
.LBB20_6:
	@DEBUG_VALUE: HAL_ADCEx_RegularMultiModeStop_DMA:hadc <- $r4
	movw	r0, #256
	movt	r0, #20480
	.loc	6 1488 5                        @ ../src/driver/stm32g4-v120/src/stm32g4xx_hal_adc_ex.c:1488:5
	add.w	r6, r0, #1024
.Ltmp454:
.LBB20_7:
	@DEBUG_VALUE: HAL_ADCEx_RegularMultiModeStop_DMA:hadc <- $r4
	str	r6, [sp]
	.loc	6 1505 17 is_stmt 1             @ ../src/driver/stm32g4-v120/src/stm32g4xx_hal_adc_ex.c:1505:17
	bl	HAL_GetTick
.Ltmp455:
	.loc	6 0 0 is_stmt 0                 @ ../src/driver/stm32g4-v120/src/stm32g4xx_hal_adc_ex.c:0:0
	ldr	r1, [r6, #8]
.Ltmp456:
	@DEBUG_VALUE: HAL_ADCEx_RegularMultiModeStop_DMA:tmphadcSlave_conversion_on_going <- [DW_OP_constu 2, DW_OP_shr, DW_OP_constu 1, DW_OP_and, DW_OP_stack_value] $r1
	.loc	6 1508 50 is_stmt 1             @ ../src/driver/stm32g4-v120/src/stm32g4xx_hal_adc_ex.c:1508:50
	ldr	r2, [r4]
.Ltmp457:
	@DEBUG_VALUE: LL_ADC_REG_IsConversionOngoing:ADCx <- $r2
	.loc	7 6838 12                       @ ../src/driver/stm32g4-v120/inc/stm32g4xx_ll_adc.h:6838:12
	ldr	r2, [r2, #8]
.Ltmp458:
	.loc	6 1509 12                       @ ../src/driver/stm32g4-v120/src/stm32g4xx_hal_adc_ex.c:1509:12
	orrs	r1, r2
.Ltmp459:
	.loc	6 1508 5                        @ ../src/driver/stm32g4-v120/src/stm32g4xx_hal_adc_ex.c:1508:5
	lsls	r1, r1, #29
.Ltmp460:
	@DEBUG_VALUE: LL_ADC_REG_IsConversionOngoing:ADCx <- 0
	@DEBUG_VALUE: HAL_ADCEx_RegularMultiModeStop_DMA:tickstart <- $r0
	@DEBUG_VALUE: HAL_ADCEx_RegularMultiModeStop_DMA:tmphadcSlave_conversion_on_going <- [DW_OP_constu 2, DW_OP_shr, DW_OP_constu 1, DW_OP_and, DW_OP_stack_value] undef
	bpl	.LBB20_11
.Ltmp461:
@ %bb.8:
	@DEBUG_VALUE: HAL_ADCEx_RegularMultiModeStop_DMA:hadc <- $r4
	@DEBUG_VALUE: HAL_ADCEx_RegularMultiModeStop_DMA:tickstart <- $r0
	@DEBUG_VALUE: LL_ADC_REG_IsConversionOngoing:ADCx <- 0
	.loc	6 0 5 is_stmt 0                 @ ../src/driver/stm32g4-v120/src/stm32g4xx_hal_adc_ex.c:0:5
	mov	r5, r0
.Ltmp462:
	@DEBUG_VALUE: HAL_ADCEx_RegularMultiModeStop_DMA:tickstart <- $r5
	@DEBUG_VALUE: HAL_ADCEx_RegularMultiModeStop_DMA:tickstart <- $r5
	.p2align	2
.LBB20_9:                               @ =>This Inner Loop Header: Depth=1
	@DEBUG_VALUE: HAL_ADCEx_RegularMultiModeStop_DMA:tickstart <- $r5
	@DEBUG_VALUE: HAL_ADCEx_RegularMultiModeStop_DMA:hadc <- $r4
	.loc	6 1512 12 is_stmt 1             @ ../src/driver/stm32g4-v120/src/stm32g4xx_hal_adc_ex.c:1512:12
	bl	HAL_GetTick
.Ltmp463:
	.loc	6 1512 26 is_stmt 0             @ ../src/driver/stm32g4-v120/src/stm32g4xx_hal_adc_ex.c:1512:26
	subs	r0, r0, r5
.Ltmp464:
	.loc	6 1512 11                       @ ../src/driver/stm32g4-v120/src/stm32g4xx_hal_adc_ex.c:1512:11
	cmp	r0, #6
	bhs	.LBB20_19
.Ltmp465:
@ %bb.10:                               @   in Loop: Header=BB20_9 Depth=1
	@DEBUG_VALUE: HAL_ADCEx_RegularMultiModeStop_DMA:tickstart <- $r5
	@DEBUG_VALUE: HAL_ADCEx_RegularMultiModeStop_DMA:hadc <- $r4
	@DEBUG_VALUE: HAL_ADCEx_RegularMultiModeStop_DMA:tmphadcSlave_conversion_on_going <- [DW_OP_constu 2, DW_OP_shr, DW_OP_constu 1, DW_OP_and, DW_OP_stack_value] undef
	@DEBUG_VALUE: LL_ADC_REG_IsConversionOngoing:ADCx <- 0
	.loc	6 0 0                           @ ../src/driver/stm32g4-v120/src/stm32g4xx_hal_adc_ex.c:0:0
	ldr	r0, [r6, #8]
.Ltmp466:
	@DEBUG_VALUE: HAL_ADCEx_RegularMultiModeStop_DMA:tmphadcSlave_conversion_on_going <- [DW_OP_constu 2, DW_OP_shr, DW_OP_constu 1, DW_OP_and, DW_OP_stack_value] $r0
	.loc	6 1508 50 is_stmt 1             @ ../src/driver/stm32g4-v120/src/stm32g4xx_hal_adc_ex.c:1508:50
	ldr	r1, [r4]
.Ltmp467:
	@DEBUG_VALUE: LL_ADC_REG_IsConversionOngoing:ADCx <- $r1
	.loc	7 6838 12                       @ ../src/driver/stm32g4-v120/inc/stm32g4xx_ll_adc.h:6838:12
	ldr	r1, [r1, #8]
.Ltmp468:
	.loc	6 1509 12                       @ ../src/driver/stm32g4-v120/src/stm32g4xx_hal_adc_ex.c:1509:12
	orrs	r0, r1
.Ltmp469:
	.loc	6 1508 5                        @ ../src/driver/stm32g4-v120/src/stm32g4xx_hal_adc_ex.c:1508:5
	lsls	r0, r0, #29
	bmi	.LBB20_9
.Ltmp470:
.LBB20_11:
	@DEBUG_VALUE: HAL_ADCEx_RegularMultiModeStop_DMA:hadc <- $r4
	.loc	6 1530 42                       @ ../src/driver/stm32g4-v120/src/stm32g4xx_hal_adc_ex.c:1530:42
	ldr	r0, [r4, #84]
	.loc	6 1530 22 is_stmt 0             @ ../src/driver/stm32g4-v120/src/stm32g4xx_hal_adc_ex.c:1530:22
	bl	HAL_DMA_Abort
.Ltmp471:
	@DEBUG_VALUE: HAL_ADCEx_RegularMultiModeStop_DMA:tmp_hal_status <- $r0
	.loc	6 1533 9 is_stmt 1              @ ../src/driver/stm32g4-v120/src/stm32g4xx_hal_adc_ex.c:1533:9
	cbz	r0, .LBB20_14
.Ltmp472:
@ %bb.12:
	@DEBUG_VALUE: HAL_ADCEx_RegularMultiModeStop_DMA:hadc <- $r4
	@DEBUG_VALUE: HAL_ADCEx_RegularMultiModeStop_DMA:tmp_hal_status <- $r0
	.loc	6 1540 5                        @ ../src/driver/stm32g4-v120/src/stm32g4xx_hal_adc_ex.c:1540:5
	ldr	r1, [r4]
	@DEBUG_VALUE: LL_ADC_INJ_IsConversionOngoing:ADCx <- $r1
.Ltmp473:
	.loc	6 1536 7                        @ ../src/driver/stm32g4-v120/src/stm32g4xx_hal_adc_ex.c:1536:7
	ldr	r2, [r4, #92]
	orr	r2, r2, #64
	str	r2, [r4, #92]
.Ltmp474:
	.loc	6 1540 5                        @ ../src/driver/stm32g4-v120/src/stm32g4xx_hal_adc_ex.c:1540:5
	ldr	r2, [r1, #4]
	bic	r2, r2, #16
	str	r2, [r1, #4]
	b	.LBB20_21
.Ltmp475:
.LBB20_13:
	@DEBUG_VALUE: HAL_ADCEx_RegularMultiModeStop_DMA:hadc <- $r4
	.loc	6 1493 7                        @ ../src/driver/stm32g4-v120/src/stm32g4xx_hal_adc_ex.c:1493:7
	ldr	r0, [r4, #92]
	orr	r0, r0, #32
	b	.LBB20_20
.Ltmp476:
.LBB20_14:
	@DEBUG_VALUE: HAL_ADCEx_RegularMultiModeStop_DMA:hadc <- $r4
	@DEBUG_VALUE: HAL_ADCEx_RegularMultiModeStop_DMA:tmp_hal_status <- $r0
	.loc	6 1540 5                        @ ../src/driver/stm32g4-v120/src/stm32g4xx_hal_adc_ex.c:1540:5
	ldr	r0, [r4]
.Ltmp477:
	ldr	r1, [r0, #4]
	bic	r1, r1, #16
	str	r1, [r0, #4]
.Ltmp478:
	.loc	7 7063 12                       @ ../src/driver/stm32g4-v120/inc/stm32g4xx_ll_adc.h:7063:12
	ldr	r0, [r0, #8]
.Ltmp479:
	.loc	6 1548 11                       @ ../src/driver/stm32g4-v120/src/stm32g4xx_hal_adc_ex.c:1548:11
	lsls	r0, r0, #28
	bmi	.LBB20_18
.Ltmp480:
@ %bb.15:
	@DEBUG_VALUE: HAL_ADCEx_RegularMultiModeStop_DMA:hadc <- $r4
	.loc	6 1550 27                       @ ../src/driver/stm32g4-v120/src/stm32g4xx_hal_adc_ex.c:1550:27
	mov	r0, r4
	bl	ADC_Disable
.Ltmp481:
	@DEBUG_VALUE: HAL_ADCEx_RegularMultiModeStop_DMA:tmp_hal_status <- $r0
	.loc	6 1551 13                       @ ../src/driver/stm32g4-v120/src/stm32g4xx_hal_adc_ex.c:1551:13
	cbnz	r0, .LBB20_21
.Ltmp482:
@ %bb.16:
	@DEBUG_VALUE: HAL_ADCEx_RegularMultiModeStop_DMA:hadc <- $r4
	@DEBUG_VALUE: HAL_ADCEx_RegularMultiModeStop_DMA:tmp_hal_status <- $r0
	@DEBUG_VALUE: LL_ADC_INJ_IsConversionOngoing:ADCx <- 0
	.loc	7 7063 12                       @ ../src/driver/stm32g4-v120/inc/stm32g4xx_ll_adc.h:7063:12
	ldr	r0, [r6, #8]
.Ltmp483:
	.loc	6 1553 15                       @ ../src/driver/stm32g4-v120/src/stm32g4xx_hal_adc_ex.c:1553:15
	lsls	r0, r0, #28
	bmi	.LBB20_18
.Ltmp484:
@ %bb.17:
	@DEBUG_VALUE: HAL_ADCEx_RegularMultiModeStop_DMA:hadc <- $r4
	.loc	6 0 15 is_stmt 0                @ ../src/driver/stm32g4-v120/src/stm32g4xx_hal_adc_ex.c:0:15
	mov	r0, sp
.Ltmp485:
	.loc	6 1555 31 is_stmt 1             @ ../src/driver/stm32g4-v120/src/stm32g4xx_hal_adc_ex.c:1555:31
	bl	ADC_Disable
.Ltmp486:
	@DEBUG_VALUE: HAL_ADCEx_RegularMultiModeStop_DMA:tmp_hal_status <- $r0
	.loc	6 1560 11                       @ ../src/driver/stm32g4-v120/src/stm32g4xx_hal_adc_ex.c:1560:11
	cbnz	r0, .LBB20_21
.Ltmp487:
.LBB20_18:
	@DEBUG_VALUE: HAL_ADCEx_RegularMultiModeStop_DMA:hadc <- $r4
	.loc	6 1564 9                        @ ../src/driver/stm32g4-v120/src/stm32g4xx_hal_adc_ex.c:1564:9
	ldr	r0, [r4, #92]
	movw	r1, #4097
	bics	r0, r1
	adds	r0, #1
	str	r0, [r4, #92]
	movs	r0, #0
	b	.LBB20_21
.Ltmp488:
.LBB20_19:
	@DEBUG_VALUE: HAL_ADCEx_RegularMultiModeStop_DMA:tickstart <- $r5
	@DEBUG_VALUE: HAL_ADCEx_RegularMultiModeStop_DMA:hadc <- $r4
	.loc	6 1515 9                        @ ../src/driver/stm32g4-v120/src/stm32g4xx_hal_adc_ex.c:1515:9
	ldr	r0, [r4, #92]
	orr	r0, r0, #16
.Ltmp489:
.LBB20_20:
	@DEBUG_VALUE: HAL_ADCEx_RegularMultiModeStop_DMA:hadc <- $r4
	.loc	6 0 0 is_stmt 0                 @ ../src/driver/stm32g4-v120/src/stm32g4xx_hal_adc_ex.c:0:0
	str	r0, [r4, #92]
	movs	r0, #1
.Ltmp490:
.LBB20_21:
	@DEBUG_VALUE: HAL_ADCEx_RegularMultiModeStop_DMA:hadc <- $r4
	movs	r1, #0
	strb.w	r1, [r4, #88]
.Ltmp491:
.LBB20_22:
	@DEBUG_VALUE: HAL_ADCEx_RegularMultiModeStop_DMA:hadc <- $r4
	.loc	6 1579 1 is_stmt 1              @ ../src/driver/stm32g4-v120/src/stm32g4xx_hal_adc_ex.c:1579:1
	add	sp, #152
	pop	{r4, r5, r6, pc}
.Ltmp492:
.Lfunc_end20:
	.size	HAL_ADCEx_RegularMultiModeStop_DMA, .Lfunc_end20-HAL_ADCEx_RegularMultiModeStop_DMA
	.cfi_endproc
	.cantunwind
	.fnend
                                        @ -- End function
	.section	.text.HAL_ADCEx_InjectedConfigChannel,"ax",%progbits
	.hidden	HAL_ADCEx_InjectedConfigChannel @ -- Begin function HAL_ADCEx_InjectedConfigChannel
	.globl	HAL_ADCEx_InjectedConfigChannel
	.p2align	1
	.type	HAL_ADCEx_InjectedConfigChannel,%function
	.code	16                              @ @HAL_ADCEx_InjectedConfigChannel
	.thumb_func
HAL_ADCEx_InjectedConfigChannel:
.Lfunc_begin21:
	.loc	6 1639 0                        @ ../src/driver/stm32g4-v120/src/stm32g4xx_hal_adc_ex.c:1639:0
	.fnstart
	.cfi_startproc
@ %bb.0:
	@DEBUG_VALUE: HAL_ADCEx_InjectedConfigChannel:hadc <- $r0
	@DEBUG_VALUE: HAL_ADCEx_InjectedConfigChannel:sConfigInjected <- $r1
	.save	{r4, r5, r6, r7, r8, lr}
	push.w	{r4, r5, r6, r7, r8, lr}
	.cfi_def_cfa_offset 24
	.cfi_offset lr, -4
	.cfi_offset r8, -8
	.cfi_offset r7, -12
	.cfi_offset r6, -16
	.cfi_offset r5, -20
	.cfi_offset r4, -24
	.pad	#4
	sub	sp, #4
	.cfi_def_cfa_offset 28
	movs	r2, #0
.Ltmp493:
	@DEBUG_VALUE: HAL_ADCEx_InjectedConfigChannel:tmp_hal_status <- 0
	@DEBUG_VALUE: HAL_ADCEx_InjectedConfigChannel:hadc <- $r0
	.loc	6 1645 17 prologue_end          @ ../src/driver/stm32g4-v120/src/stm32g4xx_hal_adc_ex.c:1645:17
	str	r2, [sp]
.Ltmp494:
	@DEBUG_VALUE: HAL_ADCEx_InjectedConfigChannel:tmp_JSQR_ContextQueueBeingBuilt <- 0
	.loc	6 1692 3                        @ ../src/driver/stm32g4-v120/src/stm32g4xx_hal_adc_ex.c:1692:3
	ldrb.w	r2, [r0, #88]
.Ltmp495:
	.loc	6 1692 3 is_stmt 0              @ ../src/driver/stm32g4-v120/src/stm32g4xx_hal_adc_ex.c:1692:3
	cmp	r2, #1
	@DEBUG_VALUE: HAL_ADCEx_InjectedConfigChannel:sConfigInjected <- $r1
	bne	.LBB21_2
.Ltmp496:
@ %bb.1:
	@DEBUG_VALUE: HAL_ADCEx_InjectedConfigChannel:sConfigInjected <- $r1
	@DEBUG_VALUE: HAL_ADCEx_InjectedConfigChannel:hadc <- $r0
	@DEBUG_VALUE: HAL_ADCEx_InjectedConfigChannel:tmp_JSQR_ContextQueueBeingBuilt <- 0
	@DEBUG_VALUE: HAL_ADCEx_InjectedConfigChannel:tmp_hal_status <- 0
	.loc	6 0 3                           @ ../src/driver/stm32g4-v120/src/stm32g4xx_hal_adc_ex.c:0:3
	mov.w	r12, #2
	b	.LBB21_72
.Ltmp497:
.LBB21_2:
	@DEBUG_VALUE: HAL_ADCEx_InjectedConfigChannel:sConfigInjected <- $r1
	@DEBUG_VALUE: HAL_ADCEx_InjectedConfigChannel:hadc <- $r0
	@DEBUG_VALUE: HAL_ADCEx_InjectedConfigChannel:tmp_JSQR_ContextQueueBeingBuilt <- 0
	@DEBUG_VALUE: HAL_ADCEx_InjectedConfigChannel:tmp_hal_status <- 0
	.loc	6 1715 19 is_stmt 1             @ ../src/driver/stm32g4-v120/src/stm32g4xx_hal_adc_ex.c:1715:19
	ldr	r2, [r0, #20]
	movs	r3, #1
.Ltmp498:
	.loc	6 1692 3                        @ ../src/driver/stm32g4-v120/src/stm32g4xx_hal_adc_ex.c:1692:3
	strb.w	r3, [r0, #88]
.Ltmp499:
	.loc	6 1715 54                       @ ../src/driver/stm32g4-v120/src/stm32g4xx_hal_adc_ex.c:1715:54
	cbz	r2, .LBB21_4
.Ltmp500:
@ %bb.3:
	@DEBUG_VALUE: HAL_ADCEx_InjectedConfigChannel:sConfigInjected <- $r1
	@DEBUG_VALUE: HAL_ADCEx_InjectedConfigChannel:hadc <- $r0
	@DEBUG_VALUE: HAL_ADCEx_InjectedConfigChannel:tmp_JSQR_ContextQueueBeingBuilt <- 0
	@DEBUG_VALUE: HAL_ADCEx_InjectedConfigChannel:tmp_hal_status <- 0
	.loc	6 1716 25                       @ ../src/driver/stm32g4-v120/src/stm32g4xx_hal_adc_ex.c:1716:25
	ldr	r6, [r1, #32]
.Ltmp501:
	.loc	6 1715 7                        @ ../src/driver/stm32g4-v120/src/stm32g4xx_hal_adc_ex.c:1715:7
	cmp	r6, #1
	bne	.LBB21_8
.Ltmp502:
.LBB21_4:
	@DEBUG_VALUE: HAL_ADCEx_InjectedConfigChannel:sConfigInjected <- $r1
	@DEBUG_VALUE: HAL_ADCEx_InjectedConfigChannel:hadc <- $r0
	@DEBUG_VALUE: HAL_ADCEx_InjectedConfigChannel:tmp_JSQR_ContextQueueBeingBuilt <- 0
	@DEBUG_VALUE: HAL_ADCEx_InjectedConfigChannel:tmp_hal_status <- 0
	.loc	6 1725 26                       @ ../src/driver/stm32g4-v120/src/stm32g4xx_hal_adc_ex.c:1725:26
	ldr	r2, [r1, #4]
.Ltmp503:
	.loc	6 1725 9 is_stmt 0              @ ../src/driver/stm32g4-v120/src/stm32g4xx_hal_adc_ex.c:1725:9
	cmp	r2, #9
	bne	.LBB21_15
.Ltmp504:
@ %bb.5:
	@DEBUG_VALUE: HAL_ADCEx_InjectedConfigChannel:sConfigInjected <- $r1
	@DEBUG_VALUE: HAL_ADCEx_InjectedConfigChannel:hadc <- $r0
	@DEBUG_VALUE: HAL_ADCEx_InjectedConfigChannel:tmp_JSQR_ContextQueueBeingBuilt <- 0
	@DEBUG_VALUE: HAL_ADCEx_InjectedConfigChannel:tmp_hal_status <- 0
	.loc	6 0 0                           @ ../src/driver/stm32g4-v120/src/stm32g4xx_hal_adc_ex.c:0:0
	ldr	r2, [r1]
	.loc	6 1732 28 is_stmt 1             @ ../src/driver/stm32g4-v120/src/stm32g4xx_hal_adc_ex.c:1732:28
	ldr	r3, [r1, #40]
	mov.w	r7, #15872
	.loc	6 0 0 is_stmt 0                 @ ../src/driver/stm32g4-v120/src/stm32g4xx_hal_adc_ex.c:0:0
	and.w	r2, r7, r2, lsr #17
.Ltmp505:
	.loc	6 1732 11                       @ ../src/driver/stm32g4-v120/src/stm32g4xx_hal_adc_ex.c:1732:11
	cbz	r3, .LBB21_7
.Ltmp506:
@ %bb.6:
	@DEBUG_VALUE: HAL_ADCEx_InjectedConfigChannel:sConfigInjected <- $r1
	@DEBUG_VALUE: HAL_ADCEx_InjectedConfigChannel:hadc <- $r0
	@DEBUG_VALUE: HAL_ADCEx_InjectedConfigChannel:tmp_JSQR_ContextQueueBeingBuilt <- 0
	@DEBUG_VALUE: HAL_ADCEx_InjectedConfigChannel:tmp_hal_status <- 0
	.loc	6 1736 63 is_stmt 1             @ ../src/driver/stm32g4-v120/src/stm32g4xx_hal_adc_ex.c:1736:63
	ldr	r7, [r1, #44]
	.loc	6 1735 86                       @ ../src/driver/stm32g4-v120/src/stm32g4xx_hal_adc_ex.c:1735:86
	and	r3, r3, #124
	.loc	6 1735 44 is_stmt 0             @ ../src/driver/stm32g4-v120/src/stm32g4xx_hal_adc_ex.c:1735:44
	orrs	r3, r7
	.loc	6 1736 44 is_stmt 1             @ ../src/driver/stm32g4-v120/src/stm32g4xx_hal_adc_ex.c:1736:44
	orrs	r2, r3
.Ltmp507:
	@DEBUG_VALUE: HAL_ADCEx_InjectedConfigChannel:tmp_JSQR_ContextQueueBeingBuilt <- $r2
.LBB21_7:
	@DEBUG_VALUE: HAL_ADCEx_InjectedConfigChannel:sConfigInjected <- $r1
	@DEBUG_VALUE: HAL_ADCEx_InjectedConfigChannel:hadc <- $r0
	@DEBUG_VALUE: HAL_ADCEx_InjectedConfigChannel:tmp_hal_status <- 0
	@DEBUG_VALUE: HAL_ADCEx_InjectedConfigChannel:tmp_JSQR_ContextQueueBeingBuilt <- $r2
	.loc	6 1744 7                        @ ../src/driver/stm32g4-v120/src/stm32g4xx_hal_adc_ex.c:1744:7
	ldr	r3, [r0]
	movw	r6, #16384
	ldr	r7, [r3, #76]
	movt	r6, #1040
	ands	r7, r6
	orrs	r7, r2
	str	r7, [r3, #76]
	.loc	6 1746 42                       @ ../src/driver/stm32g4-v120/src/stm32g4xx_hal_adc_ex.c:1746:42
	str	r2, [r0, #100]
	b	.LBB21_15
.Ltmp508:
.LBB21_8:
	@DEBUG_VALUE: HAL_ADCEx_InjectedConfigChannel:sConfigInjected <- $r1
	@DEBUG_VALUE: HAL_ADCEx_InjectedConfigChannel:hadc <- $r0
	@DEBUG_VALUE: HAL_ADCEx_InjectedConfigChannel:tmp_JSQR_ContextQueueBeingBuilt <- 0
	@DEBUG_VALUE: HAL_ADCEx_InjectedConfigChannel:tmp_hal_status <- 0
	.loc	6 1762 31                       @ ../src/driver/stm32g4-v120/src/stm32g4xx_hal_adc_ex.c:1762:31
	ldr	r7, [r0, #104]
.Ltmp509:
	.loc	6 1762 9 is_stmt 0              @ ../src/driver/stm32g4-v120/src/stm32g4xx_hal_adc_ex.c:1762:9
	cbz	r7, .LBB21_10
.Ltmp510:
@ %bb.9:
	@DEBUG_VALUE: HAL_ADCEx_InjectedConfigChannel:sConfigInjected <- $r1
	@DEBUG_VALUE: HAL_ADCEx_InjectedConfigChannel:hadc <- $r0
	@DEBUG_VALUE: HAL_ADCEx_InjectedConfigChannel:tmp_JSQR_ContextQueueBeingBuilt <- 0
	@DEBUG_VALUE: HAL_ADCEx_InjectedConfigChannel:tmp_hal_status <- 0
	.loc	6 1810 40 is_stmt 1             @ ../src/driver/stm32g4-v120/src/stm32g4xx_hal_adc_ex.c:1810:40
	ldr	r3, [r0, #100]
	movs	r2, #0
	b	.LBB21_13
.Ltmp511:
.LBB21_10:
	@DEBUG_VALUE: HAL_ADCEx_InjectedConfigChannel:sConfigInjected <- $r1
	@DEBUG_VALUE: HAL_ADCEx_InjectedConfigChannel:hadc <- $r0
	@DEBUG_VALUE: HAL_ADCEx_InjectedConfigChannel:tmp_JSQR_ContextQueueBeingBuilt <- 0
	@DEBUG_VALUE: HAL_ADCEx_InjectedConfigChannel:tmp_hal_status <- 0
	.loc	6 1782 28                       @ ../src/driver/stm32g4-v120/src/stm32g4xx_hal_adc_ex.c:1782:28
	ldr	r3, [r1, #40]
	.loc	6 0 0 is_stmt 0                 @ ../src/driver/stm32g4-v120/src/stm32g4xx_hal_adc_ex.c:0:0
	subs	r2, r6, #1
.Ltmp512:
	.loc	6 1782 11                       @ ../src/driver/stm32g4-v120/src/stm32g4xx_hal_adc_ex.c:1782:11
	cbz	r3, .LBB21_12
.Ltmp513:
@ %bb.11:
	@DEBUG_VALUE: HAL_ADCEx_InjectedConfigChannel:sConfigInjected <- $r1
	@DEBUG_VALUE: HAL_ADCEx_InjectedConfigChannel:hadc <- $r0
	@DEBUG_VALUE: HAL_ADCEx_InjectedConfigChannel:tmp_JSQR_ContextQueueBeingBuilt <- 0
	@DEBUG_VALUE: HAL_ADCEx_InjectedConfigChannel:tmp_hal_status <- 0
	.loc	6 1785 86 is_stmt 1             @ ../src/driver/stm32g4-v120/src/stm32g4xx_hal_adc_ex.c:1785:86
	and	r3, r3, #124
	.loc	6 1786 63                       @ ../src/driver/stm32g4-v120/src/stm32g4xx_hal_adc_ex.c:1786:63
	ldr	r7, [r1, #44]
	.loc	6 1785 44                       @ ../src/driver/stm32g4-v120/src/stm32g4xx_hal_adc_ex.c:1785:44
	orrs	r2, r3
	.loc	6 1786 44                       @ ../src/driver/stm32g4-v120/src/stm32g4xx_hal_adc_ex.c:1786:44
	orrs	r2, r7
.Ltmp514:
	@DEBUG_VALUE: HAL_ADCEx_InjectedConfigChannel:tmp_JSQR_ContextQueueBeingBuilt <- $r2
.LBB21_12:
	@DEBUG_VALUE: HAL_ADCEx_InjectedConfigChannel:sConfigInjected <- $r1
	@DEBUG_VALUE: HAL_ADCEx_InjectedConfigChannel:hadc <- $r0
	@DEBUG_VALUE: HAL_ADCEx_InjectedConfigChannel:tmp_hal_status <- 0
	.loc	6 0 44 is_stmt 0                @ ../src/driver/stm32g4-v120/src/stm32g4xx_hal_adc_ex.c:0:44
	movs	r3, #0
	.loc	6 1805 39 is_stmt 1             @ ../src/driver/stm32g4-v120/src/stm32g4xx_hal_adc_ex.c:1805:39
	mov	r7, r6
.Ltmp515:
.LBB21_13:
	@DEBUG_VALUE: HAL_ADCEx_InjectedConfigChannel:sConfigInjected <- $r1
	@DEBUG_VALUE: HAL_ADCEx_InjectedConfigChannel:hadc <- $r0
	@DEBUG_VALUE: HAL_ADCEx_InjectedConfigChannel:tmp_hal_status <- 0
	@DEBUG_VALUE: HAL_ADCEx_InjectedConfigChannel:tmp_JSQR_ContextQueueBeingBuilt <- $r2
	.loc	6 1802 40                       @ ../src/driver/stm32g4-v120/src/stm32g4xx_hal_adc_ex.c:1802:40
	ldrd	r5, r6, [r1]
	.loc	6 1805 39                       @ ../src/driver/stm32g4-v120/src/stm32g4xx_hal_adc_ex.c:1805:39
	subs	r7, #1
	.loc	6 1799 41                       @ ../src/driver/stm32g4-v120/src/stm32g4xx_hal_adc_ex.c:1799:41
	and	r6, r6, #31
	.loc	6 1802 40                       @ ../src/driver/stm32g4-v120/src/stm32g4xx_hal_adc_ex.c:1802:40
	ubfx	r5, r5, #26, #5
	lsl.w	r6, r5, r6
	.loc	6 1802 37 is_stmt 0             @ ../src/driver/stm32g4-v120/src/stm32g4xx_hal_adc_ex.c:1802:37
	orr.w	r2, r2, r6
.Ltmp516:
	@DEBUG_VALUE: HAL_ADCEx_InjectedConfigChannel:tmp_JSQR_ContextQueueBeingBuilt <- $r2
	.loc	6 1810 40 is_stmt 1             @ ../src/driver/stm32g4-v120/src/stm32g4xx_hal_adc_ex.c:1810:40
	orr.w	r2, r2, r3
.Ltmp517:
	strd	r2, r7, [r0, #100]
	.loc	6 1814 9                        @ ../src/driver/stm32g4-v120/src/stm32g4xx_hal_adc_ex.c:1814:9
	bne	.LBB21_15
.Ltmp518:
@ %bb.14:
	@DEBUG_VALUE: HAL_ADCEx_InjectedConfigChannel:sConfigInjected <- $r1
	@DEBUG_VALUE: HAL_ADCEx_InjectedConfigChannel:hadc <- $r0
	@DEBUG_VALUE: HAL_ADCEx_InjectedConfigChannel:tmp_hal_status <- 0
	.loc	6 1816 7                        @ ../src/driver/stm32g4-v120/src/stm32g4xx_hal_adc_ex.c:1816:7
	ldr	r3, [r0]
	movw	r6, #16384
	ldr	r7, [r3, #76]
	movt	r6, #1040
	ands	r7, r6
	orrs	r2, r7
	str	r2, [r3, #76]
.Ltmp519:
.LBB21_15:
	@DEBUG_VALUE: HAL_ADCEx_InjectedConfigChannel:sConfigInjected <- $r1
	@DEBUG_VALUE: HAL_ADCEx_InjectedConfigChannel:hadc <- $r0
	@DEBUG_VALUE: HAL_ADCEx_InjectedConfigChannel:tmp_hal_status <- 0
	.loc	6 1827 44                       @ ../src/driver/stm32g4-v120/src/stm32g4xx_hal_adc_ex.c:1827:44
	ldr.w	r8, [r0]
.Ltmp520:
	@DEBUG_VALUE: LL_ADC_INJ_IsConversionOngoing:ADCx <- $r8
	.loc	7 7063 12                       @ ../src/driver/stm32g4-v120/inc/stm32g4xx_ll_adc.h:7063:12
	ldr.w	r2, [r8, #8]
.Ltmp521:
	.loc	6 1827 7                        @ ../src/driver/stm32g4-v120/src/stm32g4xx_hal_adc_ex.c:1827:7
	lsls	r2, r2, #28
	bmi	.LBB21_20
.Ltmp522:
@ %bb.16:
	@DEBUG_VALUE: HAL_ADCEx_InjectedConfigChannel:sConfigInjected <- $r1
	@DEBUG_VALUE: HAL_ADCEx_InjectedConfigChannel:hadc <- $r0
	@DEBUG_VALUE: HAL_ADCEx_InjectedConfigChannel:tmp_hal_status <- 0
	.loc	6 0 0 is_stmt 0                 @ ../src/driver/stm32g4-v120/src/stm32g4xx_hal_adc_ex.c:0:0
	ldr.w	r2, [r8, #12]
	.loc	6 1830 26 is_stmt 1             @ ../src/driver/stm32g4-v120/src/stm32g4xx_hal_adc_ex.c:1830:26
	ldrb.w	r7, [r1, #37]
	.loc	6 0 0 is_stmt 0                 @ ../src/driver/stm32g4-v120/src/stm32g4xx_hal_adc_ex.c:0:0
	ldrb.w	r6, [r1, #38]
	bic	r2, r2, #3145728
.Ltmp523:
	.loc	6 1830 9                        @ ../src/driver/stm32g4-v120/src/stm32g4xx_hal_adc_ex.c:1830:9
	cmp	r7, #0
.Ltmp524:
	.loc	6 0 0                           @ ../src/driver/stm32g4-v120/src/stm32g4xx_hal_adc_ex.c:0:0
	lsl.w	r7, r6, #21
.Ltmp525:
	.loc	6 1830 9                        @ ../src/driver/stm32g4-v120/src/stm32g4xx_hal_adc_ex.c:1830:9
	beq	.LBB21_18
.Ltmp526:
@ %bb.17:
	@DEBUG_VALUE: HAL_ADCEx_InjectedConfigChannel:sConfigInjected <- $r1
	@DEBUG_VALUE: HAL_ADCEx_InjectedConfigChannel:hadc <- $r0
	@DEBUG_VALUE: HAL_ADCEx_InjectedConfigChannel:tmp_hal_status <- 0
	.loc	6 1841 7 is_stmt 1              @ ../src/driver/stm32g4-v120/src/stm32g4xx_hal_adc_ex.c:1841:7
	orrs	r2, r7
	b	.LBB21_19
.Ltmp527:
.LBB21_18:
	@DEBUG_VALUE: HAL_ADCEx_InjectedConfigChannel:sConfigInjected <- $r1
	@DEBUG_VALUE: HAL_ADCEx_InjectedConfigChannel:hadc <- $r0
	@DEBUG_VALUE: HAL_ADCEx_InjectedConfigChannel:tmp_hal_status <- 0
	.loc	6 1832 7                        @ ../src/driver/stm32g4-v120/src/stm32g4xx_hal_adc_ex.c:1832:7
	ldrb.w	r6, [r1, #36]
	orrs	r2, r7
	orr.w	r2, r2, r6, lsl #20
.Ltmp528:
.LBB21_19:
	@DEBUG_VALUE: HAL_ADCEx_InjectedConfigChannel:sConfigInjected <- $r1
	@DEBUG_VALUE: HAL_ADCEx_InjectedConfigChannel:hadc <- $r0
	@DEBUG_VALUE: HAL_ADCEx_InjectedConfigChannel:tmp_hal_status <- 0
	.loc	6 0 0 is_stmt 0                 @ ../src/driver/stm32g4-v120/src/stm32g4xx_hal_adc_ex.c:0:0
	str.w	r2, [r8, #12]
.Ltmp529:
.LBB21_20:
	@DEBUG_VALUE: HAL_ADCEx_InjectedConfigChannel:sConfigInjected <- $r1
	@DEBUG_VALUE: HAL_ADCEx_InjectedConfigChannel:hadc <- $r0
	@DEBUG_VALUE: HAL_ADCEx_InjectedConfigChannel:tmp_hal_status <- 0
	@DEBUG_VALUE: LL_ADC_REG_IsConversionOngoing:ADCx <- $r8
	.loc	7 6838 12 is_stmt 1             @ ../src/driver/stm32g4-v120/inc/stm32g4xx_ll_adc.h:6838:12
	ldr.w	r2, [r8, #8]
.Ltmp530:
	@DEBUG_VALUE: LL_ADC_INJ_IsConversionOngoing:ADCx <- $r8
	@DEBUG_VALUE: HAL_ADCEx_InjectedConfigChannel:tmp_adc_is_conversion_on_going_regular <- [DW_OP_constu 1, DW_OP_and, DW_OP_stack_value] undef
	.loc	7 7063 12                       @ ../src/driver/stm32g4-v120/inc/stm32g4xx_ll_adc.h:7063:12
	ldr.w	r7, [r8, #8]
	.loc	7 7063 11 is_stmt 0             @ ../src/driver/stm32g4-v120/inc/stm32g4xx_ll_adc.h:7063:11
	lsrs	r7, r7, #3
.Ltmp531:
	@DEBUG_VALUE: HAL_ADCEx_InjectedConfigChannel:tmp_adc_is_conversion_on_going_injected <- [DW_OP_constu 1, DW_OP_and, DW_OP_stack_value] $r7
	.loc	6 1859 7 is_stmt 1              @ ../src/driver/stm32g4-v120/src/stm32g4xx_hal_adc_ex.c:1859:7
	orr.w	r2, r7, r2, lsr #2
	lsls	r2, r2, #31
	bne	.LBB21_25
.Ltmp532:
@ %bb.21:
	@DEBUG_VALUE: HAL_ADCEx_InjectedConfigChannel:tmp_adc_is_conversion_on_going_injected <- [DW_OP_constu 1, DW_OP_and, DW_OP_stack_value] $r7
	@DEBUG_VALUE: HAL_ADCEx_InjectedConfigChannel:sConfigInjected <- $r1
	@DEBUG_VALUE: HAL_ADCEx_InjectedConfigChannel:hadc <- $r0
	@DEBUG_VALUE: HAL_ADCEx_InjectedConfigChannel:tmp_hal_status <- 0
	.loc	6 1864 27                       @ ../src/driver/stm32g4-v120/src/stm32g4xx_hal_adc_ex.c:1864:27
	ldr	r2, [r1, #40]
	.loc	6 1865 9                        @ ../src/driver/stm32g4-v120/src/stm32g4xx_hal_adc_ex.c:1865:9
	cbz	r2, .LBB21_26
.Ltmp533:
@ %bb.22:
	@DEBUG_VALUE: HAL_ADCEx_InjectedConfigChannel:tmp_adc_is_conversion_on_going_injected <- [DW_OP_constu 1, DW_OP_and, DW_OP_stack_value] $r7
	@DEBUG_VALUE: HAL_ADCEx_InjectedConfigChannel:sConfigInjected <- $r1
	@DEBUG_VALUE: HAL_ADCEx_InjectedConfigChannel:hadc <- $r0
	@DEBUG_VALUE: HAL_ADCEx_InjectedConfigChannel:tmp_hal_status <- 0
	.loc	6 1865 30 is_stmt 0             @ ../src/driver/stm32g4-v120/src/stm32g4xx_hal_adc_ex.c:1865:30
	ldr	r2, [r1, #44]
.Ltmp534:
	.loc	6 1864 9 is_stmt 1              @ ../src/driver/stm32g4-v120/src/stm32g4xx_hal_adc_ex.c:1864:9
	cbz	r2, .LBB21_26
.Ltmp535:
@ %bb.23:
	@DEBUG_VALUE: HAL_ADCEx_InjectedConfigChannel:tmp_adc_is_conversion_on_going_injected <- [DW_OP_constu 1, DW_OP_and, DW_OP_stack_value] $r7
	@DEBUG_VALUE: HAL_ADCEx_InjectedConfigChannel:sConfigInjected <- $r1
	@DEBUG_VALUE: HAL_ADCEx_InjectedConfigChannel:hadc <- $r0
	@DEBUG_VALUE: HAL_ADCEx_InjectedConfigChannel:tmp_hal_status <- 0
	.loc	6 1880 28                       @ ../src/driver/stm32g4-v120/src/stm32g4xx_hal_adc_ex.c:1880:28
	ldrb.w	r2, [r1, #37]
.Ltmp536:
	.loc	6 1880 11 is_stmt 0             @ ../src/driver/stm32g4-v120/src/stm32g4xx_hal_adc_ex.c:1880:11
	cmp	r2, #1
	bne	.LBB21_28
.Ltmp537:
@ %bb.24:
	@DEBUG_VALUE: HAL_ADCEx_InjectedConfigChannel:tmp_adc_is_conversion_on_going_injected <- [DW_OP_constu 1, DW_OP_and, DW_OP_stack_value] $r7
	@DEBUG_VALUE: HAL_ADCEx_InjectedConfigChannel:sConfigInjected <- $r1
	@DEBUG_VALUE: HAL_ADCEx_InjectedConfigChannel:hadc <- $r0
	@DEBUG_VALUE: HAL_ADCEx_InjectedConfigChannel:tmp_hal_status <- 0
	.loc	6 1883 9 is_stmt 1              @ ../src/driver/stm32g4-v120/src/stm32g4xx_hal_adc_ex.c:1883:9
	ldr	r2, [r0, #92]
	mov.w	r12, #1
.Ltmp538:
	@DEBUG_VALUE: HAL_ADCEx_InjectedConfigChannel:tmp_hal_status <- 1
	orr	r2, r2, #32
	str	r2, [r0, #92]
	b	.LBB21_31
.Ltmp539:
.LBB21_25:
	@DEBUG_VALUE: LL_ADC_INJ_IsConversionOngoing:ADCx <- $r8
	@DEBUG_VALUE: LL_ADC_REG_IsConversionOngoing:ADCx <- $r8
	@DEBUG_VALUE: HAL_ADCEx_InjectedConfigChannel:tmp_adc_is_conversion_on_going_injected <- [DW_OP_constu 1, DW_OP_and, DW_OP_stack_value] $r7
	@DEBUG_VALUE: HAL_ADCEx_InjectedConfigChannel:sConfigInjected <- $r1
	@DEBUG_VALUE: HAL_ADCEx_InjectedConfigChannel:hadc <- $r0
	@DEBUG_VALUE: HAL_ADCEx_InjectedConfigChannel:tmp_hal_status <- 0
	.loc	6 0 9 is_stmt 0                 @ ../src/driver/stm32g4-v120/src/stm32g4xx_hal_adc_ex.c:0:9
	mov.w	r12, #0
	b	.LBB21_47
.Ltmp540:
.LBB21_26:
	@DEBUG_VALUE: HAL_ADCEx_InjectedConfigChannel:tmp_adc_is_conversion_on_going_injected <- [DW_OP_constu 1, DW_OP_and, DW_OP_stack_value] $r7
	@DEBUG_VALUE: HAL_ADCEx_InjectedConfigChannel:sConfigInjected <- $r1
	@DEBUG_VALUE: HAL_ADCEx_InjectedConfigChannel:hadc <- $r0
	@DEBUG_VALUE: HAL_ADCEx_InjectedConfigChannel:tmp_hal_status <- 0
	.loc	6 1867 28 is_stmt 1             @ ../src/driver/stm32g4-v120/src/stm32g4xx_hal_adc_ex.c:1867:28
	ldrb.w	r7, [r1, #37]
.Ltmp541:
	.loc	6 0 0 is_stmt 0                 @ ../src/driver/stm32g4-v120/src/stm32g4xx_hal_adc_ex.c:0:0
	ldr.w	r2, [r8, #12]
.Ltmp542:
	.loc	6 1867 11                       @ ../src/driver/stm32g4-v120/src/stm32g4xx_hal_adc_ex.c:1867:11
	cmp	r7, #1
	bne	.LBB21_29
.Ltmp543:
@ %bb.27:
	@DEBUG_VALUE: HAL_ADCEx_InjectedConfigChannel:sConfigInjected <- $r1
	@DEBUG_VALUE: HAL_ADCEx_InjectedConfigChannel:hadc <- $r0
	@DEBUG_VALUE: HAL_ADCEx_InjectedConfigChannel:tmp_hal_status <- 0
	.loc	6 1869 9 is_stmt 1              @ ../src/driver/stm32g4-v120/src/stm32g4xx_hal_adc_ex.c:1869:9
	orr	r2, r2, #33554432
	b	.LBB21_30
.Ltmp544:
.LBB21_28:
	@DEBUG_VALUE: HAL_ADCEx_InjectedConfigChannel:tmp_adc_is_conversion_on_going_injected <- [DW_OP_constu 1, DW_OP_and, DW_OP_stack_value] $r7
	@DEBUG_VALUE: HAL_ADCEx_InjectedConfigChannel:sConfigInjected <- $r1
	@DEBUG_VALUE: HAL_ADCEx_InjectedConfigChannel:hadc <- $r0
	@DEBUG_VALUE: HAL_ADCEx_InjectedConfigChannel:tmp_hal_status <- 0
	.loc	6 1889 9                        @ ../src/driver/stm32g4-v120/src/stm32g4xx_hal_adc_ex.c:1889:9
	ldr.w	r2, [r8, #12]
.Ltmp545:
.LBB21_29:
	@DEBUG_VALUE: HAL_ADCEx_InjectedConfigChannel:sConfigInjected <- $r1
	@DEBUG_VALUE: HAL_ADCEx_InjectedConfigChannel:hadc <- $r0
	@DEBUG_VALUE: HAL_ADCEx_InjectedConfigChannel:tmp_hal_status <- 0
	.loc	6 0 0 is_stmt 0                 @ ../src/driver/stm32g4-v120/src/stm32g4xx_hal_adc_ex.c:0:0
	bic	r2, r2, #33554432
.Ltmp546:
.LBB21_30:
	@DEBUG_VALUE: HAL_ADCEx_InjectedConfigChannel:sConfigInjected <- $r1
	@DEBUG_VALUE: HAL_ADCEx_InjectedConfigChannel:hadc <- $r0
	@DEBUG_VALUE: HAL_ADCEx_InjectedConfigChannel:tmp_hal_status <- 0
	mov.w	r12, #0
	str.w	r2, [r8, #12]
.Ltmp547:
.LBB21_31:
	@DEBUG_VALUE: HAL_ADCEx_InjectedConfigChannel:sConfigInjected <- $r1
	@DEBUG_VALUE: HAL_ADCEx_InjectedConfigChannel:hadc <- $r0
	@DEBUG_VALUE: HAL_ADCEx_InjectedConfigChannel:tmp_hal_status <- $r12
	.loc	6 1893 26 is_stmt 1             @ ../src/driver/stm32g4-v120/src/stm32g4xx_hal_adc_ex.c:1893:26
	ldrb.w	r7, [r1, #48]
	.loc	6 0 0 is_stmt 0                 @ ../src/driver/stm32g4-v120/src/stm32g4xx_hal_adc_ex.c:0:0
	ldr.w	r2, [r8, #16]
.Ltmp548:
	.loc	6 1893 9                        @ ../src/driver/stm32g4-v120/src/stm32g4xx_hal_adc_ex.c:1893:9
	cmp	r7, #1
	bne	.LBB21_33
.Ltmp549:
@ %bb.32:
	@DEBUG_VALUE: HAL_ADCEx_InjectedConfigChannel:tmp_hal_status <- $r12
	@DEBUG_VALUE: HAL_ADCEx_InjectedConfigChannel:sConfigInjected <- $r1
	@DEBUG_VALUE: HAL_ADCEx_InjectedConfigChannel:hadc <- $r0
	.loc	6 1906 7 is_stmt 1              @ ../src/driver/stm32g4-v120/src/stm32g4xx_hal_adc_ex.c:1906:7
	ldrd	r7, r6, [r1, #52]
	bic	r2, r2, #510
	orrs	r2, r7
	orrs	r2, r6
	orr	r2, r2, #2
	b	.LBB21_34
.Ltmp550:
.LBB21_33:
	@DEBUG_VALUE: HAL_ADCEx_InjectedConfigChannel:tmp_hal_status <- $r12
	@DEBUG_VALUE: HAL_ADCEx_InjectedConfigChannel:sConfigInjected <- $r1
	@DEBUG_VALUE: HAL_ADCEx_InjectedConfigChannel:hadc <- $r0
	.loc	6 1918 7                        @ ../src/driver/stm32g4-v120/src/stm32g4xx_hal_adc_ex.c:1918:7
	bic	r2, r2, #2
.Ltmp551:
.LBB21_34:
	@DEBUG_VALUE: HAL_ADCEx_InjectedConfigChannel:tmp_hal_status <- $r12
	@DEBUG_VALUE: HAL_ADCEx_InjectedConfigChannel:sConfigInjected <- $r1
	@DEBUG_VALUE: HAL_ADCEx_InjectedConfigChannel:hadc <- $r0
	.loc	6 0 0 is_stmt 0                 @ ../src/driver/stm32g4-v120/src/stm32g4xx_hal_adc_ex.c:0:0
	str.w	r2, [r8, #16]
.Ltmp552:
	ldr	r5, [r1]
	@DEBUG_VALUE: LL_ADC_SetChannelSamplingTime:Channel <- $r5
	@DEBUG_VALUE: LL_ADC_SetChannelSamplingTime:Channel <- $r5
	add.w	r2, r8, #20
	movs	r7, #4
	ubfx	r4, r5, #25, #1
	@DEBUG_VALUE: LL_ADC_SetChannelSamplingTime:preg <- undef
	@DEBUG_VALUE: LL_ADC_SetChannelSamplingTime:preg <- undef
	.loc	6 1922 26 is_stmt 1             @ ../src/driver/stm32g4-v120/src/stm32g4xx_hal_adc_ex.c:1922:26
	ldr	r6, [r1, #8]
	@DEBUG_VALUE: LL_ADC_SetChannelSamplingTime:ADCx <- $r8
	@DEBUG_VALUE: LL_ADC_SetChannelSamplingTime:ADCx <- $r8
	.loc	6 0 0 is_stmt 0                 @ ../src/driver/stm32g4-v120/src/stm32g4xx_hal_adc_ex.c:0:0
	and.w	lr, r7, r5, lsr #23
	ldr.w	r4, [r2, r4, lsl #2]
	ubfx	r5, r5, #20, #5
	movs	r7, #7
	lsls	r7, r5
.Ltmp553:
	.loc	6 1922 9                        @ ../src/driver/stm32g4-v120/src/stm32g4xx_hal_adc_ex.c:1922:9
	cmp.w	r6, #-2147483648
.Ltmp554:
	.loc	6 0 0                           @ ../src/driver/stm32g4-v120/src/stm32g4xx_hal_adc_ex.c:0:0
	bic.w	r4, r4, r7
.Ltmp555:
	.loc	6 1922 9                        @ ../src/driver/stm32g4-v120/src/stm32g4xx_hal_adc_ex.c:1922:9
	bne	.LBB21_36
.Ltmp556:
@ %bb.35:
	@DEBUG_VALUE: HAL_ADCEx_InjectedConfigChannel:tmp_hal_status <- $r12
	@DEBUG_VALUE: LL_ADC_SetChannelSamplingTime:ADCx <- $r8
	@DEBUG_VALUE: HAL_ADCEx_InjectedConfigChannel:sConfigInjected <- $r1
	@DEBUG_VALUE: HAL_ADCEx_InjectedConfigChannel:hadc <- $r0
	@DEBUG_VALUE: LL_ADC_SetChannelSamplingTime:SamplingTime <- 0
	.loc	7 5333 3 is_stmt 1              @ ../src/driver/stm32g4-v120/inc/stm32g4xx_ll_adc.h:5333:3
	str.w	r4, [r2, lr]
.Ltmp557:
	@DEBUG_VALUE: LL_ADC_SetSamplingTimeCommonConfig:SamplingTimeCommonConfig <- -2147483648
	@DEBUG_VALUE: LL_ADC_SetSamplingTimeCommonConfig:ADCx <- $r8
	.loc	7 3557 3                        @ ../src/driver/stm32g4-v120/inc/stm32g4xx_ll_adc.h:3557:3
	ldr	r2, [r2]
	orr	r2, r2, #-2147483648
	b	.LBB21_37
.Ltmp558:
.LBB21_36:
	@DEBUG_VALUE: HAL_ADCEx_InjectedConfigChannel:tmp_hal_status <- $r12
	@DEBUG_VALUE: LL_ADC_SetChannelSamplingTime:ADCx <- $r8
	@DEBUG_VALUE: HAL_ADCEx_InjectedConfigChannel:sConfigInjected <- $r1
	@DEBUG_VALUE: HAL_ADCEx_InjectedConfigChannel:hadc <- $r0
	@DEBUG_VALUE: LL_ADC_SetChannelSamplingTime:SamplingTime <- $r6
	.loc	7 5333 3                        @ ../src/driver/stm32g4-v120/inc/stm32g4xx_ll_adc.h:5333:3
	lsl.w	r5, r6, r5
	orrs	r4, r5
	str.w	r4, [r2, lr]
.Ltmp559:
	@DEBUG_VALUE: LL_ADC_SetSamplingTimeCommonConfig:SamplingTimeCommonConfig <- 0
	@DEBUG_VALUE: LL_ADC_SetSamplingTimeCommonConfig:ADCx <- $r8
	.loc	7 3557 3                        @ ../src/driver/stm32g4-v120/inc/stm32g4xx_ll_adc.h:3557:3
	ldr	r2, [r2]
	bic	r2, r2, #-2147483648
.Ltmp560:
.LBB21_37:
	@DEBUG_VALUE: HAL_ADCEx_InjectedConfigChannel:tmp_hal_status <- $r12
	@DEBUG_VALUE: HAL_ADCEx_InjectedConfigChannel:sConfigInjected <- $r1
	@DEBUG_VALUE: HAL_ADCEx_InjectedConfigChannel:hadc <- $r0
	.loc	6 0 0 is_stmt 0                 @ ../src/driver/stm32g4-v120/src/stm32g4xx_hal_adc_ex.c:0:0
	str.w	r2, [r8, #20]
.Ltmp561:
	@DEBUG_VALUE: HAL_ADCEx_InjectedConfigChannel:tmpOffsetShifted <- undef
	.loc	6 1945 26 is_stmt 1             @ ../src/driver/stm32g4-v120/src/stm32g4xx_hal_adc_ex.c:1945:26
	ldrd	r2, r7, [r1, #16]
.Ltmp562:
	.loc	6 1943 24                       @ ../src/driver/stm32g4-v120/src/stm32g4xx_hal_adc_ex.c:1943:24
	ldr.w	r6, [r8, #12]
	.loc	6 1945 9                        @ ../src/driver/stm32g4-v120/src/stm32g4xx_hal_adc_ex.c:1945:9
	cmp	r2, #4
	bne	.LBB21_46
.Ltmp563:
@ %bb.38:
	@DEBUG_VALUE: HAL_ADCEx_InjectedConfigChannel:tmp_hal_status <- $r12
	@DEBUG_VALUE: HAL_ADCEx_InjectedConfigChannel:sConfigInjected <- $r1
	@DEBUG_VALUE: HAL_ADCEx_InjectedConfigChannel:hadc <- $r0
	.loc	7 3302 21                       @ ../src/driver/stm32g4-v120/inc/stm32g4xx_ll_adc.h:3302:21
	ldr.w	r2, [r8, #96]
.Ltmp564:
	@DEBUG_VALUE: LL_ADC_GetOffsetChannel:preg <- [DW_OP_plus_uconst 96, DW_OP_stack_value] $r8
	@DEBUG_VALUE: LL_ADC_GetOffsetChannel:Offsety <- 0
	@DEBUG_VALUE: LL_ADC_GetOffsetChannel:ADCx <- $r8
	.loc	7 3302 21 is_stmt 0             @ ../src/driver/stm32g4-v120/inc/stm32g4xx_ll_adc.h:3302:21
	ldr.w	r2, [r8, #96]
.Ltmp565:
	.loc	6 1960 102 is_stmt 1            @ ../src/driver/stm32g4-v120/src/stm32g4xx_hal_adc_ex.c:1960:102
	ldr	r4, [r1]
	.loc	6 1960 10 is_stmt 0             @ ../src/driver/stm32g4-v120/src/stm32g4xx_hal_adc_ex.c:1960:10
	ubfx	r6, r2, #26, #5
	.loc	6 1960 102                      @ ../src/driver/stm32g4-v120/src/stm32g4xx_hal_adc_ex.c:1960:102
	rbit	r5, r4
	mov	r2, r4
	clz	r5, r5
	ubfx	lr, r4, #26, #5
	bfc	r2, #19, #13
	mov	r4, r5
	cmp	r2, #0
	it	eq
	moveq	r4, lr
.Ltmp566:
	.loc	6 1960 10                       @ ../src/driver/stm32g4-v120/src/stm32g4xx_hal_adc_ex.c:1960:10
	cmp	r6, r4
	movw	r4, #65535
	movt	r4, #7
	@DEBUG_VALUE: LL_ADC_GetOffsetChannel:preg <- [DW_OP_plus_uconst 96, DW_OP_stack_value] $r8
	@DEBUG_VALUE: LL_ADC_GetOffsetChannel:Offsety <- 0
	@DEBUG_VALUE: LL_ADC_GetOffsetChannel:ADCx <- $r8
	bne	.LBB21_40
.Ltmp567:
@ %bb.39:
	@DEBUG_VALUE: HAL_ADCEx_InjectedConfigChannel:tmp_hal_status <- $r12
	@DEBUG_VALUE: HAL_ADCEx_InjectedConfigChannel:sConfigInjected <- $r1
	@DEBUG_VALUE: HAL_ADCEx_InjectedConfigChannel:hadc <- $r0
	@DEBUG_VALUE: LL_ADC_SetOffsetState:ADCx <- $r8
	@DEBUG_VALUE: LL_ADC_SetOffsetState:Offsety <- 0
	@DEBUG_VALUE: LL_ADC_SetOffsetState:OffsetState <- 0
	.loc	7 3361 3 is_stmt 1              @ ../src/driver/stm32g4-v120/inc/stm32g4xx_ll_adc.h:3361:3
	ldr.w	r2, [r8, #96]
	bic	r2, r2, #-2147483648
	str.w	r2, [r8, #96]
.Ltmp568:
	.loc	6 1964 102                      @ ../src/driver/stm32g4-v120/src/stm32g4xx_hal_adc_ex.c:1964:102
	ldr	r5, [r1]
	and.w	r2, r5, r4
	ubfx	lr, r5, #26, #5
	rbit	r5, r5
	clz	r5, r5
	@DEBUG_VALUE: LL_ADC_SetOffsetState:preg <- [DW_OP_plus_uconst 96, DW_OP_stack_value] $r8
.Ltmp569:
.LBB21_40:
	@DEBUG_VALUE: HAL_ADCEx_InjectedConfigChannel:tmp_hal_status <- $r12
	@DEBUG_VALUE: HAL_ADCEx_InjectedConfigChannel:sConfigInjected <- $r1
	@DEBUG_VALUE: HAL_ADCEx_InjectedConfigChannel:hadc <- $r0
	@DEBUG_VALUE: LL_ADC_GetOffsetChannel:ADCx <- $r8
	@DEBUG_VALUE: LL_ADC_GetOffsetChannel:Offsety <- 1
	.loc	7 3302 21                       @ ../src/driver/stm32g4-v120/inc/stm32g4xx_ll_adc.h:3302:21
	ldr.w	r6, [r8, #100]
.Ltmp570:
	@DEBUG_VALUE: LL_ADC_GetOffsetChannel:preg <- [DW_OP_plus_uconst 100, DW_OP_stack_value] $r8
	@DEBUG_VALUE: LL_ADC_GetOffsetChannel:preg <- [DW_OP_plus_uconst 96, DW_OP_plus_uconst 4, DW_OP_stack_value] $r8
	@DEBUG_VALUE: LL_ADC_GetOffsetChannel:Offsety <- 1
	@DEBUG_VALUE: LL_ADC_GetOffsetChannel:ADCx <- $r8
	.loc	7 3302 21 is_stmt 0             @ ../src/driver/stm32g4-v120/inc/stm32g4xx_ll_adc.h:3302:21
	ldr.w	r6, [r8, #100]
.Ltmp571:
	.loc	6 1964 102 is_stmt 1            @ ../src/driver/stm32g4-v120/src/stm32g4xx_hal_adc_ex.c:1964:102
	cmp	r2, #0
	.loc	6 1964 10 is_stmt 0             @ ../src/driver/stm32g4-v120/src/stm32g4xx_hal_adc_ex.c:1964:10
	ubfx	r6, r6, #26, #5
	.loc	6 1964 102                      @ ../src/driver/stm32g4-v120/src/stm32g4xx_hal_adc_ex.c:1964:102
	mov	r7, r5
	it	eq
	moveq	r7, lr
.Ltmp572:
	.loc	6 1964 10                       @ ../src/driver/stm32g4-v120/src/stm32g4xx_hal_adc_ex.c:1964:10
	cmp	r6, r7
	bne	.LBB21_42
.Ltmp573:
@ %bb.41:
	@DEBUG_VALUE: HAL_ADCEx_InjectedConfigChannel:tmp_hal_status <- $r12
	@DEBUG_VALUE: HAL_ADCEx_InjectedConfigChannel:sConfigInjected <- $r1
	@DEBUG_VALUE: HAL_ADCEx_InjectedConfigChannel:hadc <- $r0
	@DEBUG_VALUE: LL_ADC_SetOffsetState:ADCx <- $r8
	@DEBUG_VALUE: LL_ADC_SetOffsetState:Offsety <- 1
	@DEBUG_VALUE: LL_ADC_SetOffsetState:OffsetState <- 0
	.loc	7 3361 3 is_stmt 1              @ ../src/driver/stm32g4-v120/inc/stm32g4xx_ll_adc.h:3361:3
	ldr.w	r2, [r8, #100]
	bic	r2, r2, #-2147483648
	str.w	r2, [r8, #100]
.Ltmp574:
	.loc	6 1968 102                      @ ../src/driver/stm32g4-v120/src/stm32g4xx_hal_adc_ex.c:1968:102
	ldr	r5, [r1]
	and.w	r2, r5, r4
	ubfx	lr, r5, #26, #5
	rbit	r5, r5
	clz	r5, r5
	@DEBUG_VALUE: LL_ADC_SetOffsetState:preg <- [DW_OP_plus_uconst 96, DW_OP_plus_uconst 4, DW_OP_stack_value] $r8
.Ltmp575:
.LBB21_42:
	@DEBUG_VALUE: HAL_ADCEx_InjectedConfigChannel:tmp_hal_status <- $r12
	@DEBUG_VALUE: HAL_ADCEx_InjectedConfigChannel:sConfigInjected <- $r1
	@DEBUG_VALUE: HAL_ADCEx_InjectedConfigChannel:hadc <- $r0
	@DEBUG_VALUE: LL_ADC_GetOffsetChannel:ADCx <- $r8
	@DEBUG_VALUE: LL_ADC_GetOffsetChannel:Offsety <- 2
	.loc	7 3302 21                       @ ../src/driver/stm32g4-v120/inc/stm32g4xx_ll_adc.h:3302:21
	ldr.w	r6, [r8, #104]
.Ltmp576:
	@DEBUG_VALUE: LL_ADC_GetOffsetChannel:preg <- [DW_OP_plus_uconst 104, DW_OP_stack_value] $r8
	@DEBUG_VALUE: LL_ADC_GetOffsetChannel:preg <- [DW_OP_plus_uconst 96, DW_OP_plus_uconst 8, DW_OP_stack_value] $r8
	@DEBUG_VALUE: LL_ADC_GetOffsetChannel:Offsety <- 2
	@DEBUG_VALUE: LL_ADC_GetOffsetChannel:ADCx <- $r8
	.loc	7 3302 21 is_stmt 0             @ ../src/driver/stm32g4-v120/inc/stm32g4xx_ll_adc.h:3302:21
	ldr.w	r6, [r8, #104]
.Ltmp577:
	.loc	6 1968 102 is_stmt 1            @ ../src/driver/stm32g4-v120/src/stm32g4xx_hal_adc_ex.c:1968:102
	cmp	r2, #0
	.loc	6 1968 10 is_stmt 0             @ ../src/driver/stm32g4-v120/src/stm32g4xx_hal_adc_ex.c:1968:10
	ubfx	r6, r6, #26, #5
	.loc	6 1968 102                      @ ../src/driver/stm32g4-v120/src/stm32g4xx_hal_adc_ex.c:1968:102
	mov	r7, r5
	it	eq
	moveq	r7, lr
.Ltmp578:
	.loc	6 1968 10                       @ ../src/driver/stm32g4-v120/src/stm32g4xx_hal_adc_ex.c:1968:10
	cmp	r6, r7
	bne	.LBB21_44
.Ltmp579:
@ %bb.43:
	@DEBUG_VALUE: HAL_ADCEx_InjectedConfigChannel:tmp_hal_status <- $r12
	@DEBUG_VALUE: HAL_ADCEx_InjectedConfigChannel:sConfigInjected <- $r1
	@DEBUG_VALUE: HAL_ADCEx_InjectedConfigChannel:hadc <- $r0
	@DEBUG_VALUE: LL_ADC_SetOffsetState:ADCx <- $r8
	@DEBUG_VALUE: LL_ADC_SetOffsetState:Offsety <- 2
	@DEBUG_VALUE: LL_ADC_SetOffsetState:OffsetState <- 0
	.loc	7 3361 3 is_stmt 1              @ ../src/driver/stm32g4-v120/inc/stm32g4xx_ll_adc.h:3361:3
	ldr.w	r2, [r8, #104]
	bic	r2, r2, #-2147483648
	str.w	r2, [r8, #104]
.Ltmp580:
	.loc	6 1972 102                      @ ../src/driver/stm32g4-v120/src/stm32g4xx_hal_adc_ex.c:1972:102
	ldr	r5, [r1]
	and.w	r2, r5, r4
	rbit	r4, r5
	ubfx	lr, r5, #26, #5
	clz	r5, r4
	@DEBUG_VALUE: LL_ADC_SetOffsetState:preg <- [DW_OP_plus_uconst 96, DW_OP_plus_uconst 8, DW_OP_stack_value] $r8
.Ltmp581:
.LBB21_44:
	@DEBUG_VALUE: HAL_ADCEx_InjectedConfigChannel:tmp_hal_status <- $r12
	@DEBUG_VALUE: HAL_ADCEx_InjectedConfigChannel:sConfigInjected <- $r1
	@DEBUG_VALUE: HAL_ADCEx_InjectedConfigChannel:hadc <- $r0
	@DEBUG_VALUE: LL_ADC_GetOffsetChannel:ADCx <- $r8
	@DEBUG_VALUE: LL_ADC_GetOffsetChannel:Offsety <- 3
	.loc	7 3302 21                       @ ../src/driver/stm32g4-v120/inc/stm32g4xx_ll_adc.h:3302:21
	ldr.w	r4, [r8, #108]
.Ltmp582:
	@DEBUG_VALUE: LL_ADC_GetOffsetChannel:preg <- [DW_OP_plus_uconst 108, DW_OP_stack_value] $r8
	@DEBUG_VALUE: LL_ADC_GetOffsetChannel:preg <- [DW_OP_plus_uconst 96, DW_OP_plus_uconst 12, DW_OP_stack_value] $r8
	@DEBUG_VALUE: LL_ADC_GetOffsetChannel:Offsety <- 3
	@DEBUG_VALUE: LL_ADC_GetOffsetChannel:ADCx <- $r8
	.loc	7 3302 21 is_stmt 0             @ ../src/driver/stm32g4-v120/inc/stm32g4xx_ll_adc.h:3302:21
	ldr.w	r4, [r8, #108]
.Ltmp583:
	.loc	6 1972 102 is_stmt 1            @ ../src/driver/stm32g4-v120/src/stm32g4xx_hal_adc_ex.c:1972:102
	cmp	r2, #0
	.loc	6 1972 10 is_stmt 0             @ ../src/driver/stm32g4-v120/src/stm32g4xx_hal_adc_ex.c:1972:10
	ubfx	r4, r4, #26, #5
	.loc	6 1972 102                      @ ../src/driver/stm32g4-v120/src/stm32g4xx_hal_adc_ex.c:1972:102
	it	eq
	moveq	r5, lr
.Ltmp584:
	.loc	6 1972 10                       @ ../src/driver/stm32g4-v120/src/stm32g4xx_hal_adc_ex.c:1972:10
	cmp	r4, r5
	bne	.LBB21_47
.Ltmp585:
@ %bb.45:
	@DEBUG_VALUE: HAL_ADCEx_InjectedConfigChannel:tmp_hal_status <- $r12
	@DEBUG_VALUE: HAL_ADCEx_InjectedConfigChannel:sConfigInjected <- $r1
	@DEBUG_VALUE: HAL_ADCEx_InjectedConfigChannel:hadc <- $r0
	@DEBUG_VALUE: LL_ADC_SetOffsetState:ADCx <- $r8
	@DEBUG_VALUE: LL_ADC_SetOffsetState:Offsety <- 3
	@DEBUG_VALUE: LL_ADC_SetOffsetState:OffsetState <- 0
	.loc	7 3361 3 is_stmt 1              @ ../src/driver/stm32g4-v120/inc/stm32g4xx_ll_adc.h:3361:3
	ldr.w	r2, [r8, #108]
	bic	r2, r2, #-2147483648
	str.w	r2, [r8, #108]
.Ltmp586:
	@DEBUG_VALUE: LL_ADC_SetOffsetState:preg <- [DW_OP_plus_uconst 96, DW_OP_plus_uconst 12, DW_OP_stack_value] $r8
	.loc	7 0 3 is_stmt 0                 @ ../src/driver/stm32g4-v120/inc/stm32g4xx_ll_adc.h:0:3
	b	.LBB21_47
.Ltmp587:
.LBB21_46:
	@DEBUG_VALUE: HAL_ADCEx_InjectedConfigChannel:tmp_hal_status <- $r12
	@DEBUG_VALUE: HAL_ADCEx_InjectedConfigChannel:sConfigInjected <- $r1
	@DEBUG_VALUE: HAL_ADCEx_InjectedConfigChannel:hadc <- $r0
	movs	r5, #6
	.loc	6 1943 24 is_stmt 1             @ ../src/driver/stm32g4-v120/src/stm32g4xx_hal_adc_ex.c:1943:24
	and.w	r6, r5, r6, lsr #2
	lsl.w	lr, r7, r6
.Ltmp588:
	@DEBUG_VALUE: HAL_ADCEx_InjectedConfigChannel:tmpOffsetShifted <- $lr
	.loc	6 1948 96                       @ ../src/driver/stm32g4-v120/src/stm32g4xx_hal_adc_ex.c:1948:96
	ldr	r6, [r1]
.Ltmp589:
	@DEBUG_VALUE: LL_ADC_SetOffset:OffsetLevel <- $lr
	@DEBUG_VALUE: LL_ADC_SetOffset:Offsety <- $r2
	@DEBUG_VALUE: LL_ADC_SetOffset:ADCx <- $r8
	@DEBUG_VALUE: LL_ADC_SetOffset:Channel <- $r6
	.loc	7 3217 25                       @ ../src/driver/stm32g4-v120/inc/stm32g4xx_ll_adc.h:3217:25
	add.w	r5, r8, #96
.Ltmp590:
	@DEBUG_VALUE: LL_ADC_SetOffset:preg <- undef
	.loc	7 3219 3                        @ ../src/driver/stm32g4-v120/inc/stm32g4xx_ll_adc.h:3219:3
	ldr.w	r4, [r5, r2, lsl #2]
	movw	r7, #61440
	movt	r7, #1023
	and	r6, r6, #2080374784
.Ltmp591:
	ands	r4, r7
	orr.w	r7, lr, r6
	orrs	r7, r4
	orr	r7, r7, #-2147483648
	str.w	r7, [r5, r2, lsl #2]
.Ltmp592:
	.loc	6 1952 61                       @ ../src/driver/stm32g4-v120/src/stm32g4xx_hal_adc_ex.c:1952:61
	ldr	r2, [r1, #16]
.Ltmp593:
	.loc	6 1952 100 is_stmt 0            @ ../src/driver/stm32g4-v120/src/stm32g4xx_hal_adc_ex.c:1952:100
	ldr	r7, [r1, #24]
.Ltmp594:
	@DEBUG_VALUE: LL_ADC_SetOffsetSign:preg <- undef
	@DEBUG_VALUE: LL_ADC_SetOffsetSign:Offsety <- $r2
	@DEBUG_VALUE: LL_ADC_SetOffsetSign:ADCx <- $r8
	@DEBUG_VALUE: LL_ADC_SetOffsetSign:OffsetSign <- $r7
	.loc	7 3416 3 is_stmt 1              @ ../src/driver/stm32g4-v120/inc/stm32g4xx_ll_adc.h:3416:3
	ldr.w	r6, [r5, r2, lsl #2]
	bic	r6, r6, #16777216
	orrs	r7, r6
.Ltmp595:
	str.w	r7, [r5, r2, lsl #2]
.Ltmp596:
	.loc	6 1953 67                       @ ../src/driver/stm32g4-v120/src/stm32g4xx_hal_adc_ex.c:1953:67
	ldr	r2, [r1, #16]
.Ltmp597:
	.loc	6 1954 52                       @ ../src/driver/stm32g4-v120/src/stm32g4xx_hal_adc_ex.c:1954:52
	ldrb	r7, [r1, #28]
.Ltmp598:
	@DEBUG_VALUE: LL_ADC_SetOffsetSaturation:preg <- undef
	@DEBUG_VALUE: LL_ADC_SetOffsetSaturation:OffsetSaturation <- undef
	@DEBUG_VALUE: LL_ADC_SetOffsetSaturation:Offsety <- $r2
	@DEBUG_VALUE: LL_ADC_SetOffsetSaturation:ADCx <- $r8
	.loc	7 3471 3                        @ ../src/driver/stm32g4-v120/inc/stm32g4xx_ll_adc.h:3471:3
	ldr.w	r6, [r5, r2, lsl #2]
	cmp	r7, #1
	bic	r6, r6, #33554432
	it	eq
	addeq.w	r6, r6, #33554432
	str.w	r6, [r5, r2, lsl #2]
.Ltmp599:
.LBB21_47:
	@DEBUG_VALUE: HAL_ADCEx_InjectedConfigChannel:sConfigInjected <- $r1
	@DEBUG_VALUE: HAL_ADCEx_InjectedConfigChannel:hadc <- $r0
	@DEBUG_VALUE: HAL_ADCEx_InjectedConfigChannel:tmp_hal_status <- $r12
	@DEBUG_VALUE: LL_ADC_IsEnabled:ADCx <- $r8
	.loc	7 6716 12                       @ ../src/driver/stm32g4-v120/inc/stm32g4xx_ll_adc.h:6716:12
	ldr.w	r2, [r8, #8]
.Ltmp600:
	.loc	6 1983 7                        @ ../src/driver/stm32g4-v120/src/stm32g4xx_hal_adc_ex.c:1983:7
	lsls	r2, r2, #31
	bne	.LBB21_55
.Ltmp601:
@ %bb.48:
	@DEBUG_VALUE: HAL_ADCEx_InjectedConfigChannel:tmp_hal_status <- $r12
	@DEBUG_VALUE: HAL_ADCEx_InjectedConfigChannel:sConfigInjected <- $r1
	@DEBUG_VALUE: HAL_ADCEx_InjectedConfigChannel:hadc <- $r0
	.loc	6 1986 66                       @ ../src/driver/stm32g4-v120/src/stm32g4xx_hal_adc_ex.c:1986:66
	ldr	r7, [r1]
	.loc	6 1986 100 is_stmt 0            @ ../src/driver/stm32g4-v120/src/stm32g4xx_hal_adc_ex.c:1986:100
	ldr	r6, [r1, #12]
.Ltmp602:
	@DEBUG_VALUE: LL_ADC_SetChannelSingleDiff:Channel <- $r7
	@DEBUG_VALUE: LL_ADC_SetChannelSingleDiff:ADCx <- $r8
	@DEBUG_VALUE: LL_ADC_SetChannelSingleDiff:SingleDiff <- $r6
	.loc	6 0 100                         @ ../src/driver/stm32g4-v120/src/stm32g4xx_hal_adc_ex.c:0:100
	movw	r3, #65535
.Ltmp603:
	.loc	7 5495 3 is_stmt 1              @ ../src/driver/stm32g4-v120/inc/stm32g4xx_ll_adc.h:5495:3
	ldr.w	r5, [r8, #176]
	mov	r2, r7
	and	r4, r6, #24
	movt	r3, #7
	bfc	r2, #19, #13
	lsrs	r3, r4
	bics	r5, r2
	ands	r3, r7
	orrs	r3, r5
	movs	r5, #0
	movt	r5, #16511
.Ltmp604:
	.loc	6 1990 9                        @ ../src/driver/stm32g4-v120/src/stm32g4xx_hal_adc_ex.c:1990:9
	cmp	r6, r5
.Ltmp605:
	.loc	7 5495 3                        @ ../src/driver/stm32g4-v120/inc/stm32g4xx_ll_adc.h:5495:3
	str.w	r3, [r8, #176]
.Ltmp606:
	@DEBUG_VALUE: LL_ADC_SetChannelSingleDiff:Channel <- $r7
	@DEBUG_VALUE: LL_ADC_SetChannelSingleDiff:ADCx <- $r8
	.loc	6 1990 9                        @ ../src/driver/stm32g4-v120/src/stm32g4xx_hal_adc_ex.c:1990:9
	bne	.LBB21_55
.Ltmp607:
@ %bb.49:
	@DEBUG_VALUE: HAL_ADCEx_InjectedConfigChannel:tmp_hal_status <- $r12
	@DEBUG_VALUE: HAL_ADCEx_InjectedConfigChannel:sConfigInjected <- $r1
	@DEBUG_VALUE: HAL_ADCEx_InjectedConfigChannel:hadc <- $r0
	.loc	6 1993 64                       @ ../src/driver/stm32g4-v120/src/stm32g4xx_hal_adc_ex.c:1993:64
	cbz	r2, .LBB21_52
.Ltmp608:
@ %bb.50:
	@DEBUG_VALUE: HAL_ADCEx_InjectedConfigChannel:tmp_hal_status <- $r12
	@DEBUG_VALUE: HAL_ADCEx_InjectedConfigChannel:sConfigInjected <- $r1
	@DEBUG_VALUE: HAL_ADCEx_InjectedConfigChannel:hadc <- $r0
	@DEBUG_VALUE: __CLZ:value <- undef
	.file	8 "C:\\Users\\grodriguez\\Documents\\iit\\icub-firmware\\emBODY\\eBcode\\arch-arm\\libs\\lowlevel\\stm32hal\\proj" "../src/driver/stm32g4-v120/inc/cmsis_armclang.h"
	.loc	8 948 7                         @ ../src/driver/stm32g4-v120/inc/cmsis_armclang.h:948:7
	rbit	r2, r7
	clz	r2, r2
.Ltmp609:
	.loc	6 1993 64                       @ ../src/driver/stm32g4-v120/src/stm32g4xx_hal_adc_ex.c:1993:64
	adds	r2, #1
	and	r3, r2, #30
.Ltmp610:
	@DEBUG_VALUE: __CLZ:value <- undef
	@DEBUG_VALUE: __CLZ:value <- undef
	@DEBUG_VALUE: __CLZ:value <- undef
	@DEBUG_VALUE: __CLZ:value <- undef
	cmp	r3, #9
	and	r2, r2, #31
.Ltmp611:
	@DEBUG_VALUE: __CLZ:value <- undef
	@DEBUG_VALUE: __CLZ:value <- undef
	bhi	.LBB21_53
.Ltmp612:
.LBB21_51:
	@DEBUG_VALUE: HAL_ADCEx_InjectedConfigChannel:tmp_hal_status <- $r12
	@DEBUG_VALUE: HAL_ADCEx_InjectedConfigChannel:sConfigInjected <- $r1
	@DEBUG_VALUE: HAL_ADCEx_InjectedConfigChannel:hadc <- $r0
	.loc	6 0 64 is_stmt 0                @ ../src/driver/stm32g4-v120/src/stm32g4xx_hal_adc_ex.c:0:64
	movs	r3, #1
	.loc	6 1993 64                       @ ../src/driver/stm32g4-v120/src/stm32g4xx_hal_adc_ex.c:1993:64
	lsls	r3, r2
	add.w	r2, r2, r2, lsl #1
	orr.w	r2, r3, r2, lsl #20
	b	.LBB21_54
.Ltmp613:
.LBB21_52:
	@DEBUG_VALUE: HAL_ADCEx_InjectedConfigChannel:tmp_hal_status <- $r12
	@DEBUG_VALUE: HAL_ADCEx_InjectedConfigChannel:sConfigInjected <- $r1
	@DEBUG_VALUE: HAL_ADCEx_InjectedConfigChannel:hadc <- $r0
	.loc	6 0 64                          @ ../src/driver/stm32g4-v120/src/stm32g4xx_hal_adc_ex.c:0:64
	movs	r2, #1
	.loc	6 1993 64                       @ ../src/driver/stm32g4-v120/src/stm32g4xx_hal_adc_ex.c:1993:64
	add.w	r2, r2, r7, lsr #26
	and	r3, r2, #30
	cmp	r3, #10
	and	r2, r2, #31
	blo	.LBB21_51
.Ltmp614:
.LBB21_53:
	@DEBUG_VALUE: HAL_ADCEx_InjectedConfigChannel:tmp_hal_status <- $r12
	@DEBUG_VALUE: HAL_ADCEx_InjectedConfigChannel:sConfigInjected <- $r1
	@DEBUG_VALUE: HAL_ADCEx_InjectedConfigChannel:hadc <- $r0
	.loc	6 0 64                          @ ../src/driver/stm32g4-v120/src/stm32g4xx_hal_adc_ex.c:0:64
	movs	r3, #1
	movs	r7, #0
	.loc	6 1993 64                       @ ../src/driver/stm32g4-v120/src/stm32g4xx_hal_adc_ex.c:1993:64
	lsls	r3, r2
	add.w	r2, r2, r2, lsl #1
	movt	r7, #65056
	add.w	r2, r7, r2, lsl #20
	orrs	r2, r3
	orr	r2, r2, #33554432
.Ltmp615:
.LBB21_54:
	@DEBUG_VALUE: HAL_ADCEx_InjectedConfigChannel:tmp_hal_status <- $r12
	@DEBUG_VALUE: HAL_ADCEx_InjectedConfigChannel:sConfigInjected <- $r1
	@DEBUG_VALUE: HAL_ADCEx_InjectedConfigChannel:hadc <- $r0
	.loc	7 5331 25 is_stmt 1             @ ../src/driver/stm32g4-v120/inc/stm32g4xx_ll_adc.h:5331:25
	ubfx	r7, r2, #25, #1
.Ltmp616:
	@DEBUG_VALUE: LL_ADC_SetChannelSamplingTime:Channel <- $r2
	@DEBUG_VALUE: LL_ADC_SetChannelSamplingTime:ADCx <- $r8
	add.w	r7, r8, r7, lsl #2
.Ltmp617:
	@DEBUG_VALUE: LL_ADC_SetChannelSamplingTime:preg <- [DW_OP_plus_uconst 20, DW_OP_stack_value] $r7
	.loc	6 1993 207                      @ ../src/driver/stm32g4-v120/src/stm32g4xx_hal_adc_ex.c:1993:207
	ldr	r3, [r1, #8]
.Ltmp618:
	@DEBUG_VALUE: LL_ADC_SetChannelSamplingTime:SamplingTime <- $r3
	.loc	7 5333 3                        @ ../src/driver/stm32g4-v120/inc/stm32g4xx_ll_adc.h:5333:3
	ldr	r6, [r7, #20]
	ubfx	r2, r2, #20, #5
.Ltmp619:
	.loc	7 0 3 is_stmt 0                 @ ../src/driver/stm32g4-v120/inc/stm32g4xx_ll_adc.h:0:3
	movs	r5, #7
	.loc	7 5333 3                        @ ../src/driver/stm32g4-v120/inc/stm32g4xx_ll_adc.h:5333:3
	lsls	r5, r2
	bics	r6, r5
	lsl.w	r2, r3, r2
	orrs	r2, r6
	str	r2, [r7, #20]
.Ltmp620:
.LBB21_55:
	@DEBUG_VALUE: HAL_ADCEx_InjectedConfigChannel:tmp_hal_status <- $r12
	@DEBUG_VALUE: HAL_ADCEx_InjectedConfigChannel:sConfigInjected <- $r1
	@DEBUG_VALUE: HAL_ADCEx_InjectedConfigChannel:hadc <- $r0
	.loc	6 2004 7 is_stmt 1              @ ../src/driver/stm32g4-v120/src/stm32g4xx_hal_adc_ex.c:2004:7
	ldr	r6, [r1]
	movs	r1, #0
.Ltmp621:
	@DEBUG_VALUE: HAL_ADCEx_InjectedConfigChannel:sConfigInjected <- [DW_OP_LLVM_entry_value 1] $r1
	.loc	6 0 7 is_stmt 0                 @ ../src/driver/stm32g4-v120/src/stm32g4xx_hal_adc_ex.c:0:7
	movt	r1, #32776
.Ltmp622:
	.loc	6 2004 7                        @ ../src/driver/stm32g4-v120/src/stm32g4xx_hal_adc_ex.c:2004:7
	tst	r6, r1
	beq	.LBB21_71
.Ltmp623:
@ %bb.56:
	@DEBUG_VALUE: HAL_ADCEx_InjectedConfigChannel:tmp_hal_status <- $r12
	@DEBUG_VALUE: HAL_ADCEx_InjectedConfigChannel:hadc <- $r0
	@DEBUG_VALUE: HAL_ADCEx_InjectedConfigChannel:sConfigInjected <- [DW_OP_LLVM_entry_value 1] $r1
	.loc	6 0 7                           @ ../src/driver/stm32g4-v120/src/stm32g4xx_hal_adc_ex.c:0:7
	movw	r1, #256
	movt	r1, #20480
.Ltmp624:
	.loc	6 2006 66 is_stmt 1             @ ../src/driver/stm32g4-v120/src/stm32g4xx_hal_adc_ex.c:2006:66
	add.w	r4, r1, #512
	mov	r2, r4
	cmp	r8, r1
	it	ne
	addne.w	r2, r1, #1536
	mov	r5, r2
	cmp.w	r8, #1342177280
	it	eq
	moveq	r5, r4
.Ltmp625:
	@DEBUG_VALUE: LL_ADC_GetCommonPathInternalCh:ADCxy_COMMON <- $r5
	.loc	7 2876 21                       @ ../src/driver/stm32g4-v120/inc/stm32g4xx_ll_adc.h:2876:21
	ldr	r7, [r5, #8]
	movs	r3, #0
	movt	r3, #49953
.Ltmp626:
	.loc	6 2011 10                       @ ../src/driver/stm32g4-v120/src/stm32g4xx_hal_adc_ex.c:2011:10
	cmp	r6, r3
.Ltmp627:
	.loc	7 2876 21                       @ ../src/driver/stm32g4-v120/inc/stm32g4xx_ll_adc.h:2876:21
	and	lr, r7, #29360128
.Ltmp628:
	@DEBUG_VALUE: HAL_ADCEx_InjectedConfigChannel:tmp_config_internal_channel <- $lr
	@DEBUG_VALUE: LL_ADC_GetCommonPathInternalCh:ADCxy_COMMON <- $r5
	.loc	6 2011 10                       @ ../src/driver/stm32g4-v120/src/stm32g4xx_hal_adc_ex.c:2011:10
	beq	.LBB21_58
.Ltmp629:
@ %bb.57:
	@DEBUG_VALUE: HAL_ADCEx_InjectedConfigChannel:tmp_hal_status <- $r12
	@DEBUG_VALUE: HAL_ADCEx_InjectedConfigChannel:hadc <- $r0
	@DEBUG_VALUE: HAL_ADCEx_InjectedConfigChannel:tmp_config_internal_channel <- $lr
	@DEBUG_VALUE: HAL_ADCEx_InjectedConfigChannel:sConfigInjected <- [DW_OP_LLVM_entry_value 1] $r1
	.loc	6 0 10 is_stmt 0                @ ../src/driver/stm32g4-v120/src/stm32g4xx_hal_adc_ex.c:0:10
	movs	r3, #16
	movt	r3, #37056
	.loc	6 2011 10                       @ ../src/driver/stm32g4-v120/src/stm32g4xx_hal_adc_ex.c:2011:10
	cmp	r6, r3
	bne	.LBB21_64
.Ltmp630:
.LBB21_58:
	@DEBUG_VALUE: HAL_ADCEx_InjectedConfigChannel:tmp_hal_status <- $r12
	@DEBUG_VALUE: HAL_ADCEx_InjectedConfigChannel:hadc <- $r0
	@DEBUG_VALUE: HAL_ADCEx_InjectedConfigChannel:tmp_config_internal_channel <- $lr
	@DEBUG_VALUE: HAL_ADCEx_InjectedConfigChannel:sConfigInjected <- [DW_OP_LLVM_entry_value 1] $r1
	.loc	6 2010 9 is_stmt 1              @ ../src/driver/stm32g4-v120/src/stm32g4xx_hal_adc_ex.c:2010:9
	lsls	r1, r7, #8
	bmi	.LBB21_71
.Ltmp631:
@ %bb.59:
	@DEBUG_VALUE: HAL_ADCEx_InjectedConfigChannel:tmp_hal_status <- $r12
	@DEBUG_VALUE: HAL_ADCEx_InjectedConfigChannel:hadc <- $r0
	@DEBUG_VALUE: HAL_ADCEx_InjectedConfigChannel:tmp_config_internal_channel <- $lr
	@DEBUG_VALUE: HAL_ADCEx_InjectedConfigChannel:sConfigInjected <- [DW_OP_LLVM_entry_value 1] $r1
	.loc	6 0 9 is_stmt 0                 @ ../src/driver/stm32g4-v120/src/stm32g4xx_hal_adc_ex.c:0:9
	movw	r1, #1536
	movt	r1, #20480
.Ltmp632:
	.loc	6 2014 11 is_stmt 1             @ ../src/driver/stm32g4-v120/src/stm32g4xx_hal_adc_ex.c:2014:11
	cmp	r8, r1
	beq	.LBB21_61
.Ltmp633:
@ %bb.60:
	@DEBUG_VALUE: HAL_ADCEx_InjectedConfigChannel:tmp_hal_status <- $r12
	@DEBUG_VALUE: HAL_ADCEx_InjectedConfigChannel:hadc <- $r0
	@DEBUG_VALUE: HAL_ADCEx_InjectedConfigChannel:tmp_config_internal_channel <- $lr
	@DEBUG_VALUE: HAL_ADCEx_InjectedConfigChannel:sConfigInjected <- [DW_OP_LLVM_entry_value 1] $r1
	cmp.w	r8, #1342177280
	bne	.LBB21_71
.Ltmp634:
.LBB21_61:
	@DEBUG_VALUE: HAL_ADCEx_InjectedConfigChannel:tmp_hal_status <- $r12
	@DEBUG_VALUE: HAL_ADCEx_InjectedConfigChannel:hadc <- $r0
	@DEBUG_VALUE: HAL_ADCEx_InjectedConfigChannel:tmp_config_internal_channel <- $lr
	@DEBUG_VALUE: HAL_ADCEx_InjectedConfigChannel:sConfigInjected <- [DW_OP_LLVM_entry_value 1] $r1
	@DEBUG_VALUE: LL_ADC_SetCommonPathInternalCh:ADCxy_COMMON <- $r5
	@DEBUG_VALUE: LL_ADC_SetCommonPathInternalCh:PathInternal <- [DW_OP_constu 8388608, DW_OP_or, DW_OP_stack_value] $lr
	.loc	7 2795 3                        @ ../src/driver/stm32g4-v120/inc/stm32g4xx_ll_adc.h:2795:3
	ldr	r1, [r5, #8]
	movw	r2, #11619
	bic	r1, r1, #29360128
	orr.w	r1, r1, lr
	orr	r1, r1, #8388608
	str	r1, [r5, #8]
.Ltmp635:
	.loc	6 2024 72                       @ ../src/driver/stm32g4-v120/src/stm32g4xx_hal_adc_ex.c:2024:72
	movw	r1, :lower16:SystemCoreClock
	movt	r1, :upper16:SystemCoreClock
	ldr	r1, [r1]
	movt	r2, #1342
	.loc	6 2024 88 is_stmt 0             @ ../src/driver/stm32g4-v120/src/stm32g4xx_hal_adc_ex.c:2024:88
	lsrs	r1, r1, #6
	umull	r1, r2, r1, r2
	lsrs	r1, r2, #6
	.loc	6 2024 69                       @ ../src/driver/stm32g4-v120/src/stm32g4xx_hal_adc_ex.c:2024:69
	add.w	r1, r1, r1, lsl #1
	lsls	r1, r1, #2
.Ltmp636:
	.p2align	2
.LBB21_62:                              @ =>This Inner Loop Header: Depth=1
	@DEBUG_VALUE: HAL_ADCEx_InjectedConfigChannel:tmp_hal_status <- $r12
	@DEBUG_VALUE: HAL_ADCEx_InjectedConfigChannel:hadc <- $r0
	@DEBUG_VALUE: HAL_ADCEx_InjectedConfigChannel:tmp_config_internal_channel <- $lr
	@DEBUG_VALUE: HAL_ADCEx_InjectedConfigChannel:sConfigInjected <- [DW_OP_LLVM_entry_value 1] $r1
	.loc	6 0 0                           @ ../src/driver/stm32g4-v120/src/stm32g4xx_hal_adc_ex.c:0:0
	str	r1, [sp]
	.loc	6 2025 16 is_stmt 1             @ ../src/driver/stm32g4-v120/src/stm32g4xx_hal_adc_ex.c:2025:16
	ldr	r1, [sp]
	.loc	6 2025 9 is_stmt 0              @ ../src/driver/stm32g4-v120/src/stm32g4xx_hal_adc_ex.c:2025:9
	cbz	r1, .LBB21_71
.Ltmp637:
@ %bb.63:                               @   in Loop: Header=BB21_62 Depth=1
	@DEBUG_VALUE: HAL_ADCEx_InjectedConfigChannel:tmp_hal_status <- $r12
	@DEBUG_VALUE: HAL_ADCEx_InjectedConfigChannel:hadc <- $r0
	@DEBUG_VALUE: HAL_ADCEx_InjectedConfigChannel:tmp_config_internal_channel <- $lr
	@DEBUG_VALUE: HAL_ADCEx_InjectedConfigChannel:sConfigInjected <- [DW_OP_LLVM_entry_value 1] $r1
	.loc	6 2027 26 is_stmt 1             @ ../src/driver/stm32g4-v120/src/stm32g4xx_hal_adc_ex.c:2027:26
	ldr	r1, [sp]
	subs	r1, #1
	b	.LBB21_62
.Ltmp638:
.LBB21_64:
	@DEBUG_VALUE: HAL_ADCEx_InjectedConfigChannel:tmp_hal_status <- $r12
	@DEBUG_VALUE: HAL_ADCEx_InjectedConfigChannel:hadc <- $r0
	@DEBUG_VALUE: HAL_ADCEx_InjectedConfigChannel:tmp_config_internal_channel <- $lr
	@DEBUG_VALUE: HAL_ADCEx_InjectedConfigChannel:sConfigInjected <- [DW_OP_LLVM_entry_value 1] $r1
	.loc	6 0 26 is_stmt 0                @ ../src/driver/stm32g4-v120/src/stm32g4xx_hal_adc_ex.c:0:26
	movs	r3, #0
	movt	r3, #51026
.Ltmp639:
	.loc	6 2032 14 is_stmt 1             @ ../src/driver/stm32g4-v120/src/stm32g4xx_hal_adc_ex.c:2032:14
	cmp	r6, r3
	it	eq
	andseq	r3, r7, #16777216
	beq	.LBB21_70
.Ltmp640:
@ %bb.65:
	@DEBUG_VALUE: HAL_ADCEx_InjectedConfigChannel:tmp_hal_status <- $r12
	@DEBUG_VALUE: HAL_ADCEx_InjectedConfigChannel:hadc <- $r0
	@DEBUG_VALUE: HAL_ADCEx_InjectedConfigChannel:tmp_config_internal_channel <- $lr
	@DEBUG_VALUE: HAL_ADCEx_InjectedConfigChannel:sConfigInjected <- [DW_OP_LLVM_entry_value 1] $r1
	.loc	6 0 14 is_stmt 0                @ ../src/driver/stm32g4-v120/src/stm32g4xx_hal_adc_ex.c:0:14
	movs	r3, #0
	movt	r3, #52100
.Ltmp641:
	.loc	6 2041 14 is_stmt 1             @ ../src/driver/stm32g4-v120/src/stm32g4xx_hal_adc_ex.c:2041:14
	cmp	r6, r3
	it	eq
	andseq	r3, r7, #4194304
	bne	.LBB21_71
.Ltmp642:
@ %bb.66:
	@DEBUG_VALUE: HAL_ADCEx_InjectedConfigChannel:tmp_hal_status <- $r12
	@DEBUG_VALUE: HAL_ADCEx_InjectedConfigChannel:hadc <- $r0
	@DEBUG_VALUE: HAL_ADCEx_InjectedConfigChannel:tmp_config_internal_channel <- $lr
	@DEBUG_VALUE: HAL_ADCEx_InjectedConfigChannel:sConfigInjected <- [DW_OP_LLVM_entry_value 1] $r1
	.loc	6 2043 11                       @ ../src/driver/stm32g4-v120/src/stm32g4xx_hal_adc_ex.c:2043:11
	cmp.w	r8, #1342177280
	beq	.LBB21_69
.Ltmp643:
@ %bb.67:
	@DEBUG_VALUE: HAL_ADCEx_InjectedConfigChannel:tmp_hal_status <- $r12
	@DEBUG_VALUE: HAL_ADCEx_InjectedConfigChannel:hadc <- $r0
	@DEBUG_VALUE: HAL_ADCEx_InjectedConfigChannel:tmp_config_internal_channel <- $lr
	@DEBUG_VALUE: HAL_ADCEx_InjectedConfigChannel:sConfigInjected <- [DW_OP_LLVM_entry_value 1] $r1
	cmp	r8, r1
	beq	.LBB21_71
.Ltmp644:
@ %bb.68:
	@DEBUG_VALUE: HAL_ADCEx_InjectedConfigChannel:tmp_hal_status <- $r12
	@DEBUG_VALUE: HAL_ADCEx_InjectedConfigChannel:hadc <- $r0
	@DEBUG_VALUE: HAL_ADCEx_InjectedConfigChannel:tmp_config_internal_channel <- $lr
	@DEBUG_VALUE: HAL_ADCEx_InjectedConfigChannel:sConfigInjected <- [DW_OP_LLVM_entry_value 1] $r1
	.loc	6 0 11 is_stmt 0                @ ../src/driver/stm32g4-v120/src/stm32g4xx_hal_adc_ex.c:0:11
	mov	r4, r2
.Ltmp645:
.LBB21_69:
	@DEBUG_VALUE: HAL_ADCEx_InjectedConfigChannel:tmp_hal_status <- $r12
	@DEBUG_VALUE: HAL_ADCEx_InjectedConfigChannel:hadc <- $r0
	@DEBUG_VALUE: HAL_ADCEx_InjectedConfigChannel:tmp_config_internal_channel <- $lr
	@DEBUG_VALUE: HAL_ADCEx_InjectedConfigChannel:sConfigInjected <- [DW_OP_LLVM_entry_value 1] $r1
	@DEBUG_VALUE: LL_ADC_SetCommonPathInternalCh:ADCxy_COMMON <- $r4
	@DEBUG_VALUE: LL_ADC_SetCommonPathInternalCh:PathInternal <- [DW_OP_constu 4194304, DW_OP_or, DW_OP_stack_value] $lr
	.loc	7 2795 3 is_stmt 1              @ ../src/driver/stm32g4-v120/inc/stm32g4xx_ll_adc.h:2795:3
	ldr	r1, [r4, #8]
	bic	r1, r1, #29360128
	orr.w	r1, r1, lr
	orr	r1, r1, #4194304
	str	r1, [r4, #8]
	b	.LBB21_71
.Ltmp646:
.LBB21_70:
	@DEBUG_VALUE: HAL_ADCEx_InjectedConfigChannel:tmp_hal_status <- $r12
	@DEBUG_VALUE: HAL_ADCEx_InjectedConfigChannel:hadc <- $r0
	@DEBUG_VALUE: HAL_ADCEx_InjectedConfigChannel:tmp_config_internal_channel <- $lr
	@DEBUG_VALUE: HAL_ADCEx_InjectedConfigChannel:sConfigInjected <- [DW_OP_LLVM_entry_value 1] $r1
	@DEBUG_VALUE: LL_ADC_SetCommonPathInternalCh:ADCxy_COMMON <- $r5
	@DEBUG_VALUE: LL_ADC_SetCommonPathInternalCh:PathInternal <- [DW_OP_constu 16777216, DW_OP_or, DW_OP_stack_value] $lr
	.loc	7 2795 3 is_stmt 0              @ ../src/driver/stm32g4-v120/inc/stm32g4xx_ll_adc.h:2795:3
	ldr	r1, [r5, #8]
	bic	r1, r1, #29360128
	orr.w	r1, r1, lr
	orr	r1, r1, #16777216
	str	r1, [r5, #8]
.Ltmp647:
.LBB21_71:
	@DEBUG_VALUE: HAL_ADCEx_InjectedConfigChannel:tmp_hal_status <- $r12
	@DEBUG_VALUE: HAL_ADCEx_InjectedConfigChannel:hadc <- $r0
	@DEBUG_VALUE: HAL_ADCEx_InjectedConfigChannel:sConfigInjected <- [DW_OP_LLVM_entry_value 1] $r1
	.loc	7 0 3                           @ ../src/driver/stm32g4-v120/inc/stm32g4xx_ll_adc.h:0:3
	movs	r1, #0
.Ltmp648:
	.loc	6 2056 3 is_stmt 1              @ ../src/driver/stm32g4-v120/src/stm32g4xx_hal_adc_ex.c:2056:3
	strb.w	r1, [r0, #88]
.Ltmp649:
.LBB21_72:
	@DEBUG_VALUE: HAL_ADCEx_InjectedConfigChannel:hadc <- $r0
	.loc	6 2060 1                        @ ../src/driver/stm32g4-v120/src/stm32g4xx_hal_adc_ex.c:2060:1
	mov	r0, r12
.Ltmp650:
	@DEBUG_VALUE: HAL_ADCEx_InjectedConfigChannel:hadc <- [DW_OP_LLVM_entry_value 1] $r0
	add	sp, #4
	pop.w	{r4, r5, r6, r7, r8, pc}
.Ltmp651:
.Lfunc_end21:
	.size	HAL_ADCEx_InjectedConfigChannel, .Lfunc_end21-HAL_ADCEx_InjectedConfigChannel
	.cfi_endproc
	.cantunwind
	.fnend
                                        @ -- End function
	.section	.text.HAL_ADCEx_MultiModeConfigChannel,"ax",%progbits
	.hidden	HAL_ADCEx_MultiModeConfigChannel @ -- Begin function HAL_ADCEx_MultiModeConfigChannel
	.globl	HAL_ADCEx_MultiModeConfigChannel
	.p2align	1
	.type	HAL_ADCEx_MultiModeConfigChannel,%function
	.code	16                              @ @HAL_ADCEx_MultiModeConfigChannel
	.thumb_func
HAL_ADCEx_MultiModeConfigChannel:
.Lfunc_begin22:
	.loc	6 2080 0                        @ ../src/driver/stm32g4-v120/src/stm32g4xx_hal_adc_ex.c:2080:0
	.fnstart
	.cfi_startproc
@ %bb.0:
	@DEBUG_VALUE: HAL_ADCEx_MultiModeConfigChannel:hadc <- $r0
	@DEBUG_VALUE: HAL_ADCEx_MultiModeConfigChannel:hadc <- $r0
	@DEBUG_VALUE: HAL_ADCEx_MultiModeConfigChannel:multimode <- $r1
	.save	{r4, r5, r6, lr}
	push	{r4, r5, r6, lr}
	.cfi_def_cfa_offset 16
	.cfi_offset lr, -4
	.cfi_offset r6, -8
	.cfi_offset r5, -12
	.cfi_offset r4, -16
.Ltmp652:
	@DEBUG_VALUE: HAL_ADCEx_MultiModeConfigChannel:tmp_hal_status <- 0
	.loc	6 2096 3 prologue_end           @ ../src/driver/stm32g4-v120/src/stm32g4xx_hal_adc_ex.c:2096:3
	ldrb.w	r2, [r0, #88]
.Ltmp653:
	.loc	6 2096 3 is_stmt 0              @ ../src/driver/stm32g4-v120/src/stm32g4xx_hal_adc_ex.c:2096:3
	cmp	r2, #1
	@DEBUG_VALUE: HAL_ADCEx_MultiModeConfigChannel:multimode <- $r1
	bne	.LBB22_2
.Ltmp654:
@ %bb.1:
	@DEBUG_VALUE: HAL_ADCEx_MultiModeConfigChannel:multimode <- $r1
	@DEBUG_VALUE: HAL_ADCEx_MultiModeConfigChannel:hadc <- $r0
	@DEBUG_VALUE: HAL_ADCEx_MultiModeConfigChannel:tmp_hal_status <- 0
	.loc	6 0 3                           @ ../src/driver/stm32g4-v120/src/stm32g4xx_hal_adc_ex.c:0:3
	movs	r1, #2
.Ltmp655:
	@DEBUG_VALUE: HAL_ADCEx_MultiModeConfigChannel:multimode <- [DW_OP_LLVM_entry_value 1] $r1
	b	.LBB22_22
.Ltmp656:
.LBB22_2:
	@DEBUG_VALUE: HAL_ADCEx_MultiModeConfigChannel:multimode <- $r1
	@DEBUG_VALUE: HAL_ADCEx_MultiModeConfigChannel:hadc <- $r0
	@DEBUG_VALUE: HAL_ADCEx_MultiModeConfigChannel:tmp_hal_status <- 0
	.loc	6 2098 3 is_stmt 1              @ ../src/driver/stm32g4-v120/src/stm32g4xx_hal_adc_ex.c:2098:3
	ldr	r2, [r0]
	movw	r12, #8
	movt	r12, #20480
	cmp.w	r2, #1342177280
	add.w	r5, r12, #248
	beq	.LBB22_5
.Ltmp657:
@ %bb.3:
	@DEBUG_VALUE: HAL_ADCEx_MultiModeConfigChannel:multimode <- $r1
	@DEBUG_VALUE: HAL_ADCEx_MultiModeConfigChannel:hadc <- $r0
	@DEBUG_VALUE: HAL_ADCEx_MultiModeConfigChannel:tmp_hal_status <- 0
	.loc	6 0 3 is_stmt 0                 @ ../src/driver/stm32g4-v120/src/stm32g4xx_hal_adc_ex.c:0:3
	movw	r3, #1024
	movt	r3, #20480
	.loc	6 2098 3                        @ ../src/driver/stm32g4-v120/src/stm32g4xx_hal_adc_ex.c:2098:3
	cmp	r2, r3
	bne	.LBB22_10
.Ltmp658:
@ %bb.4:
	@DEBUG_VALUE: HAL_ADCEx_MultiModeConfigChannel:multimode <- $r1
	@DEBUG_VALUE: HAL_ADCEx_MultiModeConfigChannel:hadc <- $r0
	@DEBUG_VALUE: HAL_ADCEx_MultiModeConfigChannel:tmp_hal_status <- 0
	.loc	6 0 3                           @ ../src/driver/stm32g4-v120/src/stm32g4xx_hal_adc_ex.c:0:3
	add.w	r3, r12, #1272
.Ltmp659:
	@DEBUG_VALUE: HAL_ADCEx_MultiModeConfigChannel:tmphadcSlave <- [DW_OP_LLVM_fragment 0 32] undef
	b	.LBB22_6
.Ltmp660:
.LBB22_5:
	@DEBUG_VALUE: HAL_ADCEx_MultiModeConfigChannel:multimode <- $r1
	@DEBUG_VALUE: HAL_ADCEx_MultiModeConfigChannel:hadc <- $r0
	@DEBUG_VALUE: HAL_ADCEx_MultiModeConfigChannel:tmp_hal_status <- 0
	mov	r3, r5
.Ltmp661:
.LBB22_6:
	@DEBUG_VALUE: HAL_ADCEx_MultiModeConfigChannel:multimode <- $r1
	@DEBUG_VALUE: HAL_ADCEx_MultiModeConfigChannel:hadc <- $r0
	@DEBUG_VALUE: HAL_ADCEx_MultiModeConfigChannel:tmp_hal_status <- 0
	@DEBUG_VALUE: HAL_ADCEx_MultiModeConfigChannel:tmphadcSlave <- [DW_OP_LLVM_fragment 0 32] 0
	@DEBUG_VALUE: LL_ADC_REG_IsConversionOngoing:ADCx <- 0
	.loc	7 6838 12 is_stmt 1             @ ../src/driver/stm32g4-v120/inc/stm32g4xx_ll_adc.h:6838:12
	ldr	r3, [r3, #8]
.Ltmp662:
	@DEBUG_VALUE: LL_ADC_REG_IsConversionOngoing:ADCx <- $r2
	@DEBUG_VALUE: HAL_ADCEx_MultiModeConfigChannel:tmphadcSlave_conversion_on_going <- [DW_OP_constu 2, DW_OP_shr, DW_OP_constu 1, DW_OP_and, DW_OP_stack_value] $r3
	.loc	7 6838 12 is_stmt 0             @ ../src/driver/stm32g4-v120/inc/stm32g4xx_ll_adc.h:6838:12
	ldr	r4, [r2, #8]
.Ltmp663:
	.loc	6 2118 7 is_stmt 1              @ ../src/driver/stm32g4-v120/src/stm32g4xx_hal_adc_ex.c:2118:7
	orrs	r3, r4
.Ltmp664:
	lsls	r3, r3, #29
	bmi	.LBB22_10
.Ltmp665:
@ %bb.7:
	@DEBUG_VALUE: HAL_ADCEx_MultiModeConfigChannel:multimode <- $r1
	@DEBUG_VALUE: HAL_ADCEx_MultiModeConfigChannel:hadc <- $r0
	@DEBUG_VALUE: HAL_ADCEx_MultiModeConfigChannel:tmphadcSlave <- [DW_OP_LLVM_fragment 0 32] 0
	@DEBUG_VALUE: HAL_ADCEx_MultiModeConfigChannel:tmp_hal_status <- 0
	@DEBUG_VALUE: HAL_ADCEx_MultiModeConfigChannel:tmpADC_Common <- undef
	.loc	6 0 7 is_stmt 0                 @ ../src/driver/stm32g4-v120/src/stm32g4xx_hal_adc_ex.c:0:7
	mov.w	r3, #1792
.Ltmp666:
	.loc	6 2126 20 is_stmt 1             @ ../src/driver/stm32g4-v120/src/stm32g4xx_hal_adc_ex.c:2126:20
	ldr.w	lr, [r1]
	.loc	6 0 0 is_stmt 0                 @ ../src/driver/stm32g4-v120/src/stm32g4xx_hal_adc_ex.c:0:0
	cmp	r2, r5
	it	eq
	moveq.w	r3, #768
	cmp.w	r2, #1342177280
	it	eq
	moveq.w	r3, #768
	ldr.w	r4, [r12, r3]
.Ltmp667:
	.loc	6 2126 9                        @ ../src/driver/stm32g4-v120/src/stm32g4xx_hal_adc_ex.c:2126:9
	cmp.w	lr, #0
.Ltmp668:
	.loc	6 0 0                           @ ../src/driver/stm32g4-v120/src/stm32g4xx_hal_adc_ex.c:0:0
	bic	r4, r4, #57344
.Ltmp669:
	.loc	6 2126 9                        @ ../src/driver/stm32g4-v120/src/stm32g4xx_hal_adc_ex.c:2126:9
	beq	.LBB22_11
.Ltmp670:
@ %bb.8:
	@DEBUG_VALUE: HAL_ADCEx_MultiModeConfigChannel:multimode <- $r1
	@DEBUG_VALUE: HAL_ADCEx_MultiModeConfigChannel:hadc <- $r0
	@DEBUG_VALUE: HAL_ADCEx_MultiModeConfigChannel:tmphadcSlave <- [DW_OP_LLVM_fragment 0 32] 0
	@DEBUG_VALUE: HAL_ADCEx_MultiModeConfigChannel:tmp_hal_status <- 0
	.loc	6 2128 7 is_stmt 1              @ ../src/driver/stm32g4-v120/src/stm32g4xx_hal_adc_ex.c:2128:7
	ldr	r5, [r1, #4]
	ldrb.w	r6, [r0, #56]
	orrs	r4, r5
	movw	r5, #256
.Ltmp671:
	.loc	6 2142 11                       @ ../src/driver/stm32g4-v120/src/stm32g4xx_hal_adc_ex.c:2142:11
	orr	r2, r2, #256
	movt	r5, #20480
.Ltmp672:
	.loc	6 2128 7                        @ ../src/driver/stm32g4-v120/src/stm32g4xx_hal_adc_ex.c:2128:7
	orr.w	r4, r4, r6, lsl #13
.Ltmp673:
	.loc	6 2142 11                       @ ../src/driver/stm32g4-v120/src/stm32g4xx_hal_adc_ex.c:2142:11
	cmp	r2, r5
.Ltmp674:
	.loc	6 2128 7                        @ ../src/driver/stm32g4-v120/src/stm32g4xx_hal_adc_ex.c:2128:7
	str.w	r4, [r12, r3]
.Ltmp675:
	.loc	6 2142 11                       @ ../src/driver/stm32g4-v120/src/stm32g4xx_hal_adc_ex.c:2142:11
	bne	.LBB22_13
.Ltmp676:
@ %bb.9:
	@DEBUG_VALUE: HAL_ADCEx_MultiModeConfigChannel:multimode <- $r1
	@DEBUG_VALUE: HAL_ADCEx_MultiModeConfigChannel:hadc <- $r0
	@DEBUG_VALUE: HAL_ADCEx_MultiModeConfigChannel:tmphadcSlave <- [DW_OP_LLVM_fragment 0 32] 0
	@DEBUG_VALUE: HAL_ADCEx_MultiModeConfigChannel:tmp_hal_status <- 0
	.loc	7 6716 12                       @ ../src/driver/stm32g4-v120/inc/stm32g4xx_ll_adc.h:6716:12
	ldr.w	r2, [r12]
.Ltmp677:
	@DEBUG_VALUE: LL_ADC_IsEnabled:ADCx <- undef
	.loc	7 6716 12 is_stmt 0             @ ../src/driver/stm32g4-v120/inc/stm32g4xx_ll_adc.h:6716:12
	ldr.w	r4, [r12, #256]
.Ltmp678:
	@DEBUG_VALUE: LL_ADC_IsEnabled:ADCx <- undef
	.loc	7 0 12                          @ ../src/driver/stm32g4-v120/inc/stm32g4xx_ll_adc.h:0:12
	b	.LBB22_14
.Ltmp679:
.LBB22_10:
	@DEBUG_VALUE: HAL_ADCEx_MultiModeConfigChannel:multimode <- $r1
	@DEBUG_VALUE: HAL_ADCEx_MultiModeConfigChannel:hadc <- $r0
	@DEBUG_VALUE: HAL_ADCEx_MultiModeConfigChannel:tmp_hal_status <- 0
	ldr	r1, [r0, #92]
.Ltmp680:
	@DEBUG_VALUE: HAL_ADCEx_MultiModeConfigChannel:multimode <- [DW_OP_LLVM_entry_value 1] $r1
	orr	r1, r1, #32
	str	r1, [r0, #92]
	movs	r1, #1
.Ltmp681:
	@DEBUG_VALUE: HAL_ADCEx_MultiModeConfigChannel:tmp_hal_status <- 1
	b	.LBB22_21
.Ltmp682:
.LBB22_11:
	@DEBUG_VALUE: HAL_ADCEx_MultiModeConfigChannel:multimode <- $r1
	@DEBUG_VALUE: HAL_ADCEx_MultiModeConfigChannel:hadc <- $r0
	@DEBUG_VALUE: HAL_ADCEx_MultiModeConfigChannel:tmphadcSlave <- [DW_OP_LLVM_fragment 0 32] 0
	@DEBUG_VALUE: HAL_ADCEx_MultiModeConfigChannel:tmp_hal_status <- 0
	@DEBUG_VALUE: HAL_ADCEx_MultiModeConfigChannel:tmpADC_Common <- undef
	.loc	6 2159 11 is_stmt 1             @ ../src/driver/stm32g4-v120/src/stm32g4xx_hal_adc_ex.c:2159:11
	orr	r1, r2, #256
.Ltmp683:
	@DEBUG_VALUE: HAL_ADCEx_MultiModeConfigChannel:multimode <- [DW_OP_LLVM_entry_value 1] $r1
	.loc	6 0 11 is_stmt 0                @ ../src/driver/stm32g4-v120/src/stm32g4xx_hal_adc_ex.c:0:11
	movw	r2, #256
	movt	r2, #20480
	.loc	6 2159 11                       @ ../src/driver/stm32g4-v120/src/stm32g4xx_hal_adc_ex.c:2159:11
	cmp	r1, r2
.Ltmp684:
	.loc	6 2154 7 is_stmt 1              @ ../src/driver/stm32g4-v120/src/stm32g4xx_hal_adc_ex.c:2154:7
	str.w	r4, [r12, r3]
.Ltmp685:
	.loc	6 2159 11                       @ ../src/driver/stm32g4-v120/src/stm32g4xx_hal_adc_ex.c:2159:11
	bne	.LBB22_16
.Ltmp686:
@ %bb.12:
	@DEBUG_VALUE: HAL_ADCEx_MultiModeConfigChannel:hadc <- $r0
	@DEBUG_VALUE: HAL_ADCEx_MultiModeConfigChannel:multimode <- [DW_OP_LLVM_entry_value 1] $r1
	@DEBUG_VALUE: HAL_ADCEx_MultiModeConfigChannel:tmphadcSlave <- [DW_OP_LLVM_fragment 0 32] 0
	@DEBUG_VALUE: HAL_ADCEx_MultiModeConfigChannel:tmp_hal_status <- 0
	.loc	7 6716 12                       @ ../src/driver/stm32g4-v120/inc/stm32g4xx_ll_adc.h:6716:12
	ldr.w	r1, [r12]
.Ltmp687:
	@DEBUG_VALUE: LL_ADC_IsEnabled:ADCx <- undef
	.loc	7 6716 12 is_stmt 0             @ ../src/driver/stm32g4-v120/inc/stm32g4xx_ll_adc.h:6716:12
	ldr.w	r2, [r12, #256]
.Ltmp688:
	@DEBUG_VALUE: LL_ADC_IsEnabled:ADCx <- undef
	.loc	7 0 12                          @ ../src/driver/stm32g4-v120/inc/stm32g4xx_ll_adc.h:0:12
	b	.LBB22_17
.Ltmp689:
.LBB22_13:
	@DEBUG_VALUE: HAL_ADCEx_MultiModeConfigChannel:multimode <- $r1
	@DEBUG_VALUE: HAL_ADCEx_MultiModeConfigChannel:hadc <- $r0
	@DEBUG_VALUE: HAL_ADCEx_MultiModeConfigChannel:tmphadcSlave <- [DW_OP_LLVM_fragment 0 32] 0
	@DEBUG_VALUE: HAL_ADCEx_MultiModeConfigChannel:tmp_hal_status <- 0
	.loc	7 6716 12                       @ ../src/driver/stm32g4-v120/inc/stm32g4xx_ll_adc.h:6716:12
	ldr.w	r4, [r12, #1024]
.Ltmp690:
	@DEBUG_VALUE: LL_ADC_IsEnabled:ADCx <- undef
	.loc	7 6716 12                       @ ../src/driver/stm32g4-v120/inc/stm32g4xx_ll_adc.h:6716:12
	ldr.w	r5, [r12, #1280]
.Ltmp691:
	.loc	7 6716 12                       @ ../src/driver/stm32g4-v120/inc/stm32g4xx_ll_adc.h:6716:12
	ldr.w	r2, [r12, #1536]
.Ltmp692:
	@DEBUG_VALUE: LL_ADC_IsEnabled:ADCx <- undef
	.loc	6 2142 11 is_stmt 1             @ ../src/driver/stm32g4-v120/src/stm32g4xx_hal_adc_ex.c:2142:11
	orrs	r4, r5
	@DEBUG_VALUE: LL_ADC_IsEnabled:ADCx <- undef
.Ltmp693:
.LBB22_14:
	@DEBUG_VALUE: HAL_ADCEx_MultiModeConfigChannel:multimode <- $r1
	@DEBUG_VALUE: HAL_ADCEx_MultiModeConfigChannel:hadc <- $r0
	@DEBUG_VALUE: HAL_ADCEx_MultiModeConfigChannel:tmphadcSlave <- [DW_OP_LLVM_fragment 0 32] 0
	@DEBUG_VALUE: HAL_ADCEx_MultiModeConfigChannel:tmp_hal_status <- 0
	orrs	r2, r4
.Ltmp694:
	.loc	6 2142 11 is_stmt 0             @ ../src/driver/stm32g4-v120/src/stm32g4xx_hal_adc_ex.c:2142:11
	lsls	r2, r2, #31
	bne	.LBB22_20
.Ltmp695:
@ %bb.15:
	@DEBUG_VALUE: HAL_ADCEx_MultiModeConfigChannel:multimode <- $r1
	@DEBUG_VALUE: HAL_ADCEx_MultiModeConfigChannel:hadc <- $r0
	@DEBUG_VALUE: HAL_ADCEx_MultiModeConfigChannel:tmphadcSlave <- [DW_OP_LLVM_fragment 0 32] 0
	@DEBUG_VALUE: HAL_ADCEx_MultiModeConfigChannel:tmp_hal_status <- 0
	.loc	6 2144 9 is_stmt 1              @ ../src/driver/stm32g4-v120/src/stm32g4xx_hal_adc_ex.c:2144:9
	ldr.w	r2, [r12, r3]
	ldr	r1, [r1, #8]
.Ltmp696:
	@DEBUG_VALUE: HAL_ADCEx_MultiModeConfigChannel:multimode <- [DW_OP_LLVM_entry_value 1] $r1
	.loc	6 0 9 is_stmt 0                 @ ../src/driver/stm32g4-v120/src/stm32g4xx_hal_adc_ex.c:0:9
	movw	r4, #3871
	.loc	6 2144 9                        @ ../src/driver/stm32g4-v120/src/stm32g4xx_hal_adc_ex.c:2144:9
	bics	r2, r4
	orr.w	r1, r1, lr
	orrs	r1, r2
	b	.LBB22_19
.Ltmp697:
.LBB22_16:
	@DEBUG_VALUE: HAL_ADCEx_MultiModeConfigChannel:hadc <- $r0
	@DEBUG_VALUE: HAL_ADCEx_MultiModeConfigChannel:multimode <- [DW_OP_LLVM_entry_value 1] $r1
	@DEBUG_VALUE: HAL_ADCEx_MultiModeConfigChannel:tmphadcSlave <- [DW_OP_LLVM_fragment 0 32] 0
	@DEBUG_VALUE: HAL_ADCEx_MultiModeConfigChannel:tmp_hal_status <- 0
	.loc	7 6716 12 is_stmt 1             @ ../src/driver/stm32g4-v120/inc/stm32g4xx_ll_adc.h:6716:12
	ldr.w	r2, [r12, #1024]
.Ltmp698:
	@DEBUG_VALUE: LL_ADC_IsEnabled:ADCx <- undef
	.loc	7 6716 12 is_stmt 0             @ ../src/driver/stm32g4-v120/inc/stm32g4xx_ll_adc.h:6716:12
	ldr.w	r6, [r12, #1280]
.Ltmp699:
	.loc	7 6716 12                       @ ../src/driver/stm32g4-v120/inc/stm32g4xx_ll_adc.h:6716:12
	ldr.w	r1, [r12, #1536]
.Ltmp700:
	@DEBUG_VALUE: LL_ADC_IsEnabled:ADCx <- undef
	.loc	6 2159 11 is_stmt 1             @ ../src/driver/stm32g4-v120/src/stm32g4xx_hal_adc_ex.c:2159:11
	orrs	r2, r6
	@DEBUG_VALUE: LL_ADC_IsEnabled:ADCx <- undef
.Ltmp701:
.LBB22_17:
	@DEBUG_VALUE: HAL_ADCEx_MultiModeConfigChannel:hadc <- $r0
	@DEBUG_VALUE: HAL_ADCEx_MultiModeConfigChannel:multimode <- [DW_OP_LLVM_entry_value 1] $r1
	@DEBUG_VALUE: HAL_ADCEx_MultiModeConfigChannel:tmphadcSlave <- [DW_OP_LLVM_fragment 0 32] 0
	@DEBUG_VALUE: HAL_ADCEx_MultiModeConfigChannel:tmp_hal_status <- 0
	orrs	r1, r2
.Ltmp702:
	.loc	6 2159 11 is_stmt 0             @ ../src/driver/stm32g4-v120/src/stm32g4xx_hal_adc_ex.c:2159:11
	lsls	r1, r1, #31
	bne	.LBB22_20
.Ltmp703:
@ %bb.18:
	@DEBUG_VALUE: HAL_ADCEx_MultiModeConfigChannel:hadc <- $r0
	@DEBUG_VALUE: HAL_ADCEx_MultiModeConfigChannel:multimode <- [DW_OP_LLVM_entry_value 1] $r1
	@DEBUG_VALUE: HAL_ADCEx_MultiModeConfigChannel:tmphadcSlave <- [DW_OP_LLVM_fragment 0 32] 0
	@DEBUG_VALUE: HAL_ADCEx_MultiModeConfigChannel:tmp_hal_status <- 0
	.loc	6 2161 9 is_stmt 1              @ ../src/driver/stm32g4-v120/src/stm32g4xx_hal_adc_ex.c:2161:9
	ldr.w	r1, [r12, r3]
	movw	r2, #3871
	bics	r1, r2
.Ltmp704:
.LBB22_19:
	@DEBUG_VALUE: HAL_ADCEx_MultiModeConfigChannel:hadc <- $r0
	@DEBUG_VALUE: HAL_ADCEx_MultiModeConfigChannel:multimode <- [DW_OP_LLVM_entry_value 1] $r1
	@DEBUG_VALUE: HAL_ADCEx_MultiModeConfigChannel:tmphadcSlave <- [DW_OP_LLVM_fragment 0 32] 0
	@DEBUG_VALUE: HAL_ADCEx_MultiModeConfigChannel:tmp_hal_status <- 0
	.loc	6 0 0 is_stmt 0                 @ ../src/driver/stm32g4-v120/src/stm32g4xx_hal_adc_ex.c:0:0
	str.w	r1, [r12, r3]
.Ltmp705:
.LBB22_20:
	@DEBUG_VALUE: HAL_ADCEx_MultiModeConfigChannel:hadc <- $r0
	@DEBUG_VALUE: HAL_ADCEx_MultiModeConfigChannel:tmphadcSlave <- [DW_OP_LLVM_fragment 0 32] 0
	@DEBUG_VALUE: HAL_ADCEx_MultiModeConfigChannel:tmp_hal_status <- 0
	movs	r1, #0
.Ltmp706:
.LBB22_21:
	@DEBUG_VALUE: HAL_ADCEx_MultiModeConfigChannel:hadc <- $r0
	movs	r2, #0
	strb.w	r2, [r0, #88]
.Ltmp707:
.LBB22_22:
	@DEBUG_VALUE: HAL_ADCEx_MultiModeConfigChannel:hadc <- $r0
	.loc	6 2180 1 is_stmt 1              @ ../src/driver/stm32g4-v120/src/stm32g4xx_hal_adc_ex.c:2180:1
	mov	r0, r1
.Ltmp708:
	@DEBUG_VALUE: HAL_ADCEx_MultiModeConfigChannel:hadc <- [DW_OP_LLVM_entry_value 1] $r0
	pop	{r4, r5, r6, pc}
.Ltmp709:
.Lfunc_end22:
	.size	HAL_ADCEx_MultiModeConfigChannel, .Lfunc_end22-HAL_ADCEx_MultiModeConfigChannel
	.cfi_endproc
	.cantunwind
	.fnend
                                        @ -- End function
	.section	.text.HAL_ADCEx_EnableInjectedQueue,"ax",%progbits
	.hidden	HAL_ADCEx_EnableInjectedQueue   @ -- Begin function HAL_ADCEx_EnableInjectedQueue
	.globl	HAL_ADCEx_EnableInjectedQueue
	.p2align	1
	.type	HAL_ADCEx_EnableInjectedQueue,%function
	.code	16                              @ @HAL_ADCEx_EnableInjectedQueue
	.thumb_func
HAL_ADCEx_EnableInjectedQueue:
.Lfunc_begin23:
	.loc	6 2193 0                        @ ../src/driver/stm32g4-v120/src/stm32g4xx_hal_adc_ex.c:2193:0
	.fnstart
	.cfi_startproc
@ %bb.0:
	@DEBUG_VALUE: HAL_ADCEx_EnableInjectedQueue:hadc <- $r0
	@DEBUG_VALUE: HAL_ADCEx_EnableInjectedQueue:hadc <- $r0
	.loc	6 2201 81 prologue_end          @ ../src/driver/stm32g4-v120/src/stm32g4xx_hal_adc_ex.c:2201:81
	ldr	r1, [r0]
.Ltmp710:
	@DEBUG_VALUE: LL_ADC_REG_IsConversionOngoing:ADCx <- $r1
	.loc	7 6838 12                       @ ../src/driver/stm32g4-v120/inc/stm32g4xx_ll_adc.h:6838:12
	ldr	r2, [r1, #8]
.Ltmp711:
	@DEBUG_VALUE: LL_ADC_INJ_IsConversionOngoing:ADCx <- $r1
	@DEBUG_VALUE: HAL_ADCEx_EnableInjectedQueue:tmp_adc_is_conversion_on_going_regular <- [DW_OP_constu 1, DW_OP_and, DW_OP_stack_value] undef
	.loc	7 7063 12                       @ ../src/driver/stm32g4-v120/inc/stm32g4xx_ll_adc.h:7063:12
	ldr	r3, [r1, #8]
	.loc	7 7063 11 is_stmt 0             @ ../src/driver/stm32g4-v120/inc/stm32g4xx_ll_adc.h:7063:11
	lsrs	r3, r3, #3
.Ltmp712:
	@DEBUG_VALUE: HAL_ADCEx_EnableInjectedQueue:tmp_adc_is_conversion_on_going_injected <- [DW_OP_constu 1, DW_OP_and, DW_OP_stack_value] $r3
	.loc	6 2206 7 is_stmt 1              @ ../src/driver/stm32g4-v120/src/stm32g4xx_hal_adc_ex.c:2206:7
	orr.w	r2, r3, r2, lsr #2
	lsls	r2, r2, #31
	itt	ne
	movne	r0, #1
.Ltmp713:
	@DEBUG_VALUE: HAL_ADCEx_EnableInjectedQueue:hadc <- [DW_OP_LLVM_entry_value 1] $r0
	@DEBUG_VALUE: HAL_ADCEx_EnableInjectedQueue:tmp_hal_status <- $r0
	.loc	6 2221 3                        @ ../src/driver/stm32g4-v120/src/stm32g4xx_hal_adc_ex.c:2221:3
	bxne	lr
.Ltmp714:
.LBB23_1:
	@DEBUG_VALUE: HAL_ADCEx_EnableInjectedQueue:tmp_adc_is_conversion_on_going_injected <- [DW_OP_constu 1, DW_OP_and, DW_OP_stack_value] $r3
	@DEBUG_VALUE: HAL_ADCEx_EnableInjectedQueue:tmp_hal_status <- $r0
	@DEBUG_VALUE: HAL_ADCEx_EnableInjectedQueue:hadc <- [DW_OP_LLVM_entry_value 1] $r0
	.loc	6 2209 5                        @ ../src/driver/stm32g4-v120/src/stm32g4xx_hal_adc_ex.c:2209:5
	ldr	r2, [r1, #12]
	bic	r2, r2, #-2147483648
	str	r2, [r1, #12]
	.loc	6 2212 5                        @ ../src/driver/stm32g4-v120/src/stm32g4xx_hal_adc_ex.c:2212:5
	ldr	r1, [r0, #92]
	bic	r1, r1, #16384
	str	r1, [r0, #92]
	movs	r0, #0
.Ltmp715:
	@DEBUG_VALUE: HAL_ADCEx_EnableInjectedQueue:tmp_hal_status <- 0
	@DEBUG_VALUE: HAL_ADCEx_EnableInjectedQueue:tmp_hal_status <- $r0
	.loc	6 2221 3                        @ ../src/driver/stm32g4-v120/src/stm32g4xx_hal_adc_ex.c:2221:3
	bx	lr
.Ltmp716:
.Lfunc_end23:
	.size	HAL_ADCEx_EnableInjectedQueue, .Lfunc_end23-HAL_ADCEx_EnableInjectedQueue
	.cfi_endproc
	.cantunwind
	.fnend
                                        @ -- End function
	.section	.text.HAL_ADCEx_DisableInjectedQueue,"ax",%progbits
	.hidden	HAL_ADCEx_DisableInjectedQueue  @ -- Begin function HAL_ADCEx_DisableInjectedQueue
	.globl	HAL_ADCEx_DisableInjectedQueue
	.p2align	1
	.type	HAL_ADCEx_DisableInjectedQueue,%function
	.code	16                              @ @HAL_ADCEx_DisableInjectedQueue
	.thumb_func
HAL_ADCEx_DisableInjectedQueue:
.Lfunc_begin24:
	.loc	6 2234 0                        @ ../src/driver/stm32g4-v120/src/stm32g4xx_hal_adc_ex.c:2234:0
	.fnstart
	.cfi_startproc
@ %bb.0:
	@DEBUG_VALUE: HAL_ADCEx_DisableInjectedQueue:hadc <- $r0
	@DEBUG_VALUE: HAL_ADCEx_DisableInjectedQueue:hadc <- $r0
	.loc	6 2242 81 prologue_end          @ ../src/driver/stm32g4-v120/src/stm32g4xx_hal_adc_ex.c:2242:81
	ldr	r0, [r0]
.Ltmp717:
	@DEBUG_VALUE: HAL_ADCEx_DisableInjectedQueue:hadc <- [DW_OP_LLVM_entry_value 1] $r0
	@DEBUG_VALUE: LL_ADC_REG_IsConversionOngoing:ADCx <- $r0
	.loc	7 6838 12                       @ ../src/driver/stm32g4-v120/inc/stm32g4xx_ll_adc.h:6838:12
	ldr	r1, [r0, #8]
.Ltmp718:
	@DEBUG_VALUE: LL_ADC_INJ_IsConversionOngoing:ADCx <- $r0
	@DEBUG_VALUE: HAL_ADCEx_DisableInjectedQueue:tmp_adc_is_conversion_on_going_regular <- [DW_OP_constu 1, DW_OP_and, DW_OP_stack_value] undef
	.loc	7 7063 12                       @ ../src/driver/stm32g4-v120/inc/stm32g4xx_ll_adc.h:7063:12
	ldr	r2, [r0, #8]
	.loc	7 7063 11 is_stmt 0             @ ../src/driver/stm32g4-v120/inc/stm32g4xx_ll_adc.h:7063:11
	lsrs	r2, r2, #3
.Ltmp719:
	@DEBUG_VALUE: HAL_ADCEx_DisableInjectedQueue:tmp_adc_is_conversion_on_going_injected <- [DW_OP_constu 1, DW_OP_and, DW_OP_stack_value] $r2
	.loc	6 2247 7 is_stmt 1              @ ../src/driver/stm32g4-v120/src/stm32g4xx_hal_adc_ex.c:2247:7
	orr.w	r1, r2, r1, lsr #2
	lsls	r1, r1, #31
	itt	ne
	movne	r0, #1
.Ltmp720:
	@DEBUG_VALUE: HAL_ADCEx_DisableInjectedQueue:tmp_hal_status <- $r0
	.loc	6 2258 3                        @ ../src/driver/stm32g4-v120/src/stm32g4xx_hal_adc_ex.c:2258:3
	bxne	lr
.Ltmp721:
.LBB24_1:
	@DEBUG_VALUE: HAL_ADCEx_DisableInjectedQueue:tmp_adc_is_conversion_on_going_injected <- [DW_OP_constu 1, DW_OP_and, DW_OP_stack_value] $r2
	@DEBUG_VALUE: HAL_ADCEx_DisableInjectedQueue:tmp_hal_status <- $r0
	@DEBUG_VALUE: HAL_ADCEx_DisableInjectedQueue:hadc <- [DW_OP_LLVM_entry_value 1] $r0
	@DEBUG_VALUE: LL_ADC_INJ_SetQueueMode:ADCx <- $r0
	@DEBUG_VALUE: LL_ADC_INJ_SetQueueMode:QueueMode <- -2147483648
	.loc	7 4901 3                        @ ../src/driver/stm32g4-v120/inc/stm32g4xx_ll_adc.h:4901:3
	ldr	r1, [r0, #12]
	movw	r2, #65535
.Ltmp722:
	.loc	7 0 3 is_stmt 0                 @ ../src/driver/stm32g4-v120/inc/stm32g4xx_ll_adc.h:0:3
	movt	r2, #32735
	.loc	7 4901 3                        @ ../src/driver/stm32g4-v120/inc/stm32g4xx_ll_adc.h:4901:3
	ands	r1, r2
	add.w	r1, r1, #-2147483648
	str	r1, [r0, #12]
	movs	r0, #0
.Ltmp723:
	@DEBUG_VALUE: HAL_ADCEx_DisableInjectedQueue:tmp_hal_status <- 0
	@DEBUG_VALUE: HAL_ADCEx_DisableInjectedQueue:tmp_hal_status <- $r0
	.loc	6 2258 3 is_stmt 1              @ ../src/driver/stm32g4-v120/src/stm32g4xx_hal_adc_ex.c:2258:3
	bx	lr
.Ltmp724:
.Lfunc_end24:
	.size	HAL_ADCEx_DisableInjectedQueue, .Lfunc_end24-HAL_ADCEx_DisableInjectedQueue
	.cfi_endproc
	.cantunwind
	.fnend
                                        @ -- End function
	.section	.text.HAL_ADCEx_DisableVoltageRegulator,"ax",%progbits
	.hidden	HAL_ADCEx_DisableVoltageRegulator @ -- Begin function HAL_ADCEx_DisableVoltageRegulator
	.globl	HAL_ADCEx_DisableVoltageRegulator
	.p2align	1
	.type	HAL_ADCEx_DisableVoltageRegulator,%function
	.code	16                              @ @HAL_ADCEx_DisableVoltageRegulator
	.thumb_func
HAL_ADCEx_DisableVoltageRegulator:
.Lfunc_begin25:
	.loc	6 2271 0                        @ ../src/driver/stm32g4-v120/src/stm32g4xx_hal_adc_ex.c:2271:0
	.fnstart
	.cfi_startproc
@ %bb.0:
	@DEBUG_VALUE: HAL_ADCEx_DisableVoltageRegulator:hadc <- $r0
	@DEBUG_VALUE: HAL_ADCEx_DisableVoltageRegulator:hadc <- $r0
	.loc	6 2278 30 prologue_end          @ ../src/driver/stm32g4-v120/src/stm32g4xx_hal_adc_ex.c:2278:30
	ldr	r0, [r0]
.Ltmp725:
	@DEBUG_VALUE: HAL_ADCEx_DisableVoltageRegulator:hadc <- [DW_OP_LLVM_entry_value 1] $r0
	@DEBUG_VALUE: LL_ADC_IsEnabled:ADCx <- $r0
	.loc	7 6716 12                       @ ../src/driver/stm32g4-v120/inc/stm32g4xx_ll_adc.h:6716:12
	ldr	r1, [r0, #8]
.Ltmp726:
	.loc	6 2278 7                        @ ../src/driver/stm32g4-v120/src/stm32g4xx_hal_adc_ex.c:2278:7
	lsls	r1, r1, #31
	itt	ne
	movne	r0, #1
.Ltmp727:
	@DEBUG_VALUE: HAL_ADCEx_DisableVoltageRegulator:tmp_hal_status <- $r0
	.loc	6 2288 3                        @ ../src/driver/stm32g4-v120/src/stm32g4xx_hal_adc_ex.c:2288:3
	bxne	lr
.Ltmp728:
.LBB25_1:
	@DEBUG_VALUE: HAL_ADCEx_DisableVoltageRegulator:tmp_hal_status <- $r0
	@DEBUG_VALUE: HAL_ADCEx_DisableVoltageRegulator:hadc <- [DW_OP_LLVM_entry_value 1] $r0
	@DEBUG_VALUE: LL_ADC_DisableInternalRegulator:ADCx <- $r0
	.loc	7 6645 3                        @ ../src/driver/stm32g4-v120/inc/stm32g4xx_ll_adc.h:6645:3
	ldr	r1, [r0, #8]
	movw	r2, #65472
	movt	r2, #28671
	ands	r1, r2
	str	r1, [r0, #8]
	movs	r0, #0
.Ltmp729:
	@DEBUG_VALUE: HAL_ADCEx_DisableVoltageRegulator:tmp_hal_status <- 0
	@DEBUG_VALUE: HAL_ADCEx_DisableVoltageRegulator:tmp_hal_status <- $r0
	.loc	6 2288 3                        @ ../src/driver/stm32g4-v120/src/stm32g4xx_hal_adc_ex.c:2288:3
	bx	lr
.Ltmp730:
.Lfunc_end25:
	.size	HAL_ADCEx_DisableVoltageRegulator, .Lfunc_end25-HAL_ADCEx_DisableVoltageRegulator
	.cfi_endproc
	.cantunwind
	.fnend
                                        @ -- End function
	.section	.text.HAL_ADCEx_EnterADCDeepPowerDownMode,"ax",%progbits
	.hidden	HAL_ADCEx_EnterADCDeepPowerDownMode @ -- Begin function HAL_ADCEx_EnterADCDeepPowerDownMode
	.globl	HAL_ADCEx_EnterADCDeepPowerDownMode
	.p2align	1
	.type	HAL_ADCEx_EnterADCDeepPowerDownMode,%function
	.code	16                              @ @HAL_ADCEx_EnterADCDeepPowerDownMode
	.thumb_func
HAL_ADCEx_EnterADCDeepPowerDownMode:
.Lfunc_begin26:
	.loc	6 2308 0                        @ ../src/driver/stm32g4-v120/src/stm32g4xx_hal_adc_ex.c:2308:0
	.fnstart
	.cfi_startproc
@ %bb.0:
	@DEBUG_VALUE: HAL_ADCEx_EnterADCDeepPowerDownMode:hadc <- $r0
	@DEBUG_VALUE: HAL_ADCEx_EnterADCDeepPowerDownMode:hadc <- $r0
	.loc	6 2315 30 prologue_end          @ ../src/driver/stm32g4-v120/src/stm32g4xx_hal_adc_ex.c:2315:30
	ldr	r0, [r0]
.Ltmp731:
	@DEBUG_VALUE: HAL_ADCEx_EnterADCDeepPowerDownMode:hadc <- [DW_OP_LLVM_entry_value 1] $r0
	@DEBUG_VALUE: LL_ADC_IsEnabled:ADCx <- $r0
	.loc	7 6716 12                       @ ../src/driver/stm32g4-v120/inc/stm32g4xx_ll_adc.h:6716:12
	ldr	r1, [r0, #8]
.Ltmp732:
	.loc	6 2315 7                        @ ../src/driver/stm32g4-v120/src/stm32g4xx_hal_adc_ex.c:2315:7
	lsls	r1, r1, #31
	itt	ne
	movne	r0, #1
.Ltmp733:
	@DEBUG_VALUE: HAL_ADCEx_EnterADCDeepPowerDownMode:tmp_hal_status <- $r0
	.loc	6 2325 3                        @ ../src/driver/stm32g4-v120/src/stm32g4xx_hal_adc_ex.c:2325:3
	bxne	lr
.Ltmp734:
.LBB26_1:
	@DEBUG_VALUE: HAL_ADCEx_EnterADCDeepPowerDownMode:tmp_hal_status <- $r0
	@DEBUG_VALUE: HAL_ADCEx_EnterADCDeepPowerDownMode:hadc <- [DW_OP_LLVM_entry_value 1] $r0
	@DEBUG_VALUE: LL_ADC_EnableDeepPowerDown:ADCx <- $r0
	.loc	7 6573 3                        @ ../src/driver/stm32g4-v120/inc/stm32g4xx_ll_adc.h:6573:3
	ldr	r1, [r0, #8]
	movw	r2, #65472
	movt	r2, #24575
	ands	r1, r2
	add.w	r1, r1, #536870912
	str	r1, [r0, #8]
	movs	r0, #0
.Ltmp735:
	@DEBUG_VALUE: HAL_ADCEx_EnterADCDeepPowerDownMode:tmp_hal_status <- 0
	@DEBUG_VALUE: HAL_ADCEx_EnterADCDeepPowerDownMode:tmp_hal_status <- $r0
	.loc	6 2325 3                        @ ../src/driver/stm32g4-v120/src/stm32g4xx_hal_adc_ex.c:2325:3
	bx	lr
.Ltmp736:
.Lfunc_end26:
	.size	HAL_ADCEx_EnterADCDeepPowerDownMode, .Lfunc_end26-HAL_ADCEx_EnterADCDeepPowerDownMode
	.cfi_endproc
	.cantunwind
	.fnend
                                        @ -- End function
	.file	9 "C:\\Users\\grodriguez\\Documents\\iit\\icub-firmware\\emBODY\\eBcode\\arch-arm\\libs\\lowlevel\\stm32hal\\proj" "../api\\../src/driver/stm32g4-v120/inc/stm32g4xx_hal_adc.h"
	.file	10 "C:\\Users\\grodriguez\\Documents\\iit\\icub-firmware\\emBODY\\eBcode\\arch-arm\\libs\\lowlevel\\stm32hal\\proj" "../src/driver/stm32g4-v120/inc/stm32g4xx_hal_adc_ex.h"
	.section	".note.GNU-stack","",%progbits
	.eabi_attribute	30, 3	@ Tag_ABI_optimization_goals
	.ARM_attribute	16, 1	@ Tag_AV_eba