	.text
	.syntax unified
	.eabi_attribute	67, "2.09"	@ Tag_conformance
	.cpu	cortex-m4
	.eabi_attribute	6, 13	@ Tag_CPU_arch
	.eabi_attribute	7, 77	@ Tag_CPU_arch_profile
	.eabi_attribute	8, 0	@ Tag_ARM_ISA_use
	.eabi_attribute	9, 2	@ Tag_THUMB_ISA_use
	.fpu	fpv4-sp-d16
	.eabi_attribute	27, 1	@ Tag_ABI_HardFP_use
	.eabi_attribute	36, 1	@ Tag_FP_HP_extension
	.eabi_attribute	34, 1	@ Tag_CPU_unaligned_access
	.eabi_attribute	17, 1	@ Tag_ABI_PCS_GOT_use
	.eabi_attribute	20, 2	@ Tag_ABI_FP_denormal
	.eabi_attribute	21, 0	@ Tag_ABI_FP_exceptions
	.eabi_attribute	23, 1	@ Tag_ABI_FP_number_model
	.eabi_attribute	24, 1	@ Tag_ABI_align_needed
	.eabi_attribute	25, 1	@ Tag_ABI_align_preserved
	.eabi_attribute	28, 1	@ Tag_ABI_VFP_args
	.eabi_attribute	38, 1	@ Tag_ABI_FP_16bit_format
	.eabi_attribute	18, 2	@ Tag_ABI_PCS_wchar_t
	.eabi_attribute	26, 1	@ Tag_ABI_enum_size
	.eabi_attribute	14, 0	@ Tag_ABI_PCS_R9_use
	.file	"stm32g4xx_hal_flash.c"
	.file	1 "C:\\Users\\grodriguez\\Documents\\iit\\icub-firmware\\emBODY\\eBcode\\arch-arm\\libs\\lowlevel\\stm32hal\\proj" "../src/driver/stm32g4-v120/inc/stm32g4xx_hal_def.h"
	.file	2 "C:\\Users\\grodriguez\\Documents\\iit\\icub-firmware\\emBODY\\eBcode\\arch-arm\\libs\\lowlevel\\stm32hal\\proj" "../api\\../src/driver/stm32g4-v120/inc/stm32g4xx_hal_flash.h"
	.file	3 "C:\\" "Keil_v5\\ARM\\ARMCLANG\\Bin\\..\\include\\stdint.h"
	.file	4 "C:\\Users\\grodriguez\\Documents\\iit\\icub-firmware\\emBODY\\eBcode\\arch-arm\\libs\\lowlevel\\stm32hal\\proj" "../src/driver/stm32g4-v120/src/stm32g4xx_hal_flash.c"
	.file	5 "C:\\Users\\grodriguez\\Documents\\iit\\icub-firmware\\emBODY\\eBcode\\arch-arm\\libs\\lowlevel\\stm32hal\\proj" "../src/driver/stm32g4-v120/inc/stm32g474xx.h"
	.section	.text.HAL_FLASH_Program,"ax",%progbits
	.hidden	HAL_FLASH_Program               @ -- Begin function HAL_FLASH_Program
	.globl	HAL_FLASH_Program
	.p2align	1
	.type	HAL_FLASH_Program,%function
	.code	16                              @ @HAL_FLASH_Program
	.thumb_func
HAL_FLASH_Program:
.Lfunc_begin0:
	.loc	4 175 0                         @ ../src/driver/stm32g4-v120/src/stm32g4xx_hal_flash.c:175:0
	.fnstart
	.cfi_sections .debug_frame
	.cfi_startproc
@ %bb.0:
	@DEBUG_VALUE: HAL_FLASH_Program:TypeProgram <- $r0
	@DEBUG_VALUE: HAL_FLASH_Program:Address <- $r1
	.save	{r4, r5, r6, r7, r8, r9, lr}
	push.w	{r4, r5, r6, r7, r8, r9, lr}
	.cfi_def_cfa_offset 28
	.cfi_offset lr, -4
	.cfi_offset r9, -8
	.cfi_offset r8, -12
	.cfi_offset r7, -16
	.cfi_offset r6, -20
	.cfi_offset r5, -24
	.cfi_offset r4, -28
	.pad	#4
	sub	sp, #4
	.cfi_def_cfa_offset 32
.Ltmp0:
	.loc	4 183 3 prologue_end            @ ../src/driver/stm32g4-v120/src/stm32g4xx_hal_flash.c:183:3
	movw	r8, :lower16:pFlash
	movt	r8, :upper16:pFlash
	mov	r4, r2
	ldrb.w	r2, [r8]
.Ltmp1:
	@DEBUG_VALUE: HAL_FLASH_Program:Address <- $r1
	.loc	4 183 3 is_stmt 0               @ ../src/driver/stm32g4-v120/src/stm32g4xx_hal_flash.c:183:3
	cmp	r2, #1
.Ltmp2:
	@DEBUG_VALUE: HAL_FLASH_Program:prog_bit <- 0
	@DEBUG_VALUE: HAL_FLASH_Program:Data <- [DW_OP_LLVM_fragment 0 32] $r4
	@DEBUG_VALUE: HAL_FLASH_Program:Data <- [DW_OP_LLVM_fragment 32 32] $r3
	@DEBUG_VALUE: HAL_FLASH_Program:TypeProgram <- $r0
	bne	.LBB0_2
.Ltmp3:
@ %bb.1:
	@DEBUG_VALUE: HAL_FLASH_Program:Data <- [DW_OP_LLVM_fragment 0 32] $r4
	@DEBUG_VALUE: HAL_FLASH_Program:Data <- [DW_OP_LLVM_fragment 32 32] $r3
	@DEBUG_VALUE: HAL_FLASH_Program:Address <- $r1
	@DEBUG_VALUE: HAL_FLASH_Program:TypeProgram <- $r0
	@DEBUG_VALUE: HAL_FLASH_Program:prog_bit <- 0
	.loc	4 0 3                           @ ../src/driver/stm32g4-v120/src/stm32g4xx_hal_flash.c:0:3
	movs	r0, #2
.Ltmp4:
	@DEBUG_VALUE: HAL_FLASH_Program:TypeProgram <- [DW_OP_LLVM_entry_value 1] $r0
	b	.LBB0_13
.Ltmp5:
.LBB0_2:
	@DEBUG_VALUE: HAL_FLASH_Program:Data <- [DW_OP_LLVM_fragment 0 32] $r4
	@DEBUG_VALUE: HAL_FLASH_Program:Data <- [DW_OP_LLVM_fragment 32 32] $r3
	@DEBUG_VALUE: HAL_FLASH_Program:Address <- $r1
	@DEBUG_VALUE: HAL_FLASH_Program:TypeProgram <- $r0
	@DEBUG_VALUE: HAL_FLASH_Program:prog_bit <- 0
	mov	r5, r0
.Ltmp6:
	@DEBUG_VALUE: HAL_FLASH_Program:TypeProgram <- $r5
	@DEBUG_VALUE: HAL_FLASH_Program:TypeProgram <- $r5
	@DEBUG_VALUE: HAL_FLASH_Program:Data <- [DW_OP_LLVM_fragment 32 32] $r7
	@DEBUG_VALUE: HAL_FLASH_Program:Data <- [DW_OP_LLVM_fragment 0 32] $r4
	movs	r0, #1
.Ltmp7:
	.loc	4 183 3                         @ ../src/driver/stm32g4-v120/src/stm32g4xx_hal_flash.c:183:3
	strb.w	r0, [r8]
.Ltmp8:
	.loc	4 186 12 is_stmt 1              @ ../src/driver/stm32g4-v120/src/stm32g4xx_hal_flash.c:186:12
	mov.w	r0, #1000
	mov	r7, r3
.Ltmp9:
	@DEBUG_VALUE: HAL_FLASH_Program:Data <- [DW_OP_LLVM_fragment 32 32] $r7
	.loc	4 0 12 is_stmt 0                @ ../src/driver/stm32g4-v120/src/stm32g4xx_hal_flash.c:0:12
	mov	r6, r1
.Ltmp10:
	@DEBUG_VALUE: HAL_FLASH_Program:Address <- $r6
	@DEBUG_VALUE: HAL_FLASH_Program:Address <- $r6
	.loc	4 186 12                        @ ../src/driver/stm32g4-v120/src/stm32g4xx_hal_flash.c:186:12
	bl	FLASH_WaitForLastOperation
.Ltmp11:
	@DEBUG_VALUE: HAL_FLASH_Program:status <- $r0
	.loc	4 188 7 is_stmt 1               @ ../src/driver/stm32g4-v120/src/stm32g4xx_hal_flash.c:188:7
	cmp	r0, #0
	bne	.LBB0_12
.Ltmp12:
@ %bb.3:
	@DEBUG_VALUE: HAL_FLASH_Program:Data <- [DW_OP_LLVM_fragment 32 32] $r7
	@DEBUG_VALUE: HAL_FLASH_Program:Address <- $r6
	@DEBUG_VALUE: HAL_FLASH_Program:TypeProgram <- $r5
	@DEBUG_VALUE: HAL_FLASH_Program:Data <- [DW_OP_LLVM_fragment 0 32] $r4
	@DEBUG_VALUE: HAL_FLASH_Program:status <- $r0
	@DEBUG_VALUE: HAL_FLASH_Program:prog_bit <- 0
	@DEBUG_VALUE: HAL_FLASH_Program:Data <- [DW_OP_LLVM_fragment 32 32] $r7
	@DEBUG_VALUE: HAL_FLASH_Program:Data <- [DW_OP_LLVM_fragment 0 32] $r4
	.loc	4 0 7 is_stmt 0                 @ ../src/driver/stm32g4-v120/src/stm32g4xx_hal_flash.c:0:7
	movw	r9, #8212
	movt	r9, #16386
	movs	r0, #0
.Ltmp13:
	.loc	4 190 22 is_stmt 1              @ ../src/driver/stm32g4-v120/src/stm32g4xx_hal_flash.c:190:22
	str.w	r0, [r8, #4]
	.loc	4 192 9                         @ ../src/driver/stm32g4-v120/src/stm32g4xx_hal_flash.c:192:9
	cbz	r5, .LBB0_9
.Ltmp14:
@ %bb.4:
	@DEBUG_VALUE: HAL_FLASH_Program:Data <- [DW_OP_LLVM_fragment 32 32] $r7
	@DEBUG_VALUE: HAL_FLASH_Program:Address <- $r6
	@DEBUG_VALUE: HAL_FLASH_Program:TypeProgram <- $r5
	@DEBUG_VALUE: HAL_FLASH_Program:Data <- [DW_OP_LLVM_fragment 0 32] $r4
	@DEBUG_VALUE: HAL_FLASH_Program:prog_bit <- 0
	.loc	4 198 54                        @ ../src/driver/stm32g4-v120/src/stm32g4xx_hal_flash.c:198:54
	subs	r0, r5, #1
	cmp	r0, #2
	bhs	.LBB0_11
.Ltmp15:
@ %bb.5:
	@DEBUG_VALUE: HAL_FLASH_Program:Data <- [DW_OP_LLVM_fragment 32 32] $r7
	@DEBUG_VALUE: HAL_FLASH_Program:Address <- $r6
	@DEBUG_VALUE: HAL_FLASH_Program:TypeProgram <- $r5
	@DEBUG_VALUE: HAL_FLASH_Program:Data <- [DW_OP_LLVM_fragment 0 32] $r4
	@DEBUG_VALUE: HAL_FLASH_Program:prog_bit <- 0
	@DEBUG_VALUE: FLASH_Program_Fast:DataAddress <- $r4
	@DEBUG_VALUE: FLASH_Program_Fast:Address <- $r6
	@DEBUG_VALUE: FLASH_Program_Fast:row_index <- 64
	@DEBUG_VALUE: FLASH_Program_Fast:dest_addr <- $r6
	@DEBUG_VALUE: FLASH_Program_Fast:src_addr <- undef
	.loc	4 736 3                         @ ../src/driver/stm32g4-v120/src/stm32g4xx_hal_flash.c:736:3
	ldr.w	r0, [r9]
	orr	r0, r0, #262144
	str.w	r0, [r9]
.Ltmp16:
	.file	6 "C:\\Users\\grodriguez\\Documents\\iit\\icub-firmware\\emBODY\\eBcode\\arch-arm\\libs\\lowlevel\\stm32hal\\proj" "../src/driver/stm32g4-v120/inc/cmsis_armclang.h"
	.loc	6 401 3                         @ ../src/driver/stm32g4-v120/inc/cmsis_armclang.h:401:3
	@APP
	mrs	r0, primask
	@NO_APP
.Ltmp17:
	@DEBUG_VALUE: FLASH_Program_Fast:primask_bit <- $r0
	@DEBUG_VALUE: __get_PRIMASK:result <- $r0
	.loc	4 740 3                         @ ../src/driver/stm32g4-v120/src/stm32g4xx_hal_flash.c:740:3
	@APP
	mrs	r1, primask
	cpsid i

	@NO_APP
	movs	r1, #64
.Ltmp18:
	.p2align	2
.LBB0_6:                                @ =>This Inner Loop Header: Depth=1
	@DEBUG_VALUE: HAL_FLASH_Program:Data <- [DW_OP_LLVM_fragment 32 32] $r7
	@DEBUG_VALUE: FLASH_Program_Fast:dest_addr <- $r6
	@DEBUG_VALUE: HAL_FLASH_Program:TypeProgram <- $r5
	@DEBUG_VALUE: FLASH_Program_Fast:primask_bit <- $r0
	@DEBUG_VALUE: HAL_FLASH_Program:prog_bit <- 0
	@DEBUG_VALUE: FLASH_Program_Fast:row_index <- $r1
	@DEBUG_VALUE: FLASH_Program_Fast:dest_addr <- $r6
	@DEBUG_VALUE: FLASH_Program_Fast:src_addr <- $r4
	.loc	4 745 18                        @ ../src/driver/stm32g4-v120/src/stm32g4xx_hal_flash.c:745:18
	ldr	r2, [r4], #4
.Ltmp19:
	.loc	4 748 14                        @ ../src/driver/stm32g4-v120/src/stm32g4xx_hal_flash.c:748:14
	subs	r1, #1
.Ltmp20:
	@DEBUG_VALUE: FLASH_Program_Fast:row_index <- $r1
	.loc	4 749 3                         @ ../src/driver/stm32g4-v120/src/stm32g4xx_hal_flash.c:749:3
	lsls	r3, r1, #24
	.loc	4 745 16                        @ ../src/driver/stm32g4-v120/src/stm32g4xx_hal_flash.c:745:16
	str	r2, [r6], #4
.Ltmp21:
	@DEBUG_VALUE: HAL_FLASH_Program:Address <- [DW_OP_LLVM_entry_value 1] $r1
	@DEBUG_VALUE: FLASH_Program_Fast:src_addr <- $r4
	@DEBUG_VALUE: FLASH_Program_Fast:dest_addr <- $r6
	.loc	4 749 3                         @ ../src/driver/stm32g4-v120/src/stm32g4xx_hal_flash.c:749:3
	bne	.LBB0_6
.Ltmp22:
@ %bb.7:
	@DEBUG_VALUE: HAL_FLASH_Program:Data <- [DW_OP_LLVM_fragment 32 32] $r7
	@DEBUG_VALUE: FLASH_Program_Fast:dest_addr <- $r6
	@DEBUG_VALUE: HAL_FLASH_Program:TypeProgram <- $r5
	@DEBUG_VALUE: FLASH_Program_Fast:src_addr <- $r4
	@DEBUG_VALUE: FLASH_Program_Fast:row_index <- $r1
	@DEBUG_VALUE: FLASH_Program_Fast:primask_bit <- $r0
	@DEBUG_VALUE: HAL_FLASH_Program:prog_bit <- 0
	@DEBUG_VALUE: __set_PRIMASK:priMask <- $r0
	.loc	6 429 3                         @ ../src/driver/stm32g4-v120/inc/cmsis_armclang.h:429:3
	@APP
	msr	primask, r0
	@NO_APP
.Ltmp23:
	@DEBUG_VALUE: HAL_FLASH_Program:prog_bit <- undef
	.loc	4 215 14                        @ ../src/driver/stm32g4-v120/src/stm32g4xx_hal_flash.c:215:14
	mov.w	r0, #1000
.Ltmp24:
	bl	FLASH_WaitForLastOperation
.Ltmp25:
	.loc	4 218 9                         @ ../src/driver/stm32g4-v120/src/stm32g4xx_hal_flash.c:218:9
	cmp	r5, #2
.Ltmp26:
	@DEBUG_VALUE: HAL_FLASH_Program:status <- undef
	bne	.LBB0_12
.Ltmp27:
@ %bb.8:
	@DEBUG_VALUE: HAL_FLASH_Program:Data <- [DW_OP_LLVM_fragment 32 32] $r7
	@DEBUG_VALUE: FLASH_Program_Fast:dest_addr <- $r6
	@DEBUG_VALUE: HAL_FLASH_Program:TypeProgram <- $r5
	@DEBUG_VALUE: FLASH_Program_Fast:src_addr <- $r4
	.loc	4 0 9 is_stmt 0                 @ ../src/driver/stm32g4-v120/src/stm32g4xx_hal_flash.c:0:9
	mvn	r1, #262144
	b	.LBB0_10
.Ltmp28:
.LBB0_9:
	@DEBUG_VALUE: HAL_FLASH_Program:Data <- [DW_OP_LLVM_fragment 32 32] $r7
	@DEBUG_VALUE: HAL_FLASH_Program:Address <- $r6
	@DEBUG_VALUE: HAL_FLASH_Program:TypeProgram <- $r5
	@DEBUG_VALUE: HAL_FLASH_Program:Data <- [DW_OP_LLVM_fragment 0 32] $r4
	@DEBUG_VALUE: HAL_FLASH_Program:prog_bit <- 0
	@DEBUG_VALUE: HAL_FLASH_Program:Data <- [DW_OP_LLVM_fragment 32 32] $r7
	@DEBUG_VALUE: FLASH_Program_DoubleWord:Address <- $r6
	@DEBUG_VALUE: FLASH_Program_DoubleWord:Data <- [DW_OP_LLVM_fragment 0 32] $r4
	@DEBUG_VALUE: FLASH_Program_DoubleWord:Data <- [DW_OP_LLVM_fragment 32 32] $r7
	.loc	4 706 3 is_stmt 1               @ ../src/driver/stm32g4-v120/src/stm32g4xx_hal_flash.c:706:3
	ldr.w	r0, [r9]
	orr	r0, r0, #1
	str.w	r0, [r9]
	.loc	4 709 24                        @ ../src/driver/stm32g4-v120/src/stm32g4xx_hal_flash.c:709:24
	str	r4, [r6]
.Ltmp29:
	.loc	4 215 14                        @ ../src/driver/stm32g4-v120/src/stm32g4xx_hal_flash.c:215:14
	mov.w	r0, #1000
.Ltmp30:
	.loc	4 713 3                         @ ../src/driver/stm32g4-v120/src/stm32g4xx_hal_flash.c:713:3
	isb	sy
	.loc	4 716 31                        @ ../src/driver/stm32g4-v120/src/stm32g4xx_hal_flash.c:716:31
	str	r7, [r6, #4]
.Ltmp31:
	@DEBUG_VALUE: HAL_FLASH_Program:prog_bit <- undef
	.loc	4 215 14                        @ ../src/driver/stm32g4-v120/src/stm32g4xx_hal_flash.c:215:14
	bl	FLASH_WaitForLastOperation
.Ltmp32:
	.loc	4 0 14 is_stmt 0                @ ../src/driver/stm32g4-v120/src/stm32g4xx_hal_flash.c:0:14
	mvn	r1, #1
.Ltmp33:
.LBB0_10:
	@DEBUG_VALUE: HAL_FLASH_Program:Data <- [DW_OP_LLVM_fragment 32 32] $r7
	@DEBUG_VALUE: HAL_FLASH_Program:TypeProgram <- $r5
	.loc	4 220 7 is_stmt 1               @ ../src/driver/stm32g4-v120/src/stm32g4xx_hal_flash.c:220:7
	ldr.w	r2, [r9]
	ands	r1, r2
	str.w	r1, [r9]
	b	.LBB0_12
.Ltmp34:
.LBB0_11:
	@DEBUG_VALUE: HAL_FLASH_Program:Data <- [DW_OP_LLVM_fragment 32 32] $r7
	@DEBUG_VALUE: HAL_FLASH_Program:Address <- $r6
	@DEBUG_VALUE: HAL_FLASH_Program:TypeProgram <- $r5
	@DEBUG_VALUE: HAL_FLASH_Program:Data <- [DW_OP_LLVM_fragment 0 32] $r4
	@DEBUG_VALUE: HAL_FLASH_Program:prog_bit <- 0
	@DEBUG_VALUE: HAL_FLASH_Program:prog_bit <- undef
	.loc	4 215 14                        @ ../src/driver/stm32g4-v120/src/stm32g4xx_hal_flash.c:215:14
	mov.w	r0, #1000
	bl	FLASH_WaitForLastOperation
.Ltmp35:
.LBB0_12:
	@DEBUG_VALUE: HAL_FLASH_Program:Data <- [DW_OP_LLVM_fragment 32 32] $r7
	@DEBUG_VALUE: HAL_FLASH_Program:TypeProgram <- $r5
	@DEBUG_VALUE: HAL_FLASH_Program:status <- $r0
	.loc	4 0 14 is_stmt 0                @ ../src/driver/stm32g4-v120/src/stm32g4xx_hal_flash.c:0:14
	movs	r1, #0
.Ltmp36:
	.loc	4 225 3 is_stmt 1               @ ../src/driver/stm32g4-v120/src/stm32g4xx_hal_flash.c:225:3
	strb.w	r1, [r8]
.Ltmp37:
.LBB0_13:
	.loc	4 229 1                         @ ../src/driver/stm32g4-v120/src/stm32g4xx_hal_flash.c:229:1
	add	sp, #4
	pop.w	{r4, r5, r6, r7, r8, r9, pc}
.Ltmp38:
.Lfunc_end0:
	.size	HAL_FLASH_Program, .Lfunc_end0-HAL_FLASH_Program
	.cfi_endproc
	.cantunwind
	.fnend
                                        @ -- End function
	.section	.text.FLASH_WaitForLastOperation,"ax",%progbits
	.hidden	FLASH_WaitForLastOperation      @ -- Begin function FLASH_WaitForLastOperation
	.globl	FLASH_WaitForLastOperation
	.p2align	1
	.type	FLASH_WaitForLastOperation,%function
	.code	16                              @ @FLASH_WaitForLastOperation
	.thumb_func
FLASH_WaitForLastOperation:
.Lfunc_begin1:
	.loc	4 654 0                         @ ../src/driver/stm32g4-v120/src/stm32g4xx_hal_flash.c:654:0
	.fnstart
	.cfi_startproc
@ %bb.0:
	@DEBUG_VALUE: FLASH_WaitForLastOperation:Timeout <- $r0
	.save	{r4, r5, r6, lr}
	push	{r4, r5, r6, lr}
	.cfi_def_cfa_offset 16
	.cfi_offset lr, -4
	.cfi_offset r6, -8
	.cfi_offset r5, -12
	.cfi_offset r4, -16
	movw	r6, #8208
	mov	r4, r0
.Ltmp39:
	@DEBUG_VALUE: FLASH_WaitForLastOperation:Timeout <- $r4
	movt	r6, #16386
	@DEBUG_VALUE: FLASH_WaitForLastOperation:Timeout <- $r4
.Ltmp40:
	.loc	4 659 24 prologue_end           @ ../src/driver/stm32g4-v120/src/stm32g4xx_hal_flash.c:659:24
	bl	HAL_GetTick
.Ltmp41:
	mov	r5, r0
.Ltmp42:
	@DEBUG_VALUE: FLASH_WaitForLastOperation:tickstart <- $r5
	.p2align	2
.LBB1_1:                                @ =>This Inner Loop Header: Depth=1
	@DEBUG_VALUE: FLASH_WaitForLastOperation:tickstart <- $r5
	@DEBUG_VALUE: FLASH_WaitForLastOperation:Timeout <- $r4
	.loc	4 662 10                        @ ../src/driver/stm32g4-v120/src/stm32g4xx_hal_flash.c:662:10
	ldr	r0, [r6]
	.loc	4 662 3 is_stmt 0               @ ../src/driver/stm32g4-v120/src/stm32g4xx_hal_flash.c:662:3
	lsls	r0, r0, #15
	bpl	.LBB1_4
.Ltmp43:
@ %bb.2:                                @   in Loop: Header=BB1_1 Depth=1
	@DEBUG_VALUE: FLASH_WaitForLastOperation:tickstart <- $r5
	@DEBUG_VALUE: FLASH_WaitForLastOperation:Timeout <- $r4
	.loc	4 664 10 is_stmt 1              @ ../src/driver/stm32g4-v120/src/stm32g4xx_hal_flash.c:664:10
	bl	HAL_GetTick
.Ltmp44:
	.loc	4 664 24 is_stmt 0              @ ../src/driver/stm32g4-v120/src/stm32g4xx_hal_flash.c:664:24
	subs	r0, r0, r5
.Ltmp45:
	.loc	4 664 9                         @ ../src/driver/stm32g4-v120/src/stm32g4xx_hal_flash.c:664:9
	cmp	r0, r4
	bls	.LBB1_1
.Ltmp46:
@ %bb.3:
	@DEBUG_VALUE: FLASH_WaitForLastOperation:tickstart <- $r5
	@DEBUG_VALUE: FLASH_WaitForLastOperation:Timeout <- $r4
	.loc	4 0 9                           @ ../src/driver/stm32g4-v120/src/stm32g4xx_hal_flash.c:0:9
	movs	r0, #3
	.loc	4 692 1 is_stmt 1               @ ../src/driver/stm32g4-v120/src/stm32g4xx_hal_flash.c:692:1
	pop	{r4, r5, r6, pc}
.Ltmp47:
.LBB1_4:
	@DEBUG_VALUE: FLASH_WaitForLastOperation:tickstart <- $r5
	@DEBUG_VALUE: FLASH_WaitForLastOperation:Timeout <- $r4
	.loc	4 671 19                        @ ../src/driver/stm32g4-v120/src/stm32g4xx_hal_flash.c:671:19
	ldr	r0, [r6]
	movw	r1, #50170
	.loc	4 671 22 is_stmt 0              @ ../src/driver/stm32g4-v120/src/stm32g4xx_hal_flash.c:671:22
	ands	r0, r1
.Ltmp48:
	@DEBUG_VALUE: FLASH_WaitForLastOperation:error <- $r0
	.loc	4 672 7 is_stmt 1               @ ../src/driver/stm32g4-v120/src/stm32g4xx_hal_flash.c:672:7
	beq	.LBB1_6
.Ltmp49:
@ %bb.5:
	@DEBUG_VALUE: FLASH_WaitForLastOperation:tickstart <- $r5
	@DEBUG_VALUE: FLASH_WaitForLastOperation:Timeout <- $r4
	@DEBUG_VALUE: FLASH_WaitForLastOperation:error <- $r0
	.loc	4 675 22                        @ ../src/driver/stm32g4-v120/src/stm32g4xx_hal_flash.c:675:22
	movw	r1, :lower16:pFlash
	movt	r1, :upper16:pFlash
	ldr	r2, [r1, #4]
	orrs	r2, r0
	str	r2, [r1, #4]
.Ltmp50:
	.loc	4 678 5                         @ ../src/driver/stm32g4-v120/src/stm32g4xx_hal_flash.c:678:5
	str	r0, [r6]
	movs	r0, #1
.Ltmp51:
	.loc	4 692 1                         @ ../src/driver/stm32g4-v120/src/stm32g4xx_hal_flash.c:692:1
	pop	{r4, r5, r6, pc}
.Ltmp52:
.LBB1_6:
	@DEBUG_VALUE: FLASH_WaitForLastOperation:tickstart <- $r5
	@DEBUG_VALUE: FLASH_WaitForLastOperation:Timeout <- $r4
	@DEBUG_VALUE: FLASH_WaitForLastOperation:error <- $r0
	.loc	4 684 7                         @ ../src/driver/stm32g4-v120/src/stm32g4xx_hal_flash.c:684:7
	ldr	r0, [r6]
.Ltmp53:
	.loc	4 684 7 is_stmt 0               @ ../src/driver/stm32g4-v120/src/stm32g4xx_hal_flash.c:684:7
	lsls	r0, r0, #31
	itt	ne
	movne	r0, #1
.Ltmp54:
	.loc	4 687 5 is_stmt 1               @ ../src/driver/stm32g4-v120/src/stm32g4xx_hal_flash.c:687:5
	strne	r0, [r6]
	movs	r0, #0
.Ltmp55:
	.loc	4 692 1                         @ ../src/driver/stm32g4-v120/src/stm32g4xx_hal_flash.c:692:1
	pop	{r4, r5, r6, pc}
.Ltmp56:
.Lfunc_end1:
	.size	FLASH_WaitForLastOperation, .Lfunc_end1-FLASH_WaitForLastOperation
	.cfi_endproc
	.cantunwind
	.fnend
                                        @ -- End function
	.section	.text.HAL_FLASH_Program_IT,"ax",%progbits
	.hidden	HAL_FLASH_Program_IT            @ -- Begin function HAL_FLASH_Program_IT
	.globl	HAL_FLASH_Program_IT
	.p2align	1
	.type	HAL_FLASH_Program_IT,%function
	.code	16                              @ @HAL_FLASH_Program_IT
	.thumb_func
HAL_FLASH_Program_IT:
.Lfunc_begin2:
	.loc	4 243 0                         @ ../src/driver/stm32g4-v120/src/stm32g4xx_hal_flash.c:243:0
	.fnstart
	.cfi_startproc
@ %bb.0:
	@DEBUG_VALUE: HAL_FLASH_Program_IT:TypeProgram <- $r0
	@DEBUG_VALUE: HAL_FLASH_Program_IT:Address <- $r1
	.save	{r4, r5, r6, r7, r8, r9, lr}
	push.w	{r4, r5, r6, r7, r8, r9, lr}
	.cfi_def_cfa_offset 28
	.cfi_offset lr, -4
	.cfi_offset r9, -8
	.cfi_offset r8, -12
	.cfi_offset r7, -16
	.cfi_offset r6, -20
	.cfi_offset r5, -24
	.cfi_offset r4, -28
	.pad	#4
	sub	sp, #4
	.cfi_def_cfa_offset 32
.Ltmp57:
	.loc	4 250 3 prologue_end            @ ../src/driver/stm32g4-v120/src/stm32g4xx_hal_flash.c:250:3
	movw	r6, :lower16:pFlash
	movt	r6, :upper16:pFlash
	mov	r4, r2
	ldrb	r2, [r6]
.Ltmp58:
	@DEBUG_VALUE: HAL_FLASH_Program_IT:Address <- $r1
	.loc	4 250 3 is_stmt 0               @ ../src/driver/stm32g4-v120/src/stm32g4xx_hal_flash.c:250:3
	cmp	r2, #1
.Ltmp59:
	@DEBUG_VALUE: HAL_FLASH_Program_IT:Data <- [DW_OP_LLVM_fragment 0 32] $r4
	@DEBUG_VALUE: HAL_FLASH_Program_IT:Data <- [DW_OP_LLVM_fragment 32 32] $r3
	@DEBUG_VALUE: HAL_FLASH_Program_IT:TypeProgram <- $r0
	bne	.LBB2_2
.Ltmp60:
@ %bb.1:
	@DEBUG_VALUE: HAL_FLASH_Program_IT:Data <- [DW_OP_LLVM_fragment 0 32] $r4
	@DEBUG_VALUE: HAL_FLASH_Program_IT:Data <- [DW_OP_LLVM_fragment 32 32] $r3
	@DEBUG_VALUE: HAL_FLASH_Program_IT:Address <- $r1
	@DEBUG_VALUE: HAL_FLASH_Program_IT:TypeProgram <- $r0
	.loc	4 0 3                           @ ../src/driver/stm32g4-v120/src/stm32g4xx_hal_flash.c:0:3
	movs	r0, #2
.Ltmp61:
	@DEBUG_VALUE: HAL_FLASH_Program_IT:TypeProgram <- [DW_OP_LLVM_entry_value 1] $r0
	b	.LBB2_13
.Ltmp62:
.LBB2_2:
	@DEBUG_VALUE: HAL_FLASH_Program_IT:Data <- [DW_OP_LLVM_fragment 0 32] $r4
	@DEBUG_VALUE: HAL_FLASH_Program_IT:Data <- [DW_OP_LLVM_fragment 32 32] $r3
	@DEBUG_VALUE: HAL_FLASH_Program_IT:Address <- $r1
	@DEBUG_VALUE: HAL_FLASH_Program_IT:TypeProgram <- $r0
	mov	r7, r0
.Ltmp63:
	@DEBUG_VALUE: HAL_FLASH_Program_IT:TypeProgram <- $r7
	@DEBUG_VALUE: HAL_FLASH_Program_IT:TypeProgram <- $r7
	@DEBUG_VALUE: HAL_FLASH_Program_IT:Data <- [DW_OP_LLVM_fragment 32 32] $r8
	@DEBUG_VALUE: HAL_FLASH_Program_IT:Data <- [DW_OP_LLVM_fragment 0 32] $r4
	movs	r0, #1
.Ltmp64:
	.loc	4 250 3                         @ ../src/driver/stm32g4-v120/src/stm32g4xx_hal_flash.c:250:3
	strb	r0, [r6]
	mov.w	r9, #0
.Ltmp65:
	.loc	4 256 12 is_stmt 1              @ ../src/driver/stm32g4-v120/src/stm32g4xx_hal_flash.c:256:12
	mov.w	r0, #1000
	mov	r8, r3
.Ltmp66:
	@DEBUG_VALUE: HAL_FLASH_Program_IT:Data <- [DW_OP_LLVM_fragment 32 32] $r8
	.loc	4 0 12 is_stmt 0                @ ../src/driver/stm32g4-v120/src/stm32g4xx_hal_flash.c:0:12
	mov	r5, r1
.Ltmp67:
	@DEBUG_VALUE: HAL_FLASH_Program_IT:Address <- $r5
	@DEBUG_VALUE: HAL_FLASH_Program_IT:Address <- $r5
	.loc	4 253 20 is_stmt 1              @ ../src/driver/stm32g4-v120/src/stm32g4xx_hal_flash.c:253:20
	str.w	r9, [r6, #4]
	.loc	4 256 12                        @ ../src/driver/stm32g4-v120/src/stm32g4xx_hal_flash.c:256:12
	bl	FLASH_WaitForLastOperation
.Ltmp68:
	@DEBUG_VALUE: HAL_FLASH_Program_IT:status <- $r0
	.loc	4 258 7                         @ ../src/driver/stm32g4-v120/src/stm32g4xx_hal_flash.c:258:7
	cbz	r0, .LBB2_4
.Ltmp69:
@ %bb.3:
	@DEBUG_VALUE: HAL_FLASH_Program_IT:Data <- [DW_OP_LLVM_fragment 32 32] $r8
	@DEBUG_VALUE: HAL_FLASH_Program_IT:TypeProgram <- $r7
	@DEBUG_VALUE: HAL_FLASH_Program_IT:Address <- $r5
	@DEBUG_VALUE: HAL_FLASH_Program_IT:Data <- [DW_OP_LLVM_fragment 0 32] $r4
	@DEBUG_VALUE: HAL_FLASH_Program_IT:status <- $r0
	.loc	4 261 5                         @ ../src/driver/stm32g4-v120/src/stm32g4xx_hal_flash.c:261:5
	strb.w	r9, [r6]
	b	.LBB2_13
.Ltmp70:
.LBB2_4:
	@DEBUG_VALUE: HAL_FLASH_Program_IT:Data <- [DW_OP_LLVM_fragment 32 32] $r8
	@DEBUG_VALUE: HAL_FLASH_Program_IT:TypeProgram <- $r7
	@DEBUG_VALUE: HAL_FLASH_Program_IT:Address <- $r5
	@DEBUG_VALUE: HAL_FLASH_Program_IT:Data <- [DW_OP_LLVM_fragment 0 32] $r4
	@DEBUG_VALUE: HAL_FLASH_Program_IT:status <- $r0
	@DEBUG_VALUE: HAL_FLASH_Program_IT:Data <- [DW_OP_LLVM_fragment 32 32] $r8
	@DEBUG_VALUE: HAL_FLASH_Program_IT:Data <- [DW_OP_LLVM_fragment 0 32] $r4
	.loc	4 0 5 is_stmt 0                 @ ../src/driver/stm32g4-v120/src/stm32g4xx_hal_flash.c:0:5
	movw	r0, #8212
.Ltmp71:
	.loc	4 266 9 is_stmt 1               @ ../src/driver/stm32g4-v120/src/stm32g4xx_hal_flash.c:266:9
	cmp	r7, #2
	movt	r0, #16386
	bne	.LBB2_6
.Ltmp72:
@ %bb.5:
	@DEBUG_VALUE: HAL_FLASH_Program_IT:Data <- [DW_OP_LLVM_fragment 32 32] $r8
	@DEBUG_VALUE: HAL_FLASH_Program_IT:TypeProgram <- $r7
	@DEBUG_VALUE: HAL_FLASH_Program_IT:Address <- $r5
	@DEBUG_VALUE: HAL_FLASH_Program_IT:Data <- [DW_OP_LLVM_fragment 0 32] $r4
	.loc	4 0 9 is_stmt 0                 @ ../src/driver/stm32g4-v120/src/stm32g4xx_hal_flash.c:0:9
	movs	r1, #4
.Ltmp73:
	.loc	4 268 31 is_stmt 1              @ ../src/driver/stm32g4-v120/src/stm32g4xx_hal_flash.c:268:31
	strb	r1, [r6, #8]
.Ltmp74:
	.loc	4 274 20                        @ ../src/driver/stm32g4-v120/src/stm32g4xx_hal_flash.c:274:20
	str	r5, [r6, #12]
.Ltmp75:
	.loc	4 277 5                         @ ../src/driver/stm32g4-v120/src/stm32g4xx_hal_flash.c:277:5
	ldr	r1, [r0]
	orr	r1, r1, #50331648
	str	r1, [r0]
	b	.LBB2_8
.Ltmp76:
.LBB2_6:
	@DEBUG_VALUE: HAL_FLASH_Program_IT:Data <- [DW_OP_LLVM_fragment 32 32] $r8
	@DEBUG_VALUE: HAL_FLASH_Program_IT:TypeProgram <- $r7
	@DEBUG_VALUE: HAL_FLASH_Program_IT:Address <- $r5
	@DEBUG_VALUE: HAL_FLASH_Program_IT:Data <- [DW_OP_LLVM_fragment 0 32] $r4
	@DEBUG_VALUE: HAL_FLASH_Program_IT:Data <- [DW_OP_LLVM_fragment 32 32] $r8
	.loc	4 0 5 is_stmt 0                 @ ../src/driver/stm32g4-v120/src/stm32g4xx_hal_flash.c:0:5
	movs	r1, #3
.Ltmp77:
	.loc	4 272 31 is_stmt 1              @ ../src/driver/stm32g4-v120/src/stm32g4xx_hal_flash.c:272:31
	strb	r1, [r6, #8]
.Ltmp78:
	.loc	4 274 20                        @ ../src/driver/stm32g4-v120/src/stm32g4xx_hal_flash.c:274:20
	str	r5, [r6, #12]
.Ltmp79:
	.loc	4 277 5                         @ ../src/driver/stm32g4-v120/src/stm32g4xx_hal_flash.c:277:5
	ldr	r1, [r0]
	orr	r1, r1, #50331648
	str	r1, [r0]
.Ltmp80:
	.loc	4 279 9                         @ ../src/driver/stm32g4-v120/src/stm32g4xx_hal_flash.c:279:9
	cbz	r7, .LBB2_11
.Ltmp81:
@ %bb.7:
	@DEBUG_VALUE: HAL_FLASH_Program_IT:Data <- [DW_OP_LLVM_fragment 32 32] $r8
	@DEBUG_VALUE: HAL_FLASH_Program_IT:TypeProgram <- $r7
	@DEBUG_VALUE: HAL_FLASH_Program_IT:Address <- $r5
	@DEBUG_VALUE: HAL_FLASH_Program_IT:Data <- [DW_OP_LLVM_fragment 0 32] $r4
	.loc	4 284 54                        @ ../src/driver/stm32g4-v120/src/stm32g4xx_hal_flash.c:284:54
	subs	r1, r7, #1
	cmp	r1, #1
	bhi	.LBB2_12
.Ltmp82:
.LBB2_8:
	@DEBUG_VALUE: HAL_FLASH_Program_IT:Data <- [DW_OP_LLVM_fragment 32 32] $r8
	@DEBUG_VALUE: HAL_FLASH_Program_IT:TypeProgram <- $r7
	@DEBUG_VALUE: HAL_FLASH_Program_IT:Address <- $r5
	@DEBUG_VALUE: HAL_FLASH_Program_IT:Data <- [DW_OP_LLVM_fragment 0 32] $r4
	@DEBUG_VALUE: FLASH_Program_Fast:DataAddress <- $r4
	@DEBUG_VALUE: FLASH_Program_Fast:Address <- $r5
	@DEBUG_VALUE: FLASH_Program_Fast:row_index <- 64
	@DEBUG_VALUE: FLASH_Program_Fast:dest_addr <- $r5
	@DEBUG_VALUE: FLASH_Program_Fast:src_addr <- undef
	.loc	4 736 3                         @ ../src/driver/stm32g4-v120/src/stm32g4xx_hal_flash.c:736:3
	ldr	r1, [r0]
	orr	r1, r1, #262144
	str	r1, [r0]
.Ltmp83:
	.loc	6 401 3                         @ ../src/driver/stm32g4-v120/inc/cmsis_armclang.h:401:3
	@APP
	mrs	r0, primask
	@NO_APP
.Ltmp84:
	@DEBUG_VALUE: FLASH_Program_Fast:primask_bit <- $r0
	@DEBUG_VALUE: __get_PRIMASK:result <- $r0
	.loc	4 740 3                         @ ../src/driver/stm32g4-v120/src/stm32g4xx_hal_flash.c:740:3
	@APP
	mrs	r1, primask
	cpsid i

	@NO_APP
	movs	r1, #64
.Ltmp85:
	.p2align	2
.LBB2_9:                                @ =>This Inner Loop Header: Depth=1
	@DEBUG_VALUE: HAL_FLASH_Program_IT:Data <- [DW_OP_LLVM_fragment 32 32] $r8
	@DEBUG_VALUE: HAL_FLASH_Program_IT:TypeProgram <- $r7
	@DEBUG_VALUE: FLASH_Program_Fast:dest_addr <- $r5
	@DEBUG_VALUE: FLASH_Program_Fast:primask_bit <- $r0
	@DEBUG_VALUE: FLASH_Program_Fast:row_index <- $r1
	@DEBUG_VALUE: FLASH_Program_Fast:dest_addr <- $r5
	@DEBUG_VALUE: FLASH_Program_Fast:src_addr <- $r4
	.loc	4 745 18                        @ ../src/driver/stm32g4-v120/src/stm32g4xx_hal_flash.c:745:18
	ldr	r2, [r4], #4
.Ltmp86:
	.loc	4 748 14                        @ ../src/driver/stm32g4-v120/src/stm32g4xx_hal_flash.c:748:14
	subs	r1, #1
.Ltmp87:
	@DEBUG_VALUE: FLASH_Program_Fast:row_index <- $r1
	.loc	4 749 3                         @ ../src/driver/stm32g4-v120/src/stm32g4xx_hal_flash.c:749:3
	lsls	r3, r1, #24
	.loc	4 745 16                        @ ../src/driver/stm32g4-v120/src/stm32g4xx_hal_flash.c:745:16
	str	r2, [r5], #4
.Ltmp88:
	@DEBUG_VALUE: HAL_FLASH_Program_IT:Address <- [DW_OP_LLVM_entry_value 1] $r1
	@DEBUG_VALUE: FLASH_Program_Fast:src_addr <- $r4
	@DEBUG_VALUE: FLASH_Program_Fast:dest_addr <- $r5
	.loc	4 749 3                         @ ../src/driver/stm32g4-v120/src/stm32g4xx_hal_flash.c:749:3
	bne	.LBB2_9
.Ltmp89:
@ %bb.10:
	@DEBUG_VALUE: HAL_FLASH_Program_IT:Data <- [DW_OP_LLVM_fragment 32 32] $r8
	@DEBUG_VALUE: HAL_FLASH_Program_IT:TypeProgram <- $r7
	@DEBUG_VALUE: FLASH_Program_Fast:dest_addr <- $r5
	@DEBUG_VALUE: FLASH_Program_Fast:src_addr <- $r4
	@DEBUG_VALUE: FLASH_Program_Fast:row_index <- $r1
	@DEBUG_VALUE: FLASH_Program_Fast:primask_bit <- $r0
	@DEBUG_VALUE: __set_PRIMASK:priMask <- $r0
	.loc	6 429 3                         @ ../src/driver/stm32g4-v120/inc/cmsis_armclang.h:429:3
	@APP
	msr	primask, r0
	@NO_APP
	b	.LBB2_12
.Ltmp90:
.LBB2_11:
	@DEBUG_VALUE: HAL_FLASH_Program_IT:Data <- [DW_OP_LLVM_fragment 32 32] $r8
	@DEBUG_VALUE: HAL_FLASH_Program_IT:TypeProgram <- $r7
	@DEBUG_VALUE: HAL_FLASH_Program_IT:Address <- $r5
	@DEBUG_VALUE: HAL_FLASH_Program_IT:Data <- [DW_OP_LLVM_fragment 0 32] $r4
	@DEBUG_VALUE: HAL_FLASH_Program_IT:Data <- [DW_OP_LLVM_fragment 32 32] $r8
	@DEBUG_VALUE: FLASH_Program_DoubleWord:Address <- $r5
	@DEBUG_VALUE: FLASH_Program_DoubleWord:Data <- [DW_OP_LLVM_fragment 0 32] $r4
	@DEBUG_VALUE: FLASH_Program_DoubleWord:Data <- [DW_OP_LLVM_fragment 32 32] $r8
	.loc	4 706 3                         @ ../src/driver/stm32g4-v120/src/stm32g4xx_hal_flash.c:706:3
	ldr	r1, [r0]
	orr	r1, r1, #1
	str	r1, [r0]
	.loc	4 709 24                        @ ../src/driver/stm32g4-v120/src/stm32g4xx_hal_flash.c:709:24
	str	r4, [r5]
	.loc	4 713 3                         @ ../src/driver/stm32g4-v120/src/stm32g4xx_hal_flash.c:713:3
	isb	sy
	.loc	4 716 31                        @ ../src/driver/stm32g4-v120/src/stm32g4xx_hal_flash.c:716:31
	str.w	r8, [r5, #4]
.Ltmp91:
.LBB2_12:
	@DEBUG_VALUE: HAL_FLASH_Program_IT:Data <- [DW_OP_LLVM_fragment 32 32] $r8
	@DEBUG_VALUE: HAL_FLASH_Program_IT:TypeProgram <- $r7
	.loc	4 0 31 is_stmt 0                @ ../src/driver/stm32g4-v120/src/stm32g4xx_hal_flash.c:0:31
	movs	r0, #0
.Ltmp92:
.LBB2_13:
	.loc	4 296 1 is_stmt 1               @ ../src/driver/stm32g4-v120/src/stm32g4xx_hal_flash.c:296:1
	add	sp, #4
	pop.w	{r4, r5, r6, r7, r8, r9, pc}
.Ltmp93:
.Lfunc_end2:
	.size	HAL_FLASH_Program_IT, .Lfunc_end2-HAL_FLASH_Program_IT
	.cfi_endproc
	.cantunwind
	.fnend
                                        @ -- End function
	.section	.text.HAL_FLASH_IRQHandler,"ax",%progbits
	.hidden	HAL_FLASH_IRQHandler            @ -- Begin function HAL_FLASH_IRQHandler
	.globl	HAL_FLASH_IRQHandler
	.p2align	2
	.type	HAL_FLASH_IRQHandler,%function
	.code	16                              @ @HAL_FLASH_IRQHandler
	.thumb_func
HAL_FLASH_IRQHandler:
.Lfunc_begin3:
	.loc	4 303 0                         @ ../src/driver/stm32g4-v120/src/stm32g4xx_hal_flash.c:303:0
	.fnstart
	.cfi_startproc
@ %bb.0:
	.save	{r4, r5, r7, lr}
	push	{r4, r5, r7, lr}
	.cfi_def_cfa_offset 16
	.cfi_offset lr, -4
	.cfi_offset r7, -8
	.cfi_offset r5, -12
	.cfi_offset r4, -16
	movw	r4, #8208
	movt	r4, #16386
.Ltmp94:
	.loc	4 309 3 prologue_end            @ ../src/driver/stm32g4-v120/src/stm32g4xx_hal_flash.c:309:3
	ldr	r0, [r4, #4]
	movw	r1, #1023
	bics	r0, r1
	str	r0, [r4, #4]
	.loc	4 311 3                         @ ../src/driver/stm32g4-v120/src/stm32g4xx_hal_flash.c:311:3
	ldr	r0, [r4, #4]
.Ltmp95:
	.loc	4 315 14                        @ ../src/driver/stm32g4-v120/src/stm32g4xx_hal_flash.c:315:14
	movw	r5, :lower16:pFlash
.Ltmp96:
	.loc	4 311 3                         @ ../src/driver/stm32g4-v120/src/stm32g4xx_hal_flash.c:311:3
	bic	r0, r0, #32768
	str	r0, [r4, #4]
.Ltmp97:
	.loc	4 315 14                        @ ../src/driver/stm32g4-v120/src/stm32g4xx_hal_flash.c:315:14
	movt	r5, :upper16:pFlash
	ldrb	r0, [r5, #8]
.Ltmp98:
	.loc	4 315 7 is_stmt 0               @ ../src/driver/stm32g4-v120/src/stm32g4xx_hal_flash.c:315:7
	cmp	r0, #4
	bne	.LBB3_2
@ %bb.1:
.Ltmp99:
	.loc	4 317 5 is_stmt 1               @ ../src/driver/stm32g4-v120/src/stm32g4xx_hal_flash.c:317:5
	ldr	r0, [r4, #4]
	bic	r0, r0, #262144
	str	r0, [r4, #4]
.Ltmp100:
.LBB3_2:
	.loc	4 321 19                        @ ../src/driver/stm32g4-v120/src/stm32g4xx_hal_flash.c:321:19
	ldr	r0, [r4]
	movw	r1, #50170
	.loc	4 321 22 is_stmt 0              @ ../src/driver/stm32g4-v120/src/stm32g4xx_hal_flash.c:321:22
	ands	r0, r1
.Ltmp101:
	@DEBUG_VALUE: HAL_FLASH_IRQHandler:error <- $r0
	.loc	4 323 7 is_stmt 1               @ ../src/driver/stm32g4-v120/src/stm32g4xx_hal_flash.c:323:7
	beq	.LBB3_6
.Ltmp102:
@ %bb.3:
	@DEBUG_VALUE: HAL_FLASH_IRQHandler:error <- $r0
	.loc	4 326 22                        @ ../src/driver/stm32g4-v120/src/stm32g4xx_hal_flash.c:326:22
	ldr	r1, [r5, #4]
	orrs	r1, r0
	str	r1, [r5, #4]
.Ltmp103:
	.loc	4 329 5                         @ ../src/driver/stm32g4-v120/src/stm32g4xx_hal_flash.c:329:5
	str	r0, [r4]
.Ltmp104:
	.loc	4 332 5                         @ ../src/driver/stm32g4-v120/src/stm32g4xx_hal_flash.c:332:5
	bl	FLASH_FlushCaches
.Ltmp105:
	.loc	4 335 24                        @ ../src/driver/stm32g4-v120/src/stm32g4xx_hal_flash.c:335:24
	ldrb	r0, [r5, #8]
.Ltmp106:
	@DEBUG_VALUE: HAL_FLASH_IRQHandler:procedure <- $r0
	.loc	4 336 9                         @ ../src/driver/stm32g4-v120/src/stm32g4xx_hal_flash.c:336:9
	subs	r0, #1
.Ltmp107:
	uxtb	r1, r0
	cmp	r1, #3
	bhi	.LBB3_5
@ %bb.4:
	sxtb	r0, r0
	adr	r1, .LCPI3_0
	ldr.w	r0, [r1, r0, lsl #2]
.Ltmp108:
	.loc	4 0 0 is_stmt 0                 @ ../src/driver/stm32g4-v120/src/stm32g4xx_hal_flash.c:0:0
	ldr	r0, [r0]
	bl	HAL_FLASH_OperationErrorCallback
.Ltmp109:
.LBB3_5:
	movs	r0, #0
	.loc	4 355 29 is_stmt 1              @ ../src/driver/stm32g4-v120/src/stm32g4xx_hal_flash.c:355:29
	strb	r0, [r5, #8]
.Ltmp110:
.LBB3_6:
	.loc	4 359 7                         @ ../src/driver/stm32g4-v120/src/stm32g4xx_hal_flash.c:359:7
	ldr	r0, [r4]
.Ltmp111:
	.loc	4 359 7 is_stmt 0               @ ../src/driver/stm32g4-v120/src/stm32g4xx_hal_flash.c:359:7
	lsls	r0, r0, #31
	beq	.LBB3_14
@ %bb.7:
	.loc	4 0 7                           @ ../src/driver/stm32g4-v120/src/stm32g4xx_hal_flash.c:0:7
	movs	r0, #1
.Ltmp112:
	.loc	4 362 5 is_stmt 1               @ ../src/driver/stm32g4-v120/src/stm32g4xx_hal_flash.c:362:5
	str	r0, [r4]
.Ltmp113:
	.loc	4 364 16                        @ ../src/driver/stm32g4-v120/src/stm32g4xx_hal_flash.c:364:16
	ldrb	r0, [r5, #8]
.Ltmp114:
	.loc	4 364 9 is_stmt 0               @ ../src/driver/stm32g4-v120/src/stm32g4xx_hal_flash.c:364:9
	cmp	r0, #1
	bne	.LBB3_10
@ %bb.8:
.Ltmp115:
	.loc	4 367 28 is_stmt 1              @ ../src/driver/stm32g4-v120/src/stm32g4xx_hal_flash.c:367:28
	ldr	r0, [r5, #24]
	subs	r0, #1
	str	r0, [r5, #24]
.Ltmp116:
	.loc	4 370 18                        @ ../src/driver/stm32g4-v120/src/stm32g4xx_hal_flash.c:370:18
	ldr	r0, [r5, #24]
.Ltmp117:
	.loc	4 370 11 is_stmt 0              @ ../src/driver/stm32g4-v120/src/stm32g4xx_hal_flash.c:370:11
	cbz	r0, .LBB3_13
@ %bb.9:
.Ltmp118:
	.loc	4 373 49 is_stmt 1              @ ../src/driver/stm32g4-v120/src/stm32g4xx_hal_flash.c:373:49
	ldr	r0, [r5, #20]
	.loc	4 373 9 is_stmt 0               @ ../src/driver/stm32g4-v120/src/stm32g4xx_hal_flash.c:373:9
	bl	HAL_FLASH_EndOfOperationCallback
.Ltmp119:
	.loc	4 376 20 is_stmt 1              @ ../src/driver/stm32g4-v120/src/stm32g4xx_hal_flash.c:376:20
	ldr	r0, [r5, #20]
	adds	r0, #1
	str	r0, [r5, #20]
	.loc	4 377 27                        @ ../src/driver/stm32g4-v120/src/stm32g4xx_hal_flash.c:377:27
	ldr	r0, [r5, #20]
.Ltmp120:
	@DEBUG_VALUE: HAL_FLASH_IRQHandler:tmp_page <- $r0
	.loc	4 378 42                        @ ../src/driver/stm32g4-v120/src/stm32g4xx_hal_flash.c:378:42
	ldr	r1, [r5, #16]
	.loc	4 378 9 is_stmt 0               @ ../src/driver/stm32g4-v120/src/stm32g4xx_hal_flash.c:378:9
	bl	FLASH_PageErase
.Ltmp121:
	.loc	4 0 9                           @ ../src/driver/stm32g4-v120/src/stm32g4xx_hal_flash.c:0:9
	b	.LBB3_14
.Ltmp122:
.LBB3_10:
	.loc	4 397 7 is_stmt 1               @ ../src/driver/stm32g4-v120/src/stm32g4xx_hal_flash.c:397:7
	bl	FLASH_FlushCaches
.Ltmp123:
	.loc	4 399 26                        @ ../src/driver/stm32g4-v120/src/stm32g4xx_hal_flash.c:399:26
	ldrb	r0, [r5, #8]
.Ltmp124:
	@DEBUG_VALUE: HAL_FLASH_IRQHandler:procedure <- $r0
	.loc	4 400 11                        @ ../src/driver/stm32g4-v120/src/stm32g4xx_hal_flash.c:400:11
	subs	r0, #2
.Ltmp125:
	uxtb	r1, r0
	cmp	r1, #2
	bhi	.LBB3_12
@ %bb.11:
	sxtb	r0, r0
	adr	r1, .LCPI3_1
	ldr.w	r0, [r1, r0, lsl #2]
.Ltmp126:
	.loc	4 0 0 is_stmt 0                 @ ../src/driver/stm32g4-v120/src/stm32g4xx_hal_flash.c:0:0
	ldr	r0, [r0]
	bl	HAL_FLASH_EndOfOperationCallback
.Ltmp127:
.LBB3_12:
	movs	r0, #0
	.loc	4 419 31 is_stmt 1              @ ../src/driver/stm32g4-v120/src/stm32g4xx_hal_flash.c:419:31
	strb	r0, [r5, #8]
	b	.LBB3_14
.Ltmp128:
.LBB3_13:
	.loc	4 0 31 is_stmt 0                @ ../src/driver/stm32g4-v120/src/stm32g4xx_hal_flash.c:0:31
	mov.w	r0, #-1
.Ltmp129:
	.loc	4 384 21 is_stmt 1              @ ../src/driver/stm32g4-v120/src/stm32g4xx_hal_flash.c:384:21
	str	r0, [r5, #20]
	movs	r0, #0
	.loc	4 385 33                        @ ../src/driver/stm32g4-v120/src/stm32g4xx_hal_flash.c:385:33
	strb	r0, [r5, #8]
	.loc	4 388 9                         @ ../src/driver/stm32g4-v120/src/stm32g4xx_hal_flash.c:388:9
	bl	FLASH_FlushCaches
.Ltmp130:
	.loc	4 391 49                        @ ../src/driver/stm32g4-v120/src/stm32g4xx_hal_flash.c:391:49
	ldr	r0, [r5, #20]
	.loc	4 391 9 is_stmt 0               @ ../src/driver/stm32g4-v120/src/stm32g4xx_hal_flash.c:391:9
	bl	HAL_FLASH_EndOfOperationCallback
.Ltmp131:
.LBB3_14:
	.loc	4 423 14 is_stmt 1              @ ../src/driver/stm32g4-v120/src/stm32g4xx_hal_flash.c:423:14
	ldrb	r0, [r5, #8]
.Ltmp132:
	.loc	4 423 7 is_stmt 0               @ ../src/driver/stm32g4-v120/src/stm32g4xx_hal_flash.c:423:7
	cbz	r0, .LBB3_16
@ %bb.15:
	.loc	4 431 1 is_stmt 1               @ ../src/driver/stm32g4-v120/src/stm32g4xx_hal_flash.c:431:1
	pop	{r4, r5, r7, pc}
.LBB3_16:
.Ltmp133:
	.loc	4 426 5                         @ ../src/driver/stm32g4-v120/src/stm32g4xx_hal_flash.c:426:5
	ldr	r0, [r4, #4]
	bic	r0, r0, #50331648
	str	r0, [r4, #4]
	movs	r0, #0
.Ltmp134:
	.loc	4 429 5                         @ ../src/driver/stm32g4-v120/src/stm32g4xx_hal_flash.c:429:5
	strb	r0, [r5]
.Ltmp135:
	.loc	4 431 1                         @ ../src/driver/stm32g4-v120/src/stm32g4xx_hal_flash.c:431:1
	pop	{r4, r5, r7, pc}
.Ltmp136:
	.p2align	2
@ %bb.17:
	.loc	4 0 1 is_stmt 0                 @ ../src/driver/stm32g4-v120/src/stm32g4xx_hal_flash.c:0:1
.LCPI3_0:
.Lswitch.table.HAL_FLASH_IRQHandler:
	.long	pFlash+20
	.long	pFlash+16
	.long	pFlash+12
	.long	pFlash+12
.LCPI3_1:
.Lswitch.table.HAL_FLASH_IRQHandler.1:
	.long	pFlash+16
	.long	pFlash+12
	.long	pFlash+12
.Lfunc_end3:
	.size	HAL_FLASH_IRQHandler, .Lfunc_end3-HAL_FLASH_IRQHandler
	.cfi_endproc
	.cantunwind
	.fnend
                                        @ -- End function
	.section	.text.HAL_FLASH_OperationErrorCallback,"ax",%progbits
	.hidden	HAL_FLASH_OperationErrorCallback @ -- Begin function HAL_FLASH_OperationErrorCallback
	.weak	HAL_FLASH_OperationErrorCallback
	.p2align	1
	.type	HAL_FLASH_OperationErrorCallback,%function
	.code	16                              @ @HAL_FLASH_OperationErrorCallback
	.thumb_func
HAL_FLASH_OperationErrorCallback:
.Lfunc_begin4:
	.loc	4 461 0 is_stmt 1               @ ../src/driver/stm32g4-v120/src/stm32g4xx_hal_flash.c:461:0
	.fnstart
	.cfi_startproc
@ %bb.0:
	@DEBUG_VALUE: HAL_FLASH_OperationErrorCallback:ReturnValue <- $r0
	.loc	4 468 1 prologue_end            @ ../src/driver/stm32g4-v120/src/stm32g4xx_hal_flash.c:468:1
	bx	lr
.Ltmp137:
.Lfunc_end4:
	.size	HAL_FLASH_OperationErrorCallback, .Lfunc_end4-HAL_FLASH_OperationErrorCallback
	.cfi_endproc
	.cantunwind
	.fnend
                                        @ -- End function
	.section	.text.HAL_FLASH_EndOfOperationCallback,"ax",%progbits
	.hidden	HAL_FLASH_EndOfOperationCallback @ -- Begin function HAL_FLASH_EndOfOperationCallback
	.weak	HAL_FLASH_EndOfOperationCallback
	.p2align	1
	.type	HAL_FLASH_EndOfOperationCallback,%function
	.code	16                              @ @HAL_FLASH_EndOfOperationCallback
	.thumb_func
HAL_FLASH_EndOfOperationCallback:
.Lfunc_begin5:
	.loc	4 443 0                         @ ../src/driver/stm32g4-v120/src/stm32g4xx_hal_flash.c:443:0
	.fnstart
	.cfi_startproc
@ %bb.0:
	@DEBUG_VALUE: HAL_FLASH_EndOfOperationCallback:ReturnValue <- $r0
	.loc	4 450 1 prologue_end            @ ../src/driver/stm32g4-v120/src/stm32g4xx_hal_flash.c:450:1
	bx	lr
.Ltmp138:
.Lfunc_end5:
	.size	HAL_FLASH_EndOfOperationCallback, .Lfunc_end5-HAL_FLASH_EndOfOperationCallback
	.cfi_endproc
	.cantunwind
	.fnend
                                        @ -- End function
	.section	.text.HAL_FLASH_Unlock,"ax",%progbits
	.hidden	HAL_FLASH_Unlock                @ -- Begin function HAL_FLASH_Unlock
	.globl	HAL_FLASH_Unlock
	.p2align	1
	.type	HAL_FLASH_Unlock,%function
	.code	16                              @ @HAL_FLASH_Unlock
	.thumb_func
HAL_FLASH_Unlock:
.Lfunc_begin6:
	.loc	4 494 0                         @ ../src/driver/stm32g4-v120/src/stm32g4xx_hal_flash.c:494:0
	.fnstart
	.cfi_startproc
@ %bb.0:
	movw	r0, #8200
	movt	r0, #16386
.Ltmp139:
	@DEBUG_VALUE: HAL_FLASH_Unlock:status <- 0
	.loc	4 497 7 prologue_end            @ ../src/driver/stm32g4-v120/src/stm32g4xx_hal_flash.c:497:7
	ldr	r1, [r0, #12]
.Ltmp140:
	.loc	4 497 7 is_stmt 0               @ ../src/driver/stm32g4-v120/src/stm32g4xx_hal_flash.c:497:7
	cmp.w	r1, #-1
	@DEBUG_VALUE: HAL_FLASH_Unlock:status <- 0
	.loc	4 510 3 is_stmt 1               @ ../src/driver/stm32g4-v120/src/stm32g4xx_hal_flash.c:510:3
	itt	gt
	movgt	r0, #0
	bxgt	lr
.Ltmp141:
.LBB6_1:
	@DEBUG_VALUE: HAL_FLASH_Unlock:status <- 0
	.loc	4 0 3 is_stmt 0                 @ ../src/driver/stm32g4-v120/src/stm32g4xx_hal_flash.c:0:3
	movw	r1, #291
	movt	r1, #17767
.Ltmp142:
	.loc	4 500 5 is_stmt 1               @ ../src/driver/stm32g4-v120/src/stm32g4xx_hal_flash.c:500:5
	str	r1, [r0]
	movw	r1, #35243
	movt	r1, #52719
	.loc	4 501 5                         @ ../src/driver/stm32g4-v120/src/stm32g4xx_hal_flash.c:501:5
	str	r1, [r0]
.Ltmp143:
	.loc	4 504 9                         @ ../src/driver/stm32g4-v120/src/stm32g4xx_hal_flash.c:504:9
	ldr	r0, [r0, #12]
.Ltmp144:
	.loc	4 504 9 is_stmt 0               @ ../src/driver/stm32g4-v120/src/stm32g4xx_hal_flash.c:504:9
	lsrs	r0, r0, #31
	bx	lr
.Ltmp145:
.Lfunc_end6:
	.size	HAL_FLASH_Unlock, .Lfunc_end6-HAL_FLASH_Unlock
	.cfi_endproc
	.cantunwind
	.fnend
                                        @ -- End function
	.section	.text.HAL_FLASH_Lock,"ax",%progbits
	.hidden	HAL_FLASH_Lock                  @ -- Begin function HAL_FLASH_Lock
	.globl	HAL_FLASH_Lock
	.p2align	1
	.type	HAL_FLASH_Lock,%function
	.code	16                              @ @HAL_FLASH_Lock
	.thumb_func
HAL_FLASH_Lock:
.Lfunc_begin7:
	.loc	4 518 0 is_stmt 1               @ ../src/driver/stm32g4-v120/src/stm32g4xx_hal_flash.c:518:0
	.fnstart
	.cfi_startproc
@ %bb.0:
	movw	r0, #8212
	movt	r0, #16386
.Ltmp146:
	@DEBUG_VALUE: HAL_FLASH_Lock:status <- 1
	.loc	4 522 3 prologue_end            @ ../src/driver/stm32g4-v120/src/stm32g4xx_hal_flash.c:522:3
	ldr	r1, [r0]
	orr	r1, r1, #-2147483648
	str	r1, [r0]
.Ltmp147:
	.loc	4 525 7                         @ ../src/driver/stm32g4-v120/src/stm32g4xx_hal_flash.c:525:7
	ldr	r0, [r0]
.Ltmp148:
	.loc	4 525 7 is_stmt 0               @ ../src/driver/stm32g4-v120/src/stm32g4xx_hal_flash.c:525:7
	mvns	r0, r0
	lsrs	r0, r0, #31
.Ltmp149:
	@DEBUG_VALUE: HAL_FLASH_Lock:status <- $r0
	.loc	4 530 3 is_stmt 1               @ ../src/driver/stm32g4-v120/src/stm32g4xx_hal_flash.c:530:3
	bx	lr
.Ltmp150:
.Lfunc_end7:
	.size	HAL_FLASH_Lock, .Lfunc_end7-HAL_FLASH_Lock
	.cfi_endproc
	.cantunwind
	.fnend
                                        @ -- End function
	.section	.text.HAL_FLASH_OB_Unlock,"ax",%progbits
	.hidden	HAL_FLASH_OB_Unlock             @ -- Begin function HAL_FLASH_OB_Unlock
	.globl	HAL_FLASH_OB_Unlock
	.p2align	1
	.type	HAL_FLASH_OB_Unlock,%function
	.code	16                              @ @HAL_FLASH_OB_Unlock
	.thumb_func
HAL_FLASH_OB_Unlock:
.Lfunc_begin8:
	.loc	4 538 0                         @ ../src/driver/stm32g4-v120/src/stm32g4xx_hal_flash.c:538:0
	.fnstart
	.cfi_startproc
@ %bb.0:
	movw	r0, #8204
	movt	r0, #16386
.Ltmp151:
	@DEBUG_VALUE: HAL_FLASH_OB_Unlock:status <- 0
	.loc	4 541 7 prologue_end            @ ../src/driver/stm32g4-v120/src/stm32g4xx_hal_flash.c:541:7
	ldr	r1, [r0, #8]
.Ltmp152:
	.loc	4 541 7 is_stmt 0               @ ../src/driver/stm32g4-v120/src/stm32g4xx_hal_flash.c:541:7
	lsls	r1, r1, #1
	@DEBUG_VALUE: HAL_FLASH_OB_Unlock:status <- 0
	.loc	4 554 3 is_stmt 1               @ ../src/driver/stm32g4-v120/src/stm32g4xx_hal_flash.c:554:3
	itt	pl
	movpl	r0, #0
	bxpl	lr
.Ltmp153:
.LBB8_1:
	@DEBUG_VALUE: HAL_FLASH_OB_Unlock:status <- 0
	.loc	4 0 3 is_stmt 0                 @ ../src/driver/stm32g4-v120/src/stm32g4xx_hal_flash.c:0:3
	movw	r1, #10811
	movt	r1, #2073
.Ltmp154:
	.loc	4 544 5 is_stmt 1               @ ../src/driver/stm32g4-v120/src/stm32g4xx_hal_flash.c:544:5
	str	r1, [r0]
	movw	r1, #28287
	movt	r1, #19549
	.loc	4 545 5                         @ ../src/driver/stm32g4-v120/src/stm32g4xx_hal_flash.c:545:5
	str	r1, [r0]
.Ltmp155:
	.loc	4 548 9                         @ ../src/driver/stm32g4-v120/src/stm32g4xx_hal_flash.c:548:9
	ldr	r0, [r0, #8]
.Ltmp156:
	.loc	4 548 9 is_stmt 0               @ ../src/driver/stm32g4-v120/src/stm32g4xx_hal_flash.c:548:9
	ubfx	r0, r0, #30, #1
	bx	lr
.Ltmp157:
.Lfunc_end8:
	.size	HAL_FLASH_OB_Unlock, .Lfunc_end8-HAL_FLASH_OB_Unlock
	.cfi_endproc
	.cantunwind
	.fnend
                                        @ -- End function
	.section	.text.HAL_FLASH_OB_Lock,"ax",%progbits
	.hidden	HAL_FLASH_OB_Lock               @ -- Begin function HAL_FLASH_OB_Lock
	.globl	HAL_FLASH_OB_Lock
	.p2align	1
	.type	HAL_FLASH_OB_Lock,%function
	.code	16                              @ @HAL_FLASH_OB_Lock
	.thumb_func
HAL_FLASH_OB_Lock:
.Lfunc_begin9:
	.loc	4 562 0 is_stmt 1               @ ../src/driver/stm32g4-v120/src/stm32g4xx_hal_flash.c:562:0
	.fnstart
	.cfi_startproc
@ %bb.0:
	movw	r0, #8212
	movt	r0, #16386
.Ltmp158:
	@DEBUG_VALUE: HAL_FLASH_OB_Lock:status <- 1
	.loc	4 566 3 prologue_end            @ ../src/driver/stm32g4-v120/src/stm32g4xx_hal_flash.c:566:3
	ldr	r1, [r0]
	orr	r1, r1, #1073741824
	str	r1, [r0]
.Ltmp159:
	.loc	4 569 7                         @ ../src/driver/stm32g4-v120/src/stm32g4xx_hal_flash.c:569:7
	ldr	r0, [r0]
	movs	r1, #1
.Ltmp160:
	.loc	4 569 7 is_stmt 0               @ ../src/driver/stm32g4-v120/src/stm32g4xx_hal_flash.c:569:7
	bic.w	r0, r1, r0, lsr #30
.Ltmp161:
	@DEBUG_VALUE: HAL_FLASH_OB_Lock:status <- $r0
	.loc	4 574 3 is_stmt 1               @ ../src/driver/stm32g4-v120/src/stm32g4xx_hal_flash.c:574:3
	bx	lr
.Ltmp162:
.Lfunc_end9:
	.size	HAL_FLASH_OB_Lock, .Lfunc_end9-HAL_FLASH_OB_Lock
	.cfi_endproc
	.cantunwind
	.fnend
                                        @ -- End function
	.section	.text.HAL_FLASH_OB_Launch,"ax",%progbits
	.hidden	HAL_FLASH_OB_Launch             @ -- Begin function HAL_FLASH_OB_Launch
	.globl	HAL_FLASH_OB_Launch
	.p2align	1
	.type	HAL_FLASH_OB_Launch,%function
	.code	16                              @ @HAL_FLASH_OB_Launch
	.thumb_func
HAL_FLASH_OB_Launch:
.Lfunc_begin10:
	.loc	4 582 0                         @ ../src/driver/stm32g4-v120/src/stm32g4xx_hal_flash.c:582:0
	.fnstart
	.cfi_startproc
@ %bb.0:
	movw	r1, #8212
	movt	r1, #16386
.Ltmp163:
	.loc	4 584 3 prologue_end            @ ../src/driver/stm32g4-v120/src/stm32g4xx_hal_flash.c:584:3
	ldr	r0, [r1]
	orr	r2, r0, #134217728
	.loc	4 587 11                        @ ../src/driver/stm32g4-v120/src/stm32g4xx_hal_flash.c:587:11
	mov.w	r0, #1000
	.loc	4 584 3                         @ ../src/driver/stm32g4-v120/src/stm32g4xx_hal_flash.c:584:3
	str	r2, [r1]
.Ltmp164:
	.loc	4 587 11                        @ ../src/driver/stm32g4-v120/src/stm32g4xx_hal_flash.c:587:11
	b	FLASH_WaitForLastOperation
.Ltmp165:
.Lfunc_end10:
	.size	HAL_FLASH_OB_Launch, .Lfunc_end10-HAL_FLASH_OB_Launch
	.cfi_endproc
	.cantunwind
	.fnend
                                        @ -- End function
	.section	.text.HAL_FLASH_GetError,"ax",%progbits
	.hidden	HAL_FLASH_GetError              @ -- Begin function HAL_FLASH_GetError
	.globl	HAL_FLASH_GetError
	.p2align	1
	.type	HAL_FLASH_GetError,%function
	.code	16                              @ @HAL_FLASH_GetError
	.thumb_func
HAL_FLASH_GetError:
.Lfunc_begin11:
	.loc	4 630 0                         @ ../src/driver/stm32g4-v120/src/stm32g4xx_hal_flash.c:630:0
	.fnstart
	.cfi_startproc
@ %bb.0:
	.loc	4 631 17 prologue_end           @ ../src/driver/stm32g4-v120/src/stm32g4xx_hal_flash.c:631:17
	movw	r0, :lower16:pFlash
	movt	r0, :upper16:pFlash
	ldr	r0, [r0, #4]
	.loc	4 631 3 is_stmt 0               @ ../src/driver/stm32g4-v120/src/stm32g4xx_hal_flash.c:631:3
	bx	lr
.Ltmp166:
.Lfunc_end11:
	.size	HAL_FLASH_GetError, .Lfunc_end11-HAL_FLASH_GetError
	.cfi_endproc
	.cantunwind
	.fnend
                                        @ -- End function
	.hidden	pFlash                          @ @pFlash
	.type	pFlash,%object
	.section	.data.pFlash,"aw",%progbits
	.globl	pFlash
	.p2align	2
pFlash:
	.byte	0                               @ 0x0
	.zero	3
	.long	0                               @ 0x0
	.byte	0                               @ 0x0
	.zero	3
	.long	0                               @ 0x0
	.long	1                               @ 0x1
	.long	0                               @ 0x0
	.long	0                               @ 0x0
	.byte	0                               @ 0x0
	.zero	3
	.size	pFlash, 32

	.section	".note.GNU-stack","",%progbits
	.eabi_attribute	30, 3	@ Tag_ABI_optimization_goals
	.ARM_attribute	16, 1	@ Tag_AV_eba