	.text
	.syntax unified
	.eabi_attribute	67, "2.09"	@ Tag_conformance
	.cpu	cortex-m4
	.eabi_attribute	6, 13	@ Tag_CPU_arch
	.eabi_attribute	7, 77	@ Tag_CPU_arch_profile
	.eabi_attribute	8, 0	@ Tag_ARM_ISA_use
	.eabi_attribute	9, 2	@ Tag_THUMB_ISA_use
	.fpu	fpv4-sp-d16
	.eabi_attribute	27, 1	@ Tag_ABI_HardFP_use
	.eabi_attribute	36, 1	@ Tag_FP_HP_extension
	.eabi_attribute	34, 1	@ Tag_CPU_unaligned_access
	.eabi_attribute	17, 1	@ Tag_ABI_PCS_GOT_use
	.eabi_attribute	20, 2	@ Tag_ABI_FP_denormal
	.eabi_attribute	21, 0	@ Tag_ABI_FP_exceptions
	.eabi_attribute	23, 1	@ Tag_ABI_FP_number_model
	.eabi_attribute	24, 1	@ Tag_ABI_align_needed
	.eabi_attribute	25, 1	@ Tag_ABI_align_preserved
	.eabi_attribute	28, 1	@ Tag_ABI_VFP_args
	.eabi_attribute	38, 1	@ Tag_ABI_FP_16bit_format
	.eabi_attribute	18, 2	@ Tag_ABI_PCS_wchar_t
	.eabi_attribute	26, 1	@ Tag_ABI_enum_size
	.eabi_attribute	14, 0	@ Tag_ABI_PCS_R9_use
	.file	"stm32g4xx_hal_adc.c"
	.file	1 "C:\\Users\\grodriguez\\Documents\\iit\\icub-firmware\\emBODY\\eBcode\\arch-arm\\libs\\lowlevel\\stm32hal\\proj" "../src/driver/stm32g4-v120/inc/stm32g4xx_hal_def.h"
	.file	2 "C:\\Users\\grodriguez\\Documents\\iit\\icub-firmware\\emBODY\\eBcode\\arch-arm\\libs\\lowlevel\\stm32hal\\proj" "../src/driver/stm32g4-v120/inc/stm32g4xx.h"
	.file	3 "C:\\Users\\grodriguez\\Documents\\iit\\icub-firmware\\emBODY\\eBcode\\arch-arm\\libs\\lowlevel\\stm32hal\\proj" "../api\\../src/driver/stm32g4-v120/inc/stm32g4xx_hal_dma.h"
	.file	4 "C:\\Users\\grodriguez\\Documents\\iit\\icub-firmware\\emBODY\\eBcode\\arch-arm\\libs\\lowlevel\\stm32hal\\proj" "../api\\../src/driver/stm32g4-v120/inc/stm32g4xx_hal_adc.h"
	.file	5 "C:\\" "Keil_v5\\ARM\\ARMCLANG\\Bin\\..\\include\\stdint.h"
	.file	6 "C:\\Users\\grodriguez\\Documents\\iit\\icub-firmware\\emBODY\\eBcode\\arch-arm\\libs\\lowlevel\\stm32hal\\proj" "../src/driver/stm32g4-v120/inc/stm32g474xx.h"
	.section	.text.HAL_ADC_Init,"ax",%progbits
	.hidden	HAL_ADC_Init                    @ -- Begin function HAL_ADC_Init
	.globl	HAL_ADC_Init
	.p2align	1
	.type	HAL_ADC_Init,%function
	.code	16                              @ @HAL_ADC_Init
	.thumb_func
HAL_ADC_Init:
.Lfunc_begin0:
	.file	7 "C:\\Users\\grodriguez\\Documents\\iit\\icub-firmware\\emBODY\\eBcode\\arch-arm\\libs\\lowlevel\\stm32hal\\proj" "../src/driver/stm32g4-v120/src/stm32g4xx_hal_adc.c"
	.loc	7 405 0                         @ ../src/driver/stm32g4-v120/src/stm32g4xx_hal_adc.c:405:0
	.fnstart
	.cfi_sections .debug_frame
	.cfi_startproc
@ %bb.0:
	@DEBUG_VALUE: HAL_ADC_Init:hadc <- $r0
	.save	{r4, r5, r6, lr}
	push	{r4, r5, r6, lr}
	.cfi_def_cfa_offset 16
	.cfi_offset lr, -4
	.cfi_offset r6, -8
	.cfi_offset r5, -12
	.cfi_offset r4, -16
	.pad	#8
	sub	sp, #8
	.cfi_def_cfa_offset 24
	mov	r4, r0
.Ltmp0:
	@DEBUG_VALUE: HAL_ADC_Init:hadc <- $r4
	movs	r0, #0
.Ltmp1:
	@DEBUG_VALUE: HAL_ADC_Init:tmp_hal_status <- 0
	@DEBUG_VALUE: HAL_ADC_Init:hadc <- $r4
	.loc	7 414 7 prologue_end            @ ../src/driver/stm32g4-v120/src/stm32g4xx_hal_adc.c:414:7
	cmp	r4, #0
	.loc	7 409 17                        @ ../src/driver/stm32g4-v120/src/stm32g4xx_hal_adc.c:409:17
	str	r0, [sp, #4]
	.loc	7 414 7                         @ ../src/driver/stm32g4-v120/src/stm32g4xx_hal_adc.c:414:7
	beq	.LBB0_13
.Ltmp2:
@ %bb.1:
	@DEBUG_VALUE: HAL_ADC_Init:hadc <- $r4
	@DEBUG_VALUE: HAL_ADC_Init:tmp_hal_status <- 0
	.loc	7 452 13                        @ ../src/driver/stm32g4-v120/src/stm32g4xx_hal_adc.c:452:13
	ldr	r0, [r4, #92]
.Ltmp3:
	.loc	7 452 7 is_stmt 0               @ ../src/driver/stm32g4-v120/src/stm32g4xx_hal_adc.c:452:7
	cmp	r0, #0
	bne	.LBB0_5
.Ltmp4:
@ %bb.2:
	@DEBUG_VALUE: HAL_ADC_Init:hadc <- $r4
	@DEBUG_VALUE: HAL_ADC_Init:tmp_hal_status <- 0
	.loc	7 457 41 is_stmt 1              @ ../src/driver/stm32g4-v120/src/stm32g4xx_hal_adc.c:457:41
	movw	r1, :lower16:HAL_ADC_ConvHalfCpltCallback
	.loc	7 456 41                        @ ../src/driver/stm32g4-v120/src/stm32g4xx_hal_adc.c:456:41
	movw	r0, :lower16:HAL_ADC_ConvCpltCallback
	.loc	7 457 41                        @ ../src/driver/stm32g4-v120/src/stm32g4xx_hal_adc.c:457:41
	movt	r1, :upper16:HAL_ADC_ConvHalfCpltCallback
	.loc	7 456 41                        @ ../src/driver/stm32g4-v120/src/stm32g4xx_hal_adc.c:456:41
	movt	r0, :upper16:HAL_ADC_ConvCpltCallback
	.loc	7 457 41                        @ ../src/driver/stm32g4-v120/src/stm32g4xx_hal_adc.c:457:41
	str	r1, [r4, #112]
.Ltmp5:
	.loc	7 466 15                        @ ../src/driver/stm32g4-v120/src/stm32g4xx_hal_adc.c:466:15
	ldr.w	r1, [r4, #144]
.Ltmp6:
	.loc	7 458 41                        @ ../src/driver/stm32g4-v120/src/stm32g4xx_hal_adc.c:458:41
	movw	r2, :lower16:HAL_ADC_LevelOutOfWindowCallback
	.loc	7 459 41                        @ ../src/driver/stm32g4-v120/src/stm32g4xx_hal_adc.c:459:41
	movw	r3, :lower16:HAL_ADC_ErrorCallback
	.loc	7 460 41                        @ ../src/driver/stm32g4-v120/src/stm32g4xx_hal_adc.c:460:41
	movw	r12, :lower16:HAL_ADCEx_InjectedConvCpltCallback
	.loc	7 461 41                        @ ../src/driver/stm32g4-v120/src/stm32g4xx_hal_adc.c:461:41
	movw	lr, :lower16:HAL_ADCEx_InjectedQueueOverflowCallback
	.loc	7 462 41                        @ ../src/driver/stm32g4-v120/src/stm32g4xx_hal_adc.c:462:41
	movw	r5, :lower16:HAL_ADCEx_LevelOutOfWindow2Callback
	.loc	7 463 41                        @ ../src/driver/stm32g4-v120/src/stm32g4xx_hal_adc.c:463:41
	movw	r6, :lower16:HAL_ADCEx_LevelOutOfWindow3Callback
	.loc	7 456 41                        @ ../src/driver/stm32g4-v120/src/stm32g4xx_hal_adc.c:456:41
	str	r0, [r4, #108]
	.loc	7 464 41                        @ ../src/driver/stm32g4-v120/src/stm32g4xx_hal_adc.c:464:41
	movw	r0, :lower16:HAL_ADCEx_EndOfSamplingCallback
	.loc	7 458 41                        @ ../src/driver/stm32g4-v120/src/stm32g4xx_hal_adc.c:458:41
	movt	r2, :upper16:HAL_ADC_LevelOutOfWindowCallback
	.loc	7 459 41                        @ ../src/driver/stm32g4-v120/src/stm32g4xx_hal_adc.c:459:41
	movt	r3, :upper16:HAL_ADC_ErrorCallback
	.loc	7 460 41                        @ ../src/driver/stm32g4-v120/src/stm32g4xx_hal_adc.c:460:41
	movt	r12, :upper16:HAL_ADCEx_InjectedConvCpltCallback
	.loc	7 461 41                        @ ../src/driver/stm32g4-v120/src/stm32g4xx_hal_adc.c:461:41
	movt	lr, :upper16:HAL_ADCEx_InjectedQueueOverflowCallback
	.loc	7 462 41                        @ ../src/driver/stm32g4-v120/src/stm32g4xx_hal_adc.c:462:41
	movt	r5, :upper16:HAL_ADCEx_LevelOutOfWindow2Callback
	.loc	7 463 41                        @ ../src/driver/stm32g4-v120/src/stm32g4xx_hal_adc.c:463:41
	movt	r6, :upper16:HAL_ADCEx_LevelOutOfWindow3Callback
	.loc	7 464 41                        @ ../src/driver/stm32g4-v120/src/stm32g4xx_hal_adc.c:464:41
	movt	r0, :upper16:HAL_ADCEx_EndOfSamplingCallback
	.loc	7 458 41                        @ ../src/driver/stm32g4-v120/src/stm32g4xx_hal_adc.c:458:41
	str	r2, [r4, #116]
	.loc	7 459 41                        @ ../src/driver/stm32g4-v120/src/stm32g4xx_hal_adc.c:459:41
	str	r3, [r4, #120]
	.loc	7 460 41                        @ ../src/driver/stm32g4-v120/src/stm32g4xx_hal_adc.c:460:41
	str.w	r12, [r4, #124]
	.loc	7 461 41                        @ ../src/driver/stm32g4-v120/src/stm32g4xx_hal_adc.c:461:41
	str.w	lr, [r4, #128]
	.loc	7 462 41                        @ ../src/driver/stm32g4-v120/src/stm32g4xx_hal_adc.c:462:41
	strd	r5, r6, [r4, #132]
	.loc	7 464 41                        @ ../src/driver/stm32g4-v120/src/stm32g4xx_hal_adc.c:464:41
	str.w	r0, [r4, #140]
	.loc	7 466 9                         @ ../src/driver/stm32g4-v120/src/stm32g4xx_hal_adc.c:466:9
	cbnz	r1, .LBB0_4
.Ltmp7:
@ %bb.3:
	@DEBUG_VALUE: HAL_ADC_Init:hadc <- $r4
	@DEBUG_VALUE: HAL_ADC_Init:tmp_hal_status <- 0
	.loc	7 468 29                        @ ../src/driver/stm32g4-v120/src/stm32g4xx_hal_adc.c:468:29
	movw	r1, :lower16:HAL_ADC_MspInit
	movt	r1, :upper16:HAL_ADC_MspInit
	str.w	r1, [r4, #144]
.Ltmp8:
.LBB0_4:
	@DEBUG_VALUE: HAL_ADC_Init:hadc <- $r4
	@DEBUG_VALUE: HAL_ADC_Init:tmp_hal_status <- 0
	.loc	7 472 5                         @ ../src/driver/stm32g4-v120/src/stm32g4xx_hal_adc.c:472:5
	mov	r0, r4
	blx	r1
.Ltmp9:
	.loc	7 0 5 is_stmt 0                 @ ../src/driver/stm32g4-v120/src/stm32g4xx_hal_adc.c:0:5
	movs	r0, #0
	.loc	7 479 5 is_stmt 1               @ ../src/driver/stm32g4-v120/src/stm32g4xx_hal_adc.c:479:5
	str	r0, [r4, #96]
	.loc	7 482 16                        @ ../src/driver/stm32g4-v120/src/stm32g4xx_hal_adc.c:482:16
	strb.w	r0, [r4, #88]
.Ltmp10:
.LBB0_5:
	@DEBUG_VALUE: HAL_ADC_Init:hadc <- $r4
	@DEBUG_VALUE: HAL_ADC_Init:tmp_hal_status <- 0
	.loc	7 486 43                        @ ../src/driver/stm32g4-v120/src/stm32g4xx_hal_adc.c:486:43
	ldr	r1, [r4]
.Ltmp11:
	@DEBUG_VALUE: LL_ADC_IsDeepPowerDownEnabled:ADCx <- $r1
	.file	8 "C:\\Users\\grodriguez\\Documents\\iit\\icub-firmware\\emBODY\\eBcode\\arch-arm\\libs\\lowlevel\\stm32hal\\proj" "../src/driver/stm32g4-v120/inc/stm32g4xx_ll_adc.h"
	.loc	8 6607 12                       @ ../src/driver/stm32g4-v120/inc/stm32g4xx_ll_adc.h:6607:12
	ldr	r0, [r1, #8]
.Ltmp12:
	.loc	7 486 7                         @ ../src/driver/stm32g4-v120/src/stm32g4xx_hal_adc.c:486:7
	lsls	r0, r0, #2
	bpl	.LBB0_7
.Ltmp13:
@ %bb.6:
	@DEBUG_VALUE: HAL_ADC_Init:hadc <- $r4
	@DEBUG_VALUE: HAL_ADC_Init:tmp_hal_status <- 0
	@DEBUG_VALUE: LL_ADC_DisableDeepPowerDown:ADCx <- $r1
	.loc	8 6596 3                        @ ../src/driver/stm32g4-v120/inc/stm32g4xx_ll_adc.h:6596:3
	ldr	r0, [r1, #8]
	movw	r2, #65472
	movt	r2, #24575
	ands	r0, r2
	str	r0, [r1, #8]
.Ltmp14:
.LBB0_7:
	@DEBUG_VALUE: HAL_ADC_Init:hadc <- $r4
	@DEBUG_VALUE: HAL_ADC_Init:tmp_hal_status <- 0
	@DEBUG_VALUE: LL_ADC_IsInternalRegulatorEnabled:ADCx <- $r1
	.loc	8 6656 12                       @ ../src/driver/stm32g4-v120/inc/stm32g4xx_ll_adc.h:6656:12
	ldr	r0, [r1, #8]
.Ltmp15:
	.loc	7 496 7                         @ ../src/driver/stm32g4-v120/src/stm32g4xx_hal_adc.c:496:7
	lsls	r0, r0, #3
	bmi	.LBB0_11
.Ltmp16:
@ %bb.8:
	@DEBUG_VALUE: HAL_ADC_Init:hadc <- $r4
	@DEBUG_VALUE: HAL_ADC_Init:tmp_hal_status <- 0
	@DEBUG_VALUE: LL_ADC_EnableInternalRegulator:ADCx <- $r1
	.loc	7 0 7 is_stmt 0                 @ ../src/driver/stm32g4-v120/src/stm32g4xx_hal_adc.c:0:7
	movw	r2, #65472
.Ltmp17:
	.loc	8 6629 3 is_stmt 1              @ ../src/driver/stm32g4-v120/inc/stm32g4xx_ll_adc.h:6629:3
	ldr	r0, [r1, #8]
	movt	r2, #24575
	add.w	r2, r2, #268435456
	ands	r0, r2
	add.w	r0, r0, #268435456
	str	r0, [r1, #8]
.Ltmp18:
	.loc	7 504 72                        @ ../src/driver/stm32g4-v120/src/stm32g4xx_hal_adc.c:504:72
	movw	r0, :lower16:SystemCoreClock
	movt	r0, :upper16:SystemCoreClock
	ldr	r0, [r0]
	movw	r2, #11619
	.loc	7 504 88 is_stmt 0              @ ../src/driver/stm32g4-v120/src/stm32g4xx_hal_adc.c:504:88
	lsrs	r0, r0, #6
	movt	r2, #1342
	umull	r0, r2, r0, r2
	lsrs	r0, r2, #6
.Ltmp19:
	.p2align	2
.LBB0_9:                                @ =>This Inner Loop Header: Depth=1
	@DEBUG_VALUE: HAL_ADC_Init:hadc <- $r4
	@DEBUG_VALUE: HAL_ADC_Init:tmp_hal_status <- 0
	.loc	7 0 0                           @ ../src/driver/stm32g4-v120/src/stm32g4xx_hal_adc.c:0:0
	str	r0, [sp, #4]
	.loc	7 505 12 is_stmt 1              @ ../src/driver/stm32g4-v120/src/stm32g4xx_hal_adc.c:505:12
	ldr	r0, [sp, #4]
	.loc	7 505 5 is_stmt 0               @ ../src/driver/stm32g4-v120/src/stm32g4xx_hal_adc.c:505:5
	cbz	r0, .LBB0_11
.Ltmp20:
@ %bb.10:                               @   in Loop: Header=BB0_9 Depth=1
	@DEBUG_VALUE: HAL_ADC_Init:hadc <- $r4
	@DEBUG_VALUE: HAL_ADC_Init:tmp_hal_status <- 0
	.loc	7 507 22 is_stmt 1              @ ../src/driver/stm32g4-v120/src/stm32g4xx_hal_adc.c:507:22
	ldr	r0, [sp, #4]
	subs	r0, #1
	b	.LBB0_9
.Ltmp21:
.LBB0_11:
	@DEBUG_VALUE: HAL_ADC_Init:hadc <- $r4
	@DEBUG_VALUE: HAL_ADC_Init:tmp_hal_status <- 0
	@DEBUG_VALUE: LL_ADC_IsInternalRegulatorEnabled:ADCx <- $r1
	.loc	8 6656 12                       @ ../src/driver/stm32g4-v120/inc/stm32g4xx_ll_adc.h:6656:12
	ldr	r0, [r1, #8]
.Ltmp22:
	.loc	7 514 7                         @ ../src/driver/stm32g4-v120/src/stm32g4xx_hal_adc.c:514:7
	lsls	r0, r0, #3
	bmi	.LBB0_14
.Ltmp23:
@ %bb.12:
	@DEBUG_VALUE: HAL_ADC_Init:hadc <- $r4
	@DEBUG_VALUE: HAL_ADC_Init:tmp_hal_status <- 0
	.loc	7 517 5                         @ ../src/driver/stm32g4-v120/src/stm32g4xx_hal_adc.c:517:5
	ldr	r0, [r4, #92]
	orr	r0, r0, #16
	str	r0, [r4, #92]
	.loc	7 520 5                         @ ../src/driver/stm32g4-v120/src/stm32g4xx_hal_adc.c:520:5
	ldr	r0, [r4, #96]
	orr	r0, r0, #1
	str	r0, [r4, #96]
	movs	r0, #1
.Ltmp24:
	@DEBUG_VALUE: HAL_ADC_Init:tmp_hal_status <- 1
	.loc	7 0 5 is_stmt 0                 @ ../src/driver/stm32g4-v120/src/stm32g4xx_hal_adc.c:0:5
	b	.LBB0_15
.Ltmp25:
.LBB0_13:
	@DEBUG_VALUE: HAL_ADC_Init:hadc <- $r4
	@DEBUG_VALUE: HAL_ADC_Init:tmp_hal_status <- 0
	movs	r0, #1
	b	.LBB0_39
.Ltmp26:
.LBB0_14:
	@DEBUG_VALUE: HAL_ADC_Init:hadc <- $r4
	@DEBUG_VALUE: LL_ADC_IsInternalRegulatorEnabled:ADCx <- $r1
	@DEBUG_VALUE: HAL_ADC_Init:tmp_hal_status <- 0
	movs	r0, #0
.Ltmp27:
.LBB0_15:
	@DEBUG_VALUE: HAL_ADC_Init:hadc <- $r4
	@DEBUG_VALUE: HAL_ADC_Init:tmp_hal_status <- $r0
	@DEBUG_VALUE: LL_ADC_REG_IsConversionOngoing:ADCx <- $r1
	.loc	8 6838 12 is_stmt 1             @ ../src/driver/stm32g4-v120/inc/stm32g4xx_ll_adc.h:6838:12
	ldr	r2, [r1, #8]
.Ltmp28:
	.loc	7 531 15                        @ ../src/driver/stm32g4-v120/src/stm32g4xx_hal_adc.c:531:15
	ldr	r3, [r4, #92]
.Ltmp29:
	.loc	8 6838 11                       @ ../src/driver/stm32g4-v120/inc/stm32g4xx_ll_adc.h:6838:11
	ubfx	r2, r2, #2, #1
.Ltmp30:
	@DEBUG_VALUE: HAL_ADC_Init:tmp_adc_reg_is_conversion_on_going <- $r2
	@DEBUG_VALUE: LL_ADC_REG_IsConversionOngoing:ADCx <- $r1
	.loc	7 531 21                        @ ../src/driver/stm32g4-v120/src/stm32g4xx_hal_adc.c:531:21
	and	r3, r3, #16
	.loc	7 532 7                         @ ../src/driver/stm32g4-v120/src/stm32g4xx_hal_adc.c:532:7
	adds	r2, r2, r3
.Ltmp31:
	.loc	7 0 0 is_stmt 0                 @ ../src/driver/stm32g4-v120/src/stm32g4xx_hal_adc.c:0:0
	ldr	r2, [r4, #92]
	.loc	7 532 7                         @ ../src/driver/stm32g4-v120/src/stm32g4xx_hal_adc.c:532:7
	beq	.LBB0_17
.Ltmp32:
@ %bb.16:
	@DEBUG_VALUE: HAL_ADC_Init:hadc <- $r4
	@DEBUG_VALUE: HAL_ADC_Init:tmp_hal_status <- $r0
	.loc	7 696 5 is_stmt 1               @ ../src/driver/stm32g4-v120/src/stm32g4xx_hal_adc.c:696:5
	orr	r1, r2, #16
	movs	r0, #1
.Ltmp33:
	@DEBUG_VALUE: HAL_ADC_Init:tmp_hal_status <- 1
	.loc	7 0 5 is_stmt 0                 @ ../src/driver/stm32g4-v120/src/stm32g4xx_hal_adc.c:0:5
	b	.LBB0_38
.Ltmp34:
.LBB0_17:
	@DEBUG_VALUE: HAL_ADC_Init:hadc <- $r4
	@DEBUG_VALUE: HAL_ADC_Init:tmp_hal_status <- $r0
	.loc	7 536 5 is_stmt 1               @ ../src/driver/stm32g4-v120/src/stm32g4xx_hal_adc.c:536:5
	bic	r2, r2, #258
	adds	r2, #2
	str	r2, [r4, #92]
.Ltmp35:
	@DEBUG_VALUE: LL_ADC_IsEnabled:ADCx <- $r1
	.loc	8 6716 12                       @ ../src/driver/stm32g4-v120/inc/stm32g4xx_ll_adc.h:6716:12
	ldr	r2, [r1, #8]
.Ltmp36:
	.loc	7 545 9                         @ ../src/driver/stm32g4-v120/src/stm32g4xx_hal_adc.c:545:9
	lsls	r2, r2, #31
	bne	.LBB0_23
.Ltmp37:
@ %bb.18:
	@DEBUG_VALUE: HAL_ADC_Init:hadc <- $r4
	@DEBUG_VALUE: HAL_ADC_Init:tmp_hal_status <- $r0
	.loc	7 0 9 is_stmt 0                 @ ../src/driver/stm32g4-v120/src/stm32g4xx_hal_adc.c:0:9
	movw	r3, #256
.Ltmp38:
	.loc	7 547 11 is_stmt 1              @ ../src/driver/stm32g4-v120/src/stm32g4xx_hal_adc.c:547:11
	orr	r2, r1, #256
	movt	r3, #20480
	movw	r12, #8
	cmp	r2, r3
	movt	r12, #20480
	bne	.LBB0_20
.Ltmp39:
@ %bb.19:
	@DEBUG_VALUE: HAL_ADC_Init:hadc <- $r4
	@DEBUG_VALUE: HAL_ADC_Init:tmp_hal_status <- $r0
	.loc	8 6716 12                       @ ../src/driver/stm32g4-v120/inc/stm32g4xx_ll_adc.h:6716:12
	ldr.w	r3, [r12]
.Ltmp40:
	@DEBUG_VALUE: LL_ADC_IsEnabled:ADCx <- undef
	.loc	8 6716 12 is_stmt 0             @ ../src/driver/stm32g4-v120/inc/stm32g4xx_ll_adc.h:6716:12
	ldr.w	r2, [r12, #256]
.Ltmp41:
	@DEBUG_VALUE: LL_ADC_IsEnabled:ADCx <- undef
	.loc	8 0 12                          @ ../src/driver/stm32g4-v120/inc/stm32g4xx_ll_adc.h:0:12
	b	.LBB0_21
.Ltmp42:
.LBB0_20:
	@DEBUG_VALUE: HAL_ADC_Init:hadc <- $r4
	@DEBUG_VALUE: HAL_ADC_Init:tmp_hal_status <- $r0
	.loc	8 6716 12                       @ ../src/driver/stm32g4-v120/inc/stm32g4xx_ll_adc.h:6716:12
	ldr.w	r2, [r12, #1024]
.Ltmp43:
	@DEBUG_VALUE: LL_ADC_IsEnabled:ADCx <- undef
	.loc	8 6716 12                       @ ../src/driver/stm32g4-v120/inc/stm32g4xx_ll_adc.h:6716:12
	ldr.w	r6, [r12, #1280]
.Ltmp44:
	.loc	8 6716 12                       @ ../src/driver/stm32g4-v120/inc/stm32g4xx_ll_adc.h:6716:12
	ldr.w	r3, [r12, #1536]
.Ltmp45:
	@DEBUG_VALUE: LL_ADC_IsEnabled:ADCx <- undef
	.loc	7 547 11 is_stmt 1              @ ../src/driver/stm32g4-v120/src/stm32g4xx_hal_adc.c:547:11
	orrs	r2, r6
	@DEBUG_VALUE: LL_ADC_IsEnabled:ADCx <- undef
.Ltmp46:
.LBB0_21:
	@DEBUG_VALUE: HAL_ADC_Init:hadc <- $r4
	@DEBUG_VALUE: HAL_ADC_Init:tmp_hal_status <- $r0
	orrs	r2, r3
.Ltmp47:
	.loc	7 547 11 is_stmt 0              @ ../src/driver/stm32g4-v120/src/stm32g4xx_hal_adc.c:547:11
	lsls	r2, r2, #31
	bne	.LBB0_23
.Ltmp48:
@ %bb.22:
	@DEBUG_VALUE: HAL_ADC_Init:hadc <- $r4
	@DEBUG_VALUE: HAL_ADC_Init:tmp_hal_status <- $r0
	.loc	7 566 31 is_stmt 1              @ ../src/driver/stm32g4-v120/src/stm32g4xx_hal_adc.c:566:31
	add.w	r2, r12, #248
	mov.w	r6, #1792
.Ltmp49:
	@DEBUG_VALUE: LL_ADC_SetCommonClock:ADCxy_COMMON <- undef
	@DEBUG_VALUE: LL_ADC_SetCommonClock:CommonClock <- $r3
	.loc	7 566 84 is_stmt 0              @ ../src/driver/stm32g4-v120/src/stm32g4xx_hal_adc.c:566:84
	ldr	r3, [r4, #4]
.Ltmp50:
	.loc	8 2731 3 is_stmt 1              @ ../src/driver/stm32g4-v120/inc/stm32g4xx_ll_adc.h:2731:3
	cmp	r1, r2
	it	eq
	moveq.w	r6, #768
	cmp.w	r1, #1342177280
	it	eq
	moveq.w	r6, #768
	ldr.w	r2, [r12, r6]
	bic	r2, r2, #4128768
	orrs	r2, r3
	str.w	r2, [r12, r6]
.Ltmp51:
.LBB0_23:
	@DEBUG_VALUE: HAL_ADC_Init:hadc <- $r4
	@DEBUG_VALUE: HAL_ADC_Init:tmp_hal_status <- $r0
	.loc	7 579 17                        @ ../src/driver/stm32g4-v120/src/stm32g4xx_hal_adc.c:579:17
	ldrb	r2, [r4, #29]
	.loc	7 580 28                        @ ../src/driver/stm32g4-v120/src/stm32g4xx_hal_adc.c:580:28
	ldr	r3, [r4, #60]
	.loc	7 579 88                        @ ../src/driver/stm32g4-v120/src/stm32g4xx_hal_adc.c:579:88
	orr.w	r2, r3, r2, lsl #13
	.loc	7 582 28                        @ ../src/driver/stm32g4-v120/src/stm32g4xx_hal_adc.c:582:28
	ldrd	r6, r3, [r4, #8]
	.loc	7 580 88                        @ ../src/driver/stm32g4-v120/src/stm32g4xx_hal_adc.c:580:88
	orrs	r2, r3
	.loc	7 583 17                        @ ../src/driver/stm32g4-v120/src/stm32g4xx_hal_adc.c:583:17
	ldrb.w	r3, [r4, #36]
	.loc	7 581 88                        @ ../src/driver/stm32g4-v120/src/stm32g4xx_hal_adc.c:581:88
	orrs	r2, r6
	.loc	7 585 9                         @ ../src/driver/stm32g4-v120/src/stm32g4xx_hal_adc.c:585:9
	cmp	r3, #1
	.loc	7 582 88                        @ ../src/driver/stm32g4-v120/src/stm32g4xx_hal_adc.c:582:88
	orr.w	r2, r2, r3, lsl #16
.Ltmp52:
	@DEBUG_VALUE: HAL_ADC_Init:tmpCFGR <- $r2
	.loc	7 585 9                         @ ../src/driver/stm32g4-v120/src/stm32g4xx_hal_adc.c:585:9
	bne	.LBB0_25
.Ltmp53:
@ %bb.24:
	@DEBUG_VALUE: HAL_ADC_Init:hadc <- $r4
	@DEBUG_VALUE: HAL_ADC_Init:tmpCFGR <- $r2
	@DEBUG_VALUE: HAL_ADC_Init:tmp_hal_status <- $r0
	.loc	7 587 18                        @ ../src/driver/stm32g4-v120/src/stm32g4xx_hal_adc.c:587:18
	ldr	r3, [r4, #40]
	movs	r6, #0
	movt	r6, #65534
	add.w	r3, r6, r3, lsl #17
	.loc	7 587 15 is_stmt 0              @ ../src/driver/stm32g4-v120/src/stm32g4xx_hal_adc.c:587:15
	orrs	r2, r3
.Ltmp54:
	@DEBUG_VALUE: HAL_ADC_Init:tmpCFGR <- $r2
.LBB0_25:
	@DEBUG_VALUE: HAL_ADC_Init:hadc <- $r4
	@DEBUG_VALUE: HAL_ADC_Init:tmpCFGR <- $r2
	@DEBUG_VALUE: HAL_ADC_Init:tmp_hal_status <- $r0
	@DEBUG_VALUE: HAL_ADC_Init:tmpCFGR <- $r2
	.loc	7 595 20 is_stmt 1              @ ../src/driver/stm32g4-v120/src/stm32g4xx_hal_adc.c:595:20
	ldr	r3, [r4, #44]
.Ltmp55:
	.loc	7 595 9 is_stmt 0               @ ../src/driver/stm32g4-v120/src/stm32g4xx_hal_adc.c:595:9
	cbz	r3, .LBB0_27
.Ltmp56:
@ %bb.26:
	@DEBUG_VALUE: HAL_ADC_Init:hadc <- $r4
	@DEBUG_VALUE: HAL_ADC_Init:tmpCFGR <- $r2
	@DEBUG_VALUE: HAL_ADC_Init:tmp_hal_status <- $r0
	.loc	7 597 48 is_stmt 1              @ ../src/driver/stm32g4-v120/src/stm32g4xx_hal_adc.c:597:48
	and	r3, r3, #992
	.loc	7 598 32                        @ ../src/driver/stm32g4-v120/src/stm32g4xx_hal_adc.c:598:32
	ldr	r6, [r4, #48]
	.loc	7 598 19 is_stmt 0              @ ../src/driver/stm32g4-v120/src/stm32g4xx_hal_adc.c:598:19
	orrs	r2, r3
.Ltmp57:
	.loc	7 597 15 is_stmt 1              @ ../src/driver/stm32g4-v120/src/stm32g4xx_hal_adc.c:597:15
	orrs	r2, r6
.Ltmp58:
	@DEBUG_VALUE: HAL_ADC_Init:tmpCFGR <- $r2
.LBB0_27:
	@DEBUG_VALUE: HAL_ADC_Init:hadc <- $r4
	@DEBUG_VALUE: HAL_ADC_Init:tmpCFGR <- $r2
	@DEBUG_VALUE: HAL_ADC_Init:tmp_hal_status <- $r0
	@DEBUG_VALUE: HAL_ADC_Init:tmpCFGR <- $r2
	.loc	7 603 5                         @ ../src/driver/stm32g4-v120/src/stm32g4xx_hal_adc.c:603:5
	ldr	r3, [r1, #12]
	movw	r6, #16391
	movt	r6, #65520
	ands	r3, r6
	orrs	r2, r3
.Ltmp59:
	str	r2, [r1, #12]
	.loc	7 606 5                         @ ../src/driver/stm32g4-v120/src/stm32g4xx_hal_adc.c:606:5
	ldr	r2, [r1, #16]
	ldr	r3, [r4, #52]
	bic	r2, r2, #201326592
	orrs	r2, r3
	str	r2, [r1, #16]
.Ltmp60:
	@DEBUG_VALUE: LL_ADC_REG_IsConversionOngoing:ADCx <- $r1
	.loc	8 6838 12                       @ ../src/driver/stm32g4-v120/inc/stm32g4xx_ll_adc.h:6838:12
	ldr	r2, [r1, #8]
.Ltmp61:
	@DEBUG_VALUE: LL_ADC_INJ_IsConversionOngoing:ADCx <- $r1
	@DEBUG_VALUE: HAL_ADC_Init:tmp_adc_is_conversion_on_going_regular <- [DW_OP_constu 1, DW_OP_and, DW_OP_stack_value] undef
	.loc	8 7063 12                       @ ../src/driver/stm32g4-v120/inc/stm32g4xx_ll_adc.h:7063:12
	ldr	r3, [r1, #8]
	.loc	8 7063 11 is_stmt 0             @ ../src/driver/stm32g4-v120/inc/stm32g4xx_ll_adc.h:7063:11
	lsrs	r3, r3, #3
.Ltmp62:
	@DEBUG_VALUE: HAL_ADC_Init:tmp_adc_is_conversion_on_going_injected <- [DW_OP_constu 1, DW_OP_and, DW_OP_stack_value] $r3
	.loc	7 618 9 is_stmt 1               @ ../src/driver/stm32g4-v120/src/stm32g4xx_hal_adc.c:618:9
	orr.w	r2, r3, r2, lsr #2
	lsls	r2, r2, #31
	bne	.LBB0_35
.Ltmp63:
@ %bb.28:
	@DEBUG_VALUE: HAL_ADC_Init:hadc <- $r4
	@DEBUG_VALUE: HAL_ADC_Init:tmp_adc_is_conversion_on_going_injected <- [DW_OP_constu 1, DW_OP_and, DW_OP_stack_value] $r3
	@DEBUG_VALUE: HAL_ADC_Init:tmp_hal_status <- $r0
	.loc	7 623 18                        @ ../src/driver/stm32g4-v120/src/stm32g4xx_hal_adc.c:623:18
	ldrb.w	r2, [r4, #56]
	.loc	7 622 18                        @ ../src/driver/stm32g4-v120/src/stm32g4xx_hal_adc.c:622:18
	ldrb	r3, [r4, #28]
.Ltmp64:
	.loc	7 623 18                        @ ../src/driver/stm32g4-v120/src/stm32g4xx_hal_adc.c:623:18
	lsls	r2, r2, #1
	.loc	7 622 82                        @ ../src/driver/stm32g4-v120/src/stm32g4xx_hal_adc.c:622:82
	orr.w	r2, r2, r3, lsl #14
.Ltmp65:
	@DEBUG_VALUE: HAL_ADC_Init:tmpCFGR <- $r2
	.loc	7 625 7                         @ ../src/driver/stm32g4-v120/src/stm32g4xx_hal_adc.c:625:7
	ldr	r3, [r1, #12]
	movw	r6, #16386
	bics	r3, r6
	orrs	r2, r3
.Ltmp66:
	str	r2, [r1, #12]
.Ltmp67:
	.loc	7 627 22                        @ ../src/driver/stm32g4-v120/src/stm32g4xx_hal_adc.c:627:22
	ldr	r2, [r4, #16]
	.loc	7 0 0 is_stmt 0                 @ ../src/driver/stm32g4-v120/src/stm32g4xx_hal_adc.c:0:0
	ldr	r3, [r1, #16]
.Ltmp68:
	.loc	7 627 11                        @ ../src/driver/stm32g4-v120/src/stm32g4xx_hal_adc.c:627:11
	cbz	r2, .LBB0_30
.Ltmp69:
@ %bb.29:
	@DEBUG_VALUE: HAL_ADC_Init:hadc <- $r4
	@DEBUG_VALUE: HAL_ADC_Init:tmp_hal_status <- $r0
	.loc	7 629 9 is_stmt 1               @ ../src/driver/stm32g4-v120/src/stm32g4xx_hal_adc.c:629:9
	orr	r3, r3, #65536
	str	r3, [r1, #16]
	.loc	7 630 9                         @ ../src/driver/stm32g4-v120/src/stm32g4xx_hal_adc.c:630:9
	ldr.w	r3, [r1, #192]
	movw	r6, #16383
	bics	r3, r6
	orrs	r2, r3
	b	.LBB0_31
.Ltmp70:
.LBB0_30:
	@DEBUG_VALUE: HAL_ADC_Init:hadc <- $r4
	@DEBUG_VALUE: HAL_ADC_Init:tmp_hal_status <- $r0
	.loc	7 634 9                         @ ../src/driver/stm32g4-v120/src/stm32g4xx_hal_adc.c:634:9
	bic	r2, r3, #65536
	str	r2, [r1, #16]
	.loc	7 635 9                         @ ../src/driver/stm32g4-v120/src/stm32g4xx_hal_adc.c:635:9
	ldr.w	r2, [r1, #192]
	movw	r3, #16383
	bics	r2, r3
.Ltmp71:
.LBB0_31:
	@DEBUG_VALUE: HAL_ADC_Init:hadc <- $r4
	@DEBUG_VALUE: HAL_ADC_Init:tmp_hal_status <- $r0
	.loc	7 0 0 is_stmt 0                 @ ../src/driver/stm32g4-v120/src/stm32g4xx_hal_adc.c:0:0
	str.w	r2, [r1, #192]
.Ltmp72:
	.loc	7 638 22 is_stmt 1              @ ../src/driver/stm32g4-v120/src/stm32g4xx_hal_adc.c:638:22
	ldrb.w	r3, [r4, #64]
	.loc	7 0 0 is_stmt 0                 @ ../src/driver/stm32g4-v120/src/stm32g4xx_hal_adc.c:0:0
	ldr	r2, [r1, #16]
.Ltmp73:
	.loc	7 638 11                        @ ../src/driver/stm32g4-v120/src/stm32g4xx_hal_adc.c:638:11
	cmp	r3, #1
	bne	.LBB0_33
.Ltmp74:
@ %bb.32:
	@DEBUG_VALUE: HAL_ADC_Init:hadc <- $r4
	@DEBUG_VALUE: HAL_ADC_Init:tmp_hal_status <- $r0
	.loc	7 0 11                          @ ../src/driver/stm32g4-v120/src/stm32g4xx_hal_adc.c:0:11
	movw	r3, #2045
.Ltmp75:
	.loc	7 650 9 is_stmt 1               @ ../src/driver/stm32g4-v120/src/stm32g4xx_hal_adc.c:650:9
	bic.w	r12, r2, r3
	ldrd	r3, r6, [r4, #68]
	ldrd	r5, r2, [r4, #76]
	orr.w	r3, r3, r12
	orrs	r3, r6
	orrs	r3, r5
	orrs	r2, r3
	orr	r2, r2, #1
	b	.LBB0_34
.Ltmp76:
.LBB0_33:
	@DEBUG_VALUE: HAL_ADC_Init:hadc <- $r4
	@DEBUG_VALUE: HAL_ADC_Init:tmp_hal_status <- $r0
	.loc	7 665 9                         @ ../src/driver/stm32g4-v120/src/stm32g4xx_hal_adc.c:665:9
	bic	r2, r2, #1
.Ltmp77:
.LBB0_34:
	@DEBUG_VALUE: HAL_ADC_Init:hadc <- $r4
	@DEBUG_VALUE: HAL_ADC_Init:tmp_hal_status <- $r0
	.loc	7 0 0 is_stmt 0                 @ ../src/driver/stm32g4-v120/src/stm32g4xx_hal_adc.c:0:0
	str	r2, [r1, #16]
.Ltmp78:
.LBB0_35:
	@DEBUG_VALUE: HAL_ADC_Init:hadc <- $r4
	@DEBUG_VALUE: HAL_ADC_Init:tmp_hal_status <- $r0
	.loc	7 679 20 is_stmt 1              @ ../src/driver/stm32g4-v120/src/stm32g4xx_hal_adc.c:679:20
	ldr	r2, [r4, #20]
	.loc	7 0 0 is_stmt 0                 @ ../src/driver/stm32g4-v120/src/stm32g4xx_hal_adc.c:0:0
	ldr	r3, [r1, #48]
.Ltmp79:
	.loc	7 679 9                         @ ../src/driver/stm32g4-v120/src/stm32g4xx_hal_adc.c:679:9
	cmp	r2, #1
.Ltmp80:
	.loc	7 0 0                           @ ../src/driver/stm32g4-v120/src/stm32g4xx_hal_adc.c:0:0
	bic	r2, r3, #15
.Ltmp81:
	.loc	7 679 9                         @ ../src/driver/stm32g4-v120/src/stm32g4xx_hal_adc.c:679:9
	bne	.LBB0_37
.Ltmp82:
@ %bb.36:
	@DEBUG_VALUE: HAL_ADC_Init:hadc <- $r4
	@DEBUG_VALUE: HAL_ADC_Init:tmp_hal_status <- $r0
	.loc	7 682 7 is_stmt 1               @ ../src/driver/stm32g4-v120/src/stm32g4xx_hal_adc.c:682:7
	ldr	r3, [r4, #32]
	subs	r3, #1
	orrs	r2, r3
.Ltmp83:
.LBB0_37:
	@DEBUG_VALUE: HAL_ADC_Init:hadc <- $r4
	@DEBUG_VALUE: HAL_ADC_Init:tmp_hal_status <- $r0
	.loc	7 0 0 is_stmt 0                 @ ../src/driver/stm32g4-v120/src/stm32g4xx_hal_adc.c:0:0
	str	r2, [r1, #48]
.Ltmp84:
	.loc	7 691 5 is_stmt 1               @ ../src/driver/stm32g4-v120/src/stm32g4xx_hal_adc.c:691:5
	ldr	r1, [r4, #92]
	movs	r2, #1
	bfi	r1, r2, #0, #2
.Ltmp85:
.LBB0_38:
	@DEBUG_VALUE: HAL_ADC_Init:hadc <- $r4
	.loc	7 0 0 is_stmt 0                 @ ../src/driver/stm32g4-v120/src/stm32g4xx_hal_adc.c:0:0
	str	r1, [r4, #92]
.Ltmp86:
.LBB0_39:
	@DEBUG_VALUE: HAL_ADC_Init:hadc <- $r4
	.loc	7 703 1 is_stmt 1               @ ../src/driver/stm32g4-v120/src/stm32g4xx_hal_adc.c:703:1
	add	sp, #8
	pop	{r4, r5, r6, pc}
.Ltmp87:
.Lfunc_end0:
	.size	HAL_ADC_Init, .Lfunc_end0-HAL_ADC_Init
	.cfi_endproc
	.cantunwind
	.fnend
                                        @ -- End function
	.section	.text.HAL_ADC_ConvCpltCallback,"ax",%progbits
	.hidden	HAL_ADC_ConvCpltCallback        @ -- Begin function HAL_ADC_ConvCpltCallback
	.weak	HAL_ADC_ConvCpltCallback
	.p2align	1
	.type	HAL_ADC_ConvCpltCallback,%function
	.code	16                              @ @HAL_ADC_ConvCpltCallback
	.thumb_func
HAL_ADC_ConvCpltCallback:
.Lfunc_begin1:
	.loc	7 2661 0                        @ ../src/driver/stm32g4-v120/src/stm32g4xx_hal_adc.c:2661:0
	.fnstart
	.cfi_startproc
@ %bb.0:
	@DEBUG_VALUE: HAL_ADC_ConvCpltCallback:hadc <- $r0
	.loc	7 2668 1 prologue_end           @ ../src/driver/stm32g4-v120/src/stm32g4xx_hal_adc.c:2668:1
	bx	lr
.Ltmp88:
.Lfunc_end1:
	.size	HAL_ADC_ConvCpltCallback, .Lfunc_end1-HAL_ADC_ConvCpltCallback
	.cfi_endproc
	.cantunwind
	.fnend
                                        @ -- End function
	.section	.text.HAL_ADC_ConvHalfCpltCallback,"ax",%progbits
	.hidden	HAL_ADC_ConvHalfCpltCallback    @ -- Begin function HAL_ADC_ConvHalfCpltCallback
	.weak	HAL_ADC_ConvHalfCpltCallback
	.p2align	1
	.type	HAL_ADC_ConvHalfCpltCallback,%function
	.code	16                              @ @HAL_ADC_ConvHalfCpltCallback
	.thumb_func
HAL_ADC_ConvHalfCpltCallback:
.Lfunc_begin2:
	.loc	7 2676 0                        @ ../src/driver/stm32g4-v120/src/stm32g4xx_hal_adc.c:2676:0
	.fnstart
	.cfi_startproc
@ %bb.0:
	@DEBUG_VALUE: HAL_ADC_ConvHalfCpltCallback:hadc <- $r0
	.loc	7 2683 1 prologue_end           @ ../src/driver/stm32g4-v120/src/stm32g4xx_hal_adc.c:2683:1
	bx	lr
.Ltmp89:
.Lfunc_end2:
	.size	HAL_ADC_ConvHalfCpltCallback, .Lfunc_end2-HAL_ADC_ConvHalfCpltCallback
	.cfi_endproc
	.cantunwind
	.fnend
                                        @ -- End function
	.section	.text.HAL_ADC_LevelOutOfWindowCallback,"ax",%progbits
	.hidden	HAL_ADC_LevelOutOfWindowCallback @ -- Begin function HAL_ADC_LevelOutOfWindowCallback
	.weak	HAL_ADC_LevelOutOfWindowCallback
	.p2align	1
	.type	HAL_ADC_LevelOutOfWindowCallback,%function
	.code	16                              @ @HAL_ADC_LevelOutOfWindowCallback
	.thumb_func
HAL_ADC_LevelOutOfWindowCallback:
.Lfunc_begin3:
	.loc	7 2691 0                        @ ../src/driver/stm32g4-v120/src/stm32g4xx_hal_adc.c:2691:0
	.fnstart
	.cfi_startproc
@ %bb.0:
	@DEBUG_VALUE: HAL_ADC_LevelOutOfWindowCallback:hadc <- $r0
	.loc	7 2698 1 prologue_end           @ ../src/driver/stm32g4-v120/src/stm32g4xx_hal_adc.c:2698:1
	bx	lr
.Ltmp90:
.Lfunc_end3:
	.size	HAL_ADC_LevelOutOfWindowCallback, .Lfunc_end3-HAL_ADC_LevelOutOfWindowCallback
	.cfi_endproc
	.cantunwind
	.fnend
                                        @ -- End function
	.section	.text.HAL_ADC_ErrorCallback,"ax",%progbits
	.hidden	HAL_ADC_ErrorCallback           @ -- Begin function HAL_ADC_ErrorCallback
	.weak	HAL_ADC_ErrorCallback
	.p2align	1
	.type	HAL_ADC_ErrorCallback,%function
	.code	16                              @ @HAL_ADC_ErrorCallback
	.thumb_func
HAL_ADC_ErrorCallback:
.Lfunc_begin4:
	.loc	7 2713 0                        @ ../src/driver/stm32g4-v120/src/stm32g4xx_hal_adc.c:2713:0
	.fnstart
	.cfi_startproc
@ %bb.0:
	@DEBUG_VALUE: HAL_ADC_ErrorCallback:hadc <- $r0
	.loc	7 2720 1 prologue_end           @ ../src/driver/stm32g4-v120/src/stm32g4xx_hal_adc.c:2720:1
	bx	lr
.Ltmp91:
.Lfunc_end4:
	.size	HAL_ADC_ErrorCallback, .Lfunc_end4-HAL_ADC_ErrorCallback
	.cfi_endproc
	.cantunwind
	.fnend
                                        @ -- End function
	.section	.text.HAL_ADC_MspInit,"ax",%progbits
	.hidden	HAL_ADC_MspInit                 @ -- Begin function HAL_ADC_MspInit
	.weak	HAL_ADC_MspInit
	.p2align	1
	.type	HAL_ADC_MspInit,%function
	.code	16                              @ @HAL_ADC_MspInit
	.thumb_func
HAL_ADC_MspInit:
.Lfunc_begin5:
	.loc	7 926 0                         @ ../src/driver/stm32g4-v120/src/stm32g4xx_hal_adc.c:926:0
	.fnstart
	.cfi_startproc
@ %bb.0:
	@DEBUG_VALUE: HAL_ADC_MspInit:hadc <- $r0
	.loc	7 933 1 prologue_end            @ ../src/driver/stm32g4-v120/src/stm32g4xx_hal_adc.c:933:1
	bx	lr
.Ltmp92:
.Lfunc_end5:
	.size	HAL_ADC_MspInit, .Lfunc_end5-HAL_ADC_MspInit
	.cfi_endproc
	.cantunwind
	.fnend
                                        @ -- End function
	.section	.text.HAL_ADC_DeInit,"ax",%progbits
	.hidden	HAL_ADC_DeInit                  @ -- Begin function HAL_ADC_DeInit
	.globl	HAL_ADC_DeInit
	.p2align	1
	.type	HAL_ADC_DeInit,%function
	.code	16                              @ @HAL_ADC_DeInit
	.thumb_func
HAL_ADC_DeInit:
.Lfunc_begin6:
	.loc	7 724 0                         @ ../src/driver/stm32g4-v120/src/stm32g4xx_hal_adc.c:724:0
	.fnstart
	.cfi_startproc
@ %bb.0:
	@DEBUG_VALUE: HAL_ADC_DeInit:hadc <- $r0
	@DEBUG_VALUE: HAL_ADC_DeInit:hadc <- $r0
	.save	{r4, r5, r6, lr}
	push	{r4, r5, r6, lr}
	.cfi_def_cfa_offset 16
	.cfi_offset lr, -4
	.cfi_offset r6, -8
	.cfi_offset r5, -12
	.cfi_offset r4, -16
.Ltmp93:
	.loc	7 728 7 prologue_end            @ ../src/driver/stm32g4-v120/src/stm32g4xx_hal_adc.c:728:7
	cmp	r0, #0
	beq.w	.LBB6_6
.Ltmp94:
@ %bb.1:
	@DEBUG_VALUE: HAL_ADC_DeInit:hadc <- $r0
	.loc	7 0 7 is_stmt 0                 @ ../src/driver/stm32g4-v120/src/stm32g4xx_hal_adc.c:0:7
	mov	r4, r0
.Ltmp95:
	@DEBUG_VALUE: HAL_ADC_DeInit:hadc <- $r4
	.loc	7 737 3 is_stmt 1               @ ../src/driver/stm32g4-v120/src/stm32g4xx_hal_adc.c:737:3
	ldr	r0, [r0, #92]
	.loc	7 740 20                        @ ../src/driver/stm32g4-v120/src/stm32g4xx_hal_adc.c:740:20
	movs	r1, #3
	.loc	7 737 3                         @ ../src/driver/stm32g4-v120/src/stm32g4xx_hal_adc.c:737:3
	orr	r0, r0, #2
	str	r0, [r4, #92]
	.loc	7 740 20                        @ ../src/driver/stm32g4-v120/src/stm32g4xx_hal_adc.c:740:20
	mov	r0, r4
	bl	ADC_ConversionStop
.Ltmp96:
	.loc	7 748 3                         @ ../src/driver/stm32g4-v120/src/stm32g4xx_hal_adc.c:748:3
	ldr	r1, [r4]
	.loc	7 740 20                        @ ../src/driver/stm32g4-v120/src/stm32g4xx_hal_adc.c:740:20
	mov	r6, r0
.Ltmp97:
	@DEBUG_VALUE: HAL_ADC_DeInit:tmp_hal_status <- $r6
	.loc	7 748 3                         @ ../src/driver/stm32g4-v120/src/stm32g4xx_hal_adc.c:748:3
	ldr	r2, [r1, #12]
	orr	r0, r2, #2097152
	str	r0, [r1, #12]
	.loc	7 751 7                         @ ../src/driver/stm32g4-v120/src/stm32g4xx_hal_adc.c:751:7
	cbnz	r6, .LBB6_4
.Ltmp98:
@ %bb.2:
	@DEBUG_VALUE: HAL_ADC_DeInit:tmp_hal_status <- $r6
	@DEBUG_VALUE: HAL_ADC_DeInit:hadc <- $r4
	.loc	7 754 22                        @ ../src/driver/stm32g4-v120/src/stm32g4xx_hal_adc.c:754:22
	mov	r0, r4
	bl	ADC_Disable
.Ltmp99:
	mov	r6, r0
.Ltmp100:
	@DEBUG_VALUE: HAL_ADC_DeInit:tmp_hal_status <- $r6
	.loc	7 757 9                         @ ../src/driver/stm32g4-v120/src/stm32g4xx_hal_adc.c:757:9
	cbnz	r0, .LBB6_4
.Ltmp101:
@ %bb.3:
	@DEBUG_VALUE: HAL_ADC_DeInit:tmp_hal_status <- $r6
	@DEBUG_VALUE: HAL_ADC_DeInit:hadc <- $r4
	.loc	7 0 9 is_stmt 0                 @ ../src/driver/stm32g4-v120/src/stm32g4xx_hal_adc.c:0:9
	movs	r0, #1
	movs	r6, #0
.Ltmp102:
	.loc	7 760 19 is_stmt 1              @ ../src/driver/stm32g4-v120/src/stm32g4xx_hal_adc.c:760:19
	str	r0, [r4, #92]
.Ltmp103:
.LBB6_4:
	@DEBUG_VALUE: HAL_ADC_DeInit:hadc <- $r4
	.loc	7 772 3                         @ ../src/driver/stm32g4-v120/src/stm32g4xx_hal_adc.c:772:3
	ldr	r0, [r4]
	movw	r2, #2047
	ldr	r1, [r0, #4]
	movw	r5, #256
	bics	r1, r2
	str	r1, [r0, #4]
	.loc	7 779 3                         @ ../src/driver/stm32g4-v120/src/stm32g4xx_hal_adc.c:779:3
	str	r2, [r0]
	.loc	7 790 3                         @ ../src/driver/stm32g4-v120/src/stm32g4xx_hal_adc.c:790:3
	ldr	r1, [r0, #8]
	movs	r2, #4
	bic	r1, r1, #1342177280
	str	r1, [r0, #8]
	.loc	7 791 3                         @ ../src/driver/stm32g4-v120/src/stm32g4xx_hal_adc.c:791:3
	ldr	r1, [r0, #8]
	movt	r2, #32768
	orr	r1, r1, #536870912
	str	r1, [r0, #8]
	.loc	7 794 3                         @ ../src/driver/stm32g4-v120/src/stm32g4xx_hal_adc.c:794:3
	ldr	r1, [r0, #12]
	movt	r5, #20480
	ands	r1, r2
	str	r1, [r0, #12]
	.loc	7 795 3                         @ ../src/driver/stm32g4-v120/src/stm32g4xx_hal_adc.c:795:3
	ldr	r1, [r0, #12]
	movw	r2, #2080
	orr	r1, r1, #-2147483648
	str	r1, [r0, #12]
	.loc	7 798 3                         @ ../src/driver/stm32g4-v120/src/stm32g4xx_hal_adc.c:798:3
	ldr	r1, [r0, #16]
	movt	r2, #57474
	bfc	r1, #0, #11
	str	r1, [r0, #16]
	.loc	7 802 3                         @ ../src/driver/stm32g4-v120/src/stm32g4xx_hal_adc.c:802:3
	ldr	r1, [r0, #20]
	.loc	7 819 3                         @ ../src/driver/stm32g4-v120/src/stm32g4xx_hal_adc.c:819:3
	add.w	r3, r2, #16
	.loc	7 802 3                         @ ../src/driver/stm32g4-v120/src/stm32g4xx_hal_adc.c:802:3
	and	r1, r1, #1073741824
	str	r1, [r0, #20]
	.loc	7 805 3                         @ ../src/driver/stm32g4-v120/src/stm32g4xx_hal_adc.c:805:3
	ldr	r1, [r0, #24]
	and	r1, r1, #-134217728
	str	r1, [r0, #24]
	.loc	7 810 3                         @ ../src/driver/stm32g4-v120/src/stm32g4xx_hal_adc.c:810:3
	ldr	r1, [r0, #32]
	and	r1, r1, #-268374016
	str	r1, [r0, #32]
	.loc	7 813 3                         @ ../src/driver/stm32g4-v120/src/stm32g4xx_hal_adc.c:813:3
	ldr	r1, [r0, #36]
	bic	r1, r1, #16711935
	str	r1, [r0, #36]
	.loc	7 816 3                         @ ../src/driver/stm32g4-v120/src/stm32g4xx_hal_adc.c:816:3
	ldr	r1, [r0, #40]
	bic	r1, r1, #16711935
	str	r1, [r0, #40]
	.loc	7 819 3                         @ ../src/driver/stm32g4-v120/src/stm32g4xx_hal_adc.c:819:3
	ldr	r1, [r0, #48]
	ands	r1, r3
	str	r1, [r0, #48]
	.loc	7 823 3                         @ ../src/driver/stm32g4-v120/src/stm32g4xx_hal_adc.c:823:3
	ldr	r1, [r0, #52]
.Ltmp104:
	.loc	7 867 7                         @ ../src/driver/stm32g4-v120/src/stm32g4xx_hal_adc.c:867:7
	orr	r3, r0, #256
.Ltmp105:
	.loc	7 823 3                         @ ../src/driver/stm32g4-v120/src/stm32g4xx_hal_adc.c:823:3
	ands	r1, r2
	str	r1, [r0, #52]
	.loc	7 827 3                         @ ../src/driver/stm32g4-v120/src/stm32g4xx_hal_adc.c:827:3
	ldr	r1, [r0, #56]
.Ltmp106:
	.loc	7 867 7                         @ ../src/driver/stm32g4-v120/src/stm32g4xx_hal_adc.c:867:7
	cmp	r3, r5
.Ltmp107:
	.loc	7 827 3                         @ ../src/driver/stm32g4-v120/src/stm32g4xx_hal_adc.c:827:3
	and.w	r1, r1, r2
	str	r1, [r0, #56]
	.loc	7 831 3                         @ ../src/driver/stm32g4-v120/src/stm32g4xx_hal_adc.c:831:3
	ldr	r1, [r0, #60]
	movw	r2, #2015
	bic.w	r1, r1, r2
	str	r1, [r0, #60]
	.loc	7 839 3                         @ ../src/driver/stm32g4-v120/src/stm32g4xx_hal_adc.c:839:3
	ldr	r1, [r0, #96]
	movw	r2, #61440
	movt	r2, #1023
	and.w	r1, r1, r2
	str	r1, [r0, #96]
	.loc	7 841 3                         @ ../src/driver/stm32g4-v120/src/stm32g4xx_hal_adc.c:841:3
	ldr	r1, [r0, #100]
	and.w	r1, r1, r2
	str	r1, [r0, #100]
	.loc	7 843 3                         @ ../src/driver/stm32g4-v120/src/stm32g4xx_hal_adc.c:843:3
	ldr	r1, [r0, #104]
	and.w	r1, r1, r2
	str	r1, [r0, #104]
	.loc	7 845 3                         @ ../src/driver/stm32g4-v120/src/stm32g4xx_hal_adc.c:845:3
	ldr	r1, [r0, #108]
	and.w	r1, r1, r2
	str	r1, [r0, #108]
	.loc	7 851 3                         @ ../src/driver/stm32g4-v120/src/stm32g4xx_hal_adc.c:851:3
	ldr.w	r1, [r0, #160]
	bfc	r1, #0, #19
	str.w	r1, [r0, #160]
	.loc	7 854 3                         @ ../src/driver/stm32g4-v120/src/stm32g4xx_hal_adc.c:854:3
	ldr.w	r1, [r0, #164]
	bfc	r1, #0, #19
	str.w	r1, [r0, #164]
	.loc	7 857 3                         @ ../src/driver/stm32g4-v120/src/stm32g4xx_hal_adc.c:857:3
	ldr.w	r1, [r0, #176]
	bfc	r1, #0, #19
	str.w	r1, [r0, #176]
	.loc	7 860 3                         @ ../src/driver/stm32g4-v120/src/stm32g4xx_hal_adc.c:860:3
	ldr.w	r2, [r0, #180]
	movw	r1, #8
	movt	r1, #20480
.Ltmp108:
	@DEBUG_VALUE: HAL_ADC_DeInit:tmp_hal_status <- $r6
	bic	r2, r2, #8323199
	str.w	r2, [r0, #180]
.Ltmp109:
	.loc	7 867 7                         @ ../src/driver/stm32g4-v120/src/stm32g4xx_hal_adc.c:867:7
	bne	.LBB6_7
.Ltmp110:
@ %bb.5:
	@DEBUG_VALUE: HAL_ADC_DeInit:tmp_hal_status <- $r6
	@DEBUG_VALUE: HAL_ADC_DeInit:hadc <- $r4
	.loc	8 6716 12                       @ ../src/driver/stm32g4-v120/inc/stm32g4xx_ll_adc.h:6716:12
	ldr	r2, [r1]
.Ltmp111:
	@DEBUG_VALUE: LL_ADC_IsEnabled:ADCx <- undef
	.loc	8 6716 12 is_stmt 0             @ ../src/driver/stm32g4-v120/inc/stm32g4xx_ll_adc.h:6716:12
	ldr.w	r3, [r1, #256]
.Ltmp112:
	@DEBUG_VALUE: LL_ADC_IsEnabled:ADCx <- undef
	.loc	8 0 12                          @ ../src/driver/stm32g4-v120/inc/stm32g4xx_ll_adc.h:0:12
	b	.LBB6_8
.Ltmp113:
.LBB6_6:
	@DEBUG_VALUE: HAL_ADC_DeInit:hadc <- $r0
	movs	r6, #1
	b	.LBB6_13
.Ltmp114:
.LBB6_7:
	@DEBUG_VALUE: HAL_ADC_DeInit:tmp_hal_status <- $r6
	@DEBUG_VALUE: HAL_ADC_DeInit:hadc <- $r4
	.loc	8 6716 12                       @ ../src/driver/stm32g4-v120/inc/stm32g4xx_ll_adc.h:6716:12
	ldr.w	r3, [r1, #1024]
.Ltmp115:
	@DEBUG_VALUE: LL_ADC_IsEnabled:ADCx <- undef
	.loc	8 6716 12                       @ ../src/driver/stm32g4-v120/inc/stm32g4xx_ll_adc.h:6716:12
	ldr.w	r5, [r1, #1280]
.Ltmp116:
	.loc	8 6716 12                       @ ../src/driver/stm32g4-v120/inc/stm32g4xx_ll_adc.h:6716:12
	ldr.w	r2, [r1, #1536]
.Ltmp117:
	@DEBUG_VALUE: LL_ADC_IsEnabled:ADCx <- undef
	.loc	7 867 7 is_stmt 1               @ ../src/driver/stm32g4-v120/src/stm32g4xx_hal_adc.c:867:7
	orrs	r3, r5
	@DEBUG_VALUE: LL_ADC_IsEnabled:ADCx <- undef
.Ltmp118:
.LBB6_8:
	@DEBUG_VALUE: HAL_ADC_DeInit:tmp_hal_status <- $r6
	@DEBUG_VALUE: HAL_ADC_DeInit:hadc <- $r4
	orrs	r2, r3
.Ltmp119:
	.loc	7 867 7 is_stmt 0               @ ../src/driver/stm32g4-v120/src/stm32g4xx_hal_adc.c:867:7
	lsls	r2, r2, #31
	bne	.LBB6_10
.Ltmp120:
@ %bb.9:
	@DEBUG_VALUE: HAL_ADC_DeInit:tmp_hal_status <- $r6
	@DEBUG_VALUE: HAL_ADC_DeInit:hadc <- $r4
	.loc	7 876 5 is_stmt 1               @ ../src/driver/stm32g4-v120/src/stm32g4xx_hal_adc.c:876:5
	add.w	r2, r1, #248
	mov.w	r3, #1792
	cmp	r0, r2
	it	eq
	moveq.w	r3, #768
	cmp.w	r0, #1342177280
	it	eq
	moveq.w	r3, #768
	ldr	r0, [r1, r3]
	movw	r2, #4320
	movt	r2, #65024
	ands	r0, r2
	str	r0, [r1, r3]
.Ltmp121:
.LBB6_10:
	@DEBUG_VALUE: HAL_ADC_DeInit:tmp_hal_status <- $r6
	@DEBUG_VALUE: HAL_ADC_DeInit:hadc <- $r4
	.loc	7 891 13                        @ ../src/driver/stm32g4-v120/src/stm32g4xx_hal_adc.c:891:13
	ldr.w	r1, [r4, #148]
.Ltmp122:
	.loc	7 891 7 is_stmt 0               @ ../src/driver/stm32g4-v120/src/stm32g4xx_hal_adc.c:891:7
	cbnz	r1, .LBB6_12
.Ltmp123:
@ %bb.11:
	@DEBUG_VALUE: HAL_ADC_DeInit:tmp_hal_status <- $r6
	@DEBUG_VALUE: HAL_ADC_DeInit:hadc <- $r4
	.loc	7 893 29 is_stmt 1              @ ../src/driver/stm32g4-v120/src/stm32g4xx_hal_adc.c:893:29
	movw	r1, :lower16:HAL_ADC_MspDeInit
	movt	r1, :upper16:HAL_ADC_MspDeInit
	str.w	r1, [r4, #148]
.Ltmp124:
.LBB6_12:
	@DEBUG_VALUE: HAL_ADC_DeInit:tmp_hal_status <- $r6
	@DEBUG_VALUE: HAL_ADC_DeInit:hadc <- $r4
	.loc	7 897 3                         @ ../src/driver/stm32g4-v120/src/stm32g4xx_hal_adc.c:897:3
	mov	r0, r4
	blx	r1
.Ltmp125:
	.loc	7 0 3 is_stmt 0                 @ ../src/driver/stm32g4-v120/src/stm32g4xx_hal_adc.c:0:3
	movs	r0, #0
	.loc	7 904 3 is_stmt 1               @ ../src/driver/stm32g4-v120/src/stm32g4xx_hal_adc.c:904:3
	str	r0, [r4, #96]
	.loc	7 907 38                        @ ../src/driver/stm32g4-v120/src/stm32g4xx_hal_adc.c:907:38
	strd	r0, r0, [r4, #100]
	.loc	7 911 15                        @ ../src/driver/stm32g4-v120/src/stm32g4xx_hal_adc.c:911:15
	str	r0, [r4, #92]
.Ltmp126:
	.loc	7 914 3                         @ ../src/driver/stm32g4-v120/src/stm32g4xx_hal_adc.c:914:3
	strb.w	r0, [r4, #88]
.Ltmp127:
.LBB6_13:
	.loc	7 918 1                         @ ../src/driver/stm32g4-v120/src/stm32g4xx_hal_adc.c:918:1
	mov	r0, r6
	pop	{r4, r5, r6, pc}
.Ltmp128:
.Lfunc_end6:
	.size	HAL_ADC_DeInit, .Lfunc_end6-HAL_ADC_DeInit
	.cfi_endproc
	.cantunwind
	.fnend
                                        @ -- End function
	.section	.text.ADC_ConversionStop,"ax",%progbits
	.hidden	ADC_ConversionStop              @ -- Begin function ADC_ConversionStop
	.globl	ADC_ConversionStop
	.p2align	1
	.type	ADC_ConversionStop,%function
	.code	16                              @ @ADC_ConversionStop
	.thumb_func
ADC_ConversionStop:
.Lfunc_begin7:
	.loc	7 3287 0                        @ ../src/driver/stm32g4-v120/src/stm32g4xx_hal_adc.c:3287:0
	.fnstart
	.cfi_startproc
@ %bb.0:
	@DEBUG_VALUE: ADC_ConversionStop:hadc <- $r0
	@DEBUG_VALUE: ADC_ConversionStop:ConversionGroup <- $r1
	.save	{r4, r5, r6, lr}
	push	{r4, r5, r6, lr}
	.cfi_def_cfa_offset 16
	.cfi_offset lr, -4
	.cfi_offset r6, -8
	.cfi_offset r5, -12
	.cfi_offset r4, -16
.Ltmp129:
	@DEBUG_VALUE: ADC_ConversionStop:conversion_group_reassigned <- $r1
	mov	r4, r0
.Ltmp130:
	@DEBUG_VALUE: ADC_ConversionStop:Conversion_Timeout_CPU_cycles <- 0
	@DEBUG_VALUE: ADC_ConversionStop:hadc <- $r4
	.loc	7 3301 81 prologue_end          @ ../src/driver/stm32g4-v120/src/stm32g4xx_hal_adc.c:3301:81
	ldr	r0, [r0]
.Ltmp131:
	@DEBUG_VALUE: LL_ADC_REG_IsConversionOngoing:ADCx <- $r0
	.loc	8 6838 12                       @ ../src/driver/stm32g4-v120/inc/stm32g4xx_ll_adc.h:6838:12
	ldr	r2, [r0, #8]
.Ltmp132:
	@DEBUG_VALUE: LL_ADC_INJ_IsConversionOngoing:ADCx <- $r0
	@DEBUG_VALUE: ADC_ConversionStop:tmp_adc_is_conversion_on_going_regular <- [DW_OP_constu 1, DW_OP_and, DW_OP_stack_value] undef
	.loc	8 7063 12                       @ ../src/driver/stm32g4-v120/inc/stm32g4xx_ll_adc.h:7063:12
	ldr	r3, [r0, #8]
	.loc	8 7063 11 is_stmt 0             @ ../src/driver/stm32g4-v120/inc/stm32g4xx_ll_adc.h:7063:11
	lsrs	r3, r3, #3
.Ltmp133:
	@DEBUG_VALUE: ADC_ConversionStop:tmp_adc_is_conversion_on_going_injected <- [DW_OP_constu 1, DW_OP_and, DW_OP_stack_value] $r3
	.loc	7 3304 7 is_stmt 1              @ ../src/driver/stm32g4-v120/src/stm32g4xx_hal_adc.c:3304:7
	orr.w	r2, r3, r2, lsr #2
	lsls	r2, r2, #31
	@DEBUG_VALUE: ADC_ConversionStop:conversion_group_reassigned <- $r1
	@DEBUG_VALUE: ADC_ConversionStop:ConversionGroup <- $r1
	bne	.LBB7_2
.Ltmp134:
.LBB7_1:
	@DEBUG_VALUE: ADC_ConversionStop:hadc <- $r4
	.loc	7 0 7 is_stmt 0                 @ ../src/driver/stm32g4-v120/src/stm32g4xx_hal_adc.c:0:7
	movs	r0, #0
	.loc	7 3405 1 is_stmt 1              @ ../src/driver/stm32g4-v120/src/stm32g4xx_hal_adc.c:3405:1
	pop	{r4, r5, r6, pc}
.Ltmp135:
.LBB7_2:
	@DEBUG_VALUE: ADC_ConversionStop:hadc <- $r4
	@DEBUG_VALUE: ADC_ConversionStop:tmp_adc_is_conversion_on_going_injected <- [DW_OP_constu 1, DW_OP_and, DW_OP_stack_value] $r3
	@DEBUG_VALUE: ADC_ConversionStop:conversion_group_reassigned <- $r1
	@DEBUG_VALUE: ADC_ConversionStop:ConversionGroup <- $r1
	@DEBUG_VALUE: ADC_ConversionStop:Conversion_Timeout_CPU_cycles <- 0
	.loc	7 3313 27                       @ ../src/driver/stm32g4-v120/src/stm32g4xx_hal_adc.c:3313:27
	ldr	r2, [r0, #12]
	.loc	7 3314 9                        @ ../src/driver/stm32g4-v120/src/stm32g4xx_hal_adc.c:3314:9
	lsls	r2, r2, #6
	bpl	.LBB7_10
.Ltmp136:
@ %bb.3:
	@DEBUG_VALUE: ADC_ConversionStop:hadc <- $r4
	@DEBUG_VALUE: ADC_ConversionStop:tmp_adc_is_conversion_on_going_injected <- [DW_OP_constu 1, DW_OP_and, DW_OP_stack_value] $r3
	@DEBUG_VALUE: ADC_ConversionStop:conversion_group_reassigned <- $r1
	@DEBUG_VALUE: ADC_ConversionStop:ConversionGroup <- $r1
	@DEBUG_VALUE: ADC_ConversionStop:Conversion_Timeout_CPU_cycles <- 0
	.loc	7 3314 24 is_stmt 0             @ ../src/driver/stm32g4-v120/src/stm32g4xx_hal_adc.c:3314:24
	ldrb	r2, [r4, #29]
	.loc	7 3315 9 is_stmt 1              @ ../src/driver/stm32g4-v120/src/stm32g4xx_hal_adc.c:3315:9
	cmp	r2, #1
	bne	.LBB7_10
.Ltmp137:
@ %bb.4:
	@DEBUG_VALUE: ADC_ConversionStop:hadc <- $r4
	@DEBUG_VALUE: ADC_ConversionStop:tmp_adc_is_conversion_on_going_injected <- [DW_OP_constu 1, DW_OP_and, DW_OP_stack_value] $r3
	@DEBUG_VALUE: ADC_ConversionStop:conversion_group_reassigned <- $r1
	@DEBUG_VALUE: ADC_ConversionStop:ConversionGroup <- $r1
	@DEBUG_VALUE: ADC_ConversionStop:Conversion_Timeout_CPU_cycles <- 0
	.loc	7 3315 24 is_stmt 0             @ ../src/driver/stm32g4-v120/src/stm32g4xx_hal_adc.c:3315:24
	ldrb	r2, [r4, #28]
.Ltmp138:
	.loc	7 3313 9 is_stmt 1              @ ../src/driver/stm32g4-v120/src/stm32g4xx_hal_adc.c:3313:9
	cmp	r2, #1
	bne	.LBB7_10
.Ltmp139:
@ %bb.5:
	@DEBUG_VALUE: ADC_ConversionStop:hadc <- $r4
	@DEBUG_VALUE: ADC_ConversionStop:tmp_adc_is_conversion_on_going_injected <- [DW_OP_constu 1, DW_OP_and, DW_OP_stack_value] $r3
	@DEBUG_VALUE: ADC_ConversionStop:conversion_group_reassigned <- $r1
	@DEBUG_VALUE: ADC_ConversionStop:ConversionGroup <- $r1
	@DEBUG_VALUE: ADC_ConversionStop:Conversion_Timeout_CPU_cycles <- 0
	@DEBUG_VALUE: ADC_ConversionStop:Conversion_Timeout_CPU_cycles <- 0
	.loc	7 3322 14                       @ ../src/driver/stm32g4-v120/src/stm32g4xx_hal_adc.c:3322:14
	ldr	r1, [r0]
.Ltmp140:
	@DEBUG_VALUE: ADC_ConversionStop:ConversionGroup <- [DW_OP_LLVM_entry_value 1] $r1
	.loc	7 3322 7 is_stmt 0              @ ../src/driver/stm32g4-v120/src/stm32g4xx_hal_adc.c:3322:7
	lsls	r1, r1, #25
	bmi	.LBB7_9
.Ltmp141:
@ %bb.6:
	@DEBUG_VALUE: ADC_ConversionStop:hadc <- $r4
	@DEBUG_VALUE: ADC_ConversionStop:tmp_adc_is_conversion_on_going_injected <- [DW_OP_constu 1, DW_OP_and, DW_OP_stack_value] $r3
	@DEBUG_VALUE: ADC_ConversionStop:ConversionGroup <- [DW_OP_LLVM_entry_value 1] $r1
	@DEBUG_VALUE: ADC_ConversionStop:Conversion_Timeout_CPU_cycles <- 0
	.loc	7 0 7                           @ ../src/driver/stm32g4-v120/src/stm32g4xx_hal_adc.c:0:7
	movs	r1, #1
	movt	r1, #41792
.Ltmp142:
	.p2align	2
.LBB7_7:                                @ =>This Inner Loop Header: Depth=1
	@DEBUG_VALUE: ADC_ConversionStop:hadc <- $r4
	@DEBUG_VALUE: ADC_ConversionStop:tmp_adc_is_conversion_on_going_injected <- [DW_OP_constu 1, DW_OP_and, DW_OP_stack_value] $r3
	@DEBUG_VALUE: ADC_ConversionStop:ConversionGroup <- [DW_OP_LLVM_entry_value 1] $r1
	@DEBUG_VALUE: ADC_ConversionStop:Conversion_Timeout_CPU_cycles <- [DW_OP_plus_uconst 1, DW_OP_stack_value] undef
	.loc	7 3324 43 is_stmt 1             @ ../src/driver/stm32g4-v120/src/stm32g4xx_hal_adc.c:3324:43
	subs	r1, #1
.Ltmp143:
	.loc	7 3324 13 is_stmt 0             @ ../src/driver/stm32g4-v120/src/stm32g4xx_hal_adc.c:3324:13
	beq	.LBB7_23
.Ltmp144:
@ %bb.8:                                @   in Loop: Header=BB7_7 Depth=1
	@DEBUG_VALUE: ADC_ConversionStop:hadc <- $r4
	@DEBUG_VALUE: ADC_ConversionStop:tmp_adc_is_conversion_on_going_injected <- [DW_OP_constu 1, DW_OP_and, DW_OP_stack_value] $r3
	@DEBUG_VALUE: ADC_ConversionStop:ConversionGroup <- [DW_OP_LLVM_entry_value 1] $r1
	@DEBUG_VALUE: ADC_ConversionStop:Conversion_Timeout_CPU_cycles <- [DW_OP_plus_uconst 1, DW_OP_stack_value] undef
	.loc	7 3322 14 is_stmt 1             @ ../src/driver/stm32g4-v120/src/stm32g4xx_hal_adc.c:3322:14
	ldr	r2, [r0]
	.loc	7 3322 7 is_stmt 0              @ ../src/driver/stm32g4-v120/src/stm32g4xx_hal_adc.c:3322:7
	lsls	r2, r2, #25
	bpl	.LBB7_7
.Ltmp145:
.LBB7_9:
	@DEBUG_VALUE: ADC_ConversionStop:hadc <- $r4
	@DEBUG_VALUE: ADC_ConversionStop:tmp_adc_is_conversion_on_going_injected <- [DW_OP_constu 1, DW_OP_and, DW_OP_stack_value] $r3
	@DEBUG_VALUE: ADC_ConversionStop:ConversionGroup <- [DW_OP_LLVM_entry_value 1] $r1
	.loc	7 0 7                           @ ../src/driver/stm32g4-v120/src/stm32g4xx_hal_adc.c:0:7
	movs	r1, #64
	.loc	7 3338 7 is_stmt 1              @ ../src/driver/stm32g4-v120/src/stm32g4xx_hal_adc.c:3338:7
	str	r1, [r0]
	movs	r1, #1
.Ltmp146:
	@DEBUG_VALUE: ADC_ConversionStop:conversion_group_reassigned <- $r1
	.loc	7 0 7 is_stmt 0                 @ ../src/driver/stm32g4-v120/src/stm32g4xx_hal_adc.c:0:7
	b	.LBB7_12
.Ltmp147:
.LBB7_10:
	@DEBUG_VALUE: ADC_ConversionStop:hadc <- $r4
	@DEBUG_VALUE: ADC_ConversionStop:tmp_adc_is_conversion_on_going_injected <- [DW_OP_constu 1, DW_OP_and, DW_OP_stack_value] $r3
	@DEBUG_VALUE: ADC_ConversionStop:conversion_group_reassigned <- $r1
	@DEBUG_VALUE: ADC_ConversionStop:ConversionGroup <- $r1
	@DEBUG_VALUE: ADC_ConversionStop:Conversion_Timeout_CPU_cycles <- 0
	@DEBUG_VALUE: ADC_ConversionStop:conversion_group_reassigned <- $r1
	.loc	7 3342 9 is_stmt 1              @ ../src/driver/stm32g4-v120/src/stm32g4xx_hal_adc.c:3342:9
	cmp	r1, #2
	bne	.LBB7_12
.Ltmp148:
@ %bb.11:
	@DEBUG_VALUE: ADC_ConversionStop:hadc <- $r4
	@DEBUG_VALUE: ADC_ConversionStop:tmp_adc_is_conversion_on_going_injected <- [DW_OP_constu 1, DW_OP_and, DW_OP_stack_value] $r3
	@DEBUG_VALUE: ADC_ConversionStop:conversion_group_reassigned <- $r1
	@DEBUG_VALUE: ADC_ConversionStop:ConversionGroup <- $r1
	@DEBUG_VALUE: ADC_ConversionStop:Conversion_Timeout_CPU_cycles <- 0
	.loc	7 0 9 is_stmt 0                 @ ../src/driver/stm32g4-v120/src/stm32g4xx_hal_adc.c:0:9
	movs	r1, #2
.Ltmp149:
	@DEBUG_VALUE: ADC_ConversionStop:ConversionGroup <- [DW_OP_LLVM_entry_value 1] $r1
	movs	r6, #8
	b	.LBB7_16
.Ltmp150:
.LBB7_12:
	@DEBUG_VALUE: ADC_ConversionStop:hadc <- $r4
	@DEBUG_VALUE: ADC_ConversionStop:tmp_adc_is_conversion_on_going_injected <- [DW_OP_constu 1, DW_OP_and, DW_OP_stack_value] $r3
	@DEBUG_VALUE: ADC_ConversionStop:conversion_group_reassigned <- $r1
	@DEBUG_VALUE: LL_ADC_REG_IsConversionOngoing:ADCx <- $r0
	.loc	8 6838 12 is_stmt 1             @ ../src/driver/stm32g4-v120/inc/stm32g4xx_ll_adc.h:6838:12
	ldr	r2, [r0, #8]
.Ltmp151:
	.loc	7 3345 11                       @ ../src/driver/stm32g4-v120/src/stm32g4xx_hal_adc.c:3345:11
	lsls	r2, r2, #29
	bpl	.LBB7_15
.Ltmp152:
@ %bb.13:
	@DEBUG_VALUE: ADC_ConversionStop:hadc <- $r4
	@DEBUG_VALUE: ADC_ConversionStop:tmp_adc_is_conversion_on_going_injected <- [DW_OP_constu 1, DW_OP_and, DW_OP_stack_value] $r3
	@DEBUG_VALUE: ADC_ConversionStop:conversion_group_reassigned <- $r1
	@DEBUG_VALUE: LL_ADC_IsDisableOngoing:ADCx <- $r0
	.loc	8 6727 12                       @ ../src/driver/stm32g4-v120/inc/stm32g4xx_ll_adc.h:6727:12
	ldr	r2, [r0, #8]
.Ltmp153:
	.loc	7 3347 13                       @ ../src/driver/stm32g4-v120/src/stm32g4xx_hal_adc.c:3347:13
	lsls	r2, r2, #30
	bmi	.LBB7_15
.Ltmp154:
@ %bb.14:
	@DEBUG_VALUE: ADC_ConversionStop:hadc <- $r4
	@DEBUG_VALUE: ADC_ConversionStop:tmp_adc_is_conversion_on_going_injected <- [DW_OP_constu 1, DW_OP_and, DW_OP_stack_value] $r3
	@DEBUG_VALUE: ADC_ConversionStop:conversion_group_reassigned <- $r1
	@DEBUG_VALUE: LL_ADC_REG_StopConversion:ADCx <- $r0
	.loc	8 6825 3                        @ ../src/driver/stm32g4-v120/inc/stm32g4xx_ll_adc.h:6825:3
	ldr	r2, [r0, #8]
	movw	r3, #65472
.Ltmp155:
	.loc	8 0 3 is_stmt 0                 @ ../src/driver/stm32g4-v120/inc/stm32g4xx_ll_adc.h:0:3
	movt	r3, #32767
	.loc	8 6825 3                        @ ../src/driver/stm32g4-v120/inc/stm32g4xx_ll_adc.h:6825:3
	ands	r2, r3
	adds	r2, #16
	str	r2, [r0, #8]
.Ltmp156:
.LBB7_15:
	@DEBUG_VALUE: ADC_ConversionStop:hadc <- $r4
	@DEBUG_VALUE: ADC_ConversionStop:conversion_group_reassigned <- $r1
	.loc	7 3356 9 is_stmt 1              @ ../src/driver/stm32g4-v120/src/stm32g4xx_hal_adc.c:3356:9
	cmp	r1, #1
	mov.w	r6, #4
	beq	.LBB7_20
.Ltmp157:
.LBB7_16:
	@DEBUG_VALUE: ADC_ConversionStop:hadc <- $r4
	@DEBUG_VALUE: LL_ADC_INJ_IsConversionOngoing:ADCx <- $r0
	.loc	8 7063 12                       @ ../src/driver/stm32g4-v120/inc/stm32g4xx_ll_adc.h:7063:12
	ldr	r2, [r0, #8]
.Ltmp158:
	.loc	7 3359 11                       @ ../src/driver/stm32g4-v120/src/stm32g4xx_hal_adc.c:3359:11
	lsls	r2, r2, #28
	bpl	.LBB7_19
.Ltmp159:
@ %bb.17:
	@DEBUG_VALUE: ADC_ConversionStop:hadc <- $r4
	@DEBUG_VALUE: LL_ADC_IsDisableOngoing:ADCx <- $r0
	.loc	8 6727 12                       @ ../src/driver/stm32g4-v120/inc/stm32g4xx_ll_adc.h:6727:12
	ldr	r2, [r0, #8]
.Ltmp160:
	.loc	7 3361 13                       @ ../src/driver/stm32g4-v120/src/stm32g4xx_hal_adc.c:3361:13
	lsls	r2, r2, #30
	bmi	.LBB7_19
.Ltmp161:
@ %bb.18:
	@DEBUG_VALUE: ADC_ConversionStop:hadc <- $r4
	@DEBUG_VALUE: LL_ADC_INJ_StopConversion:ADCx <- $r0
	.loc	8 7050 3                        @ ../src/driver/stm32g4-v120/inc/stm32g4xx_ll_adc.h:7050:3
	ldr	r2, [r0, #8]
	movw	r3, #65472
	movt	r3, #32767
	ands	r2, r3
	adds	r2, #32
	str	r2, [r0, #8]
.Ltmp162:
.LBB7_19:
	@DEBUG_VALUE: ADC_ConversionStop:hadc <- $r4
	.loc	7 3370 5                        @ ../src/driver/stm32g4-v120/src/stm32g4xx_hal_adc.c:3370:5
	cmp	r1, #3
	it	eq
	moveq	r6, #12
.Ltmp163:
.LBB7_20:
	@DEBUG_VALUE: ADC_ConversionStop:hadc <- $r4
	@DEBUG_VALUE: ADC_ConversionStop:tmp_ADC_CR_ADSTART_JADSTART <- $r6
	.loc	7 3385 17                       @ ../src/driver/stm32g4-v120/src/stm32g4xx_hal_adc.c:3385:17
	bl	HAL_GetTick
.Ltmp164:
	mov	r5, r0
.Ltmp165:
	@DEBUG_VALUE: ADC_ConversionStop:tickstart <- $r5
	.p2align	2
.LBB7_21:                               @ =>This Inner Loop Header: Depth=1
	@DEBUG_VALUE: ADC_ConversionStop:tmp_ADC_CR_ADSTART_JADSTART <- $r6
	@DEBUG_VALUE: ADC_ConversionStop:tickstart <- $r5
	@DEBUG_VALUE: ADC_ConversionStop:hadc <- $r4
	.loc	7 3387 19                       @ ../src/driver/stm32g4-v120/src/stm32g4xx_hal_adc.c:3387:19
	ldr	r0, [r4]
	.loc	7 3387 29 is_stmt 0             @ ../src/driver/stm32g4-v120/src/stm32g4xx_hal_adc.c:3387:29
	ldr	r0, [r0, #8]
	.loc	7 3387 5                        @ ../src/driver/stm32g4-v120/src/stm32g4xx_hal_adc.c:3387:5
	tst	r0, r6
	beq	.LBB7_1
.Ltmp166:
@ %bb.22:                               @   in Loop: Header=BB7_21 Depth=1
	@DEBUG_VALUE: ADC_ConversionStop:tmp_ADC_CR_ADSTART_JADSTART <- $r6
	@DEBUG_VALUE: ADC_ConversionStop:tickstart <- $r5
	@DEBUG_VALUE: ADC_ConversionStop:hadc <- $r4
	.loc	7 3389 12 is_stmt 1             @ ../src/driver/stm32g4-v120/src/stm32g4xx_hal_adc.c:3389:12
	bl	HAL_GetTick
.Ltmp167:
	.loc	7 3389 26 is_stmt 0             @ ../src/driver/stm32g4-v120/src/stm32g4xx_hal_adc.c:3389:26
	subs	r0, r0, r5
.Ltmp168:
	.loc	7 3389 11                       @ ../src/driver/stm32g4-v120/src/stm32g4xx_hal_adc.c:3389:11
	cmp	r0, #6
	blo	.LBB7_21
.Ltmp169:
.LBB7_23:
	@DEBUG_VALUE: ADC_ConversionStop:hadc <- $r4
	.loc	7 0 0                           @ ../src/driver/stm32g4-v120/src/stm32g4xx_hal_adc.c:0:0
	ldr	r0, [r4, #92]
	orr	r0, r0, #16
	str	r0, [r4, #92]
	ldr	r0, [r4, #96]
	orr	r0, r0, #1
	str	r0, [r4, #96]
	movs	r0, #1
.Ltmp170:
	.loc	7 3405 1 is_stmt 1              @ ../src/driver/stm32g4-v120/src/stm32g4xx_hal_adc.c:3405:1
	pop	{r4, r5, r6, pc}
.Ltmp171:
.Lfunc_end7:
	.size	ADC_ConversionStop, .Lfunc_end7-ADC_ConversionStop
	.cfi_endproc
	.cantunwind
	.fnend
                                        @ -- End function
	.section	.text.ADC_Disable,"ax",%progbits
	.hidden	ADC_Disable                     @ -- Begin function ADC_Disable
	.globl	ADC_Disable
	.p2align	1
	.type	ADC_Disable,%function
	.code	16                              @ @ADC_Disable
	.thumb_func
ADC_Disable:
.Lfunc_begin8:
	.loc	7 3484 0                        @ ../src/driver/stm32g4-v120/src/stm32g4xx_hal_adc.c:3484:0
	.fnstart
	.cfi_startproc
@ %bb.0:
	@DEBUG_VALUE: ADC_Disable:hadc <- $r0
	.save	{r4, r5, r7, lr}
	push	{r4, r5, r7, lr}
	.cfi_def_cfa_offset 16
	.cfi_offset lr, -4
	.cfi_offset r7, -8
	.cfi_offset r5, -12
	.cfi_offset r4, -16
.Ltmp172:
	.loc	7 3486 78 prologue_end          @ ../src/driver/stm32g4-v120/src/stm32g4xx_hal_adc.c:3486:78
	ldr	r1, [r0]
.Ltmp173:
	@DEBUG_VALUE: LL_ADC_IsDisableOngoing:ADCx <- $r1
	.loc	7 0 78 is_stmt 0                @ ../src/driver/stm32g4-v120/src/stm32g4xx_hal_adc.c:0:78
	mov	r4, r0
.Ltmp174:
	@DEBUG_VALUE: ADC_Disable:hadc <- $r4
	@DEBUG_VALUE: ADC_Disable:hadc <- $r4
	.loc	8 6727 12 is_stmt 1             @ ../src/driver/stm32g4-v120/inc/stm32g4xx_ll_adc.h:6727:12
	ldr	r0, [r1, #8]
.Ltmp175:
	@DEBUG_VALUE: LL_ADC_IsEnabled:ADCx <- $r1
	@DEBUG_VALUE: ADC_Disable:tmp_adc_is_disable_on_going <- [DW_OP_constu 1, DW_OP_shr, DW_OP_constu 1, DW_OP_and, DW_OP_stack_value] $r0
	.loc	8 6716 12                       @ ../src/driver/stm32g4-v120/inc/stm32g4xx_ll_adc.h:6716:12
	ldr	r2, [r1, #8]
.Ltmp176:
	.loc	7 3492 7                        @ ../src/driver/stm32g4-v120/src/stm32g4xx_hal_adc.c:3492:7
	lsls	r0, r0, #30
.Ltmp177:
	.loc	7 0 7 is_stmt 0                 @ ../src/driver/stm32g4-v120/src/stm32g4xx_hal_adc.c:0:7
	mov.w	r0, #0
	.loc	7 3492 7                        @ ../src/driver/stm32g4-v120/src/stm32g4xx_hal_adc.c:3492:7
	bmi	.LBB8_7
.Ltmp178:
@ %bb.1:
	@DEBUG_VALUE: ADC_Disable:hadc <- $r4
	.loc	7 0 0                           @ ../src/driver/stm32g4-v120/src/stm32g4xx_hal_adc.c:0:0
	ands	r2, r2, #1
.Ltmp179:
	.loc	7 3534 1 is_stmt 1              @ ../src/driver/stm32g4-v120/src/stm32g4xx_hal_adc.c:3534:1
	it	eq
	popeq	{r4, r5, r7, pc}
.Ltmp180:
.LBB8_2:
	.loc	7 3496 26                       @ ../src/driver/stm32g4-v120/src/stm32g4xx_hal_adc.c:3496:26
	ldr	r0, [r1, #8]
	.loc	7 3496 29 is_stmt 0             @ ../src/driver/stm32g4-v120/src/stm32g4xx_hal_adc.c:3496:29
	and	r0, r0, #13
.Ltmp181:
	.loc	7 3496 9                        @ ../src/driver/stm32g4-v120/src/stm32g4xx_hal_adc.c:3496:9
	cmp	r0, #1
	bne	.LBB8_6
@ %bb.3:
.Ltmp182:
	@DEBUG_VALUE: LL_ADC_Disable:ADCx <- $r1
	.loc	8 6700 3 is_stmt 1              @ ../src/driver/stm32g4-v120/inc/stm32g4xx_ll_adc.h:6700:3
	ldr	r0, [r1, #8]
	movw	r2, #65472
	movt	r2, #32767
	ands	r0, r2
	adds	r0, #2
	str	r0, [r1, #8]
	movs	r0, #3
.Ltmp183:
	.loc	7 3500 7                        @ ../src/driver/stm32g4-v120/src/stm32g4xx_hal_adc.c:3500:7
	str	r0, [r1]
.Ltmp184:
	.loc	7 3515 17                       @ ../src/driver/stm32g4-v120/src/stm32g4xx_hal_adc.c:3515:17
	bl	HAL_GetTick
.Ltmp185:
	mov	r5, r0
.Ltmp186:
	@DEBUG_VALUE: ADC_Disable:tickstart <- $r5
	.p2align	2
.LBB8_4:                                @ =>This Inner Loop Header: Depth=1
	@DEBUG_VALUE: ADC_Disable:tickstart <- $r5
	.loc	7 3517 19                       @ ../src/driver/stm32g4-v120/src/stm32g4xx_hal_adc.c:3517:19
	ldr	r0, [r4]
	.loc	7 3517 29 is_stmt 0             @ ../src/driver/stm32g4-v120/src/stm32g4xx_hal_adc.c:3517:29
	ldr	r0, [r0, #8]
	.loc	7 3517 5                        @ ../src/driver/stm32g4-v120/src/stm32g4xx_hal_adc.c:3517:5
	lsls	r0, r0, #31
	beq	.LBB8_8
.Ltmp187:
@ %bb.5:                                @   in Loop: Header=BB8_4 Depth=1
	@DEBUG_VALUE: ADC_Disable:tickstart <- $r5
	.loc	7 3519 12 is_stmt 1             @ ../src/driver/stm32g4-v120/src/stm32g4xx_hal_adc.c:3519:12
	bl	HAL_GetTick
.Ltmp188:
	.loc	7 3519 26 is_stmt 0             @ ../src/driver/stm32g4-v120/src/stm32g4xx_hal_adc.c:3519:26
	subs	r0, r0, r5
.Ltmp189:
	.loc	7 3519 11                       @ ../src/driver/stm32g4-v120/src/stm32g4xx_hal_adc.c:3519:11
	cmp	r0, #3
	blo	.LBB8_4
.Ltmp190:
.LBB8_6:
	.loc	7 0 0                           @ ../src/driver/stm32g4-v120/src/stm32g4xx_hal_adc.c:0:0
	ldr	r0, [r4, #92]
	orr	r0, r0, #16
	str	r0, [r4, #92]
	ldr	r0, [r4, #96]
	orr	r0, r0, #1
	str	r0, [r4, #96]
	movs	r0, #1
.Ltmp191:
.LBB8_7:
	.loc	7 3534 1 is_stmt 1              @ ../src/driver/stm32g4-v120/src/stm32g4xx_hal_adc.c:3534:1
	pop	{r4, r5, r7, pc}
.LBB8_8:
.Ltmp192:
	@DEBUG_VALUE: ADC_Disable:tickstart <- $r5
	.loc	7 0 1 is_stmt 0                 @ ../src/driver/stm32g4-v120/src/stm32g4xx_hal_adc.c:0:1
	movs	r0, #0
	.loc	7 3534 1                        @ ../src/driver/stm32g4-v120/src/stm32g4xx_hal_adc.c:3534:1
	pop	{r4, r5, r7, pc}
.Ltmp193:
.Lfunc_end8:
	.size	ADC_Disable, .Lfunc_end8-ADC_Disable
	.cfi_endproc
	.cantunwind
	.fnend
                                        @ -- End function
	.section	.text.HAL_ADC_MspDeInit,"ax",%progbits
	.hidden	HAL_ADC_MspDeInit               @ -- Begin function HAL_ADC_MspDeInit
	.weak	HAL_ADC_MspDeInit
	.p2align	1
	.type	HAL_ADC_MspDeInit,%function
	.code	16                              @ @HAL_ADC_MspDeInit
	.thumb_func
HAL_ADC_MspDeInit:
.Lfunc_begin9:
	.loc	7 943 0 is_stmt 1               @ ../src/driver/stm32g4-v120/src/stm32g4xx_hal_adc.c:943:0
	.fnstart
	.cfi_startproc
@ %bb.0:
	@DEBUG_VALUE: HAL_ADC_MspDeInit:hadc <- $r0
	.loc	7 950 1 prologue_end            @ ../src/driver/stm32g4-v120/src/stm32g4xx_hal_adc.c:950:1
	bx	lr
.Ltmp194:
.Lfunc_end9:
	.size	HAL_ADC_MspDeInit, .Lfunc_end9-HAL_ADC_MspDeInit
	.cfi_endproc
	.cantunwind
	.fnend
                                        @ -- End function
	.section	.text.HAL_ADC_RegisterCallback,"ax",%progbits
	.hidden	HAL_ADC_RegisterCallback        @ -- Begin function HAL_ADC_RegisterCallback
	.globl	HAL_ADC_RegisterCallback
	.p2align	2
	.type	HAL_ADC_RegisterCallback,%function
	.code	16                              @ @HAL_ADC_RegisterCallback
	.thumb_func
HAL_ADC_RegisterCallback:
.Lfunc_begin10:
	.loc	7 977 0                         @ ../src/driver/stm32g4-v120/src/stm32g4xx_hal_adc.c:977:0
	.fnstart
	.cfi_startproc
@ %bb.0:
	@DEBUG_VALUE: HAL_ADC_RegisterCallback:hadc <- $r0
	@DEBUG_VALUE: HAL_ADC_RegisterCallback:CallbackID <- $r1
	@DEBUG_VALUE: HAL_ADC_RegisterCallback:CallbackID <- $r1
	@DEBUG_VALUE: HAL_ADC_RegisterCallback:pCallback <- $r2
	@DEBUG_VALUE: HAL_ADC_RegisterCallback:pCallback <- $r2
	@DEBUG_VALUE: HAL_ADC_RegisterCallback:status <- 0
	@DEBUG_VALUE: HAL_ADC_RegisterCallback:hadc <- $r0
	.loc	7 980 7 prologue_end            @ ../src/driver/stm32g4-v120/src/stm32g4xx_hal_adc.c:980:7
	cbz	r2, .LBB10_3
.Ltmp195:
@ %bb.1:
	@DEBUG_VALUE: HAL_ADC_RegisterCallback:pCallback <- $r2
	@DEBUG_VALUE: HAL_ADC_RegisterCallback:CallbackID <- $r1
	@DEBUG_VALUE: HAL_ADC_RegisterCallback:hadc <- $r0
	@DEBUG_VALUE: HAL_ADC_RegisterCallback:status <- 0
	@DEBUG_VALUE: HAL_ADC_RegisterCallback:CallbackID <- $r1
	.loc	7 988 14                        @ ../src/driver/stm32g4-v120/src/stm32g4xx_hal_adc.c:988:14
	ldr	r3, [r0, #92]
.Ltmp196:
	.loc	7 988 7 is_stmt 0               @ ../src/driver/stm32g4-v120/src/stm32g4xx_hal_adc.c:988:7
	lsls	r3, r3, #31
	bne	.LBB10_4
.Ltmp197:
@ %bb.2:
	@DEBUG_VALUE: HAL_ADC_RegisterCallback:pCallback <- $r2
	@DEBUG_VALUE: HAL_ADC_RegisterCallback:CallbackID <- $r1
	@DEBUG_VALUE: HAL_ADC_RegisterCallback:hadc <- $r0
	@DEBUG_VALUE: HAL_ADC_RegisterCallback:status <- 0
	.loc	7 1045 41 is_stmt 1             @ ../src/driver/stm32g4-v120/src/stm32g4xx_hal_adc.c:1045:41
	ldr	r3, [r0, #92]
.Ltmp198:
	.loc	7 1045 12 is_stmt 0             @ ../src/driver/stm32g4-v120/src/stm32g4xx_hal_adc.c:1045:12
	cbz	r3, .LBB10_8
.Ltmp199:
.LBB10_3:
	@DEBUG_VALUE: HAL_ADC_RegisterCallback:pCallback <- $r2
	@DEBUG_VALUE: HAL_ADC_RegisterCallback:CallbackID <- $r1
	@DEBUG_VALUE: HAL_ADC_RegisterCallback:hadc <- $r0
	@DEBUG_VALUE: HAL_ADC_RegisterCallback:status <- 0
	.loc	7 0 0                           @ ../src/driver/stm32g4-v120/src/stm32g4xx_hal_adc.c:0:0
	ldr	r1, [r0, #96]
.Ltmp200:
	@DEBUG_VALUE: HAL_ADC_RegisterCallback:CallbackID <- [DW_OP_LLVM_entry_value 1] $r1
	orr	r1, r1, #16
	str	r1, [r0, #96]
	movs	r0, #1
.Ltmp201:
	@DEBUG_VALUE: HAL_ADC_RegisterCallback:hadc <- [DW_OP_LLVM_entry_value 1] $r0
	@DEBUG_VALUE: HAL_ADC_RegisterCallback:status <- 1
	.loc	7 1076 1 is_stmt 1              @ ../src/driver/stm32g4-v120/src/stm32g4xx_hal_adc.c:1076:1
	bx	lr
.Ltmp202:
.LBB10_4:
	@DEBUG_VALUE: HAL_ADC_RegisterCallback:pCallback <- $r2
	@DEBUG_VALUE: HAL_ADC_RegisterCallback:CallbackID <- $r1
	@DEBUG_VALUE: HAL_ADC_RegisterCallback:hadc <- $r0
	@DEBUG_VALUE: HAL_ADC_RegisterCallback:status <- 0
	.loc	7 990 5                         @ ../src/driver/stm32g4-v120/src/stm32g4xx_hal_adc.c:990:5
	cmp	r1, #10
	bhi	.LBB10_3
.Ltmp203:
@ %bb.5:
	@DEBUG_VALUE: HAL_ADC_RegisterCallback:pCallback <- $r2
	@DEBUG_VALUE: HAL_ADC_RegisterCallback:CallbackID <- $r1
	@DEBUG_VALUE: HAL_ADC_RegisterCallback:hadc <- $r0
	@DEBUG_VALUE: HAL_ADC_RegisterCallback:status <- 0
	.loc	7 0 5 is_stmt 0                 @ ../src/driver/stm32g4-v120/src/stm32g4xx_hal_adc.c:0:5
.LCPI10_0:
	tbb	[pc, r1]
.Ltmp204:
@ %bb.6:
.LJTI10_0:
	.byte	(.LBB10_7-(.LCPI10_0+4))/2
	.byte	(.LBB10_12-(.LCPI10_0+4))/2
	.byte	(.LBB10_13-(.LCPI10_0+4))/2
	.byte	(.LBB10_14-(.LCPI10_0+4))/2
	.byte	(.LBB10_15-(.LCPI10_0+4))/2
	.byte	(.LBB10_16-(.LCPI10_0+4))/2
	.byte	(.LBB10_19-(.LCPI10_0+4))/2
	.byte	(.LBB10_17-(.LCPI10_0+4))/2
	.byte	(.LBB10_18-(.LCPI10_0+4))/2
	.byte	(.LBB10_10-(.LCPI10_0+4))/2
	.byte	(.LBB10_11-(.LCPI10_0+4))/2
	.p2align	1
.LBB10_7:
.Ltmp205:
	@DEBUG_VALUE: HAL_ADC_RegisterCallback:pCallback <- $r2
	@DEBUG_VALUE: HAL_ADC_RegisterCallback:CallbackID <- $r1
	@DEBUG_VALUE: HAL_ADC_RegisterCallback:hadc <- $r0
	@DEBUG_VALUE: HAL_ADC_RegisterCallback:status <- 0
	.loc	7 993 32 is_stmt 1              @ ../src/driver/stm32g4-v120/src/stm32g4xx_hal_adc.c:993:32
	str	r2, [r0, #108]
	b	.LBB10_20
.Ltmp206:
.LBB10_8:
	@DEBUG_VALUE: HAL_ADC_RegisterCallback:pCallback <- $r2
	@DEBUG_VALUE: HAL_ADC_RegisterCallback:CallbackID <- $r1
	@DEBUG_VALUE: HAL_ADC_RegisterCallback:hadc <- $r0
	@DEBUG_VALUE: HAL_ADC_RegisterCallback:status <- 0
	.loc	7 1047 5                        @ ../src/driver/stm32g4-v120/src/stm32g4xx_hal_adc.c:1047:5
	cmp	r1, #10
	beq	.LBB10_11
.Ltmp207:
@ %bb.9:
	@DEBUG_VALUE: HAL_ADC_RegisterCallback:pCallback <- $r2
	@DEBUG_VALUE: HAL_ADC_RegisterCallback:CallbackID <- $r1
	@DEBUG_VALUE: HAL_ADC_RegisterCallback:hadc <- $r0
	@DEBUG_VALUE: HAL_ADC_RegisterCallback:status <- 0
	cmp	r1, #9
	bne	.LBB10_3
.Ltmp208:
.LBB10_10:
	@DEBUG_VALUE: HAL_ADC_RegisterCallback:pCallback <- $r2
	@DEBUG_VALUE: HAL_ADC_RegisterCallback:CallbackID <- $r1
	@DEBUG_VALUE: HAL_ADC_RegisterCallback:hadc <- $r0
	@DEBUG_VALUE: HAL_ADC_RegisterCallback:status <- 0
	.loc	7 0 0 is_stmt 0                 @ ../src/driver/stm32g4-v120/src/stm32g4xx_hal_adc.c:0:0
	str.w	r2, [r0, #144]
	b	.LBB10_20
.Ltmp209:
.LBB10_11:
	@DEBUG_VALUE: HAL_ADC_RegisterCallback:pCallback <- $r2
	@DEBUG_VALUE: HAL_ADC_RegisterCallback:CallbackID <- $r1
	@DEBUG_VALUE: HAL_ADC_RegisterCallback:hadc <- $r0
	@DEBUG_VALUE: HAL_ADC_RegisterCallback:status <- 0
	str.w	r2, [r0, #148]
	b	.LBB10_20
.Ltmp210:
.LBB10_12:
	@DEBUG_VALUE: HAL_ADC_RegisterCallback:pCallback <- $r2
	@DEBUG_VALUE: HAL_ADC_RegisterCallback:CallbackID <- $r1
	@DEBUG_VALUE: HAL_ADC_RegisterCallback:hadc <- $r0
	@DEBUG_VALUE: HAL_ADC_RegisterCallback:status <- 0
	.loc	7 997 36 is_stmt 1              @ ../src/driver/stm32g4-v120/src/stm32g4xx_hal_adc.c:997:36
	str	r2, [r0, #112]
	b	.LBB10_20
.Ltmp211:
.LBB10_13:
	@DEBUG_VALUE: HAL_ADC_RegisterCallback:pCallback <- $r2
	@DEBUG_VALUE: HAL_ADC_RegisterCallback:CallbackID <- $r1
	@DEBUG_VALUE: HAL_ADC_RegisterCallback:hadc <- $r0
	@DEBUG_VALUE: HAL_ADC_RegisterCallback:status <- 0
	.loc	7 1001 40                       @ ../src/driver/stm32g4-v120/src/stm32g4xx_hal_adc.c:1001:40
	str	r2, [r0, #116]
	b	.LBB10_20
.Ltmp212:
.LBB10_14:
	@DEBUG_VALUE: HAL_ADC_RegisterCallback:pCallback <- $r2
	@DEBUG_VALUE: HAL_ADC_RegisterCallback:CallbackID <- $r1
	@DEBUG_VALUE: HAL_ADC_RegisterCallback:hadc <- $r0
	@DEBUG_VALUE: HAL_ADC_RegisterCallback:status <- 0
	.loc	7 1005 29                       @ ../src/driver/stm32g4-v120/src/stm32g4xx_hal_adc.c:1005:29
	str	r2, [r0, #120]
	b	.LBB10_20
.Ltmp213:
.LBB10_15:
	@DEBUG_VALUE: HAL_ADC_RegisterCallback:pCallback <- $r2
	@DEBUG_VALUE: HAL_ADC_RegisterCallback:CallbackID <- $r1
	@DEBUG_VALUE: HAL_ADC_RegisterCallback:hadc <- $r0
	@DEBUG_VALUE: HAL_ADC_RegisterCallback:status <- 0
	.loc	7 1009 40                       @ ../src/driver/stm32g4-v120/src/stm32g4xx_hal_adc.c:1009:40
	str	r2, [r0, #124]
	b	.LBB10_20
.Ltmp214:
.LBB10_16:
	@DEBUG_VALUE: HAL_ADC_RegisterCallback:pCallback <- $r2
	@DEBUG_VALUE: HAL_ADC_RegisterCallback:CallbackID <- $r1
	@DEBUG_VALUE: HAL_ADC_RegisterCallback:hadc <- $r0
	@DEBUG_VALUE: HAL_ADC_RegisterCallback:status <- 0
	.loc	7 1013 45                       @ ../src/driver/stm32g4-v120/src/stm32g4xx_hal_adc.c:1013:45
	str.w	r2, [r0, #128]
	b	.LBB10_20
.Ltmp215:
.LBB10_17:
	@DEBUG_VALUE: HAL_ADC_RegisterCallback:pCallback <- $r2
	@DEBUG_VALUE: HAL_ADC_RegisterCallback:CallbackID <- $r1
	@DEBUG_VALUE: HAL_ADC_RegisterCallback:hadc <- $r0
	@DEBUG_VALUE: HAL_ADC_RegisterCallback:status <- 0
	.loc	7 1021 41                       @ ../src/driver/stm32g4-v120/src/stm32g4xx_hal_adc.c:1021:41
	str.w	r2, [r0, #136]
	b	.LBB10_20
.Ltmp216:
.LBB10_18:
	@DEBUG_VALUE: HAL_ADC_RegisterCallback:pCallback <- $r2
	@DEBUG_VALUE: HAL_ADC_RegisterCallback:CallbackID <- $r1
	@DEBUG_VALUE: HAL_ADC_RegisterCallback:hadc <- $r0
	@DEBUG_VALUE: HAL_ADC_RegisterCallback:status <- 0
	.loc	7 1025 37                       @ ../src/driver/stm32g4-v120/src/stm32g4xx_hal_adc.c:1025:37
	str.w	r2, [r0, #140]
	b	.LBB10_20
.Ltmp217:
.LBB10_19:
	@DEBUG_VALUE: HAL_ADC_RegisterCallback:pCallback <- $r2
	@DEBUG_VALUE: HAL_ADC_RegisterCallback:CallbackID <- $r1
	@DEBUG_VALUE: HAL_ADC_RegisterCallback:hadc <- $r0
	@DEBUG_VALUE: HAL_ADC_RegisterCallback:status <- 0
	.loc	7 1017 41                       @ ../src/driver/stm32g4-v120/src/stm32g4xx_hal_adc.c:1017:41
	str.w	r2, [r0, #132]
.Ltmp218:
.LBB10_20:
	@DEBUG_VALUE: HAL_ADC_RegisterCallback:pCallback <- $r2
	@DEBUG_VALUE: HAL_ADC_RegisterCallback:CallbackID <- $r1
	@DEBUG_VALUE: HAL_ADC_RegisterCallback:hadc <- $r0
	@DEBUG_VALUE: HAL_ADC_RegisterCallback:status <- 0
	.loc	7 0 41 is_stmt 0                @ ../src/driver/stm32g4-v120/src/stm32g4xx_hal_adc.c:0:41
	movs	r0, #0
.Ltmp219:
	@DEBUG_VALUE: HAL_ADC_RegisterCallback:hadc <- [DW_OP_LLVM_entry_value 1] $r0
	.loc	7 1076 1 is_stmt 1              @ ../src/driver/stm32g4-v120/src/stm32g4xx_hal_adc.c:1076:1
	bx	lr
.Ltmp220:
.Lfunc_end10:
	.size	HAL_ADC_RegisterCallback, .Lfunc_end10-HAL_ADC_RegisterCallback
	.cfi_endproc
	.cantunwind
	.fnend
                                        @ -- End function
	.section	.text.HAL_ADC_UnRegisterCallback,"ax",%progbits
	.hidden	HAL_ADC_UnRegisterCallback      @ -- Begin function HAL_ADC_UnRegisterCallback
	.globl	HAL_ADC_UnRegisterCallback
	.p2align	2
	.type	HAL_ADC_UnRegisterCallback,%function
	.code	16                              @ @HAL_ADC_UnRegisterCallback
	.thumb_func
HAL_ADC_UnRegisterCallback:
.Lfunc_begin11:
	.loc	7 1101 0                        @ ../src/driver/stm32g4-v120/src/stm32g4xx_hal_adc.c:1101:0
	.fnstart
	.cfi_startproc
@ %bb.0:
	@DEBUG_VALUE: HAL_ADC_UnRegisterCallback:hadc <- $r0
	@DEBUG_VALUE: HAL_ADC_UnRegisterCallback:hadc <- $r0
	@DEBUG_VALUE: HAL_ADC_UnRegisterCallback:CallbackID <- $r1
	@DEBUG_VALUE: HAL_ADC_UnRegisterCallback:CallbackID <- undef
	@DEBUG_VALUE: HAL_ADC_UnRegisterCallback:status <- 0
	.loc	7 1104 14 prologue_end          @ ../src/driver/stm32g4-v120/src/stm32g4xx_hal_adc.c:1104:14
	ldr	r2, [r0, #92]
.Ltmp221:
	.loc	7 1104 7 is_stmt 0              @ ../src/driver/stm32g4-v120/src/stm32g4xx_hal_adc.c:1104:7
	lsls	r2, r2, #31
.Ltmp222:
	@DEBUG_VALUE: HAL_ADC_UnRegisterCallback:CallbackID <- $r1
	bne	.LBB11_3
.Ltmp223:
@ %bb.1:
	@DEBUG_VALUE: HAL_ADC_UnRegisterCallback:CallbackID <- $r1
	@DEBUG_VALUE: HAL_ADC_UnRegisterCallback:hadc <- $r0
	@DEBUG_VALUE: HAL_ADC_UnRegisterCallback:status <- 0
	.loc	7 1161 41 is_stmt 1             @ ../src/driver/stm32g4-v120/src/stm32g4xx_hal_adc.c:1161:41
	ldr	r2, [r0, #92]
.Ltmp224:
	.loc	7 1161 12 is_stmt 0             @ ../src/driver/stm32g4-v120/src/stm32g4xx_hal_adc.c:1161:12
	cbz	r2, .LBB11_7
.Ltmp225:
.LBB11_2:
	@DEBUG_VALUE: HAL_ADC_UnRegisterCallback:CallbackID <- $r1
	@DEBUG_VALUE: HAL_ADC_UnRegisterCallback:hadc <- $r0
	@DEBUG_VALUE: HAL_ADC_UnRegisterCallback:status <- 0
	.loc	7 0 0                           @ ../src/driver/stm32g4-v120/src/stm32g4xx_hal_adc.c:0:0
	ldr	r1, [r0, #96]
.Ltmp226:
	orr	r1, r1, #16
	str	r1, [r0, #96]
	movs	r0, #1
.Ltmp227:
	@DEBUG_VALUE: HAL_ADC_UnRegisterCallback:hadc <- [DW_OP_LLVM_entry_value 1] $r0
	@DEBUG_VALUE: HAL_ADC_UnRegisterCallback:status <- 1
	@DEBUG_VALUE: HAL_ADC_UnRegisterCallback:status <- $r0
	.loc	7 1191 3 is_stmt 1              @ ../src/driver/stm32g4-v120/src/stm32g4xx_hal_adc.c:1191:3
	bx	lr
.Ltmp228:
.LBB11_3:
	@DEBUG_VALUE: HAL_ADC_UnRegisterCallback:CallbackID <- $r1
	@DEBUG_VALUE: HAL_ADC_UnRegisterCallback:hadc <- $r0
	@DEBUG_VALUE: HAL_ADC_UnRegisterCallback:status <- 0
	.loc	7 1106 5                        @ ../src/driver/stm32g4-v120/src/stm32g4xx_hal_adc.c:1106:5
	cmp	r1, #10
	bhi	.LBB11_2
.Ltmp229:
@ %bb.4:
	@DEBUG_VALUE: HAL_ADC_UnRegisterCallback:CallbackID <- $r1
	@DEBUG_VALUE: HAL_ADC_UnRegisterCallback:hadc <- $r0
	@DEBUG_VALUE: HAL_ADC_UnRegisterCallback:status <- 0
	.loc	7 0 5 is_stmt 0                 @ ../src/driver/stm32g4-v120/src/stm32g4xx_hal_adc.c:0:5
.LCPI11_0:
	tbb	[pc, r1]
.Ltmp230:
@ %bb.5:
.LJTI11_0:
	.byte	(.LBB11_6-(.LCPI11_0+4))/2
	.byte	(.LBB11_11-(.LCPI11_0+4))/2
	.byte	(.LBB11_12-(.LCPI11_0+4))/2
	.byte	(.LBB11_13-(.LCPI11_0+4))/2
	.byte	(.LBB11_14-(.LCPI11_0+4))/2
	.byte	(.LBB11_15-(.LCPI11_0+4))/2
	.byte	(.LBB11_16-(.LCPI11_0+4))/2
	.byte	(.LBB11_17-(.LCPI11_0+4))/2
	.byte	(.LBB11_18-(.LCPI11_0+4))/2
	.byte	(.LBB11_9-(.LCPI11_0+4))/2
	.byte	(.LBB11_10-(.LCPI11_0+4))/2
	.p2align	1
.LBB11_6:
.Ltmp231:
	@DEBUG_VALUE: HAL_ADC_UnRegisterCallback:CallbackID <- $r1
	@DEBUG_VALUE: HAL_ADC_UnRegisterCallback:hadc <- $r0
	@DEBUG_VALUE: HAL_ADC_UnRegisterCallback:status <- 0
	.loc	7 1109 32 is_stmt 1             @ ../src/driver/stm32g4-v120/src/stm32g4xx_hal_adc.c:1109:32
	movw	r1, :lower16:HAL_ADC_ConvCpltCallback
.Ltmp232:
	movt	r1, :upper16:HAL_ADC_ConvCpltCallback
	str	r1, [r0, #108]
	b	.LBB11_19
.Ltmp233:
.LBB11_7:
	@DEBUG_VALUE: HAL_ADC_UnRegisterCallback:CallbackID <- $r1
	@DEBUG_VALUE: HAL_ADC_UnRegisterCallback:hadc <- $r0
	@DEBUG_VALUE: HAL_ADC_UnRegisterCallback:status <- 0
	.loc	7 1163 5                        @ ../src/driver/stm32g4-v120/src/stm32g4xx_hal_adc.c:1163:5
	cmp	r1, #10
	beq	.LBB11_10
.Ltmp234:
@ %bb.8:
	@DEBUG_VALUE: HAL_ADC_UnRegisterCallback:CallbackID <- $r1
	@DEBUG_VALUE: HAL_ADC_UnRegisterCallback:hadc <- $r0
	@DEBUG_VALUE: HAL_ADC_UnRegisterCallback:status <- 0
	cmp	r1, #9
	bne	.LBB11_2
.Ltmp235:
.LBB11_9:
	@DEBUG_VALUE: HAL_ADC_UnRegisterCallback:CallbackID <- $r1
	@DEBUG_VALUE: HAL_ADC_UnRegisterCallback:hadc <- $r0
	@DEBUG_VALUE: HAL_ADC_UnRegisterCallback:status <- 0
	.loc	7 0 0 is_stmt 0                 @ ../src/driver/stm32g4-v120/src/stm32g4xx_hal_adc.c:0:0
	movw	r1, :lower16:HAL_ADC_MspInit
.Ltmp236:
	movt	r1, :upper16:HAL_ADC_MspInit
	str.w	r1, [r0, #144]
	b	.LBB11_19
.Ltmp237:
.LBB11_10:
	@DEBUG_VALUE: HAL_ADC_UnRegisterCallback:CallbackID <- $r1
	@DEBUG_VALUE: HAL_ADC_UnRegisterCallback:hadc <- $r0
	@DEBUG_VALUE: HAL_ADC_UnRegisterCallback:status <- 0
	movw	r1, :lower16:HAL_ADC_MspDeInit
.Ltmp238:
	movt	r1, :upper16:HAL_ADC_MspDeInit
	str.w	r1, [r0, #148]
	b	.LBB11_19
.Ltmp239:
.LBB11_11:
	@DEBUG_VALUE: HAL_ADC_UnRegisterCallback:CallbackID <- $r1
	@DEBUG_VALUE: HAL_ADC_UnRegisterCallback:hadc <- $r0
	@DEBUG_VALUE: HAL_ADC_UnRegisterCallback:status <- 0
	.loc	7 1113 36 is_stmt 1             @ ../src/driver/stm32g4-v120/src/stm32g4xx_hal_adc.c:1113:36
	movw	r1, :lower16:HAL_ADC_ConvHalfCpltCallback
.Ltmp240:
	movt	r1, :upper16:HAL_ADC_ConvHalfCpltCallback
	str	r1, [r0, #112]
	b	.LBB11_19
.Ltmp241:
.LBB11_12:
	@DEBUG_VALUE: HAL_ADC_UnRegisterCallback:CallbackID <- $r1
	@DEBUG_VALUE: HAL_ADC_UnRegisterCallback:hadc <- $r0
	@DEBUG_VALUE: HAL_ADC_UnRegisterCallback:status <- 0
	.loc	7 1117 40                       @ ../src/driver/stm32g4-v120/src/stm32g4xx_hal_adc.c:1117:40
	movw	r1, :lower16:HAL_ADC_LevelOutOfWindowCallback
.Ltmp242:
	movt	r1, :upper16:HAL_ADC_LevelOutOfWindowCallback
	str	r1, [r0, #116]
	b	.LBB11_19
.Ltmp243:
.LBB11_13:
	@DEBUG_VALUE: HAL_ADC_UnRegisterCallback:CallbackID <- $r1
	@DEBUG_VALUE: HAL_ADC_UnRegisterCallback:hadc <- $r0
	@DEBUG_VALUE: HAL_ADC_UnRegisterCallback:status <- 0
	.loc	7 1121 29                       @ ../src/driver/stm32g4-v120/src/stm32g4xx_hal_adc.c:1121:29
	movw	r1, :lower16:HAL_ADC_ErrorCallback
.Ltmp244:
	movt	r1, :upper16:HAL_ADC_ErrorCallback
	str	r1, [r0, #120]
	b	.LBB11_19
.Ltmp245:
.LBB11_14:
	@DEBUG_VALUE: HAL_ADC_UnRegisterCallback:CallbackID <- $r1
	@DEBUG_VALUE: HAL_ADC_UnRegisterCallback:hadc <- $r0
	@DEBUG_VALUE: HAL_ADC_UnRegisterCallback:status <- 0
	.loc	7 1125 40                       @ ../src/driver/stm32g4-v120/src/stm32g4xx_hal_adc.c:1125:40
	movw	r1, :lower16:HAL_ADCEx_InjectedConvCpltCallback
.Ltmp246:
	movt	r1, :upper16:HAL_ADCEx_InjectedConvCpltCallback
	str	r1, [r0, #124]
	b	.LBB11_19
.Ltmp247:
.LBB11_15:
	@DEBUG_VALUE: HAL_ADC_UnRegisterCallback:CallbackID <- $r1
	@DEBUG_VALUE: HAL_ADC_UnRegisterCallback:hadc <- $r0
	@DEBUG_VALUE: HAL_ADC_UnRegisterCallback:status <- 0
	.loc	7 1129 45                       @ ../src/driver/stm32g4-v120/src/stm32g4xx_hal_adc.c:1129:45
	movw	r1, :lower16:HAL_ADCEx_InjectedQueueOverflowCallback
.Ltmp248:
	movt	r1, :upper16:HAL_ADCEx_InjectedQueueOverflowCallback
	str.w	r1, [r0, #128]
	b	.LBB11_19
.Ltmp249:
.LBB11_16:
	@DEBUG_VALUE: HAL_ADC_UnRegisterCallback:CallbackID <- $r1
	@DEBUG_VALUE: HAL_ADC_UnRegisterCallback:hadc <- $r0
	@DEBUG_VALUE: HAL_ADC_UnRegisterCallback:status <- 0
	.loc	7 1133 41                       @ ../src/driver/stm32g4-v120/src/stm32g4xx_hal_adc.c:1133:41
	movw	r1, :lower16:HAL_ADCEx_LevelOutOfWindow2Callback
.Ltmp250:
	movt	r1, :upper16:HAL_ADCEx_LevelOutOfWindow2Callback
	str.w	r1, [r0, #132]
	b	.LBB11_19
.Ltmp251:
.LBB11_17:
	@DEBUG_VALUE: HAL_ADC_UnRegisterCallback:CallbackID <- $r1
	@DEBUG_VALUE: HAL_ADC_UnRegisterCallback:hadc <- $r0
	@DEBUG_VALUE: HAL_ADC_UnRegisterCallback:status <- 0
	.loc	7 1137 41                       @ ../src/driver/stm32g4-v120/src/stm32g4xx_hal_adc.c:1137:41
	movw	r1, :lower16:HAL_ADCEx_LevelOutOfWindow3Callback
.Ltmp252:
	movt	r1, :upper16:HAL_ADCEx_LevelOutOfWindow3Callback
	str.w	r1, [r0, #136]
	b	.LBB11_19
.Ltmp253:
.LBB11_18:
	@DEBUG_VALUE: HAL_ADC_UnRegisterCallback:CallbackID <- $r1
	@DEBUG_VALUE: HAL_ADC_UnRegisterCallback:hadc <- $r0
	@DEBUG_VALUE: HAL_ADC_UnRegisterCallback:status <- 0
	.loc	7 1141 37                       @ ../src/driver/stm32g4-v120/src/stm32g4xx_hal_adc.c:1141:37
	movw	r1, :lower16:HAL_ADCEx_EndOfSamplingCallback
.Ltmp254:
	movt	r1, :upper16:HAL_ADCEx_EndOfSamplingCallback
	str.w	r1, [r0, #140]
.Ltmp255:
.LBB11_19:
	@DEBUG_VALUE: HAL_ADC_UnRegisterCallback:hadc <- $r0
	@DEBUG_VALUE: HAL_ADC_UnRegisterCallback:status <- 0
	.loc	7 0 37 is_stmt 0                @ ../src/driver/stm32g4-v120/src/stm32g4xx_hal_adc.c:0:37
	movs	r0, #0
.Ltmp256:
	@DEBUG_VALUE: HAL_ADC_UnRegisterCallback:hadc <- [DW_OP_LLVM_entry_value 1] $r0
	@DEBUG_VALUE: HAL_ADC_UnRegisterCallback:status <- $r0
	.loc	7 1191 3 is_stmt 1              @ ../src/driver/stm32g4-v120/src/stm32g4xx_hal_adc.c:1191:3
	bx	lr
.Ltmp257:
.Lfunc_end11:
	.size	HAL_ADC_UnRegisterCallback, .Lfunc_end11-HAL_ADC_UnRegisterCallback
	.cfi_endproc
	.cantunwind
	.fnend
                                        @ -- End function
	.section	.text.HAL_ADC_Start,"ax",%progbits
	.hidden	HAL_ADC_Start                   @ -- Begin function HAL_ADC_Start
	.globl	HAL_ADC_Start
	.p2align	1
	.type	HAL_ADC_Start,%function
	.code	16                              @ @HAL_ADC_Start
	.thumb_func
HAL_ADC_Start:
.Lfunc_begin12:
	.loc	7 1232 0                        @ ../src/driver/stm32g4-v120/src/stm32g4xx_hal_adc.c:1232:0
	.fnstart
	.cfi_startproc
@ %bb.0:
	@DEBUG_VALUE: HAL_ADC_Start:hadc <- $r0
	.save	{r4, r5, r6, lr}
	push	{r4, r5, r6, lr}
	.cfi_def_cfa_offset 16
	.cfi_offset lr, -4
	.cfi_offset r6, -8
	.cfi_offset r5, -12
	.cfi_offset r4, -16
	movw	r5, #776
	mov	r4, r0
	movt	r5, #20480
.Ltmp258:
	@DEBUG_VALUE: HAL_ADC_Start:hadc <- $r4
	.loc	7 1236 55 prologue_end          @ ../src/driver/stm32g4-v120/src/stm32g4xx_hal_adc.c:1236:55
	ldr	r0, [r0]
	sub.w	r1, r5, #520
.Ltmp259:
	@DEBUG_VALUE: LL_ADC_GetMultimode:ADCxy_COMMON <- undef
	.loc	8 6379 21                       @ ../src/driver/stm32g4-v120/inc/stm32g4xx_ll_adc.h:6379:21
	add.w	r2, r5, #1024
	cmp	r0, r1
	itt	eq
	movweq	r2, #776
	movteq	r2, #20480
	cmp.w	r0, #1342177280
	itt	eq
	movweq	r2, #776
	movteq	r2, #20480
	ldr	r6, [r2]
.Ltmp260:
	@DEBUG_VALUE: LL_ADC_REG_IsConversionOngoing:ADCx <- $r0
	@DEBUG_VALUE: HAL_ADC_Start:tmp_multimode_config <- undef
	.loc	8 6838 12                       @ ../src/driver/stm32g4-v120/inc/stm32g4xx_ll_adc.h:6838:12
	ldr	r0, [r0, #8]
.Ltmp261:
	.loc	7 1243 7                        @ ../src/driver/stm32g4-v120/src/stm32g4xx_hal_adc.c:1243:7
	lsls	r0, r0, #29
	bmi	.LBB12_2
.Ltmp262:
@ %bb.1:
	@DEBUG_VALUE: HAL_ADC_Start:hadc <- $r4
	@DEBUG_VALUE: HAL_ADC_Start:tmp_multimode_config <- undef
	.loc	7 1246 5                        @ ../src/driver/stm32g4-v120/src/stm32g4xx_hal_adc.c:1246:5
	ldrb.w	r0, [r4, #88]
.Ltmp263:
	.loc	7 1246 5 is_stmt 0              @ ../src/driver/stm32g4-v120/src/stm32g4xx_hal_adc.c:1246:5
	cmp	r0, #1
	bne	.LBB12_3
.Ltmp264:
.LBB12_2:
	@DEBUG_VALUE: HAL_ADC_Start:hadc <- $r4
	.loc	7 0 5                           @ ../src/driver/stm32g4-v120/src/stm32g4xx_hal_adc.c:0:5
	movs	r0, #2
	.loc	7 1355 1 is_stmt 1              @ ../src/driver/stm32g4-v120/src/stm32g4xx_hal_adc.c:1355:1
	pop	{r4, r5, r6, pc}
.Ltmp265:
.LBB12_3:
	@DEBUG_VALUE: HAL_ADC_Start:hadc <- $r4
	@DEBUG_VALUE: HAL_ADC_Start:tmp_multimode_config <- undef
	.loc	7 0 1 is_stmt 0                 @ ../src/driver/stm32g4-v120/src/stm32g4xx_hal_adc.c:0:1
	movs	r0, #1
.Ltmp266:
	.loc	7 1246 5 is_stmt 1              @ ../src/driver/stm32g4-v120/src/stm32g4xx_hal_adc.c:1246:5
	strb.w	r0, [r4, #88]
.Ltmp267:
	.loc	7 1249 22                       @ ../src/driver/stm32g4-v120/src/stm32g4xx_hal_adc.c:1249:22
	mov	r0, r4
	bl	ADC_Enable
.Ltmp268:
	@DEBUG_VALUE: HAL_ADC_Start:tmp_hal_status <- $r0
	.loc	7 1252 9                        @ ../src/driver/stm32g4-v120/src/stm32g4xx_hal_adc.c:1252:9
	cbz	r0, .LBB12_5
.Ltmp269:
@ %bb.4:
	@DEBUG_VALUE: HAL_ADC_Start:hadc <- $r4
	@DEBUG_VALUE: HAL_ADC_Start:tmp_hal_status <- $r0
	.loc	7 0 9 is_stmt 0                 @ ../src/driver/stm32g4-v120/src/stm32g4xx_hal_adc.c:0:9
	movs	r1, #0
.Ltmp270:
	.loc	7 1345 7 is_stmt 1              @ ../src/driver/stm32g4-v120/src/stm32g4xx_hal_adc.c:1345:7
	strb.w	r1, [r4, #88]
.Ltmp271:
	.loc	7 1355 1                        @ ../src/driver/stm32g4-v120/src/stm32g4xx_hal_adc.c:1355:1
	pop	{r4, r5, r6, pc}
.Ltmp272:
.LBB12_5:
	@DEBUG_VALUE: HAL_ADC_Start:hadc <- $r4
	@DEBUG_VALUE: HAL_ADC_Start:tmp_hal_status <- $r0
	.loc	7 1265 12                       @ ../src/driver/stm32g4-v120/src/stm32g4xx_hal_adc.c:1265:12
	ldr	r0, [r4]
.Ltmp273:
	.loc	7 1257 7                        @ ../src/driver/stm32g4-v120/src/stm32g4xx_hal_adc.c:1257:7
	ldr	r1, [r4, #92]
	movw	r2, #3841
	bics	r1, r2
	movw	r2, #256
	movt	r2, #20480
	movw	r12, #1280
	and	r3, r6, #31
.Ltmp274:
	@DEBUG_VALUE: HAL_ADC_Start:tmp_multimode_config <- $r3
	add.w	r1, r1, #256
.Ltmp275:
	.loc	7 1265 12                       @ ../src/driver/stm32g4-v120/src/stm32g4xx_hal_adc.c:1265:12
	cmp	r0, r2
	movt	r12, #20480
.Ltmp276:
	.loc	7 1257 7                        @ ../src/driver/stm32g4-v120/src/stm32g4xx_hal_adc.c:1257:7
	str	r1, [r4, #92]
.Ltmp277:
	.loc	7 1265 12                       @ ../src/driver/stm32g4-v120/src/stm32g4xx_hal_adc.c:1265:12
	beq	.LBB12_8
.Ltmp278:
@ %bb.6:
	@DEBUG_VALUE: HAL_ADC_Start:hadc <- $r4
	@DEBUG_VALUE: HAL_ADC_Start:tmp_multimode_config <- $r3
	cmp	r0, r12
	bne	.LBB12_11
.Ltmp279:
@ %bb.7:
	@DEBUG_VALUE: HAL_ADC_Start:hadc <- $r4
	@DEBUG_VALUE: HAL_ADC_Start:tmp_multimode_config <- $r3
	add.w	r6, r5, #248
	b	.LBB12_9
.Ltmp280:
.LBB12_8:
	@DEBUG_VALUE: HAL_ADC_Start:hadc <- $r4
	@DEBUG_VALUE: HAL_ADC_Start:tmp_multimode_config <- $r3
	.loc	7 0 12 is_stmt 0                @ ../src/driver/stm32g4-v120/src/stm32g4xx_hal_adc.c:0:12
	mov.w	r6, #1342177280
.Ltmp281:
.LBB12_9:
	@DEBUG_VALUE: HAL_ADC_Start:hadc <- $r4
	@DEBUG_VALUE: HAL_ADC_Start:tmp_multimode_config <- $r3
	.loc	7 1266 11 is_stmt 1             @ ../src/driver/stm32g4-v120/src/stm32g4xx_hal_adc.c:1266:11
	cbz	r3, .LBB12_11
.Ltmp282:
@ %bb.10:
	@DEBUG_VALUE: HAL_ADC_Start:hadc <- $r4
	@DEBUG_VALUE: HAL_ADC_Start:tmp_multimode_config <- $r3
	cmp	r6, r0
	bne	.LBB12_12
.Ltmp283:
.LBB12_11:
	@DEBUG_VALUE: HAL_ADC_Start:hadc <- $r4
	@DEBUG_VALUE: HAL_ADC_Start:tmp_multimode_config <- $r3
	.loc	7 1269 9                        @ ../src/driver/stm32g4-v120/src/stm32g4xx_hal_adc.c:1269:9
	ldr	r1, [r4, #92]
	bic	r1, r1, #1048576
	str	r1, [r4, #92]
.Ltmp284:
.LBB12_12:
	@DEBUG_VALUE: HAL_ADC_Start:hadc <- $r4
	@DEBUG_VALUE: HAL_ADC_Start:tmp_multimode_config <- $r3
	.loc	7 1275 11                       @ ../src/driver/stm32g4-v120/src/stm32g4xx_hal_adc.c:1275:11
	ldr	r1, [r4, #92]
	movs	r6, #0
.Ltmp285:
	.loc	7 1275 11 is_stmt 0             @ ../src/driver/stm32g4-v120/src/stm32g4xx_hal_adc.c:1275:11
	lsls	r1, r1, #19
	mov.w	r1, #0
.Ltmp286:
	.loc	7 1278 9 is_stmt 1              @ ../src/driver/stm32g4-v120/src/stm32g4xx_hal_adc.c:1278:9
	itt	mi
	ldrmi	r1, [r4, #96]
	bicmi	r1, r1, #6
.Ltmp287:
	.loc	7 0 0 is_stmt 0                 @ ../src/driver/stm32g4-v120/src/stm32g4xx_hal_adc.c:0:0
	str	r1, [r4, #96]
	movs	r1, #28
.Ltmp288:
	.loc	7 1304 12 is_stmt 1             @ ../src/driver/stm32g4-v120/src/stm32g4xx_hal_adc.c:1304:12
	cmp	r0, r2
.Ltmp289:
	.loc	7 1288 7                        @ ../src/driver/stm32g4-v120/src/stm32g4xx_hal_adc.c:1288:7
	str	r1, [r0]
.Ltmp290:
	.loc	7 1293 7                        @ ../src/driver/stm32g4-v120/src/stm32g4xx_hal_adc.c:1293:7
	strb.w	r6, [r4, #88]
.Ltmp291:
	.loc	7 1304 12                       @ ../src/driver/stm32g4-v120/src/stm32g4xx_hal_adc.c:1304:12
	beq	.LBB12_15
.Ltmp292:
@ %bb.13:
	@DEBUG_VALUE: HAL_ADC_Start:hadc <- $r4
	@DEBUG_VALUE: HAL_ADC_Start:tmp_multimode_config <- $r3
	cmp	r0, r12
	bne	.LBB12_19
.Ltmp293:
@ %bb.14:
	@DEBUG_VALUE: HAL_ADC_Start:hadc <- $r4
	@DEBUG_VALUE: HAL_ADC_Start:tmp_multimode_config <- $r3
	add.w	r6, r5, #248
	b	.LBB12_16
.Ltmp294:
.LBB12_15:
	@DEBUG_VALUE: HAL_ADC_Start:hadc <- $r4
	@DEBUG_VALUE: HAL_ADC_Start:tmp_multimode_config <- $r3
	.loc	7 0 12 is_stmt 0                @ ../src/driver/stm32g4-v120/src/stm32g4xx_hal_adc.c:0:12
	mov.w	r6, #1342177280
.Ltmp295:
.LBB12_16:
	@DEBUG_VALUE: HAL_ADC_Start:hadc <- $r4
	@DEBUG_VALUE: HAL_ADC_Start:tmp_multimode_config <- $r3
	.loc	7 1305 11 is_stmt 1             @ ../src/driver/stm32g4-v120/src/stm32g4xx_hal_adc.c:1305:11
	cmp	r6, r0
	beq	.LBB12_19
.Ltmp296:
@ %bb.17:
	@DEBUG_VALUE: HAL_ADC_Start:hadc <- $r4
	@DEBUG_VALUE: HAL_ADC_Start:tmp_multimode_config <- $r3
	cmp	r3, #9
	bhi	.LBB12_23
.Ltmp297:
@ %bb.18:
	@DEBUG_VALUE: HAL_ADC_Start:hadc <- $r4
	@DEBUG_VALUE: HAL_ADC_Start:tmp_multimode_config <- $r3
	.loc	7 0 11 is_stmt 0                @ ../src/driver/stm32g4-v120/src/stm32g4xx_hal_adc.c:0:11
	movs	r1, #1
	lsls	r1, r3
	movw	r3, #545
.Ltmp298:
	tst	r1, r3
	beq	.LBB12_23
.Ltmp299:
.LBB12_19:
	@DEBUG_VALUE: HAL_ADC_Start:hadc <- $r4
	.loc	7 1311 13 is_stmt 1             @ ../src/driver/stm32g4-v120/src/stm32g4xx_hal_adc.c:1311:13
	ldr	r1, [r0, #12]
.Ltmp300:
	.loc	7 1311 13 is_stmt 0             @ ../src/driver/stm32g4-v120/src/stm32g4xx_hal_adc.c:1311:13
	lsls	r1, r1, #6
	bpl	.LBB12_21
.Ltmp301:
@ %bb.20:
	@DEBUG_VALUE: HAL_ADC_Start:hadc <- $r4
	.loc	7 1313 11 is_stmt 1             @ ../src/driver/stm32g4-v120/src/stm32g4xx_hal_adc.c:1313:11
	ldr	r1, [r4, #92]
	movs	r2, #1
	bfi	r1, r2, #12, #2
	str	r1, [r4, #92]
.Ltmp302:
.LBB12_21:
	@DEBUG_VALUE: HAL_ADC_Start:hadc <- $r4
	@DEBUG_VALUE: LL_ADC_REG_StartConversion:ADCx <- $r0
	.loc	8 6805 3                        @ ../src/driver/stm32g4-v120/inc/stm32g4xx_ll_adc.h:6805:3
	ldr	r1, [r0, #8]
	movw	r2, #65472
	movt	r2, #32767
	ands	r1, r2
	adds	r1, #4
	str	r1, [r0, #8]
.Ltmp303:
.LBB12_22:
	@DEBUG_VALUE: HAL_ADC_Start:hadc <- $r4
	.loc	8 0 3 is_stmt 0                 @ ../src/driver/stm32g4-v120/inc/stm32g4xx_ll_adc.h:0:3
	movs	r0, #0
	.loc	7 1355 1 is_stmt 1              @ ../src/driver/stm32g4-v120/src/stm32g4xx_hal_adc.c:1355:1
	pop	{r4, r5, r6, pc}
.Ltmp304:
.LBB12_23:
	@DEBUG_VALUE: HAL_ADC_Start:hadc <- $r4
	.loc	7 1322 9                        @ ../src/driver/stm32g4-v120/src/stm32g4xx_hal_adc.c:1322:9
	ldr	r1, [r4, #92]
	.loc	7 1325 25                       @ ../src/driver/stm32g4-v120/src/stm32g4xx_hal_adc.c:1325:25
	cmp	r0, r2
	.loc	7 1322 9                        @ ../src/driver/stm32g4-v120/src/stm32g4xx_hal_adc.c:1322:9
	orr	r1, r1, #1048576
	str	r1, [r4, #92]
	.loc	7 1325 25                       @ ../src/driver/stm32g4-v120/src/stm32g4xx_hal_adc.c:1325:25
	beq	.LBB12_25
.Ltmp305:
@ %bb.24:
	@DEBUG_VALUE: HAL_ADC_Start:hadc <- $r4
	cmp	r0, r12
	it	eq
	addeq.w	r0, r5, #248
	b	.LBB12_26
.Ltmp306:
.LBB12_25:
	@DEBUG_VALUE: HAL_ADC_Start:hadc <- $r4
	.loc	7 0 25 is_stmt 0                @ ../src/driver/stm32g4-v120/src/stm32g4xx_hal_adc.c:0:25
	mov.w	r0, #1342177280
.Ltmp307:
.LBB12_26:
	@DEBUG_VALUE: HAL_ADC_Start:hadc <- $r4
	@DEBUG_VALUE: HAL_ADC_Start:tmpADC_Master <- $r0
	.loc	7 1326 13 is_stmt 1             @ ../src/driver/stm32g4-v120/src/stm32g4xx_hal_adc.c:1326:13
	ldr	r0, [r0, #12]
.Ltmp308:
	.loc	7 1326 13 is_stmt 0             @ ../src/driver/stm32g4-v120/src/stm32g4xx_hal_adc.c:1326:13
	lsls	r0, r0, #6
	bpl	.LBB12_22
.Ltmp309:
@ %bb.27:
	@DEBUG_VALUE: HAL_ADC_Start:hadc <- $r4
	.loc	7 1328 11 is_stmt 1             @ ../src/driver/stm32g4-v120/src/stm32g4xx_hal_adc.c:1328:11
	ldr	r0, [r4, #92]
	movs	r1, #1
	bfi	r0, r1, #12, #2
	str	r0, [r4, #92]
	b	.LBB12_22
.Ltmp310:
.Lfunc_end12:
	.size	HAL_ADC_Start, .Lfunc_end12-HAL_ADC_Start
	.cfi_endproc
	.cantunwind
	.fnend
                                        @ -- End function
	.section	.text.ADC_Enable,"ax",%progbits
	.hidden	ADC_Enable                      @ -- Begin function ADC_Enable
	.globl	ADC_Enable
	.p2align	1
	.type	ADC_Enable,%function
	.code	16                              @ @ADC_Enable
	.thumb_func
ADC_Enable:
.Lfunc_begin13:
	.loc	7 3417 0                        @ ../src/driver/stm32g4-v120/src/stm32g4xx_hal_adc.c:3417:0
	.fnstart
	.cfi_startproc
@ %bb.0:
	@DEBUG_VALUE: ADC_Enable:hadc <- $r0
	.save	{r4, r5, r6, lr}
	push	{r4, r5, r6, lr}
	.cfi_def_cfa_offset 16
	.cfi_offset lr, -4
	.cfi_offset r6, -8
	.cfi_offset r5, -12
	.cfi_offset r4, -16
	mov	r4, r0
.Ltmp311:
	@DEBUG_VALUE: ADC_Enable:hadc <- $r4
	.loc	7 3424 30 prologue_end          @ ../src/driver/stm32g4-v120/src/stm32g4xx_hal_adc.c:3424:30
	ldr	r0, [r0]
.Ltmp312:
	@DEBUG_VALUE: LL_ADC_IsEnabled:ADCx <- $r0
	.loc	8 6716 12                       @ ../src/driver/stm32g4-v120/inc/stm32g4xx_ll_adc.h:6716:12
	ldr	r1, [r0, #8]
.Ltmp313:
	.loc	7 3424 7                        @ ../src/driver/stm32g4-v120/src/stm32g4xx_hal_adc.c:3424:7
	lsls	r1, r1, #31
	bne	.LBB13_8
.Ltmp314:
@ %bb.1:
	@DEBUG_VALUE: ADC_Enable:hadc <- $r4
	.loc	7 0 7 is_stmt 0                 @ ../src/driver/stm32g4-v120/src/stm32g4xx_hal_adc.c:0:7
	movw	r6, #65472
	movt	r6, #32767
.Ltmp315:
	.loc	7 3427 26 is_stmt 1             @ ../src/driver/stm32g4-v120/src/stm32g4xx_hal_adc.c:3427:26
	ldr	r1, [r0, #8]
	.loc	7 3427 29 is_stmt 0             @ ../src/driver/stm32g4-v120/src/stm32g4xx_hal_adc.c:3427:29
	add.w	r2, r6, #127
.Ltmp316:
	.loc	7 3427 9                        @ ../src/driver/stm32g4-v120/src/stm32g4xx_hal_adc.c:3427:9
	tst	r1, r2
	bne	.LBB13_7
.Ltmp317:
@ %bb.2:
	@DEBUG_VALUE: ADC_Enable:hadc <- $r4
	@DEBUG_VALUE: LL_ADC_Enable:ADCx <- $r0
	.loc	8 6680 3 is_stmt 1              @ ../src/driver/stm32g4-v120/inc/stm32g4xx_ll_adc.h:6680:3
	ldr	r1, [r0, #8]
	ands	r1, r6
	orr	r1, r1, #1
	str	r1, [r0, #8]
.Ltmp318:
	.loc	7 3442 17                       @ ../src/driver/stm32g4-v120/src/stm32g4xx_hal_adc.c:3442:17
	bl	HAL_GetTick
.Ltmp319:
	mov	r5, r0
.Ltmp320:
	@DEBUG_VALUE: ADC_Enable:tickstart <- $r5
	.p2align	2
.LBB13_3:                               @ =>This Inner Loop Header: Depth=1
	@DEBUG_VALUE: ADC_Enable:tickstart <- $r5
	@DEBUG_VALUE: ADC_Enable:hadc <- $r4
	.loc	7 3444 12                       @ ../src/driver/stm32g4-v120/src/stm32g4xx_hal_adc.c:3444:12
	ldr	r0, [r4]
	ldr	r1, [r0]
	.loc	7 3444 5 is_stmt 0              @ ../src/driver/stm32g4-v120/src/stm32g4xx_hal_adc.c:3444:5
	lsls	r1, r1, #31
	bne	.LBB13_8
.Ltmp321:
@ %bb.4:                                @   in Loop: Header=BB13_3 Depth=1
	@DEBUG_VALUE: ADC_Enable:tickstart <- $r5
	@DEBUG_VALUE: ADC_Enable:hadc <- $r4
	@DEBUG_VALUE: LL_ADC_IsEnabled:ADCx <- $r0
	.loc	8 6716 12 is_stmt 1             @ ../src/driver/stm32g4-v120/inc/stm32g4xx_ll_adc.h:6716:12
	ldr	r1, [r0, #8]
.Ltmp322:
	.loc	7 3454 11                       @ ../src/driver/stm32g4-v120/src/stm32g4xx_hal_adc.c:3454:11
	lsls	r1, r1, #31
	bne	.LBB13_6
.Ltmp323:
@ %bb.5:                                @   in Loop: Header=BB13_3 Depth=1
	@DEBUG_VALUE: ADC_Enable:tickstart <- $r5
	@DEBUG_VALUE: ADC_Enable:hadc <- $r4
	@DEBUG_VALUE: LL_ADC_Enable:ADCx <- $r0
	.loc	8 6680 3                        @ ../src/driver/stm32g4-v120/inc/stm32g4xx_ll_adc.h:6680:3
	ldr	r1, [r0, #8]
	ands	r1, r6
	orr	r1, r1, #1
	str	r1, [r0, #8]
.Ltmp324:
.LBB13_6:                               @   in Loop: Header=BB13_3 Depth=1
	@DEBUG_VALUE: ADC_Enable:tickstart <- $r5
	@DEBUG_VALUE: ADC_Enable:hadc <- $r4
	.loc	7 3459 12                       @ ../src/driver/stm32g4-v120/src/stm32g4xx_hal_adc.c:3459:12
	bl	HAL_GetTick
.Ltmp325:
	.loc	7 3459 26 is_stmt 0             @ ../src/driver/stm32g4-v120/src/stm32g4xx_hal_adc.c:3459:26
	subs	r0, r0, r5
.Ltmp326:
	.loc	7 3459 11                       @ ../src/driver/stm32g4-v120/src/stm32g4xx_hal_adc.c:3459:11
	cmp	r0, #3
	blo	.LBB13_3
.Ltmp327:
.LBB13_7:
	@DEBUG_VALUE: ADC_Enable:hadc <- $r4
	.loc	7 0 0                           @ ../src/driver/stm32g4-v120/src/stm32g4xx_hal_adc.c:0:0
	ldr	r0, [r4, #92]
	orr	r0, r0, #16
	str	r0, [r4, #92]
	ldr	r0, [r4, #96]
	orr	r0, r0, #1
	str	r0, [r4, #96]
	movs	r0, #1
.Ltmp328:
	.loc	7 3474 1 is_stmt 1              @ ../src/driver/stm32g4-v120/src/stm32g4xx_hal_adc.c:3474:1
	pop	{r4, r5, r6, pc}
.Ltmp329:
.LBB13_8:
	@DEBUG_VALUE: ADC_Enable:hadc <- $r4
	.loc	7 0 1 is_stmt 0                 @ ../src/driver/stm32g4-v120/src/stm32g4xx_hal_adc.c:0:1
	movs	r0, #0
	.loc	7 3474 1                        @ ../src/driver/stm32g4-v120/src/stm32g4xx_hal_adc.c:3474:1
	pop	{r4, r5, r6, pc}
.Ltmp330:
.Lfunc_end13:
	.size	ADC_Enable, .Lfunc_end13-ADC_Enable
	.cfi_endproc
	.cantunwind
	.fnend
                                        @ -- End function
	.section	.text.HAL_ADC_Stop,"ax",%progbits
	.hidden	HAL_ADC_Stop                    @ -- Begin function HAL_ADC_Stop
	.globl	HAL_ADC_Stop
	.p2align	1
	.type	HAL_ADC_Stop,%function
	.code	16                              @ @HAL_ADC_Stop
	.thumb_func
HAL_ADC_Stop:
.Lfunc_begin14:
	.loc	7 1367 0 is_stmt 1              @ ../src/driver/stm32g4-v120/src/stm32g4xx_hal_adc.c:1367:0
	.fnstart
	.cfi_startproc
@ %bb.0:
	@DEBUG_VALUE: HAL_ADC_Stop:hadc <- $r0
	.save	{r4, lr}
	push	{r4, lr}
	.cfi_def_cfa_offset 8
	.cfi_offset lr, -4
	.cfi_offset r4, -8
	mov	r4, r0
.Ltmp331:
	@DEBUG_VALUE: HAL_ADC_Stop:hadc <- $r4
	.loc	7 1374 3 prologue_end           @ ../src/driver/stm32g4-v120/src/stm32g4xx_hal_adc.c:1374:3
	ldrb.w	r0, [r0, #88]
.Ltmp332:
	.loc	7 1374 3 is_stmt 0              @ ../src/driver/stm32g4-v120/src/stm32g4xx_hal_adc.c:1374:3
	cmp	r0, #1
	itt	eq
	moveq	r0, #2
.Ltmp333:
	.loc	7 1400 1 is_stmt 1              @ ../src/driver/stm32g4-v120/src/stm32g4xx_hal_adc.c:1400:1
	popeq	{r4, pc}
.Ltmp334:
.LBB14_1:
	.loc	7 0 1 is_stmt 0                 @ ../src/driver/stm32g4-v120/src/stm32g4xx_hal_adc.c:0:1
	movs	r0, #1
.Ltmp335:
	.loc	7 1374 3 is_stmt 1              @ ../src/driver/stm32g4-v120/src/stm32g4xx_hal_adc.c:1374:3
	strb.w	r0, [r4, #88]
.Ltmp336:
	.loc	7 1377 20                       @ ../src/driver/stm32g4-v120/src/stm32g4xx_hal_adc.c:1377:20
	mov	r0, r4
	movs	r1, #3
	bl	ADC_ConversionStop
.Ltmp337:
	@DEBUG_VALUE: HAL_ADC_Stop:tmp_hal_status <- $r0
	.loc	7 1380 7                        @ ../src/driver/stm32g4-v120/src/stm32g4xx_hal_adc.c:1380:7
	cbnz	r0, .LBB14_4
.Ltmp338:
@ %bb.2:
	@DEBUG_VALUE: HAL_ADC_Stop:tmp_hal_status <- $r0
	.loc	7 1383 22                       @ ../src/driver/stm32g4-v120/src/stm32g4xx_hal_adc.c:1383:22
	mov	r0, r4
.Ltmp339:
	bl	ADC_Disable
.Ltmp340:
	@DEBUG_VALUE: HAL_ADC_Stop:tmp_hal_status <- $r0
	.loc	7 1386 9                        @ ../src/driver/stm32g4-v120/src/stm32g4xx_hal_adc.c:1386:9
	cbnz	r0, .LBB14_4
.Ltmp341:
@ %bb.3:
	@DEBUG_VALUE: HAL_ADC_Stop:tmp_hal_status <- $r0
	.loc	7 1389 7                        @ ../src/driver/stm32g4-v120/src/stm32g4xx_hal_adc.c:1389:7
	ldr	r0, [r4, #92]
.Ltmp342:
	.loc	7 0 7 is_stmt 0                 @ ../src/driver/stm32g4-v120/src/stm32g4xx_hal_adc.c:0:7
	movw	r1, #4353
	.loc	7 1389 7                        @ ../src/driver/stm32g4-v120/src/stm32g4xx_hal_adc.c:1389:7
	bics	r0, r1
	adds	r0, #1
	str	r0, [r4, #92]
	movs	r0, #0
.Ltmp343:
.LBB14_4:
	@DEBUG_VALUE: HAL_ADC_Stop:tmp_hal_status <- $r0
	.loc	7 0 7                           @ ../src/driver/stm32g4-v120/src/stm32g4xx_hal_adc.c:0:7
	movs	r1, #0
.Ltmp344:
	.loc	7 1396 3 is_stmt 1              @ ../src/driver/stm32g4-v120/src/stm32g4xx_hal_adc.c:1396:3
	strb.w	r1, [r4, #88]
.Ltmp345:
	.loc	7 1400 1                        @ ../src/driver/stm32g4-v120/src/stm32g4xx_hal_adc.c:1400:1
	pop	{r4, pc}
.Ltmp346:
.Lfunc_end14:
	.size	HAL_ADC_Stop, .Lfunc_end14-HAL_ADC_Stop
	.cfi_endproc
	.cantunwind
	.fnend
                                        @ -- End function
	.section	.text.HAL_ADC_PollForConversion,"ax",%progbits
	.hidden	HAL_ADC_PollForConversion       @ -- Begin function HAL_ADC_PollForConversion
	.globl	HAL_ADC_PollForConversion
	.p2align	1
	.type	HAL_ADC_PollForConversion,%function
	.code	16                              @ @HAL_ADC_PollForConversion
	.thumb_func
HAL_ADC_PollForConversion:
.Lfunc_begin15:
	.loc	7 1421 0                        @ ../src/driver/stm32g4-v120/src/stm32g4xx_hal_adc.c:1421:0
	.fnstart
	.cfi_startproc
@ %bb.0:
	@DEBUG_VALUE: HAL_ADC_PollForConversion:hadc <- $r0
	@DEBUG_VALUE: HAL_ADC_PollForConversion:Timeout <- $r1
	.save	{r4, r5, r6, r7, r8, r9, r10, r11, lr}
	push.w	{r4, r5, r6, r7, r8, r9, r10, r11, lr}
	.cfi_def_cfa_offset 36
	.cfi_offset lr, -4
	.cfi_offset r11, -8
	.cfi_offset r10, -12
	.cfi_offset r9, -16
	.cfi_offset r8, -20
	.cfi_offset r7, -24
	.cfi_offset r6, -28
	.cfi_offset r5, -32
	.cfi_offset r4, -36
	.pad	#4
	sub	sp, #4
	.cfi_def_cfa_offset 40
	movw	r9, #776
	mov	r11, r0
	movt	r9, #20480
.Ltmp347:
	@DEBUG_VALUE: HAL_ADC_PollForConversion:Timeout <- $r5
	@DEBUG_VALUE: HAL_ADC_PollForConversion:hadc <- $r11
	.loc	7 1427 55 prologue_end          @ ../src/driver/stm32g4-v120/src/stm32g4xx_hal_adc.c:1427:55
	ldr	r0, [r0]
	mov	r5, r1
.Ltmp348:
	.loc	7 0 55 is_stmt 0                @ ../src/driver/stm32g4-v120/src/stm32g4xx_hal_adc.c:0:55
	sub.w	r3, r9, #520
.Ltmp349:
	@DEBUG_VALUE: LL_ADC_GetMultimode:ADCxy_COMMON <- undef
	.loc	8 6379 21 is_stmt 1             @ ../src/driver/stm32g4-v120/inc/stm32g4xx_ll_adc.h:6379:21
	add.w	r1, r9, #1024
.Ltmp350:
	.loc	7 1434 18                       @ ../src/driver/stm32g4-v120/src/stm32g4xx_hal_adc.c:1434:18
	ldr.w	r2, [r11, #24]
.Ltmp351:
	.loc	8 6379 21                       @ ../src/driver/stm32g4-v120/inc/stm32g4xx_ll_adc.h:6379:21
	cmp	r0, r3
	itt	eq
	movweq	r1, #776
	movteq	r1, #20480
	cmp.w	r0, #1342177280
	itt	eq
	movweq	r1, #776
	movteq	r1, #20480
	ldr	r3, [r1]
.Ltmp352:
	.loc	7 1434 7                        @ ../src/driver/stm32g4-v120/src/stm32g4xx_hal_adc.c:1434:7
	cmp	r2, #8
.Ltmp353:
	.loc	8 6379 21                       @ ../src/driver/stm32g4-v120/inc/stm32g4xx_ll_adc.h:6379:21
	and	r10, r3, #31
.Ltmp354:
	@DEBUG_VALUE: HAL_ADC_PollForConversion:tmp_multimode_config <- $r10
	.loc	7 1434 7                        @ ../src/driver/stm32g4-v120/src/stm32g4xx_hal_adc.c:1434:7
	bne	.LBB15_2
.Ltmp355:
@ %bb.1:
	@DEBUG_VALUE: HAL_ADC_PollForConversion:hadc <- $r11
	@DEBUG_VALUE: HAL_ADC_PollForConversion:tmp_multimode_config <- $r10
	.loc	7 0 7 is_stmt 0                 @ ../src/driver/stm32g4-v120/src/stm32g4xx_hal_adc.c:0:7
	movs	r7, #8
	mov.w	r8, #1
	b	.LBB15_6
.Ltmp356:
.LBB15_2:
	@DEBUG_VALUE: HAL_ADC_PollForConversion:hadc <- $r11
	@DEBUG_VALUE: HAL_ADC_PollForConversion:tmp_multimode_config <- $r10
	.loc	7 1449 9 is_stmt 1              @ ../src/driver/stm32g4-v120/src/stm32g4xx_hal_adc.c:1449:9
	cmp.w	r10, #9
	bhi	.LBB15_31
.Ltmp357:
@ %bb.3:
	@DEBUG_VALUE: HAL_ADC_PollForConversion:hadc <- $r11
	@DEBUG_VALUE: HAL_ADC_PollForConversion:tmp_multimode_config <- $r10
	.loc	7 0 9 is_stmt 0                 @ ../src/driver/stm32g4-v120/src/stm32g4xx_hal_adc.c:0:9
	movs	r2, #1
	lsl.w	r2, r2, r10
	movw	r3, #545
	tst	r2, r3
	beq	.LBB15_31
.Ltmp358:
@ %bb.4:
	@DEBUG_VALUE: HAL_ADC_PollForConversion:hadc <- $r11
	@DEBUG_VALUE: HAL_ADC_PollForConversion:tmp_multimode_config <- $r10
	.loc	7 1454 11 is_stmt 1             @ ../src/driver/stm32g4-v120/src/stm32g4xx_hal_adc.c:1454:11
	ldr	r0, [r0, #12]
.Ltmp359:
	.loc	7 1454 11 is_stmt 0             @ ../src/driver/stm32g4-v120/src/stm32g4xx_hal_adc.c:1454:11
	lsls	r0, r0, #31
	bne	.LBB15_32
.Ltmp360:
.LBB15_5:
	@DEBUG_VALUE: HAL_ADC_PollForConversion:hadc <- $r11
	@DEBUG_VALUE: HAL_ADC_PollForConversion:tmp_multimode_config <- $r10
	.loc	7 0 11                          @ ../src/driver/stm32g4-v120/src/stm32g4xx_hal_adc.c:0:11
	movs	r7, #4
	mov.w	r8, #0
.Ltmp361:
.LBB15_6:
	@DEBUG_VALUE: HAL_ADC_PollForConversion:hadc <- $r11
	@DEBUG_VALUE: HAL_ADC_PollForConversion:tmp_multimode_config <- $r10
	@DEBUG_VALUE: HAL_ADC_PollForConversion:tmp_Flag_End <- $r7
	.loc	7 1492 15 is_stmt 1             @ ../src/driver/stm32g4-v120/src/stm32g4xx_hal_adc.c:1492:15
	bl	HAL_GetTick
.Ltmp362:
	.loc	7 1495 17                       @ ../src/driver/stm32g4-v120/src/stm32g4xx_hal_adc.c:1495:17
	ldr.w	r1, [r11]
	.loc	7 1495 27 is_stmt 0             @ ../src/driver/stm32g4-v120/src/stm32g4xx_hal_adc.c:1495:27
	ldr	r2, [r1]
	.loc	7 1495 3                        @ ../src/driver/stm32g4-v120/src/stm32g4xx_hal_adc.c:1495:3
	tst	r2, r7
.Ltmp363:
	@DEBUG_VALUE: HAL_ADC_PollForConversion:tickstart <- $r0
	.loc	7 0 3                           @ ../src/driver/stm32g4-v120/src/stm32g4xx_hal_adc.c:0:3
	bne	.LBB15_13
.Ltmp364:
@ %bb.7:
	@DEBUG_VALUE: HAL_ADC_PollForConversion:hadc <- $r11
	@DEBUG_VALUE: HAL_ADC_PollForConversion:tmp_multimode_config <- $r10
	@DEBUG_VALUE: HAL_ADC_PollForConversion:tmp_Flag_End <- $r7
	@DEBUG_VALUE: HAL_ADC_PollForConversion:tickstart <- $r0
	mov	r6, r0
.Ltmp365:
	@DEBUG_VALUE: HAL_ADC_PollForConversion:tickstart <- $r6
	@DEBUG_VALUE: HAL_ADC_PollForConversion:tickstart <- $r6
	adds	r4, r5, #1
.Ltmp366:
	.p2align	2
.LBB15_8:                               @ =>This Inner Loop Header: Depth=1
	@DEBUG_VALUE: HAL_ADC_PollForConversion:hadc <- $r11
	@DEBUG_VALUE: HAL_ADC_PollForConversion:tmp_multimode_config <- $r10
	@DEBUG_VALUE: HAL_ADC_PollForConversion:tmp_Flag_End <- $r7
	@DEBUG_VALUE: HAL_ADC_PollForConversion:tickstart <- $r6
	cbz	r4, .LBB15_12
.Ltmp367:
@ %bb.9:                                @   in Loop: Header=BB15_8 Depth=1
	@DEBUG_VALUE: HAL_ADC_PollForConversion:hadc <- $r11
	@DEBUG_VALUE: HAL_ADC_PollForConversion:tmp_multimode_config <- $r10
	@DEBUG_VALUE: HAL_ADC_PollForConversion:tmp_Flag_End <- $r7
	@DEBUG_VALUE: HAL_ADC_PollForConversion:tickstart <- $r6
	.loc	7 1500 13 is_stmt 1             @ ../src/driver/stm32g4-v120/src/stm32g4xx_hal_adc.c:1500:13
	bl	HAL_GetTick
.Ltmp368:
	.loc	7 1500 51 is_stmt 0             @ ../src/driver/stm32g4-v120/src/stm32g4xx_hal_adc.c:1500:51
	cmp	r5, #0
	beq	.LBB15_33
.Ltmp369:
@ %bb.10:                               @   in Loop: Header=BB15_8 Depth=1
	@DEBUG_VALUE: HAL_ADC_PollForConversion:hadc <- $r11
	@DEBUG_VALUE: HAL_ADC_PollForConversion:tmp_multimode_config <- $r10
	@DEBUG_VALUE: HAL_ADC_PollForConversion:tmp_Flag_End <- $r7
	@DEBUG_VALUE: HAL_ADC_PollForConversion:tickstart <- $r6
	.loc	7 0 0                           @ ../src/driver/stm32g4-v120/src/stm32g4xx_hal_adc.c:0:0
	subs	r0, r0, r6
	.loc	7 1500 51                       @ ../src/driver/stm32g4-v120/src/stm32g4xx_hal_adc.c:1500:51
	cmp	r0, r5
	bhi	.LBB15_33
.Ltmp370:
@ %bb.11:                               @   in Loop: Header=BB15_8 Depth=1
	@DEBUG_VALUE: HAL_ADC_PollForConversion:hadc <- $r11
	@DEBUG_VALUE: HAL_ADC_PollForConversion:tmp_multimode_config <- $r10
	@DEBUG_VALUE: HAL_ADC_PollForConversion:tmp_Flag_End <- $r7
	@DEBUG_VALUE: HAL_ADC_PollForConversion:tickstart <- $r6
	.loc	7 1495 17 is_stmt 1             @ ../src/driver/stm32g4-v120/src/stm32g4xx_hal_adc.c:1495:17
	ldr.w	r1, [r11]
.Ltmp371:
.LBB15_12:                              @   in Loop: Header=BB15_8 Depth=1
	@DEBUG_VALUE: HAL_ADC_PollForConversion:hadc <- $r11
	@DEBUG_VALUE: HAL_ADC_PollForConversion:tmp_multimode_config <- $r10
	@DEBUG_VALUE: HAL_ADC_PollForConversion:tmp_Flag_End <- $r7
	@DEBUG_VALUE: HAL_ADC_PollForConversion:tickstart <- $r6
	.loc	7 1495 27 is_stmt 0             @ ../src/driver/stm32g4-v120/src/stm32g4xx_hal_adc.c:1495:27
	ldr	r0, [r1]
	.loc	7 1495 3                        @ ../src/driver/stm32g4-v120/src/stm32g4xx_hal_adc.c:1495:3
	tst	r0, r7
	beq	.LBB15_8
.Ltmp372:
.LBB15_13:
	@DEBUG_VALUE: HAL_ADC_PollForConversion:hadc <- $r11
	@DEBUG_VALUE: HAL_ADC_PollForConversion:tmp_multimode_config <- $r10
	@DEBUG_VALUE: HAL_ADC_PollForConversion:tmp_Flag_End <- $r7
	.loc	7 1514 3 is_stmt 1              @ ../src/driver/stm32g4-v120/src/stm32g4xx_hal_adc.c:1514:3
	ldr.w	r2, [r11, #92]
	.loc	7 1495 27                       @ ../src/driver/stm32g4-v120/src/stm32g4xx_hal_adc.c:1495:27
	mov	r0, r1
	.loc	7 1514 3                        @ ../src/driver/stm32g4-v120/src/stm32g4xx_hal_adc.c:1514:3
	orr	r2, r2, #512
	str.w	r2, [r11, #92]
.Ltmp373:
	@DEBUG_VALUE: LL_ADC_REG_IsTriggerSourceSWStart:ADCx <- $r1
	.loc	8 3744 12                       @ ../src/driver/stm32g4-v120/inc/stm32g4xx_ll_adc.h:3744:12
	ldr	r2, [r1, #12]
.Ltmp374:
	.loc	7 1519 7                        @ ../src/driver/stm32g4-v120/src/stm32g4xx_hal_adc.c:1519:7
	tst.w	r2, #3072
	bne	.LBB15_18
.Ltmp375:
@ %bb.14:
	@DEBUG_VALUE: HAL_ADC_PollForConversion:hadc <- $r11
	@DEBUG_VALUE: HAL_ADC_PollForConversion:tmp_multimode_config <- $r10
	@DEBUG_VALUE: HAL_ADC_PollForConversion:tmp_Flag_End <- $r7
	.loc	7 1519 22 is_stmt 0             @ ../src/driver/stm32g4-v120/src/stm32g4xx_hal_adc.c:1519:22
	ldrb.w	r2, [r11, #29]
	cbnz	r2, .LBB15_18
.Ltmp376:
@ %bb.15:
	@DEBUG_VALUE: HAL_ADC_PollForConversion:hadc <- $r11
	@DEBUG_VALUE: HAL_ADC_PollForConversion:tmp_multimode_config <- $r10
	@DEBUG_VALUE: HAL_ADC_PollForConversion:tmp_Flag_End <- $r7
	.loc	7 1523 9 is_stmt 1              @ ../src/driver/stm32g4-v120/src/stm32g4xx_hal_adc.c:1523:9
	ldr	r2, [r0]
.Ltmp377:
	.loc	7 1523 9 is_stmt 0              @ ../src/driver/stm32g4-v120/src/stm32g4xx_hal_adc.c:1523:9
	lsls	r2, r2, #28
	bpl	.LBB15_18
.Ltmp378:
@ %bb.16:
	@DEBUG_VALUE: HAL_ADC_PollForConversion:hadc <- $r11
	@DEBUG_VALUE: HAL_ADC_PollForConversion:tmp_multimode_config <- $r10
	@DEBUG_VALUE: HAL_ADC_PollForConversion:tmp_Flag_End <- $r7
	.loc	7 1526 7 is_stmt 1              @ ../src/driver/stm32g4-v120/src/stm32g4xx_hal_adc.c:1526:7
	ldr.w	r2, [r11, #92]
	bic	r2, r2, #256
	str.w	r2, [r11, #92]
.Ltmp379:
	.loc	7 1528 18                       @ ../src/driver/stm32g4-v120/src/stm32g4xx_hal_adc.c:1528:18
	ldr.w	r2, [r11, #92]
.Ltmp380:
	.loc	7 1528 11 is_stmt 0             @ ../src/driver/stm32g4-v120/src/stm32g4xx_hal_adc.c:1528:11
	lsls	r2, r2, #19
	bmi	.LBB15_18
.Ltmp381:
@ %bb.17:
	@DEBUG_VALUE: HAL_ADC_PollForConversion:hadc <- $r11
	@DEBUG_VALUE: HAL_ADC_PollForConversion:tmp_multimode_config <- $r10
	@DEBUG_VALUE: HAL_ADC_PollForConversion:tmp_Flag_End <- $r7
	.loc	7 1530 9 is_stmt 1              @ ../src/driver/stm32g4-v120/src/stm32g4xx_hal_adc.c:1530:9
	ldr.w	r2, [r11, #92]
	orr	r2, r2, #1
	str.w	r2, [r11, #92]
.Ltmp382:
.LBB15_18:
	@DEBUG_VALUE: HAL_ADC_PollForConversion:hadc <- $r11
	@DEBUG_VALUE: HAL_ADC_PollForConversion:tmp_multimode_config <- $r10
	@DEBUG_VALUE: HAL_ADC_PollForConversion:tmp_Flag_End <- $r7
	.loc	7 0 9 is_stmt 0                 @ ../src/driver/stm32g4-v120/src/stm32g4xx_hal_adc.c:0:9
	movw	r2, #256
	movt	r2, #20480
.Ltmp383:
	.loc	7 1539 8 is_stmt 1              @ ../src/driver/stm32g4-v120/src/stm32g4xx_hal_adc.c:1539:8
	cmp	r1, r2
	beq	.LBB15_21
.Ltmp384:
@ %bb.19:
	@DEBUG_VALUE: HAL_ADC_PollForConversion:hadc <- $r11
	@DEBUG_VALUE: HAL_ADC_PollForConversion:tmp_multimode_config <- $r10
	@DEBUG_VALUE: HAL_ADC_PollForConversion:tmp_Flag_End <- $r7
	.loc	7 0 8 is_stmt 0                 @ ../src/driver/stm32g4-v120/src/stm32g4xx_hal_adc.c:0:8
	movw	r3, #1280
	movt	r3, #20480
	.loc	7 1539 8                        @ ../src/driver/stm32g4-v120/src/stm32g4xx_hal_adc.c:1539:8
	cmp	r1, r3
	bne	.LBB15_25
.Ltmp385:
@ %bb.20:
	@DEBUG_VALUE: HAL_ADC_PollForConversion:hadc <- $r11
	@DEBUG_VALUE: HAL_ADC_PollForConversion:tmp_multimode_config <- $r10
	@DEBUG_VALUE: HAL_ADC_PollForConversion:tmp_Flag_End <- $r7
	add.w	r3, r9, #248
	b	.LBB15_22
.Ltmp386:
.LBB15_21:
	@DEBUG_VALUE: HAL_ADC_PollForConversion:hadc <- $r11
	@DEBUG_VALUE: HAL_ADC_PollForConversion:tmp_multimode_config <- $r10
	@DEBUG_VALUE: HAL_ADC_PollForConversion:tmp_Flag_End <- $r7
	.loc	7 0 8                           @ ../src/driver/stm32g4-v120/src/stm32g4xx_hal_adc.c:0:8
	mov.w	r3, #1342177280
.Ltmp387:
.LBB15_22:
	@DEBUG_VALUE: HAL_ADC_PollForConversion:hadc <- $r11
	@DEBUG_VALUE: HAL_ADC_PollForConversion:tmp_multimode_config <- $r10
	@DEBUG_VALUE: HAL_ADC_PollForConversion:tmp_Flag_End <- $r7
	.loc	7 1540 7 is_stmt 1              @ ../src/driver/stm32g4-v120/src/stm32g4xx_hal_adc.c:1540:7
	cmp	r3, r1
	beq	.LBB15_25
.Ltmp388:
@ %bb.23:
	@DEBUG_VALUE: HAL_ADC_PollForConversion:hadc <- $r11
	@DEBUG_VALUE: HAL_ADC_PollForConversion:tmp_multimode_config <- $r10
	@DEBUG_VALUE: HAL_ADC_PollForConversion:tmp_Flag_End <- $r7
	cmp.w	r10, #9
	bhi	.LBB15_35
.Ltmp389:
@ %bb.24:
	@DEBUG_VALUE: HAL_ADC_PollForConversion:hadc <- $r11
	@DEBUG_VALUE: HAL_ADC_PollForConversion:tmp_multimode_config <- $r10
	@DEBUG_VALUE: HAL_ADC_PollForConversion:tmp_Flag_End <- $r7
	.loc	7 0 7 is_stmt 0                 @ ../src/driver/stm32g4-v120/src/stm32g4xx_hal_adc.c:0:7
	movs	r3, #1
	lsl.w	r3, r3, r10
	movw	r7, #545
.Ltmp390:
	tst	r3, r7
	beq	.LBB15_35
.Ltmp391:
.LBB15_25:
	@DEBUG_VALUE: HAL_ADC_PollForConversion:hadc <- $r11
	@DEBUG_VALUE: HAL_ADC_PollForConversion:tmp_multimode_config <- $r10
	ldr	r1, [r1, #12]
.Ltmp392:
	@DEBUG_VALUE: HAL_ADC_PollForConversion:tmp_cfgr <- $r1
	.loc	7 1560 7 is_stmt 1              @ ../src/driver/stm32g4-v120/src/stm32g4xx_hal_adc.c:1560:7
	cmp.w	r8, #0
	beq	.LBB15_27
.Ltmp393:
@ %bb.26:
	@DEBUG_VALUE: HAL_ADC_PollForConversion:hadc <- $r11
	@DEBUG_VALUE: HAL_ADC_PollForConversion:tmp_multimode_config <- $r10
	@DEBUG_VALUE: HAL_ADC_PollForConversion:tmp_cfgr <- $r1
	.loc	7 0 7 is_stmt 0                 @ ../src/driver/stm32g4-v120/src/stm32g4xx_hal_adc.c:0:7
	movs	r1, #8
.Ltmp394:
	b	.LBB15_29
.Ltmp395:
.LBB15_27:
	@DEBUG_VALUE: HAL_ADC_PollForConversion:hadc <- $r11
	@DEBUG_VALUE: HAL_ADC_PollForConversion:tmp_multimode_config <- $r10
	@DEBUG_VALUE: HAL_ADC_PollForConversion:tmp_cfgr <- $r1
	.loc	7 1569 9 is_stmt 1              @ ../src/driver/stm32g4-v120/src/stm32g4xx_hal_adc.c:1569:9
	lsls	r1, r1, #17
.Ltmp396:
	bmi	.LBB15_30
.Ltmp397:
@ %bb.28:
	@DEBUG_VALUE: HAL_ADC_PollForConversion:hadc <- $r11
	@DEBUG_VALUE: HAL_ADC_PollForConversion:tmp_multimode_config <- $r10
	.loc	7 0 9 is_stmt 0                 @ ../src/driver/stm32g4-v120/src/stm32g4xx_hal_adc.c:0:9
	movs	r1, #12
.Ltmp398:
.LBB15_29:
	@DEBUG_VALUE: HAL_ADC_PollForConversion:hadc <- $r11
	@DEBUG_VALUE: HAL_ADC_PollForConversion:tmp_multimode_config <- $r10
	str	r1, [r0]
.Ltmp399:
.LBB15_30:
	@DEBUG_VALUE: HAL_ADC_PollForConversion:hadc <- $r11
	@DEBUG_VALUE: HAL_ADC_PollForConversion:tmp_multimode_config <- $r10
	movs	r0, #0
	b	.LBB15_34
.Ltmp400:
.LBB15_31:
	@DEBUG_VALUE: HAL_ADC_PollForConversion:hadc <- $r11
	@DEBUG_VALUE: HAL_ADC_PollForConversion:tmp_multimode_config <- $r10
	@DEBUG_VALUE: LL_ADC_GetMultiDMATransfer:ADCxy_COMMON <- undef
	.loc	8 6476 21 is_stmt 1             @ ../src/driver/stm32g4-v120/inc/stm32g4xx_ll_adc.h:6476:21
	ldr	r0, [r1]
.Ltmp401:
	.loc	7 1467 11                       @ ../src/driver/stm32g4-v120/src/stm32g4xx_hal_adc.c:1467:11
	tst.w	r0, #57344
	beq	.LBB15_5
.Ltmp402:
.LBB15_32:
	@DEBUG_VALUE: HAL_ADC_PollForConversion:hadc <- $r11
	@DEBUG_VALUE: HAL_ADC_PollForConversion:tmp_multimode_config <- $r10
	.loc	7 0 0 is_stmt 0                 @ ../src/driver/stm32g4-v120/src/stm32g4xx_hal_adc.c:0:0
	ldr.w	r0, [r11, #92]
	orr	r0, r0, #32
	str.w	r0, [r11, #92]
	movs	r0, #1
	b	.LBB15_34
.Ltmp403:
.LBB15_33:
	@DEBUG_VALUE: HAL_ADC_PollForConversion:hadc <- $r11
	@DEBUG_VALUE: HAL_ADC_PollForConversion:tmp_multimode_config <- $r10
	@DEBUG_VALUE: HAL_ADC_PollForConversion:tmp_Flag_End <- $r7
	@DEBUG_VALUE: HAL_ADC_PollForConversion:tickstart <- $r6
	.loc	7 1503 9 is_stmt 1              @ ../src/driver/stm32g4-v120/src/stm32g4xx_hal_adc.c:1503:9
	ldr.w	r0, [r11, #92]
	orr	r0, r0, #4
	str.w	r0, [r11, #92]
	movs	r0, #0
.Ltmp404:
	.loc	7 1506 9                        @ ../src/driver/stm32g4-v120/src/stm32g4xx_hal_adc.c:1506:9
	strb.w	r0, [r11, #88]
	movs	r0, #3
.Ltmp405:
.LBB15_34:
	@DEBUG_VALUE: HAL_ADC_PollForConversion:hadc <- $r11
	@DEBUG_VALUE: HAL_ADC_PollForConversion:tmp_multimode_config <- $r10
	.loc	7 1577 1                        @ ../src/driver/stm32g4-v120/src/stm32g4xx_hal_adc.c:1577:1
	add	sp, #4
	pop.w	{r4, r5, r6, r7, r8, r9, r10, r11, pc}
.Ltmp406:
.LBB15_35:
	@DEBUG_VALUE: HAL_ADC_PollForConversion:hadc <- $r11
	@DEBUG_VALUE: HAL_ADC_PollForConversion:tmp_multimode_config <- $r10
	.loc	7 1551 21                       @ ../src/driver/stm32g4-v120/src/stm32g4xx_hal_adc.c:1551:21
	cmp	r1, r2
	beq	.LBB15_37
.Ltmp407:
@ %bb.36:
	@DEBUG_VALUE: HAL_ADC_PollForConversion:hadc <- $r11
	@DEBUG_VALUE: HAL_ADC_PollForConversion:tmp_multimode_config <- $r10
	.loc	7 0 21 is_stmt 0                @ ../src/driver/stm32g4-v120/src/stm32g4xx_hal_adc.c:0:21
	movw	r2, #1280
	movt	r2, #20480
	.loc	7 1551 21                       @ ../src/driver/stm32g4-v120/src/stm32g4xx_hal_adc.c:1551:21
	cmp	r1, r2
	it	eq
	addeq.w	r1, r9, #248
	b	.LBB15_25
.Ltmp408:
.LBB15_37:
	@DEBUG_VALUE: HAL_ADC_PollForConversion:hadc <- $r11
	@DEBUG_VALUE: HAL_ADC_PollForConversion:tmp_multimode_config <- $r10
	.loc	7 0 21                          @ ../src/driver/stm32g4-v120/src/stm32g4xx_hal_adc.c:0:21
	mov.w	r1, #1342177280
	b	.LBB15_25
.Lfunc_end15:
	.size	HAL_ADC_PollForConversion, .Lfunc_end15-HAL_ADC_PollForConversion
	.cfi_endproc
	.cantunwind
	.fnend
                                        @ -- End function
	.section	.text.HAL_ADC_PollForEvent,"ax",%progbits
	.hidden	HAL_ADC_PollForEvent            @ -- Begin function HAL_ADC_PollForEvent
	.globl	HAL_ADC_PollForEvent
	.p2align	1
	.type	HAL_ADC_PollForEvent,%function
	.code	16                              @ @HAL_ADC_PollForEvent
	.thumb_func
HAL_ADC_PollForEvent:
.Lfunc_begin16:
	.loc	7 1600 0 is_stmt 1              @ ../src/driver/stm32g4-v120/src/stm32g4xx_hal_adc.c:1600:0
	.fnstart
	.cfi_startproc
@ %bb.0:
	@DEBUG_VALUE: HAL_ADC_PollForEvent:hadc <- $r0
	@DEBUG_VALUE: HAL_ADC_PollForEvent:EventType <- $r1
	@DEBUG_VALUE: HAL_ADC_PollForEvent:Timeout <- $r2
	.save	{r4, r5, r6, r7, r8, lr}
	push.w	{r4, r5, r6, r7, r8, lr}
	.cfi_def_cfa_offset 24
	.cfi_offset lr, -4
	.cfi_offset r8, -8
	.cfi_offset r7, -12
	.cfi_offset r6, -16
	.cfi_offset r5, -20
	.cfi_offset r4, -24
	mov	r6, r2
.Ltmp409:
	@DEBUG_VALUE: HAL_ADC_PollForEvent:Timeout <- $r6
	mov	r5, r1
.Ltmp410:
	@DEBUG_VALUE: HAL_ADC_PollForEvent:EventType <- $r5
	mov	r8, r0
.Ltmp411:
	@DEBUG_VALUE: HAL_ADC_PollForEvent:hadc <- $r8
	@DEBUG_VALUE: HAL_ADC_PollForEvent:Timeout <- $r6
	@DEBUG_VALUE: HAL_ADC_PollForEvent:EventType <- $r5
	@DEBUG_VALUE: HAL_ADC_PollForEvent:hadc <- $r8
	.loc	7 1608 15 prologue_end          @ ../src/driver/stm32g4-v120/src/stm32g4xx_hal_adc.c:1608:15
	bl	HAL_GetTick
.Ltmp412:
	.loc	7 1611 10                       @ ../src/driver/stm32g4-v120/src/stm32g4xx_hal_adc.c:1611:10
	ldr.w	r1, [r8]
	ldr	r2, [r1]
	ands	r2, r5
	.loc	7 1611 3 is_stmt 0              @ ../src/driver/stm32g4-v120/src/stm32g4xx_hal_adc.c:1611:3
	cmp	r2, r5
.Ltmp413:
	@DEBUG_VALUE: HAL_ADC_PollForEvent:tickstart <- $r0
	beq	.LBB16_7
.Ltmp414:
@ %bb.1:
	@DEBUG_VALUE: HAL_ADC_PollForEvent:hadc <- $r8
	@DEBUG_VALUE: HAL_ADC_PollForEvent:Timeout <- $r6
	@DEBUG_VALUE: HAL_ADC_PollForEvent:EventType <- $r5
	@DEBUG_VALUE: HAL_ADC_PollForEvent:tickstart <- $r0
	.loc	7 0 3                           @ ../src/driver/stm32g4-v120/src/stm32g4xx_hal_adc.c:0:3
	mov	r7, r0
.Ltmp415:
	@DEBUG_VALUE: HAL_ADC_PollForEvent:tickstart <- $r7
	@DEBUG_VALUE: HAL_ADC_PollForEvent:tickstart <- $r7
	adds	r4, r6, #1
.Ltmp416:
	.p2align	2
.LBB16_2:                               @ =>This Inner Loop Header: Depth=1
	@DEBUG_VALUE: HAL_ADC_PollForEvent:hadc <- $r8
	@DEBUG_VALUE: HAL_ADC_PollForEvent:tickstart <- $r7
	@DEBUG_VALUE: HAL_ADC_PollForEvent:Timeout <- $r6
	@DEBUG_VALUE: HAL_ADC_PollForEvent:EventType <- $r5
	.loc	7 1614 9 is_stmt 1              @ ../src/driver/stm32g4-v120/src/stm32g4xx_hal_adc.c:1614:9
	cbz	r4, .LBB16_6
.Ltmp417:
@ %bb.3:                                @   in Loop: Header=BB16_2 Depth=1
	@DEBUG_VALUE: HAL_ADC_PollForEvent:hadc <- $r8
	@DEBUG_VALUE: HAL_ADC_PollForEvent:tickstart <- $r7
	@DEBUG_VALUE: HAL_ADC_PollForEvent:Timeout <- $r6
	@DEBUG_VALUE: HAL_ADC_PollForEvent:EventType <- $r5
	.loc	7 1616 13                       @ ../src/driver/stm32g4-v120/src/stm32g4xx_hal_adc.c:1616:13
	bl	HAL_GetTick
.Ltmp418:
	.loc	7 1616 51 is_stmt 0             @ ../src/driver/stm32g4-v120/src/stm32g4xx_hal_adc.c:1616:51
	cbz	r6, .LBB16_15
.Ltmp419:
@ %bb.4:                                @   in Loop: Header=BB16_2 Depth=1
	@DEBUG_VALUE: HAL_ADC_PollForEvent:hadc <- $r8
	@DEBUG_VALUE: HAL_ADC_PollForEvent:tickstart <- $r7
	@DEBUG_VALUE: HAL_ADC_PollForEvent:Timeout <- $r6
	@DEBUG_VALUE: HAL_ADC_PollForEvent:EventType <- $r5
	.loc	7 0 0                           @ ../src/driver/stm32g4-v120/src/stm32g4xx_hal_adc.c:0:0
	subs	r0, r0, r7
	.loc	7 1616 51                       @ ../src/driver/stm32g4-v120/src/stm32g4xx_hal_adc.c:1616:51
	cmp	r0, r6
	bhi	.LBB16_15
.Ltmp420:
@ %bb.5:                                @   in Loop: Header=BB16_2 Depth=1
	@DEBUG_VALUE: HAL_ADC_PollForEvent:hadc <- $r8
	@DEBUG_VALUE: HAL_ADC_PollForEvent:tickstart <- $r7
	@DEBUG_VALUE: HAL_ADC_PollForEvent:Timeout <- $r6
	@DEBUG_VALUE: HAL_ADC_PollForEvent:EventType <- $r5
	.loc	7 1611 10 is_stmt 1             @ ../src/driver/stm32g4-v120/src/stm32g4xx_hal_adc.c:1611:10
	ldr.w	r1, [r8]
.Ltmp421:
.LBB16_6:                               @   in Loop: Header=BB16_2 Depth=1
	@DEBUG_VALUE: HAL_ADC_PollForEvent:hadc <- $r8
	@DEBUG_VALUE: HAL_ADC_PollForEvent:tickstart <- $r7
	@DEBUG_VALUE: HAL_ADC_PollForEvent:Timeout <- $r6
	@DEBUG_VALUE: HAL_ADC_PollForEvent:EventType <- $r5
	ldr	r0, [r1]
	ands	r0, r5
	.loc	7 1611 3 is_stmt 0              @ ../src/driver/stm32g4-v120/src/stm32g4xx_hal_adc.c:1611:3
	cmp	r0, r5
	bne	.LBB16_2
.Ltmp422:
.LBB16_7:
	@DEBUG_VALUE: HAL_ADC_PollForEvent:hadc <- $r8
	@DEBUG_VALUE: HAL_ADC_PollForEvent:Timeout <- $r6
	@DEBUG_VALUE: HAL_ADC_PollForEvent:EventType <- $r5
	.loc	7 1629 3 is_stmt 1              @ ../src/driver/stm32g4-v120/src/stm32g4xx_hal_adc.c:1629:3
	cmp	r5, #255
	ble	.LBB16_12
.Ltmp423:
@ %bb.8:
	@DEBUG_VALUE: HAL_ADC_PollForEvent:hadc <- $r8
	@DEBUG_VALUE: HAL_ADC_PollForEvent:Timeout <- $r6
	@DEBUG_VALUE: HAL_ADC_PollForEvent:EventType <- $r5
	cmp.w	r5, #256
	beq	.LBB16_16
.Ltmp424:
@ %bb.9:
	@DEBUG_VALUE: HAL_ADC_PollForEvent:hadc <- $r8
	@DEBUG_VALUE: HAL_ADC_PollForEvent:Timeout <- $r6
	@DEBUG_VALUE: HAL_ADC_PollForEvent:EventType <- $r5
	cmp.w	r5, #512
	beq	.LBB16_17
.Ltmp425:
@ %bb.10:
	@DEBUG_VALUE: HAL_ADC_PollForEvent:hadc <- $r8
	@DEBUG_VALUE: HAL_ADC_PollForEvent:Timeout <- $r6
	@DEBUG_VALUE: HAL_ADC_PollForEvent:EventType <- $r5
	cmp.w	r5, #1024
	bne	.LBB16_19
.Ltmp426:
@ %bb.11:
	@DEBUG_VALUE: HAL_ADC_PollForEvent:hadc <- $r8
	@DEBUG_VALUE: HAL_ADC_PollForEvent:Timeout <- $r6
	@DEBUG_VALUE: HAL_ADC_PollForEvent:EventType <- $r5
	.loc	7 1683 7                        @ ../src/driver/stm32g4-v120/src/stm32g4xx_hal_adc.c:1683:7
	ldr.w	r0, [r8, #92]
	orr	r0, r0, #16384
	str.w	r0, [r8, #92]
	.loc	7 1686 7                        @ ../src/driver/stm32g4-v120/src/stm32g4xx_hal_adc.c:1686:7
	ldr.w	r0, [r8, #96]
	orr	r0, r0, #8
	str.w	r0, [r8, #96]
	mov.w	r0, #1024
	b	.LBB16_21
.Ltmp427:
.LBB16_12:
	@DEBUG_VALUE: HAL_ADC_PollForEvent:hadc <- $r8
	@DEBUG_VALUE: HAL_ADC_PollForEvent:Timeout <- $r6
	@DEBUG_VALUE: HAL_ADC_PollForEvent:EventType <- $r5
	.loc	7 1629 3                        @ ../src/driver/stm32g4-v120/src/stm32g4xx_hal_adc.c:1629:3
	cmp	r5, #2
	beq	.LBB16_18
.Ltmp428:
@ %bb.13:
	@DEBUG_VALUE: HAL_ADC_PollForEvent:hadc <- $r8
	@DEBUG_VALUE: HAL_ADC_PollForEvent:Timeout <- $r6
	@DEBUG_VALUE: HAL_ADC_PollForEvent:EventType <- $r5
	cmp	r5, #128
	bne	.LBB16_19
.Ltmp429:
@ %bb.14:
	@DEBUG_VALUE: HAL_ADC_PollForEvent:hadc <- $r8
	@DEBUG_VALUE: HAL_ADC_PollForEvent:Timeout <- $r6
	@DEBUG_VALUE: HAL_ADC_PollForEvent:EventType <- $r5
	.loc	7 1653 7                        @ ../src/driver/stm32g4-v120/src/stm32g4xx_hal_adc.c:1653:7
	ldr.w	r0, [r8, #92]
	orr	r0, r0, #65536
	str.w	r0, [r8, #92]
	movs	r0, #128
	b	.LBB16_21
.Ltmp430:
.LBB16_15:
	@DEBUG_VALUE: HAL_ADC_PollForEvent:hadc <- $r8
	@DEBUG_VALUE: HAL_ADC_PollForEvent:tickstart <- $r7
	@DEBUG_VALUE: HAL_ADC_PollForEvent:Timeout <- $r6
	@DEBUG_VALUE: HAL_ADC_PollForEvent:EventType <- $r5
	.loc	7 1619 9                        @ ../src/driver/stm32g4-v120/src/stm32g4xx_hal_adc.c:1619:9
	ldr.w	r0, [r8, #92]
	orr	r0, r0, #4
	str.w	r0, [r8, #92]
	movs	r0, #0
.Ltmp431:
	.loc	7 1622 9                        @ ../src/driver/stm32g4-v120/src/stm32g4xx_hal_adc.c:1622:9
	strb.w	r0, [r8, #88]
	movs	r0, #3
.Ltmp432:
	.loc	7 1719 1                        @ ../src/driver/stm32g4-v120/src/stm32g4xx_hal_adc.c:1719:1
	pop.w	{r4, r5, r6, r7, r8, pc}
.Ltmp433:
.LBB16_16:
	@DEBUG_VALUE: HAL_ADC_PollForEvent:hadc <- $r8
	@DEBUG_VALUE: HAL_ADC_PollForEvent:Timeout <- $r6
	@DEBUG_VALUE: HAL_ADC_PollForEvent:EventType <- $r5
	.loc	7 1663 7                        @ ../src/driver/stm32g4-v120/src/stm32g4xx_hal_adc.c:1663:7
	ldr.w	r0, [r8, #92]
	orr	r0, r0, #131072
	str.w	r0, [r8, #92]
	mov.w	r0, #256
	b	.LBB16_21
.Ltmp434:
.LBB16_17:
	@DEBUG_VALUE: HAL_ADC_PollForEvent:hadc <- $r8
	@DEBUG_VALUE: HAL_ADC_PollForEvent:Timeout <- $r6
	@DEBUG_VALUE: HAL_ADC_PollForEvent:EventType <- $r5
	.loc	7 1673 7                        @ ../src/driver/stm32g4-v120/src/stm32g4xx_hal_adc.c:1673:7
	ldr.w	r0, [r8, #92]
	orr	r0, r0, #262144
	str.w	r0, [r8, #92]
	mov.w	r0, #512
	b	.LBB16_21
.Ltmp435:
.LBB16_18:
	@DEBUG_VALUE: HAL_ADC_PollForEvent:hadc <- $r8
	@DEBUG_VALUE: HAL_ADC_PollForEvent:Timeout <- $r6
	@DEBUG_VALUE: HAL_ADC_PollForEvent:EventType <- $r5
	.loc	7 1634 7                        @ ../src/driver/stm32g4-v120/src/stm32g4xx_hal_adc.c:1634:7
	ldr.w	r0, [r8, #92]
	orr	r0, r0, #2048
	str.w	r0, [r8, #92]
	movs	r0, #2
	b	.LBB16_21
.Ltmp436:
.LBB16_19:
	@DEBUG_VALUE: HAL_ADC_PollForEvent:hadc <- $r8
	@DEBUG_VALUE: HAL_ADC_PollForEvent:Timeout <- $r6
	@DEBUG_VALUE: HAL_ADC_PollForEvent:EventType <- $r5
	.loc	7 1699 22                       @ ../src/driver/stm32g4-v120/src/stm32g4xx_hal_adc.c:1699:22
	ldr.w	r0, [r8, #60]
.Ltmp437:
	.loc	7 1699 11 is_stmt 0             @ ../src/driver/stm32g4-v120/src/stm32g4xx_hal_adc.c:1699:11
	cbz	r0, .LBB16_23
.Ltmp438:
@ %bb.20:
	@DEBUG_VALUE: HAL_ADC_PollForEvent:hadc <- $r8
	@DEBUG_VALUE: HAL_ADC_PollForEvent:Timeout <- $r6
	@DEBUG_VALUE: HAL_ADC_PollForEvent:EventType <- $r5
	.loc	7 0 11                          @ ../src/driver/stm32g4-v120/src/stm32g4xx_hal_adc.c:0:11
	movs	r0, #16
.Ltmp439:
.LBB16_21:
	@DEBUG_VALUE: HAL_ADC_PollForEvent:hadc <- $r8
	@DEBUG_VALUE: HAL_ADC_PollForEvent:Timeout <- $r6
	@DEBUG_VALUE: HAL_ADC_PollForEvent:EventType <- $r5
	str	r0, [r1]
.Ltmp440:
.LBB16_22:
	@DEBUG_VALUE: HAL_ADC_PollForEvent:hadc <- $r8
	@DEBUG_VALUE: HAL_ADC_PollForEvent:Timeout <- $r6
	@DEBUG_VALUE: HAL_ADC_PollForEvent:EventType <- $r5
	movs	r0, #0
	.loc	7 1719 1 is_stmt 1              @ ../src/driver/stm32g4-v120/src/stm32g4xx_hal_adc.c:1719:1
	pop.w	{r4, r5, r6, r7, r8, pc}
.Ltmp441:
.LBB16_23:
	@DEBUG_VALUE: HAL_ADC_PollForEvent:hadc <- $r8
	@DEBUG_VALUE: HAL_ADC_PollForEvent:Timeout <- $r6
	@DEBUG_VALUE: HAL_ADC_PollForEvent:EventType <- $r5
	.loc	7 1702 9                        @ ../src/driver/stm32g4-v120/src/stm32g4xx_hal_adc.c:1702:9
	ldr.w	r0, [r8, #92]
	orr	r0, r0, #1024
	str.w	r0, [r8, #92]
	.loc	7 1705 9                        @ ../src/driver/stm32g4-v120/src/stm32g4xx_hal_adc.c:1705:9
	ldr.w	r0, [r8, #96]
	orr	r0, r0, #2
	str.w	r0, [r8, #96]
	b	.LBB16_22
.Ltmp442:
.Lfunc_end16:
	.size	HAL_ADC_PollForEvent, .Lfunc_end16-HAL_ADC_PollForEvent
	.cfi_endproc
	.cantunwind
	.fnend
                                        @ -- End function
	.section	.text.HAL_ADC_Start_IT,"ax",%progbits
	.hidden	HAL_ADC_Start_IT                @ -- Begin function HAL_ADC_Start_IT
	.globl	HAL_ADC_Start_IT
	.p2align	1
	.type	HAL_ADC_Start_IT,%function
	.code	16                              @ @HAL_ADC_Start_IT
	.thumb_func
HAL_ADC_Start_IT:
.Lfunc_begin17:
	.loc	7 1745 0                        @ ../src/driver/stm32g4-v120/src/stm32g4xx_hal_adc.c:1745:0
	.fnstart
	.cfi_startproc
@ %bb.0:
	@DEBUG_VALUE: HAL_ADC_Start_IT:hadc <- $r0
	.save	{r4, r5, r6, r7, lr}
	push	{r4, r5, r6, r7, lr}
	.cfi_def_cfa_offset 20
	.cfi_offset lr, -4
	.cfi_offset r7, -8
	.cfi_offset r6, -12
	.cfi_offset r5, -16
	.cfi_offset r4, -20
	.pad	#4
	sub	sp, #4
	.cfi_def_cfa_offset 24
	movw	r5, #776
	mov	r4, r0
	movt	r5, #20480
.Ltmp443:
	@DEBUG_VALUE: HAL_ADC_Start_IT:hadc <- $r4
	.loc	7 1749 55 prologue_end          @ ../src/driver/stm32g4-v120/src/stm32g4xx_hal_adc.c:1749:55
	ldr	r0, [r0]
	sub.w	r1, r5, #520
.Ltmp444:
	@DEBUG_VALUE: LL_ADC_GetMultimode:ADCxy_COMMON <- undef
	.loc	8 6379 21                       @ ../src/driver/stm32g4-v120/inc/stm32g4xx_ll_adc.h:6379:21
	add.w	r2, r5, #1024
	cmp	r0, r1
	itt	eq
	movweq	r2, #776
	movteq	r2, #20480
	cmp.w	r0, #1342177280
	itt	eq
	movweq	r2, #776
	movteq	r2, #20480
	ldr	r6, [r2]
.Ltmp445:
	@DEBUG_VALUE: LL_ADC_REG_IsConversionOngoing:ADCx <- $r0
	@DEBUG_VALUE: HAL_ADC_Start_IT:tmp_multimode_config <- undef
	.loc	8 6838 12                       @ ../src/driver/stm32g4-v120/inc/stm32g4xx_ll_adc.h:6838:12
	ldr	r0, [r0, #8]
.Ltmp446:
	.loc	7 1756 7                        @ ../src/driver/stm32g4-v120/src/stm32g4xx_hal_adc.c:1756:7
	lsls	r0, r0, #29
	bmi	.LBB17_2
.Ltmp447:
@ %bb.1:
	@DEBUG_VALUE: HAL_ADC_Start_IT:hadc <- $r4
	@DEBUG_VALUE: HAL_ADC_Start_IT:tmp_multimode_config <- undef
	.loc	7 1759 5                        @ ../src/driver/stm32g4-v120/src/stm32g4xx_hal_adc.c:1759:5
	ldrb.w	r0, [r4, #88]
.Ltmp448:
	.loc	7 1759 5 is_stmt 0              @ ../src/driver/stm32g4-v120/src/stm32g4xx_hal_adc.c:1759:5
	cmp	r0, #1
	bne	.LBB17_4
.Ltmp449:
.LBB17_2:
	@DEBUG_VALUE: HAL_ADC_Start_IT:hadc <- $r4
	.loc	7 0 5                           @ ../src/driver/stm32g4-v120/src/stm32g4xx_hal_adc.c:0:5
	movs	r0, #2
.Ltmp450:
.LBB17_3:
	@DEBUG_VALUE: HAL_ADC_Start_IT:hadc <- $r4
	.loc	7 1942 1 is_stmt 1              @ ../src/driver/stm32g4-v120/src/stm32g4xx_hal_adc.c:1942:1
	add	sp, #4
	pop	{r4, r5, r6, r7, pc}
.Ltmp451:
.LBB17_4:
	@DEBUG_VALUE: HAL_ADC_Start_IT:hadc <- $r4
	@DEBUG_VALUE: HAL_ADC_Start_IT:tmp_multimode_config <- undef
	.loc	7 0 1 is_stmt 0                 @ ../src/driver/stm32g4-v120/src/stm32g4xx_hal_adc.c:0:1
	movs	r0, #1
.Ltmp452:
	.loc	7 1759 5 is_stmt 1              @ ../src/driver/stm32g4-v120/src/stm32g4xx_hal_adc.c:1759:5
	strb.w	r0, [r4, #88]
.Ltmp453:
	.loc	7 1762 22                       @ ../src/driver/stm32g4-v120/src/stm32g4xx_hal_adc.c:1762:22
	mov	r0, r4
	bl	ADC_Enable
.Ltmp454:
	@DEBUG_VALUE: HAL_ADC_Start_IT:tmp_hal_status <- $r0
	.loc	7 1765 9                        @ ../src/driver/stm32g4-v120/src/stm32g4xx_hal_adc.c:1765:9
	cbz	r0, .LBB17_6
.Ltmp455:
@ %bb.5:
	@DEBUG_VALUE: HAL_ADC_Start_IT:hadc <- $r4
	@DEBUG_VALUE: HAL_ADC_Start_IT:tmp_hal_status <- $r0
	.loc	7 0 9 is_stmt 0                 @ ../src/driver/stm32g4-v120/src/stm32g4xx_hal_adc.c:0:9
	movs	r1, #0
.Ltmp456:
	.loc	7 1931 7 is_stmt 1              @ ../src/driver/stm32g4-v120/src/stm32g4xx_hal_adc.c:1931:7
	strb.w	r1, [r4, #88]
	b	.LBB17_3
.Ltmp457:
.LBB17_6:
	@DEBUG_VALUE: HAL_ADC_Start_IT:hadc <- $r4
	@DEBUG_VALUE: HAL_ADC_Start_IT:tmp_hal_status <- $r0
	.loc	7 1778 12                       @ ../src/driver/stm32g4-v120/src/stm32g4xx_hal_adc.c:1778:12
	ldr	r0, [r4]
.Ltmp458:
	.loc	7 1770 7                        @ ../src/driver/stm32g4-v120/src/stm32g4xx_hal_adc.c:1770:7
	ldr	r1, [r4, #92]
	movw	r2, #3841
	movw	lr, #256
	bics	r1, r2
	movt	lr, #20480
	movw	r12, #1280
	and	r3, r6, #31
.Ltmp459:
	@DEBUG_VALUE: HAL_ADC_Start_IT:tmp_multimode_config <- $r3
	add.w	r1, r1, #256
.Ltmp460:
	.loc	7 1778 12                       @ ../src/driver/stm32g4-v120/src/stm32g4xx_hal_adc.c:1778:12
	cmp	r0, lr
	movt	r12, #20480
.Ltmp461:
	.loc	7 1770 7                        @ ../src/driver/stm32g4-v120/src/stm32g4xx_hal_adc.c:1770:7
	str	r1, [r4, #92]
.Ltmp462:
	.loc	7 1778 12                       @ ../src/driver/stm32g4-v120/src/stm32g4xx_hal_adc.c:1778:12
	beq	.LBB17_9
.Ltmp463:
@ %bb.7:
	@DEBUG_VALUE: HAL_ADC_Start_IT:hadc <- $r4
	@DEBUG_VALUE: HAL_ADC_Start_IT:tmp_multimode_config <- $r3
	cmp	r0, r12
	bne	.LBB17_12
.Ltmp464:
@ %bb.8:
	@DEBUG_VALUE: HAL_ADC_Start_IT:hadc <- $r4
	@DEBUG_VALUE: HAL_ADC_Start_IT:tmp_multimode_config <- $r3
	add.w	r1, r5, #248
	b	.LBB17_10
.Ltmp465:
.LBB17_9:
	@DEBUG_VALUE: HAL_ADC_Start_IT:hadc <- $r4
	@DEBUG_VALUE: HAL_ADC_Start_IT:tmp_multimode_config <- $r3
	.loc	7 0 12 is_stmt 0                @ ../src/driver/stm32g4-v120/src/stm32g4xx_hal_adc.c:0:12
	mov.w	r1, #1342177280
.Ltmp466:
.LBB17_10:
	@DEBUG_VALUE: HAL_ADC_Start_IT:hadc <- $r4
	@DEBUG_VALUE: HAL_ADC_Start_IT:tmp_multimode_config <- $r3
	.loc	7 1779 11 is_stmt 1             @ ../src/driver/stm32g4-v120/src/stm32g4xx_hal_adc.c:1779:11
	cbz	r3, .LBB17_12
.Ltmp467:
@ %bb.11:
	@DEBUG_VALUE: HAL_ADC_Start_IT:hadc <- $r4
	@DEBUG_VALUE: HAL_ADC_Start_IT:tmp_multimode_config <- $r3
	cmp	r1, r0
	bne	.LBB17_13
.Ltmp468:
.LBB17_12:
	@DEBUG_VALUE: HAL_ADC_Start_IT:hadc <- $r4
	@DEBUG_VALUE: HAL_ADC_Start_IT:tmp_multimode_config <- $r3
	.loc	7 1782 9                        @ ../src/driver/stm32g4-v120/src/stm32g4xx_hal_adc.c:1782:9
	ldr	r1, [r4, #92]
	bic	r1, r1, #1048576
	str	r1, [r4, #92]
.Ltmp469:
.LBB17_13:
	@DEBUG_VALUE: HAL_ADC_Start_IT:hadc <- $r4
	@DEBUG_VALUE: HAL_ADC_Start_IT:tmp_multimode_config <- $r3
	.loc	7 1788 18                       @ ../src/driver/stm32g4-v120/src/stm32g4xx_hal_adc.c:1788:18
	ldr	r6, [r4, #92]
	movs	r1, #0
.Ltmp470:
	.loc	7 1788 11 is_stmt 0             @ ../src/driver/stm32g4-v120/src/stm32g4xx_hal_adc.c:1788:11
	lsls	r6, r6, #19
	mov.w	r6, #0
.Ltmp471:
	.loc	7 1791 9 is_stmt 1              @ ../src/driver/stm32g4-v120/src/stm32g4xx_hal_adc.c:1791:9
	itt	mi
	ldrmi	r6, [r4, #96]
	bicmi	r6, r6, #6
.Ltmp472:
	.loc	7 0 0 is_stmt 0                 @ ../src/driver/stm32g4-v120/src/stm32g4xx_hal_adc.c:0:0
	str	r6, [r4, #96]
	movs	r6, #28
.Ltmp473:
	.loc	7 1801 7 is_stmt 1              @ ../src/driver/stm32g4-v120/src/stm32g4xx_hal_adc.c:1801:7
	str	r6, [r0]
.Ltmp474:
	.loc	7 1806 7                        @ ../src/driver/stm32g4-v120/src/stm32g4xx_hal_adc.c:1806:7
	strb.w	r1, [r4, #88]
.Ltmp475:
	.loc	7 1809 7                        @ ../src/driver/stm32g4-v120/src/stm32g4xx_hal_adc.c:1809:7
	ldr	r1, [r0, #4]
	bic	r1, r1, #28
	str	r1, [r0, #4]
	.loc	7 1812 26                       @ ../src/driver/stm32g4-v120/src/stm32g4xx_hal_adc.c:1812:26
	ldr	r1, [r4, #24]
.Ltmp476:
	.loc	7 1827 22                       @ ../src/driver/stm32g4-v120/src/stm32g4xx_hal_adc.c:1827:22
	ldr	r6, [r4, #60]
.Ltmp477:
	.loc	7 0 0 is_stmt 0                 @ ../src/driver/stm32g4-v120/src/stm32g4xx_hal_adc.c:0:0
	ldr	r2, [r0, #4]
.Ltmp478:
	.loc	7 1812 7 is_stmt 1              @ ../src/driver/stm32g4-v120/src/stm32g4xx_hal_adc.c:1812:7
	cmp	r1, #8
	mov	r7, r1
	it	ne
	movne	r7, #4
.Ltmp479:
	.loc	7 0 0 is_stmt 0                 @ ../src/driver/stm32g4-v120/src/stm32g4xx_hal_adc.c:0:0
	orrs	r2, r7
	str	r2, [r0, #4]
.Ltmp480:
	.loc	7 1827 11 is_stmt 1             @ ../src/driver/stm32g4-v120/src/stm32g4xx_hal_adc.c:1827:11
	cbnz	r6, .LBB17_15
.Ltmp481:
@ %bb.14:
	@DEBUG_VALUE: HAL_ADC_Start_IT:hadc <- $r4
	@DEBUG_VALUE: HAL_ADC_Start_IT:tmp_multimode_config <- $r3
	.loc	7 1829 9                        @ ../src/driver/stm32g4-v120/src/stm32g4xx_hal_adc.c:1829:9
	ldr	r2, [r0, #4]
	orr	r2, r2, #16
	str	r2, [r0, #4]
.Ltmp482:
.LBB17_15:
	@DEBUG_VALUE: HAL_ADC_Start_IT:hadc <- $r4
	@DEBUG_VALUE: HAL_ADC_Start_IT:tmp_multimode_config <- $r3
	.loc	7 1841 12                       @ ../src/driver/stm32g4-v120/src/stm32g4xx_hal_adc.c:1841:12
	cmp	r0, lr
	beq	.LBB17_18
.Ltmp483:
@ %bb.16:
	@DEBUG_VALUE: HAL_ADC_Start_IT:hadc <- $r4
	@DEBUG_VALUE: HAL_ADC_Start_IT:tmp_multimode_config <- $r3
	cmp	r0, r12
	bne	.LBB17_22
.Ltmp484:
@ %bb.17:
	@DEBUG_VALUE: HAL_ADC_Start_IT:hadc <- $r4
	@DEBUG_VALUE: HAL_ADC_Start_IT:tmp_multimode_config <- $r3
	add.w	r6, r5, #248
	b	.LBB17_19
.Ltmp485:
.LBB17_18:
	@DEBUG_VALUE: HAL_ADC_Start_IT:hadc <- $r4
	@DEBUG_VALUE: HAL_ADC_Start_IT:tmp_multimode_config <- $r3
	.loc	7 0 12 is_stmt 0                @ ../src/driver/stm32g4-v120/src/stm32g4xx_hal_adc.c:0:12
	mov.w	r6, #1342177280
.Ltmp486:
.LBB17_19:
	@DEBUG_VALUE: HAL_ADC_Start_IT:hadc <- $r4
	@DEBUG_VALUE: HAL_ADC_Start_IT:tmp_multimode_config <- $r3
	.loc	7 1842 11 is_stmt 1             @ ../src/driver/stm32g4-v120/src/stm32g4xx_hal_adc.c:1842:11
	cmp	r6, r0
	beq	.LBB17_22
.Ltmp487:
@ %bb.20:
	@DEBUG_VALUE: HAL_ADC_Start_IT:hadc <- $r4
	@DEBUG_VALUE: HAL_ADC_Start_IT:tmp_multimode_config <- $r3
	cmp	r3, #9
	bhi	.LBB17_26
.Ltmp488:
@ %bb.21:
	@DEBUG_VALUE: HAL_ADC_Start_IT:hadc <- $r4
	@DEBUG_VALUE: HAL_ADC_Start_IT:tmp_multimode_config <- $r3
	.loc	7 0 11 is_stmt 0                @ ../src/driver/stm32g4-v120/src/stm32g4xx_hal_adc.c:0:11
	movs	r2, #1
	lsls	r2, r3
	movw	r3, #545
.Ltmp489:
	tst	r2, r3
	beq	.LBB17_26
.Ltmp490:
.LBB17_22:
	@DEBUG_VALUE: HAL_ADC_Start_IT:hadc <- $r4
	.loc	7 1848 13 is_stmt 1             @ ../src/driver/stm32g4-v120/src/stm32g4xx_hal_adc.c:1848:13
	ldr	r2, [r0, #12]
.Ltmp491:
	.loc	7 1848 13 is_stmt 0             @ ../src/driver/stm32g4-v120/src/stm32g4xx_hal_adc.c:1848:13
	lsls	r2, r2, #6
	bpl	.LBB17_24
.Ltmp492:
@ %bb.23:
	@DEBUG_VALUE: HAL_ADC_Start_IT:hadc <- $r4
	.loc	7 1850 11 is_stmt 1             @ ../src/driver/stm32g4-v120/src/stm32g4xx_hal_adc.c:1850:11
	ldr	r2, [r4, #92]
	movs	r3, #1
	bfi	r2, r3, #12, #2
	str	r2, [r4, #92]
.Ltmp493:
	.loc	7 0 0 is_stmt 0                 @ ../src/driver/stm32g4-v120/src/stm32g4xx_hal_adc.c:0:0
	ldr	r2, [r0, #4]
	mvn	r3, #64
	cmp	r1, #8
	it	eq
	mvneq	r3, #32
	and.w	r2, r2, r3
	str	r2, [r0, #4]
	mov.w	r1, #32
	ldr	r2, [r0, #4]
	it	eq
	moveq	r1, #64
	orrs	r1, r2
	str	r1, [r0, #4]
.Ltmp494:
.LBB17_24:
	@DEBUG_VALUE: HAL_ADC_Start_IT:hadc <- $r4
	@DEBUG_VALUE: LL_ADC_REG_StartConversion:ADCx <- $r0
	.loc	8 6805 3 is_stmt 1              @ ../src/driver/stm32g4-v120/inc/stm32g4xx_ll_adc.h:6805:3
	ldr	r1, [r0, #8]
	movw	r2, #65472
	movt	r2, #32767
	ands	r1, r2
	adds	r1, #4
	str	r1, [r0, #8]
.Ltmp495:
.LBB17_25:
	@DEBUG_VALUE: HAL_ADC_Start_IT:hadc <- $r4
	.loc	8 0 3 is_stmt 0                 @ ../src/driver/stm32g4-v120/inc/stm32g4xx_ll_adc.h:0:3
	movs	r0, #0
	b	.LBB17_3
.Ltmp496:
.LBB17_26:
	@DEBUG_VALUE: HAL_ADC_Start_IT:hadc <- $r4
	.loc	7 1876 9 is_stmt 1              @ ../src/driver/stm32g4-v120/src/stm32g4xx_hal_adc.c:1876:9
	ldr	r2, [r4, #92]
	.loc	7 1879 25                       @ ../src/driver/stm32g4-v120/src/stm32g4xx_hal_adc.c:1879:25
	cmp	r0, lr
	.loc	7 1876 9                        @ ../src/driver/stm32g4-v120/src/stm32g4xx_hal_adc.c:1876:9
	orr	r2, r2, #1048576
	str	r2, [r4, #92]
	.loc	7 1879 25                       @ ../src/driver/stm32g4-v120/src/stm32g4xx_hal_adc.c:1879:25
	beq	.LBB17_28
.Ltmp497:
@ %bb.27:
	@DEBUG_VALUE: HAL_ADC_Start_IT:hadc <- $r4
	mov	r2, r0
	cmp	r0, r12
	it	eq
	addeq.w	r2, r5, #248
	b	.LBB17_29
.Ltmp498:
.LBB17_28:
	@DEBUG_VALUE: HAL_ADC_Start_IT:hadc <- $r4
	.loc	7 0 25 is_stmt 0                @ ../src/driver/stm32g4-v120/src/stm32g4xx_hal_adc.c:0:25
	mov.w	r2, #1342177280
.Ltmp499:
.LBB17_29:
	@DEBUG_VALUE: HAL_ADC_Start_IT:hadc <- $r4
	@DEBUG_VALUE: HAL_ADC_Start_IT:tmpADC_Master <- $r2
	.loc	7 1880 13 is_stmt 1             @ ../src/driver/stm32g4-v120/src/stm32g4xx_hal_adc.c:1880:13
	ldr	r2, [r2, #12]
.Ltmp500:
	.loc	7 1880 13 is_stmt 0             @ ../src/driver/stm32g4-v120/src/stm32g4xx_hal_adc.c:1880:13
	lsls	r2, r2, #6
	bpl	.LBB17_25
.Ltmp501:
@ %bb.30:
	@DEBUG_VALUE: HAL_ADC_Start_IT:hadc <- $r4
	.loc	7 1884 11 is_stmt 1             @ ../src/driver/stm32g4-v120/src/stm32g4xx_hal_adc.c:1884:11
	ldr	r2, [r4, #92]
	movs	r3, #1
	bfi	r2, r3, #12, #2
	str	r2, [r4, #92]
.Ltmp502:
	.loc	7 0 0 is_stmt 0                 @ ../src/driver/stm32g4-v120/src/stm32g4xx_hal_adc.c:0:0
	ldr	r2, [r0, #4]
.Ltmp503:
	.loc	7 1886 11 is_stmt 1             @ ../src/driver/stm32g4-v120/src/stm32g4xx_hal_adc.c:1886:11
	cmp	r1, #8
	bne	.LBB17_32
.Ltmp504:
@ %bb.31:
	@DEBUG_VALUE: HAL_ADC_Start_IT:hadc <- $r4
	.loc	7 1889 15                       @ ../src/driver/stm32g4-v120/src/stm32g4xx_hal_adc.c:1889:15
	bic	r1, r2, #32
	str	r1, [r0, #4]
	.loc	7 1890 15                       @ ../src/driver/stm32g4-v120/src/stm32g4xx_hal_adc.c:1890:15
	ldr	r1, [r0, #4]
	orr	r1, r1, #64
	b	.LBB17_33
.Ltmp505:
.LBB17_32:
	@DEBUG_VALUE: HAL_ADC_Start_IT:hadc <- $r4
	.loc	7 1894 15                       @ ../src/driver/stm32g4-v120/src/stm32g4xx_hal_adc.c:1894:15
	bic	r1, r2, #64
	str	r1, [r0, #4]
	.loc	7 1895 15                       @ ../src/driver/stm32g4-v120/src/stm32g4xx_hal_adc.c:1895:15
	ldr	r1, [r0, #4]
	orr	r1, r1, #32
.Ltmp506:
.LBB17_33:
	@DEBUG_VALUE: HAL_ADC_Start_IT:hadc <- $r4
	.loc	7 0 0 is_stmt 0                 @ ../src/driver/stm32g4-v120/src/stm32g4xx_hal_adc.c:0:0
	str	r1, [r0, #4]
	b	.LBB17_25
.Ltmp507:
.Lfunc_end17:
	.size	HAL_ADC_Start_IT, .Lfunc_end17-HAL_ADC_Start_IT
	.cfi_endproc
	.cantunwind
	.fnend
                                        @ -- End function
	.section	.text.HAL_ADC_Stop_IT,"ax",%progbits
	.hidden	HAL_ADC_Stop_IT                 @ -- Begin function HAL_ADC_Stop_IT
	.globl	HAL_ADC_Stop_IT
	.p2align	1
	.type	HAL_ADC_Stop_IT,%function
	.code	16                              @ @HAL_ADC_Stop_IT
	.thumb_func
HAL_ADC_Stop_IT:
.Lfunc_begin18:
	.loc	7 1952 0 is_stmt 1              @ ../src/driver/stm32g4-v120/src/stm32g4xx_hal_adc.c:1952:0
	.fnstart
	.cfi_startproc
@ %bb.0:
	@DEBUG_VALUE: HAL_ADC_Stop_IT:hadc <- $r0
	.save	{r4, lr}
	push	{r4, lr}
	.cfi_def_cfa_offset 8
	.cfi_offset lr, -4
	.cfi_offset r4, -8
	mov	r4, r0
.Ltmp508:
	@DEBUG_VALUE: HAL_ADC_Stop_IT:hadc <- $r4
	.loc	7 1959 3 prologue_end           @ ../src/driver/stm32g4-v120/src/stm32g4xx_hal_adc.c:1959:3
	ldrb.w	r0, [r0, #88]
.Ltmp509:
	.loc	7 1959 3 is_stmt 0              @ ../src/driver/stm32g4-v120/src/stm32g4xx_hal_adc.c:1959:3
	cmp	r0, #1
	itt	eq
	moveq	r0, #2
.Ltmp510:
	.loc	7 1989 1 is_stmt 1              @ ../src/driver/stm32g4-v120/src/stm32g4xx_hal_adc.c:1989:1
	popeq	{r4, pc}
.Ltmp511:
.LBB18_1:
	.loc	7 0 1 is_stmt 0                 @ ../src/driver/stm32g4-v120/src/stm32g4xx_hal_adc.c:0:1
	movs	r0, #1
.Ltmp512:
	.loc	7 1959 3 is_stmt 1              @ ../src/driver/stm32g4-v120/src/stm32g4xx_hal_adc.c:1959:3
	strb.w	r0, [r4, #88]
.Ltmp513:
	.loc	7 1962 20                       @ ../src/driver/stm32g4-v120/src/stm32g4xx_hal_adc.c:1962:20
	mov	r0, r4
	movs	r1, #3
	bl	ADC_ConversionStop
.Ltmp514:
	@DEBUG_VALUE: HAL_ADC_Stop_IT:tmp_hal_status <- $r0
	.loc	7 1965 7                        @ ../src/driver/stm32g4-v120/src/stm32g4xx_hal_adc.c:1965:7
	cbnz	r0, .LBB18_4
.Ltmp515:
@ %bb.2:
	@DEBUG_VALUE: HAL_ADC_Stop_IT:tmp_hal_status <- $r0
	.loc	7 1969 5                        @ ../src/driver/stm32g4-v120/src/stm32g4xx_hal_adc.c:1969:5
	ldr	r0, [r4]
.Ltmp516:
	ldr	r1, [r0, #4]
	bic	r1, r1, #28
	str	r1, [r0, #4]
	.loc	7 1972 22                       @ ../src/driver/stm32g4-v120/src/stm32g4xx_hal_adc.c:1972:22
	mov	r0, r4
	bl	ADC_Disable
.Ltmp517:
	@DEBUG_VALUE: HAL_ADC_Stop_IT:tmp_hal_status <- $r0
	.loc	7 1975 9                        @ ../src/driver/stm32g4-v120/src/stm32g4xx_hal_adc.c:1975:9
	cbnz	r0, .LBB18_4
.Ltmp518:
@ %bb.3:
	@DEBUG_VALUE: HAL_ADC_Stop_IT:tmp_hal_status <- $r0
	.loc	7 1978 7                        @ ../src/driver/stm32g4-v120/src/stm32g4xx_hal_adc.c:1978:7
	ldr	r0, [r4, #92]
.Ltmp519:
	.loc	7 0 7 is_stmt 0                 @ ../src/driver/stm32g4-v120/src/stm32g4xx_hal_adc.c:0:7
	movw	r1, #4353
	.loc	7 1978 7                        @ ../src/driver/stm32g4-v120/src/stm32g4xx_hal_adc.c:1978:7
	bics	r0, r1
	adds	r0, #1
	str	r0, [r4, #92]
	movs	r0, #0
.Ltmp520:
.LBB18_4:
	@DEBUG_VALUE: HAL_ADC_Stop_IT:tmp_hal_status <- $r0
	.loc	7 0 7                           @ ../src/driver/stm32g4-v120/src/stm32g4xx_hal_adc.c:0:7
	movs	r1, #0
.Ltmp521:
	.loc	7 1985 3 is_stmt 1              @ ../src/driver/stm32g4-v120/src/stm32g4xx_hal_adc.c:1985:3
	strb.w	r1, [r4, #88]
.Ltmp522:
	.loc	7 1989 1                        @ ../src/driver/stm32g4-v120/src/stm32g4xx_hal_adc.c:1989:1
	pop	{r4, pc}
.Ltmp523:
.Lfunc_end18:
	.size	HAL_ADC_Stop_IT, .Lfunc_end18-HAL_ADC_Stop_IT
	.cfi_endproc
	.cantunwind
	.fnend
                                        @ -- End function
	.section	.text.HAL_ADC_Start_DMA,"ax",%progbits
	.hidden	HAL_ADC_Start_DMA               @ -- Begin function HAL_ADC_Start_DMA
	.globl	HAL_ADC_Start_DMA
	.p2align	1
	.type	HAL_ADC_Start_DMA,%function
	.code	16                              @ @HAL_ADC_Start_DMA
	.thumb_func
HAL_ADC_Start_DMA:
.Lfunc_begin19:
	.loc	7 2005 0                        @ ../src/driver/stm32g4-v120/src/stm32g4xx_hal_adc.c:2005:0
	.fnstart
	.cfi_startproc
@ %bb.0:
	@DEBUG_VALUE: HAL_ADC_Start_DMA:hadc <- $r0
	@DEBUG_VALUE: HAL_ADC_Start_DMA:pData <- $r1
	@DEBUG_VALUE: HAL_ADC_Start_DMA:Length <- $r2
	.save	{r4, r5, r6, r7, r8, lr}
	push.w	{r4, r5, r6, r7, r8, lr}
	.cfi_def_cfa_offset 24
	.cfi_offset lr, -4
	.cfi_offset r8, -8
	.cfi_offset r7, -12
	.cfi_offset r6, -16
	.cfi_offset r5, -20
	.cfi_offset r4, -24
	movw	r7, #776
	movt	r7, #20480
.Ltmp524:
	@DEBUG_VALUE: HAL_ADC_Start_DMA:hadc <- $r4
	.loc	7 2008 55 prologue_end          @ ../src/driver/stm32g4-v120/src/stm32g4xx_hal_adc.c:2008:55
	ldr	r3, [r0]
	mov	r4, r0
.Ltmp525:
	sub.w	r0, r7, #520
.Ltmp526:
	@DEBUG_VALUE: LL_ADC_GetMultimode:ADCxy_COMMON <- undef
	.loc	8 6379 21                       @ ../src/driver/stm32g4-v120/inc/stm32g4xx_ll_adc.h:6379:21
	cmp	r3, r0
	add.w	r0, r7, #1024
	itt	eq
	movweq	r0, #776
	movteq	r0, #20480
	cmp.w	r3, #1342177280
	itt	eq
	movweq	r0, #776
	movteq	r0, #20480
	ldr	r0, [r0]
.Ltmp527:
	@DEBUG_VALUE: LL_ADC_REG_IsConversionOngoing:ADCx <- $r3
	@DEBUG_VALUE: HAL_ADC_Start_DMA:tmp_multimode_config <- undef
	.loc	8 6838 12                       @ ../src/driver/stm32g4-v120/inc/stm32g4xx_ll_adc.h:6838:12
	ldr	r3, [r3, #8]
.Ltmp528:
	.loc	8 0 12 is_stmt 0                @ ../src/driver/stm32g4-v120/inc/stm32g4xx_ll_adc.h:0:12
	mov	r8, r2
.Ltmp529:
	@DEBUG_VALUE: HAL_ADC_Start_DMA:Length <- $r8
	@DEBUG_VALUE: HAL_ADC_Start_DMA:Length <- $r8
	.loc	7 2015 7 is_stmt 1              @ ../src/driver/stm32g4-v120/src/stm32g4xx_hal_adc.c:2015:7
	lsls	r2, r3, #29
	@DEBUG_VALUE: HAL_ADC_Start_DMA:pData <- $r1
	bmi	.LBB19_2
.Ltmp530:
@ %bb.1:
	@DEBUG_VALUE: HAL_ADC_Start_DMA:Length <- $r8
	@DEBUG_VALUE: HAL_ADC_Start_DMA:pData <- $r1
	.loc	7 0 7 is_stmt 0                 @ ../src/driver/stm32g4-v120/src/stm32g4xx_hal_adc.c:0:7
	mov	r6, r1
.Ltmp531:
	@DEBUG_VALUE: HAL_ADC_Start_DMA:pData <- $r6
	@DEBUG_VALUE: HAL_ADC_Start_DMA:pData <- $r6
	@DEBUG_VALUE: HAL_ADC_Start_DMA:tmp_multimode_config <- undef
	.loc	7 2018 5 is_stmt 1              @ ../src/driver/stm32g4-v120/src/stm32g4xx_hal_adc.c:2018:5
	ldrb.w	r1, [r4, #88]
.Ltmp532:
	.loc	7 2018 5 is_stmt 0              @ ../src/driver/stm32g4-v120/src/stm32g4xx_hal_adc.c:2018:5
	cmp	r1, #1
	bne	.LBB19_3
.Ltmp533:
.LBB19_2:
	@DEBUG_VALUE: HAL_ADC_Start_DMA:Length <- $r8
	.loc	7 0 5                           @ ../src/driver/stm32g4-v120/src/stm32g4xx_hal_adc.c:0:5
	movs	r0, #2
	.loc	7 2130 1 is_stmt 1              @ ../src/driver/stm32g4-v120/src/stm32g4xx_hal_adc.c:2130:1
	pop.w	{r4, r5, r6, r7, r8, pc}
.Ltmp534:
.LBB19_3:
	@DEBUG_VALUE: HAL_ADC_Start_DMA:Length <- $r8
	@DEBUG_VALUE: HAL_ADC_Start_DMA:pData <- $r6
	.loc	7 0 1 is_stmt 0                 @ ../src/driver/stm32g4-v120/src/stm32g4xx_hal_adc.c:0:1
	and	r5, r0, #31
.Ltmp535:
	@DEBUG_VALUE: HAL_ADC_Start_DMA:tmp_multimode_config <- $r5
	movs	r0, #1
.Ltmp536:
	.loc	7 2024 9 is_stmt 1              @ ../src/driver/stm32g4-v120/src/stm32g4xx_hal_adc.c:2024:9
	cmp	r5, #9
.Ltmp537:
	.loc	7 2018 5                        @ ../src/driver/stm32g4-v120/src/stm32g4xx_hal_adc.c:2018:5
	strb.w	r0, [r4, #88]
.Ltmp538:
	.loc	7 2024 9                        @ ../src/driver/stm32g4-v120/src/stm32g4xx_hal_adc.c:2024:9
	bhi	.LBB19_10
.Ltmp539:
@ %bb.4:
	@DEBUG_VALUE: HAL_ADC_Start_DMA:Length <- $r8
	@DEBUG_VALUE: HAL_ADC_Start_DMA:pData <- $r6
	@DEBUG_VALUE: HAL_ADC_Start_DMA:tmp_multimode_config <- $r5
	.loc	7 0 9 is_stmt 0                 @ ../src/driver/stm32g4-v120/src/stm32g4xx_hal_adc.c:0:9
	lsls	r0, r5
	movw	r1, #545
	tst	r0, r1
	beq	.LBB19_10
.Ltmp540:
@ %bb.5:
	@DEBUG_VALUE: HAL_ADC_Start_DMA:Length <- $r8
	@DEBUG_VALUE: HAL_ADC_Start_DMA:pData <- $r6
	@DEBUG_VALUE: HAL_ADC_Start_DMA:tmp_multimode_config <- $r5
	.loc	7 2030 24 is_stmt 1             @ ../src/driver/stm32g4-v120/src/stm32g4xx_hal_adc.c:2030:24
	mov	r0, r4
	bl	ADC_Enable
.Ltmp541:
	@DEBUG_VALUE: HAL_ADC_Start_DMA:tmp_hal_status <- $r0
	.loc	7 2033 11                       @ ../src/driver/stm32g4-v120/src/stm32g4xx_hal_adc.c:2033:11
	cbz	r0, .LBB19_7
.Ltmp542:
@ %bb.6:
	@DEBUG_VALUE: HAL_ADC_Start_DMA:Length <- $r8
	@DEBUG_VALUE: HAL_ADC_Start_DMA:pData <- $r6
	@DEBUG_VALUE: HAL_ADC_Start_DMA:tmp_multimode_config <- $r5
	@DEBUG_VALUE: HAL_ADC_Start_DMA:tmp_hal_status <- $r0
	.loc	7 0 11 is_stmt 0                @ ../src/driver/stm32g4-v120/src/stm32g4xx_hal_adc.c:0:11
	movs	r1, #0
.Ltmp543:
	.loc	7 2110 9 is_stmt 1              @ ../src/driver/stm32g4-v120/src/stm32g4xx_hal_adc.c:2110:9
	strb.w	r1, [r4, #88]
.Ltmp544:
	.loc	7 2130 1                        @ ../src/driver/stm32g4-v120/src/stm32g4xx_hal_adc.c:2130:1
	pop.w	{r4, r5, r6, r7, r8, pc}
.Ltmp545:
.LBB19_7:
	@DEBUG_VALUE: HAL_ADC_Start_DMA:Length <- $r8
	@DEBUG_VALUE: HAL_ADC_Start_DMA:pData <- $r6
	@DEBUG_VALUE: HAL_ADC_Start_DMA:tmp_multimode_config <- $r5
	@DEBUG_VALUE: HAL_ADC_Start_DMA:tmp_hal_status <- $r0
	.loc	7 2046 14                       @ ../src/driver/stm32g4-v120/src/stm32g4xx_hal_adc.c:2046:14
	ldr	r1, [r4]
.Ltmp546:
	.loc	7 2038 9                        @ ../src/driver/stm32g4-v120/src/stm32g4xx_hal_adc.c:2038:9
	ldr	r0, [r4, #92]
.Ltmp547:
	.loc	7 0 9 is_stmt 0                 @ ../src/driver/stm32g4-v120/src/stm32g4xx_hal_adc.c:0:9
	movw	r2, #3841
	.loc	7 2038 9                        @ ../src/driver/stm32g4-v120/src/stm32g4xx_hal_adc.c:2038:9
	bics	r0, r2
	movw	r2, #256
	movt	r2, #20480
	add.w	r0, r0, #256
.Ltmp548:
	.loc	7 2046 14 is_stmt 1             @ ../src/driver/stm32g4-v120/src/stm32g4xx_hal_adc.c:2046:14
	cmp	r1, r2
.Ltmp549:
	.loc	7 2038 9                        @ ../src/driver/stm32g4-v120/src/stm32g4xx_hal_adc.c:2038:9
	str	r0, [r4, #92]
.Ltmp550:
	.loc	7 2046 14                       @ ../src/driver/stm32g4-v120/src/stm32g4xx_hal_adc.c:2046:14
	beq	.LBB19_11
.Ltmp551:
@ %bb.8:
	@DEBUG_VALUE: HAL_ADC_Start_DMA:Length <- $r8
	@DEBUG_VALUE: HAL_ADC_Start_DMA:pData <- $r6
	@DEBUG_VALUE: HAL_ADC_Start_DMA:tmp_multimode_config <- $r5
	.loc	7 0 14 is_stmt 0                @ ../src/driver/stm32g4-v120/src/stm32g4xx_hal_adc.c:0:14
	movw	r0, #1280
	movt	r0, #20480
	.loc	7 2046 14                       @ ../src/driver/stm32g4-v120/src/stm32g4xx_hal_adc.c:2046:14
	cmp	r1, r0
	bne	.LBB19_14
.Ltmp552:
@ %bb.9:
	@DEBUG_VALUE: HAL_ADC_Start_DMA:Length <- $r8
	@DEBUG_VALUE: HAL_ADC_Start_DMA:pData <- $r6
	@DEBUG_VALUE: HAL_ADC_Start_DMA:tmp_multimode_config <- $r5
	add.w	r0, r7, #248
	b	.LBB19_12
.Ltmp553:
.LBB19_10:
	@DEBUG_VALUE: HAL_ADC_Start_DMA:Length <- $r8
	@DEBUG_VALUE: HAL_ADC_Start_DMA:pData <- $r6
	@DEBUG_VALUE: HAL_ADC_Start_DMA:tmp_multimode_config <- $r5
	@DEBUG_VALUE: HAL_ADC_Start_DMA:tmp_hal_status <- 1
	.loc	7 0 14                          @ ../src/driver/stm32g4-v120/src/stm32g4xx_hal_adc.c:0:14
	movs	r0, #0
.Ltmp554:
	.loc	7 2119 7 is_stmt 1              @ ../src/driver/stm32g4-v120/src/stm32g4xx_hal_adc.c:2119:7
	strb.w	r0, [r4, #88]
	movs	r0, #1
.Ltmp555:
	.loc	7 2130 1                        @ ../src/driver/stm32g4-v120/src/stm32g4xx_hal_adc.c:2130:1
	pop.w	{r4, r5, r6, r7, r8, pc}
.Ltmp556:
.LBB19_11:
	@DEBUG_VALUE: HAL_ADC_Start_DMA:Length <- $r8
	@DEBUG_VALUE: HAL_ADC_Start_DMA:pData <- $r6
	@DEBUG_VALUE: HAL_ADC_Start_DMA:tmp_multimode_config <- $r5
	.loc	7 0 1 is_stmt 0                 @ ../src/driver/stm32g4-v120/src/stm32g4xx_hal_adc.c:0:1
	mov.w	r0, #1342177280
.Ltmp557:
.LBB19_12:
	@DEBUG_VALUE: HAL_ADC_Start_DMA:Length <- $r8
	@DEBUG_VALUE: HAL_ADC_Start_DMA:pData <- $r6
	@DEBUG_VALUE: HAL_ADC_Start_DMA:tmp_multimode_config <- $r5
	.loc	7 2047 13 is_stmt 1             @ ../src/driver/stm32g4-v120/src/stm32g4xx_hal_adc.c:2047:13
	cbz	r5, .LBB19_14
.Ltmp558:
@ %bb.13:
	@DEBUG_VALUE: HAL_ADC_Start_DMA:Length <- $r8
	@DEBUG_VALUE: HAL_ADC_Start_DMA:pData <- $r6
	@DEBUG_VALUE: HAL_ADC_Start_DMA:tmp_multimode_config <- $r5
	cmp	r0, r1
	bne	.LBB19_15
.Ltmp559:
.LBB19_14:
	@DEBUG_VALUE: HAL_ADC_Start_DMA:Length <- $r8
	@DEBUG_VALUE: HAL_ADC_Start_DMA:pData <- $r6
	@DEBUG_VALUE: HAL_ADC_Start_DMA:tmp_multimode_config <- $r5
	.loc	7 2050 11                       @ ../src/driver/stm32g4-v120/src/stm32g4xx_hal_adc.c:2050:11
	ldr	r0, [r4, #92]
	bic	r0, r0, #1048576
	str	r0, [r4, #92]
.Ltmp560:
.LBB19_15:
	@DEBUG_VALUE: HAL_ADC_Start_DMA:Length <- $r8
	@DEBUG_VALUE: HAL_ADC_Start_DMA:pData <- $r6
	@DEBUG_VALUE: HAL_ADC_Start_DMA:tmp_multimode_config <- $r5
	.loc	7 2055 20                       @ ../src/driver/stm32g4-v120/src/stm32g4xx_hal_adc.c:2055:20
	ldr	r0, [r4, #92]
.Ltmp561:
	.loc	7 2067 44                       @ ../src/driver/stm32g4-v120/src/stm32g4xx_hal_adc.c:2067:44
	movw	r3, :lower16:ADC_DMAConvCplt
	.loc	7 2055 13                       @ ../src/driver/stm32g4-v120/src/stm32g4xx_hal_adc.c:2055:13
	lsls	r0, r0, #19
	mov.w	r0, #0
.Ltmp562:
	.loc	7 2058 11                       @ ../src/driver/stm32g4-v120/src/stm32g4xx_hal_adc.c:2058:11
	itt	mi
	ldrmi	r0, [r4, #96]
	bicmi	r0, r0, #6
.Ltmp563:
	.loc	7 0 0 is_stmt 0                 @ ../src/driver/stm32g4-v120/src/stm32g4xx_hal_adc.c:0:0
	str	r0, [r4, #96]
.Ltmp564:
	.loc	7 2067 15 is_stmt 1             @ ../src/driver/stm32g4-v120/src/stm32g4xx_hal_adc.c:2067:15
	ldr	r0, [r4, #84]
	.loc	7 2070 48                       @ ../src/driver/stm32g4-v120/src/stm32g4xx_hal_adc.c:2070:48
	movw	r7, :lower16:ADC_DMAHalfConvCplt
	.loc	7 2067 44                       @ ../src/driver/stm32g4-v120/src/stm32g4xx_hal_adc.c:2067:44
	movt	r3, :upper16:ADC_DMAConvCplt
	.loc	7 2070 48                       @ ../src/driver/stm32g4-v120/src/stm32g4xx_hal_adc.c:2070:48
	movt	r7, :upper16:ADC_DMAHalfConvCplt
	.loc	7 2073 45                       @ ../src/driver/stm32g4-v120/src/stm32g4xx_hal_adc.c:2073:45
	movw	r5, :lower16:ADC_DMAError
.Ltmp565:
	.loc	7 0 45 is_stmt 0                @ ../src/driver/stm32g4-v120/src/stm32g4xx_hal_adc.c:0:45
	movs	r2, #0
	.loc	7 2073 45                       @ ../src/driver/stm32g4-v120/src/stm32g4xx_hal_adc.c:2073:45
	movt	r5, :upper16:ADC_DMAError
	.loc	7 2067 44 is_stmt 1             @ ../src/driver/stm32g4-v120/src/stm32g4xx_hal_adc.c:2067:44
	strd	r3, r7, [r0, #44]
	movs	r3, #28
	.loc	7 2073 45                       @ ../src/driver/stm32g4-v120/src/stm32g4xx_hal_adc.c:2073:45
	str	r5, [r0, #52]
	.loc	7 2082 9                        @ ../src/driver/stm32g4-v120/src/stm32g4xx_hal_adc.c:2082:9
	str	r3, [r1]
.Ltmp566:
	.loc	7 2087 9                        @ ../src/driver/stm32g4-v120/src/stm32g4xx_hal_adc.c:2087:9
	strb.w	r2, [r4, #88]
.Ltmp567:
	.loc	7 2092 9                        @ ../src/driver/stm32g4-v120/src/stm32g4xx_hal_adc.c:2092:9
	ldr	r2, [r1, #4]
	.loc	7 2098 26                       @ ../src/driver/stm32g4-v120/src/stm32g4xx_hal_adc.c:2098:26
	mov	r3, r8
	.loc	7 2092 9                        @ ../src/driver/stm32g4-v120/src/stm32g4xx_hal_adc.c:2092:9
	orr	r2, r2, #16
	str	r2, [r1, #4]
	.loc	7 2095 9                        @ ../src/driver/stm32g4-v120/src/stm32g4xx_hal_adc.c:2095:9
	ldr	r2, [r1, #12]
	orr	r2, r2, #1
	str	r2, [r1, #12]
	.loc	7 2098 88                       @ ../src/driver/stm32g4-v120/src/stm32g4xx_hal_adc.c:2098:88
	adds	r1, #64
	.loc	7 2098 26 is_stmt 0             @ ../src/driver/stm32g4-v120/src/stm32g4xx_hal_adc.c:2098:26
	mov	r2, r6
	bl	HAL_DMA_Start_IT
.Ltmp568:
	.loc	7 2105 42 is_stmt 1             @ ../src/driver/stm32g4-v120/src/stm32g4xx_hal_adc.c:2105:42
	ldr	r1, [r4]
.Ltmp569:
	@DEBUG_VALUE: LL_ADC_REG_StartConversion:ADCx <- $r1
	@DEBUG_VALUE: HAL_ADC_Start_DMA:tmp_hal_status <- undef
	.loc	7 0 42 is_stmt 0                @ ../src/driver/stm32g4-v120/src/stm32g4xx_hal_adc.c:0:42
	movw	r3, #65472
.Ltmp570:
	.loc	8 6805 3 is_stmt 1              @ ../src/driver/stm32g4-v120/inc/stm32g4xx_ll_adc.h:6805:3
	ldr	r2, [r1, #8]
	movt	r3, #32767
	ands	r2, r3
	adds	r2, #4
	str	r2, [r1, #8]
.Ltmp571:
	@DEBUG_VALUE: LL_ADC_REG_StartConversion:ADCx <- $r1
	.loc	7 2130 1                        @ ../src/driver/stm32g4-v120/src/stm32g4xx_hal_adc.c:2130:1
	pop.w	{r4, r5, r6, r7, r8, pc}
.Ltmp572:
.Lfunc_end19:
	.size	HAL_ADC_Start_DMA, .Lfunc_end19-HAL_ADC_Start_DMA
	.cfi_endproc
	.cantunwind
	.fnend
                                        @ -- End function
	.section	.text.ADC_DMAConvCplt,"ax",%progbits
	.hidden	ADC_DMAConvCplt                 @ -- Begin function ADC_DMAConvCplt
	.globl	ADC_DMAConvCplt
	.p2align	1
	.type	ADC_DMAConvCplt,%function
	.code	16                              @ @ADC_DMAConvCplt
	.thumb_func
ADC_DMAConvCplt:
.Lfunc_begin20:
	.loc	7 3542 0                        @ ../src/driver/stm32g4-v120/src/stm32g4xx_hal_adc.c:3542:0
	.fnstart
	.cfi_startproc
@ %bb.0:
	@DEBUG_VALUE: ADC_DMAConvCplt:hdma <- $r0
	mov	r1, r0
.Ltmp573:
	@DEBUG_VALUE: ADC_DMAConvCplt:hdma <- $r1
	.loc	7 3544 79 prologue_end          @ ../src/driver/stm32g4-v120/src/stm32g4xx_hal_adc.c:3544:79
	ldr	r0, [r0, #40]
.Ltmp574:
	@DEBUG_VALUE: ADC_DMAConvCplt:hadc <- $r0
	.loc	7 3547 14                       @ ../src/driver/stm32g4-v120/src/stm32g4xx_hal_adc.c:3547:14
	ldr	r3, [r0, #92]
	.loc	7 0 0 is_stmt 0                 @ ../src/driver/stm32g4-v120/src/stm32g4xx_hal_adc.c:0:0
	ldr	r2, [r0, #92]
.Ltmp575:
	.loc	7 3547 7                        @ ../src/driver/stm32g4-v120/src/stm32g4xx_hal_adc.c:3547:7
	tst.w	r3, #80
	beq	.LBB20_3
.Ltmp576:
@ %bb.1:
	@DEBUG_VALUE: ADC_DMAConvCplt:hdma <- $r1
	@DEBUG_VALUE: ADC_DMAConvCplt:hadc <- $r0
	.loc	7 3597 9 is_stmt 1              @ ../src/driver/stm32g4-v120/src/stm32g4xx_hal_adc.c:3597:9
	lsls	r2, r2, #27
	bmi	.LBB20_5
.Ltmp577:
@ %bb.2:
	@DEBUG_VALUE: ADC_DMAConvCplt:hdma <- $r1
	@DEBUG_VALUE: ADC_DMAConvCplt:hadc <- $r0
	.loc	7 3609 13                       @ ../src/driver/stm32g4-v120/src/stm32g4xx_hal_adc.c:3609:13
	ldr	r0, [r0, #84]
.Ltmp578:
	.loc	7 3609 25 is_stmt 0             @ ../src/driver/stm32g4-v120/src/stm32g4xx_hal_adc.c:3609:25
	ldr	r2, [r0, #52]
	.loc	7 3609 7                        @ ../src/driver/stm32g4-v120/src/stm32g4xx_hal_adc.c:3609:7
	mov	r0, r1
.Ltmp579:
	bx	r2
.Ltmp580:
.LBB20_3:
	@DEBUG_VALUE: ADC_DMAConvCplt:hdma <- $r1
	@DEBUG_VALUE: ADC_DMAConvCplt:hadc <- $r0
	.loc	7 3550 5 is_stmt 1              @ ../src/driver/stm32g4-v120/src/stm32g4xx_hal_adc.c:3550:5
	orr	r1, r2, #512
.Ltmp581:
	str	r1, [r0, #92]
.Ltmp582:
	.loc	7 3556 16                       @ ../src/driver/stm32g4-v120/src/stm32g4xx_hal_adc.c:3556:16
	ldr	r1, [r0]
	.loc	7 3556 26 is_stmt 0             @ ../src/driver/stm32g4-v120/src/stm32g4xx_hal_adc.c:3556:26
	ldr	r3, [r1]
	.loc	7 0 0                           @ ../src/driver/stm32g4-v120/src/stm32g4xx_hal_adc.c:0:0
	ldr	r2, [r1, #12]
.Ltmp583:
	.loc	7 3556 9                        @ ../src/driver/stm32g4-v120/src/stm32g4xx_hal_adc.c:3556:9
	lsls	r3, r3, #28
	bmi	.LBB20_6
.Ltmp584:
@ %bb.4:
	@DEBUG_VALUE: ADC_DMAConvCplt:hadc <- $r0
	.loc	7 3577 11 is_stmt 1             @ ../src/driver/stm32g4-v120/src/stm32g4xx_hal_adc.c:3577:11
	lsls	r1, r2, #30
	bpl	.LBB20_8
	b	.LBB20_10
.Ltmp585:
.LBB20_5:
	@DEBUG_VALUE: ADC_DMAConvCplt:hdma <- $r1
	@DEBUG_VALUE: ADC_DMAConvCplt:hadc <- $r0
	.loc	7 3601 13                       @ ../src/driver/stm32g4-v120/src/stm32g4xx_hal_adc.c:3601:13
	ldr	r1, [r0, #120]
.Ltmp586:
	.loc	7 3601 7 is_stmt 0              @ ../src/driver/stm32g4-v120/src/stm32g4xx_hal_adc.c:3601:7
	bx	r1
.Ltmp587:
.LBB20_6:
	@DEBUG_VALUE: ADC_DMAConvCplt:hadc <- $r0
	@DEBUG_VALUE: LL_ADC_REG_IsTriggerSourceSWStart:ADCx <- $r1
	.loc	7 3559 11 is_stmt 1             @ ../src/driver/stm32g4-v120/src/stm32g4xx_hal_adc.c:3559:11
	tst.w	r2, #3072
	bne	.LBB20_10
.Ltmp588:
@ %bb.7:
	@DEBUG_VALUE: ADC_DMAConvCplt:hadc <- $r0
	.loc	7 3562 13                       @ ../src/driver/stm32g4-v120/src/stm32g4xx_hal_adc.c:3562:13
	ldr	r1, [r1, #12]
.Ltmp589:
	.loc	7 3562 13 is_stmt 0             @ ../src/driver/stm32g4-v120/src/stm32g4xx_hal_adc.c:3562:13
	lsls	r1, r1, #18
	bmi	.LBB20_10
.Ltmp590:
.LBB20_8:
	@DEBUG_VALUE: ADC_DMAConvCplt:hadc <- $r0
	.loc	7 0 0                           @ ../src/driver/stm32g4-v120/src/stm32g4xx_hal_adc.c:0:0
	ldr	r1, [r0, #92]
	bic	r1, r1, #256
	str	r1, [r0, #92]
	ldr	r1, [r0, #92]
	lsls	r1, r1, #19
	bmi	.LBB20_10
.Ltmp591:
@ %bb.9:
	@DEBUG_VALUE: ADC_DMAConvCplt:hadc <- $r0
	ldr	r1, [r0, #92]
	orr	r1, r1, #1
	str	r1, [r0, #92]
.Ltmp592:
.LBB20_10:
	@DEBUG_VALUE: ADC_DMAConvCplt:hadc <- $r0
	.loc	7 3590 11 is_stmt 1             @ ../src/driver/stm32g4-v120/src/stm32g4xx_hal_adc.c:3590:11
	ldr	r1, [r0, #108]
.Ltmp593:
	.loc	7 3590 5 is_stmt 0              @ ../src/driver/stm32g4-v120/src/stm32g4xx_hal_adc.c:3590:5
	bx	r1
.Ltmp594:
.Lfunc_end20:
	.size	ADC_DMAConvCplt, .Lfunc_end20-ADC_DMAConvCplt
	.cfi_endproc
	.cantunwind
	.fnend
                                        @ -- End function
	.section	.text.ADC_DMAHalfConvCplt,"ax",%progbits
	.hidden	ADC_DMAHalfConvCplt             @ -- Begin function ADC_DMAHalfConvCplt
	.globl	ADC_DMAHalfConvCplt
	.p2align	1
	.type	ADC_DMAHalfConvCplt,%function
	.code	16                              @ @ADC_DMAHalfConvCplt
	.thumb_func
ADC_DMAHalfConvCplt:
.Lfunc_begin21:
	.loc	7 3620 0 is_stmt 1              @ ../src/driver/stm32g4-v120/src/stm32g4xx_hal_adc.c:3620:0
	.fnstart
	.cfi_startproc
@ %bb.0:
	@DEBUG_VALUE: ADC_DMAHalfConvCplt:hdma <- $r0
	@DEBUG_VALUE: ADC_DMAHalfConvCplt:hdma <- $r0
	.loc	7 3622 79 prologue_end          @ ../src/driver/stm32g4-v120/src/stm32g4xx_hal_adc.c:3622:79
	ldr	r0, [r0, #40]
.Ltmp595:
	@DEBUG_VALUE: ADC_DMAHalfConvCplt:hdma <- [DW_OP_LLVM_entry_value 1] $r0
	@DEBUG_VALUE: ADC_DMAHalfConvCplt:hadc <- $r0
	.loc	7 3626 9                        @ ../src/driver/stm32g4-v120/src/stm32g4xx_hal_adc.c:3626:9
	ldr	r1, [r0, #112]
.Ltmp596:
	.loc	7 3626 3 is_stmt 0              @ ../src/driver/stm32g4-v120/src/stm32g4xx_hal_adc.c:3626:3
	bx	r1
.Ltmp597:
.Lfunc_end21:
	.size	ADC_DMAHalfConvCplt, .Lfunc_end21-ADC_DMAHalfConvCplt
	.cfi_endproc
	.cantunwind
	.fnend
                                        @ -- End function
	.section	.text.ADC_DMAError,"ax",%progbits
	.hidden	ADC_DMAError                    @ -- Begin function ADC_DMAError
	.globl	ADC_DMAError
	.p2align	1
	.type	ADC_DMAError,%function
	.code	16                              @ @ADC_DMAError
	.thumb_func
ADC_DMAError:
.Lfunc_begin22:
	.loc	7 3638 0 is_stmt 1              @ ../src/driver/stm32g4-v120/src/stm32g4xx_hal_adc.c:3638:0
	.fnstart
	.cfi_startproc
@ %bb.0:
	@DEBUG_VALUE: ADC_DMAError:hdma <- $r0
	@DEBUG_VALUE: ADC_DMAError:hdma <- $r0
	.loc	7 3640 79 prologue_end          @ ../src/driver/stm32g4-v120/src/stm32g4xx_hal_adc.c:3640:79
	ldr	r0, [r0, #40]
.Ltmp598:
	@DEBUG_VALUE: ADC_DMAError:hdma <- [DW_OP_LLVM_entry_value 1] $r0
	@DEBUG_VALUE: ADC_DMAError:hadc <- $r0
	.loc	7 3643 3                        @ ../src/driver/stm32g4-v120/src/stm32g4xx_hal_adc.c:3643:3
	ldr	r1, [r0, #92]
	.loc	7 3650 9                        @ ../src/driver/stm32g4-v120/src/stm32g4xx_hal_adc.c:3650:9
	ldr	r2, [r0, #120]
	.loc	7 3643 3                        @ ../src/driver/stm32g4-v120/src/stm32g4xx_hal_adc.c:3643:3
	orr	r1, r1, #64
	str	r1, [r0, #92]
	.loc	7 3646 3                        @ ../src/driver/stm32g4-v120/src/stm32g4xx_hal_adc.c:3646:3
	ldr	r1, [r0, #96]
	orr	r1, r1, #4
	str	r1, [r0, #96]
.Ltmp599:
	.loc	7 3650 3                        @ ../src/driver/stm32g4-v120/src/stm32g4xx_hal_adc.c:3650:3
	bx	r2
.Ltmp600:
.Lfunc_end22:
	.size	ADC_DMAError, .Lfunc_end22-ADC_DMAError
	.cfi_endproc
	.cantunwind
	.fnend
                                        @ -- End function
	.section	.text.HAL_ADC_Stop_DMA,"ax",%progbits
	.hidden	HAL_ADC_Stop_DMA                @ -- Begin function HAL_ADC_Stop_DMA
	.globl	HAL_ADC_Stop_DMA
	.p2align	1
	.type	HAL_ADC_Stop_DMA,%function
	.code	16                              @ @HAL_ADC_Stop_DMA
	.thumb_func
HAL_ADC_Stop_DMA:
.Lfunc_begin23:
	.loc	7 2146 0                        @ ../src/driver/stm32g4-v120/src/stm32g4xx_hal_adc.c:2146:0
	.fnstart
	.cfi_startproc
@ %bb.0:
	@DEBUG_VALUE: HAL_ADC_Stop_DMA:hadc <- $r0
	.save	{r4, r5, r7, lr}
	push	{r4, r5, r7, lr}
	.cfi_def_cfa_offset 16
	.cfi_offset lr, -4
	.cfi_offset r7, -8
	.cfi_offset r5, -12
	.cfi_offset r4, -16
	mov	r4, r0
.Ltmp601:
	@DEBUG_VALUE: HAL_ADC_Stop_DMA:hadc <- $r4
	.loc	7 2153 3 prologue_end           @ ../src/driver/stm32g4-v120/src/stm32g4xx_hal_adc.c:2153:3
	ldrb.w	r0, [r0, #88]
.Ltmp602:
	.loc	7 2153 3 is_stmt 0              @ ../src/driver/stm32g4-v120/src/stm32g4xx_hal_adc.c:2153:3
	cmp	r0, #1
	bne	.LBB23_2
.Ltmp603:
@ %bb.1:
	@DEBUG_VALUE: HAL_ADC_Stop_DMA:hadc <- $r4
	.loc	7 0 3                           @ ../src/driver/stm32g4-v120/src/stm32g4xx_hal_adc.c:0:3
	movs	r5, #2
	b	.LBB23_10
.Ltmp604:
.LBB23_2:
	@DEBUG_VALUE: HAL_ADC_Stop_DMA:hadc <- $r4
	movs	r0, #1
.Ltmp605:
	.loc	7 2153 3                        @ ../src/driver/stm32g4-v120/src/stm32g4xx_hal_adc.c:2153:3
	strb.w	r0, [r4, #88]
.Ltmp606:
	.loc	7 2156 20 is_stmt 1             @ ../src/driver/stm32g4-v120/src/stm32g4xx_hal_adc.c:2156:20
	mov	r0, r4
	movs	r1, #3
	bl	ADC_ConversionStop
.Ltmp607:
	mov	r5, r0
.Ltmp608:
	@DEBUG_VALUE: HAL_ADC_Stop_DMA:tmp_hal_status <- $r5
	.loc	7 2159 7                        @ ../src/driver/stm32g4-v120/src/stm32g4xx_hal_adc.c:2159:7
	cbnz	r0, .LBB23_9
.Ltmp609:
@ %bb.3:
	@DEBUG_VALUE: HAL_ADC_Stop_DMA:tmp_hal_status <- $r5
	@DEBUG_VALUE: HAL_ADC_Stop_DMA:hadc <- $r4
	.loc	7 2162 5                        @ ../src/driver/stm32g4-v120/src/stm32g4xx_hal_adc.c:2162:5
	ldr	r1, [r4]
.Ltmp610:
	.loc	7 2166 15                       @ ../src/driver/stm32g4-v120/src/stm32g4xx_hal_adc.c:2166:15
	ldr	r0, [r4, #84]
.Ltmp611:
	.loc	7 2162 5                        @ ../src/driver/stm32g4-v120/src/stm32g4xx_hal_adc.c:2162:5
	ldr	r2, [r1, #12]
	bic	r2, r2, #1
	str	r2, [r1, #12]
.Ltmp612:
	.loc	7 2166 27                       @ ../src/driver/stm32g4-v120/src/stm32g4xx_hal_adc.c:2166:27
	ldrb.w	r2, [r0, #37]
.Ltmp613:
	.loc	7 2166 9 is_stmt 0              @ ../src/driver/stm32g4-v120/src/stm32g4xx_hal_adc.c:2166:9
	cmp	r2, #2
	bne	.LBB23_7
.Ltmp614:
@ %bb.4:
	@DEBUG_VALUE: HAL_ADC_Stop_DMA:tmp_hal_status <- $r5
	@DEBUG_VALUE: HAL_ADC_Stop_DMA:hadc <- $r4
	.loc	7 2168 24 is_stmt 1             @ ../src/driver/stm32g4-v120/src/stm32g4xx_hal_adc.c:2168:24
	bl	HAL_DMA_Abort
.Ltmp615:
	@DEBUG_VALUE: HAL_ADC_Stop_DMA:tmp_hal_status <- $r0
	.loc	7 2171 11                       @ ../src/driver/stm32g4-v120/src/stm32g4xx_hal_adc.c:2171:11
	cbz	r0, .LBB23_6
.Ltmp616:
@ %bb.5:
	@DEBUG_VALUE: HAL_ADC_Stop_DMA:hadc <- $r4
	@DEBUG_VALUE: HAL_ADC_Stop_DMA:tmp_hal_status <- $r0
	.loc	7 0 0 is_stmt 0                 @ ../src/driver/stm32g4-v120/src/stm32g4xx_hal_adc.c:0:0
	mov	r5, r0
.Ltmp617:
	@DEBUG_VALUE: HAL_ADC_Stop_DMA:tmp_hal_status <- $r5
	@DEBUG_VALUE: HAL_ADC_Stop_DMA:tmp_hal_status <- $r5
	@DEBUG_VALUE: HAL_ADC_Stop_DMA:tmp_hal_status <- $r5
	.loc	7 2179 5 is_stmt 1              @ ../src/driver/stm32g4-v120/src/stm32g4xx_hal_adc.c:2179:5
	ldr	r0, [r4]
.Ltmp618:
	.loc	7 2174 9                        @ ../src/driver/stm32g4-v120/src/stm32g4xx_hal_adc.c:2174:9
	ldr	r1, [r4, #92]
	orr	r1, r1, #64
	str	r1, [r4, #92]
.Ltmp619:
	.loc	7 2179 5                        @ ../src/driver/stm32g4-v120/src/stm32g4xx_hal_adc.c:2179:5
	ldr	r1, [r0, #4]
	bic	r1, r1, #16
	str	r1, [r0, #4]
.Ltmp620:
	.loc	7 2190 13                       @ ../src/driver/stm32g4-v120/src/stm32g4xx_hal_adc.c:2190:13
	mov	r0, r4
	bl	ADC_Disable
.Ltmp621:
	.loc	7 0 13 is_stmt 0                @ ../src/driver/stm32g4-v120/src/stm32g4xx_hal_adc.c:0:13
	b	.LBB23_9
.Ltmp622:
.LBB23_6:
	@DEBUG_VALUE: HAL_ADC_Stop_DMA:hadc <- $r4
	@DEBUG_VALUE: HAL_ADC_Stop_DMA:tmp_hal_status <- $r0
	.loc	7 2179 5 is_stmt 1              @ ../src/driver/stm32g4-v120/src/stm32g4xx_hal_adc.c:2179:5
	ldr	r1, [r4]
.Ltmp623:
.LBB23_7:
	@DEBUG_VALUE: HAL_ADC_Stop_DMA:hadc <- $r4
	ldr	r0, [r1, #4]
	bic	r0, r0, #16
	str	r0, [r1, #4]
.Ltmp624:
	.loc	7 2186 24                       @ ../src/driver/stm32g4-v120/src/stm32g4xx_hal_adc.c:2186:24
	mov	r0, r4
	bl	ADC_Disable
.Ltmp625:
	mov	r5, r0
.Ltmp626:
	@DEBUG_VALUE: HAL_ADC_Stop_DMA:tmp_hal_status <- $r5
	.loc	7 2194 9                        @ ../src/driver/stm32g4-v120/src/stm32g4xx_hal_adc.c:2194:9
	cbnz	r0, .LBB23_9
.Ltmp627:
@ %bb.8:
	@DEBUG_VALUE: HAL_ADC_Stop_DMA:tmp_hal_status <- $r5
	@DEBUG_VALUE: HAL_ADC_Stop_DMA:hadc <- $r4
	.loc	7 2197 7                        @ ../src/driver/stm32g4-v120/src/stm32g4xx_hal_adc.c:2197:7
	ldr	r0, [r4, #92]
	movw	r1, #4353
	bics	r0, r1
	adds	r0, #1
	movs	r5, #0
.Ltmp628:
	str	r0, [r4, #92]
.Ltmp629:
.LBB23_9:
	@DEBUG_VALUE: HAL_ADC_Stop_DMA:hadc <- $r4
	@DEBUG_VALUE: HAL_ADC_Stop_DMA:tmp_hal_status <- $r5
	.loc	7 0 7 is_stmt 0                 @ ../src/driver/stm32g4-v120/src/stm32g4xx_hal_adc.c:0:7
	movs	r0, #0
.Ltmp630:
	.loc	7 2205 3 is_stmt 1              @ ../src/driver/stm32g4-v120/src/stm32g4xx_hal_adc.c:2205:3
	strb.w	r0, [r4, #88]
.Ltmp631:
.LBB23_10:
	@DEBUG_VALUE: HAL_ADC_Stop_DMA:hadc <- $r4
	.loc	7 2209 1                        @ ../src/driver/stm32g4-v120/src/stm32g4xx_hal_adc.c:2209:1
	mov	r0, r5
	pop	{r4, r5, r7, pc}
.Ltmp632:
.Lfunc_end23:
	.size	HAL_ADC_Stop_DMA, .Lfunc_end23-HAL_ADC_Stop_DMA
	.cfi_endproc
	.cantunwind
	.fnend
                                        @ -- End function
	.section	.text.HAL_ADC_GetValue,"ax",%progbits
	.hidden	HAL_ADC_GetValue                @ -- Begin function HAL_ADC_GetValue
	.globl	HAL_ADC_GetValue
	.p2align	1
	.type	HAL_ADC_GetValue,%function
	.code	16                              @ @HAL_ADC_GetValue
	.thumb_func
HAL_ADC_GetValue:
.Lfunc_begin24:
	.loc	7 2231 0                        @ ../src/driver/stm32g4-v120/src/stm32g4xx_hal_adc.c:2231:0
	.fnstart
	.cfi_startproc
@ %bb.0:
	@DEBUG_VALUE: HAL_ADC_GetValue:hadc <- $r0
	@DEBUG_VALUE: HAL_ADC_GetValue:hadc <- $r0
	.loc	7 2239 16 prologue_end          @ ../src/driver/stm32g4-v120/src/stm32g4xx_hal_adc.c:2239:16
	ldr	r0, [r0]
.Ltmp633:
	@DEBUG_VALUE: HAL_ADC_GetValue:hadc <- [DW_OP_LLVM_entry_value 1] $r0
	.loc	7 2239 26 is_stmt 0             @ ../src/driver/stm32g4-v120/src/stm32g4xx_hal_adc.c:2239:26
	ldr	r0, [r0, #64]
	.loc	7 2239 3                        @ ../src/driver/stm32g4-v120/src/stm32g4xx_hal_adc.c:2239:3
	bx	lr
.Ltmp634:
.Lfunc_end24:
	.size	HAL_ADC_GetValue, .Lfunc_end24-HAL_ADC_GetValue
	.cfi_endproc
	.cantunwind
	.fnend
                                        @ -- End function
	.section	.text.HAL_ADC_StartSampling,"ax",%progbits
	.hidden	HAL_ADC_StartSampling           @ -- Begin function HAL_ADC_StartSampling
	.globl	HAL_ADC_StartSampling
	.p2align	1
	.type	HAL_ADC_StartSampling,%function
	.code	16                              @ @HAL_ADC_StartSampling
	.thumb_func
HAL_ADC_StartSampling:
.Lfunc_begin25:
	.loc	7 2252 0 is_stmt 1              @ ../src/driver/stm32g4-v120/src/stm32g4xx_hal_adc.c:2252:0
	.fnstart
	.cfi_startproc
@ %bb.0:
	@DEBUG_VALUE: HAL_ADC_StartSampling:hadc <- $r0
	@DEBUG_VALUE: HAL_ADC_StartSampling:hadc <- $r0
	.loc	7 2257 3 prologue_end           @ ../src/driver/stm32g4-v120/src/stm32g4xx_hal_adc.c:2257:3
	ldr	r1, [r0]
	ldr	r0, [r1, #16]
.Ltmp635:
	@DEBUG_VALUE: HAL_ADC_StartSampling:hadc <- [DW_OP_LLVM_entry_value 1] $r0
	orr	r2, r0, #33554432
	.loc	7 2260 3                        @ ../src/driver/stm32g4-v120/src/stm32g4xx_hal_adc.c:2260:3
	movs	r0, #0
	.loc	7 2257 3                        @ ../src/driver/stm32g4-v120/src/stm32g4xx_hal_adc.c:2257:3
	str	r2, [r1, #16]
	.loc	7 2260 3                        @ ../src/driver/stm32g4-v120/src/stm32g4xx_hal_adc.c:2260:3
	bx	lr
.Ltmp636:
.Lfunc_end25:
	.size	HAL_ADC_StartSampling, .Lfunc_end25-HAL_ADC_StartSampling
	.cfi_endproc
	.cantunwind
	.fnend
                                        @ -- End function
	.section	.text.HAL_ADC_StopSampling,"ax",%progbits
	.hidden	HAL_ADC_StopSampling            @ -- Begin function HAL_ADC_StopSampling
	.globl	HAL_ADC_StopSampling
	.p2align	1
	.type	HAL_ADC_StopSampling,%function
	.code	16                              @ @HAL_ADC_StopSampling
	.thumb_func
HAL_ADC_StopSampling:
.Lfunc_begin26:
	.loc	7 2274 0                        @ ../src/driver/stm32g4-v120/src/stm32g4xx_hal_adc.c:2274:0
	.fnstart
	.cfi_startproc
@ %bb.0:
	@DEBUG_VALUE: HAL_ADC_StopSampling:hadc <- $r0
	@DEBUG_VALUE: HAL_ADC_StopSampling:hadc <- $r0
	.loc	7 2279 3 prologue_end           @ ../src/driver/stm32g4-v120/src/stm32g4xx_hal_adc.c:2279:3
	ldr	r1, [r0]
	ldr	r0, [r1, #16]
.Ltmp637:
	@DEBUG_VALUE: HAL_ADC_StopSampling:hadc <- [DW_OP_LLVM_entry_value 1] $r0
	bic	r2, r0, #33554432
	.loc	7 2282 3                        @ ../src/driver/stm32g4-v120/src/stm32g4xx_hal_adc.c:2282:3
	movs	r0, #0
	.loc	7 2279 3                        @ ../src/driver/stm32g4-v120/src/stm32g4xx_hal_adc.c:2279:3
	str	r2, [r1, #16]
	.loc	7 2282 3                        @ ../src/driver/stm32g4-v120/src/stm32g4xx_hal_adc.c:2282:3
	bx	lr
.Ltmp638:
.Lfunc_end26:
	.size	HAL_ADC_StopSampling, .Lfunc_end26-HAL_ADC_StopSampling
	.cfi_endproc
	.cantunwind
	.fnend
                                        @ -- End function
	.section	.text.HAL_ADC_IRQHandler,"ax",%progbits
	.hidden	HAL_ADC_IRQHandler              @ -- Begin function HAL_ADC_IRQHandler
	.globl	HAL_ADC_IRQHandler
	.p2align	1
	.type	HAL_ADC_IRQHandler,%function
	.code	16                              @ @HAL_ADC_IRQHandler
	.thumb_func
HAL_ADC_IRQHandler:
.Lfunc_begin27:
	.loc	7 2291 0                        @ ../src/driver/stm32g4-v120/src/stm32g4xx_hal_adc.c:2291:0
	.fnstart
	.cfi_startproc
@ %bb.0:
	@DEBUG_VALUE: HAL_ADC_IRQHandler:hadc <- $r0
	.save	{r4, r5, r6, r7, r8, r9, r10, lr}
	push.w	{r4, r5, r6, r7, r8, r9, r10, lr}
	.cfi_def_cfa_offset 32
	.cfi_offset lr, -4
	.cfi_offset r10, -8
	.cfi_offset r9, -12
	.cfi_offset r8, -16
	.cfi_offset r7, -20
	.cfi_offset r6, -24
	.cfi_offset r5, -28
	.cfi_offset r4, -32
	movw	r8, #776
	movt	r8, #20480
.Ltmp639:
	@DEBUG_VALUE: HAL_ADC_IRQHandler:overrun_error <- 0
	.loc	7 2293 28 prologue_end          @ ../src/driver/stm32g4-v120/src/stm32g4xx_hal_adc.c:2293:28
	ldr	r1, [r0]
.Ltmp640:
	.loc	8 6379 21                       @ ../src/driver/stm32g4-v120/inc/stm32g4xx_ll_adc.h:6379:21
	add.w	r7, r8, #1024
	sub.w	r10, r8, #520
.Ltmp641:
	@DEBUG_VALUE: LL_ADC_GetMultimode:ADCxy_COMMON <- undef
	mov	r3, r7
	mov	r4, r0
.Ltmp642:
	@DEBUG_VALUE: HAL_ADC_IRQHandler:hadc <- $r4
	@DEBUG_VALUE: HAL_ADC_IRQHandler:hadc <- $r4
	.loc	7 2293 38                       @ ../src/driver/stm32g4-v120/src/stm32g4xx_hal_adc.c:2293:38
	ldr	r0, [r1]
.Ltmp643:
	@DEBUG_VALUE: HAL_ADC_IRQHandler:tmp_isr <- $r0
	.loc	7 2294 38                       @ ../src/driver/stm32g4-v120/src/stm32g4xx_hal_adc.c:2294:38
	ldr	r2, [r1, #4]
.Ltmp644:
	@DEBUG_VALUE: HAL_ADC_IRQHandler:tmp_ier <- $r2
	.loc	8 6379 21                       @ ../src/driver/stm32g4-v120/inc/stm32g4xx_ll_adc.h:6379:21
	cmp	r1, r10
	itt	eq
	movweq	r3, #776
	movteq	r3, #20480
	cmp.w	r1, #1342177280
	itt	eq
	movweq	r3, #776
	movteq	r3, #20480
	ldr	r3, [r3]
.Ltmp645:
	.loc	7 2308 54                       @ ../src/driver/stm32g4-v120/src/stm32g4xx_hal_adc.c:2308:54
	and.w	r5, r2, r0
	lsls	r0, r5, #30
.Ltmp646:
	.loc	8 6379 21                       @ ../src/driver/stm32g4-v120/inc/stm32g4xx_ll_adc.h:6379:21
	and	r9, r3, #31
.Ltmp647:
	@DEBUG_VALUE: HAL_ADC_IRQHandler:tmp_multimode_config <- $r9
	.loc	7 2308 54                       @ ../src/driver/stm32g4-v120/src/stm32g4xx_hal_adc.c:2308:54
	bpl	.LBB27_4
.Ltmp648:
@ %bb.1:
	@DEBUG_VALUE: HAL_ADC_IRQHandler:tmp_multimode_config <- $r9
	@DEBUG_VALUE: HAL_ADC_IRQHandler:hadc <- $r4
	@DEBUG_VALUE: HAL_ADC_IRQHandler:tmp_ier <- $r2
	@DEBUG_VALUE: HAL_ADC_IRQHandler:overrun_error <- 0
	.loc	7 2311 16                       @ ../src/driver/stm32g4-v120/src/stm32g4xx_hal_adc.c:2311:16
	ldr	r0, [r4, #92]
.Ltmp649:
	.loc	7 2311 9 is_stmt 0              @ ../src/driver/stm32g4-v120/src/stm32g4xx_hal_adc.c:2311:9
	lsls	r0, r0, #27
	bmi	.LBB27_3
.Ltmp650:
@ %bb.2:
	@DEBUG_VALUE: HAL_ADC_IRQHandler:tmp_multimode_config <- $r9
	@DEBUG_VALUE: HAL_ADC_IRQHandler:hadc <- $r4
	@DEBUG_VALUE: HAL_ADC_IRQHandler:tmp_ier <- $r2
	@DEBUG_VALUE: HAL_ADC_IRQHandler:overrun_error <- 0
	.loc	7 2314 7 is_stmt 1              @ ../src/driver/stm32g4-v120/src/stm32g4xx_hal_adc.c:2314:7
	ldr	r0, [r4, #92]
	orr	r0, r0, #2048
	str	r0, [r4, #92]
.Ltmp651:
.LBB27_3:
	@DEBUG_VALUE: HAL_ADC_IRQHandler:tmp_multimode_config <- $r9
	@DEBUG_VALUE: HAL_ADC_IRQHandler:hadc <- $r4
	@DEBUG_VALUE: HAL_ADC_IRQHandler:tmp_ier <- $r2
	@DEBUG_VALUE: HAL_ADC_IRQHandler:overrun_error <- 0
	.loc	7 2319 11                       @ ../src/driver/stm32g4-v120/src/stm32g4xx_hal_adc.c:2319:11
	ldr.w	r1, [r4, #140]
	.loc	7 2319 5 is_stmt 0              @ ../src/driver/stm32g4-v120/src/stm32g4xx_hal_adc.c:2319:5
	mov	r0, r4
	blx	r1
.Ltmp652:
	.loc	7 2325 5 is_stmt 1              @ ../src/driver/stm32g4-v120/src/stm32g4xx_hal_adc.c:2325:5
	ldr	r1, [r4]
	movs	r0, #2
	str	r0, [r1]
.Ltmp653:
.LBB27_4:
	@DEBUG_VALUE: HAL_ADC_IRQHandler:tmp_multimode_config <- $r9
	@DEBUG_VALUE: HAL_ADC_IRQHandler:hadc <- $r4
	@DEBUG_VALUE: HAL_ADC_IRQHandler:overrun_error <- 0
	.loc	7 2329 51                       @ ../src/driver/stm32g4-v120/src/stm32g4xx_hal_adc.c:2329:51
	tst.w	r5, #12
	beq	.LBB27_22
.Ltmp654:
@ %bb.5:
	@DEBUG_VALUE: HAL_ADC_IRQHandler:tmp_multimode_config <- $r9
	@DEBUG_VALUE: HAL_ADC_IRQHandler:hadc <- $r4
	@DEBUG_VALUE: HAL_ADC_IRQHandler:overrun_error <- 0
	.loc	7 2333 16                       @ ../src/driver/stm32g4-v120/src/stm32g4xx_hal_adc.c:2333:16
	ldr	r0, [r4, #92]
.Ltmp655:
	.loc	7 2333 9 is_stmt 0              @ ../src/driver/stm32g4-v120/src/stm32g4xx_hal_adc.c:2333:9
	lsls	r0, r0, #27
	bmi	.LBB27_7
.Ltmp656:
@ %bb.6:
	@DEBUG_VALUE: HAL_ADC_IRQHandler:tmp_multimode_config <- $r9
	@DEBUG_VALUE: HAL_ADC_IRQHandler:hadc <- $r4
	@DEBUG_VALUE: HAL_ADC_IRQHandler:overrun_error <- 0
	.loc	7 2336 7 is_stmt 1              @ ../src/driver/stm32g4-v120/src/stm32g4xx_hal_adc.c:2336:7
	ldr	r0, [r4, #92]
	orr	r0, r0, #512
	str	r0, [r4, #92]
.Ltmp657:
.LBB27_7:
	@DEBUG_VALUE: HAL_ADC_IRQHandler:tmp_multimode_config <- $r9
	@DEBUG_VALUE: HAL_ADC_IRQHandler:hadc <- $r4
	@DEBUG_VALUE: HAL_ADC_IRQHandler:overrun_error <- 0
	@DEBUG_VALUE: LL_ADC_REG_IsTriggerSourceSWStart:ADCx <- $r1
	.loc	8 3744 12                       @ ../src/driver/stm32g4-v120/inc/stm32g4xx_ll_adc.h:3744:12
	ldr	r0, [r1, #12]
.Ltmp658:
	.loc	7 2342 9                        @ ../src/driver/stm32g4-v120/src/stm32g4xx_hal_adc.c:2342:9
	tst.w	r0, #3072
	bne	.LBB27_21
.Ltmp659:
@ %bb.8:
	@DEBUG_VALUE: HAL_ADC_IRQHandler:tmp_multimode_config <- $r9
	@DEBUG_VALUE: HAL_ADC_IRQHandler:hadc <- $r4
	@DEBUG_VALUE: HAL_ADC_IRQHandler:overrun_error <- 0
	.loc	7 0 9 is_stmt 0                 @ ../src/driver/stm32g4-v120/src/stm32g4xx_hal_adc.c:0:9
	movw	r0, #256
	movt	r0, #20480
.Ltmp660:
	.loc	7 2348 12 is_stmt 1             @ ../src/driver/stm32g4-v120/src/stm32g4xx_hal_adc.c:2348:12
	cmp	r1, r0
	beq	.LBB27_11
.Ltmp661:
@ %bb.9:
	@DEBUG_VALUE: HAL_ADC_IRQHandler:tmp_multimode_config <- $r9
	@DEBUG_VALUE: HAL_ADC_IRQHandler:hadc <- $r4
	@DEBUG_VALUE: HAL_ADC_IRQHandler:overrun_error <- 0
	.loc	7 0 12 is_stmt 0                @ ../src/driver/stm32g4-v120/src/stm32g4xx_hal_adc.c:0:12
	movw	r2, #1280
	movt	r2, #20480
	.loc	7 2348 12                       @ ../src/driver/stm32g4-v120/src/stm32g4xx_hal_adc.c:2348:12
	cmp	r1, r2
	mov	r2, r1
	bne	.LBB27_15
.Ltmp662:
@ %bb.10:
	@DEBUG_VALUE: HAL_ADC_IRQHandler:tmp_multimode_config <- $r9
	@DEBUG_VALUE: HAL_ADC_IRQHandler:hadc <- $r4
	@DEBUG_VALUE: HAL_ADC_IRQHandler:overrun_error <- 0
	add.w	r2, r8, #248
	b	.LBB27_12
.Ltmp663:
.LBB27_11:
	@DEBUG_VALUE: HAL_ADC_IRQHandler:tmp_multimode_config <- $r9
	@DEBUG_VALUE: HAL_ADC_IRQHandler:hadc <- $r4
	@DEBUG_VALUE: HAL_ADC_IRQHandler:overrun_error <- 0
	.loc	7 0 12                          @ ../src/driver/stm32g4-v120/src/stm32g4xx_hal_adc.c:0:12
	mov.w	r2, #1342177280
.Ltmp664:
.LBB27_12:
	@DEBUG_VALUE: HAL_ADC_IRQHandler:tmp_multimode_config <- $r9
	@DEBUG_VALUE: HAL_ADC_IRQHandler:hadc <- $r4
	@DEBUG_VALUE: HAL_ADC_IRQHandler:overrun_error <- 0
	.loc	7 2349 11 is_stmt 1             @ ../src/driver/stm32g4-v120/src/stm32g4xx_hal_adc.c:2349:11
	cmp	r2, r1
	mov	r2, r1
	beq	.LBB27_15
.Ltmp665:
@ %bb.13:
	@DEBUG_VALUE: HAL_ADC_IRQHandler:tmp_multimode_config <- $r9
	@DEBUG_VALUE: HAL_ADC_IRQHandler:hadc <- $r4
	@DEBUG_VALUE: HAL_ADC_IRQHandler:overrun_error <- 0
	cmp.w	r9, #9
	bhi.w	.LBB27_58
.Ltmp666:
@ %bb.14:
	@DEBUG_VALUE: HAL_ADC_IRQHandler:tmp_multimode_config <- $r9
	@DEBUG_VALUE: HAL_ADC_IRQHandler:hadc <- $r4
	@DEBUG_VALUE: HAL_ADC_IRQHandler:overrun_error <- 0
	.loc	7 0 11 is_stmt 0                @ ../src/driver/stm32g4-v120/src/stm32g4xx_hal_adc.c:0:11
	movs	r2, #1
	lsl.w	r2, r2, r9
	movw	r3, #545
	tst	r2, r3
	mov	r2, r1
	beq.w	.LBB27_58
.Ltmp667:
.LBB27_15:
	@DEBUG_VALUE: HAL_ADC_IRQHandler:tmp_multimode_config <- $r9
	@DEBUG_VALUE: HAL_ADC_IRQHandler:hadc <- $r4
	@DEBUG_VALUE: HAL_ADC_IRQHandler:overrun_error <- 0
	ldr	r0, [r2, #12]
.Ltmp668:
	@DEBUG_VALUE: HAL_ADC_IRQHandler:tmp_cfgr <- $r0
	.loc	7 2368 11 is_stmt 1             @ ../src/driver/stm32g4-v120/src/stm32g4xx_hal_adc.c:2368:11
	lsls	r0, r0, #18
.Ltmp669:
	bmi	.LBB27_21
.Ltmp670:
@ %bb.16:
	@DEBUG_VALUE: HAL_ADC_IRQHandler:tmp_multimode_config <- $r9
	@DEBUG_VALUE: HAL_ADC_IRQHandler:hadc <- $r4
	@DEBUG_VALUE: HAL_ADC_IRQHandler:overrun_error <- 0
	.loc	7 2371 13                       @ ../src/driver/stm32g4-v120/src/stm32g4xx_hal_adc.c:2371:13
	ldr	r0, [r1]
.Ltmp671:
	.loc	7 2371 13 is_stmt 0             @ ../src/driver/stm32g4-v120/src/stm32g4xx_hal_adc.c:2371:13
	lsls	r0, r0, #28
	bpl	.LBB27_21
.Ltmp672:
@ %bb.17:
	@DEBUG_VALUE: HAL_ADC_IRQHandler:tmp_multimode_config <- $r9
	@DEBUG_VALUE: HAL_ADC_IRQHandler:hadc <- $r4
	@DEBUG_VALUE: HAL_ADC_IRQHandler:overrun_error <- 0
	@DEBUG_VALUE: LL_ADC_REG_IsConversionOngoing:ADCx <- $r1
	.loc	8 6838 12 is_stmt 1             @ ../src/driver/stm32g4-v120/inc/stm32g4xx_ll_adc.h:6838:12
	ldr	r0, [r1, #8]
.Ltmp673:
	.loc	7 2375 15                       @ ../src/driver/stm32g4-v120/src/stm32g4xx_hal_adc.c:2375:15
	lsls	r0, r0, #29
	bmi	.LBB27_20
.Ltmp674:
@ %bb.18:
	@DEBUG_VALUE: HAL_ADC_IRQHandler:tmp_multimode_config <- $r9
	@DEBUG_VALUE: HAL_ADC_IRQHandler:hadc <- $r4
	@DEBUG_VALUE: HAL_ADC_IRQHandler:overrun_error <- 0
	.loc	7 2381 13                       @ ../src/driver/stm32g4-v120/src/stm32g4xx_hal_adc.c:2381:13
	ldr	r0, [r1, #4]
	bic	r0, r0, #12
	str	r0, [r1, #4]
	.loc	7 2384 13                       @ ../src/driver/stm32g4-v120/src/stm32g4xx_hal_adc.c:2384:13
	ldr	r0, [r4, #92]
	bic	r0, r0, #256
	str	r0, [r4, #92]
.Ltmp675:
	.loc	7 2386 24                       @ ../src/driver/stm32g4-v120/src/stm32g4xx_hal_adc.c:2386:24
	ldr	r0, [r4, #92]
.Ltmp676:
	.loc	7 2386 17 is_stmt 0             @ ../src/driver/stm32g4-v120/src/stm32g4xx_hal_adc.c:2386:17
	lsls	r0, r0, #19
	bmi	.LBB27_21
.Ltmp677:
@ %bb.19:
	@DEBUG_VALUE: HAL_ADC_IRQHandler:tmp_multimode_config <- $r9
	@DEBUG_VALUE: HAL_ADC_IRQHandler:hadc <- $r4
	@DEBUG_VALUE: HAL_ADC_IRQHandler:overrun_error <- 0
	.loc	7 2388 15 is_stmt 1             @ ../src/driver/stm32g4-v120/src/stm32g4xx_hal_adc.c:2388:15
	ldr	r0, [r4, #92]
	orr	r0, r0, #1
	str	r0, [r4, #92]
	b	.LBB27_21
.Ltmp678:
.LBB27_20:
	@DEBUG_VALUE: HAL_ADC_IRQHandler:tmp_multimode_config <- $r9
	@DEBUG_VALUE: HAL_ADC_IRQHandler:hadc <- $r4
	@DEBUG_VALUE: HAL_ADC_IRQHandler:overrun_error <- 0
	.loc	7 2394 13                       @ ../src/driver/stm32g4-v120/src/stm32g4xx_hal_adc.c:2394:13
	ldr	r0, [r4, #92]
	orr	r0, r0, #16
	str	r0, [r4, #92]
	.loc	7 2397 13                       @ ../src/driver/stm32g4-v120/src/stm32g4xx_hal_adc.c:2397:13
	ldr	r0, [r4, #96]
	orr	r0, r0, #1
	str	r0, [r4, #96]
.Ltmp679:
.LBB27_21:
	@DEBUG_VALUE: HAL_ADC_IRQHandler:tmp_multimode_config <- $r9
	@DEBUG_VALUE: HAL_ADC_IRQHandler:hadc <- $r4
	@DEBUG_VALUE: HAL_ADC_IRQHandler:overrun_error <- 0
	.loc	7 2409 11                       @ ../src/driver/stm32g4-v120/src/stm32g4xx_hal_adc.c:2409:11
	ldr	r1, [r4, #108]
	.loc	7 2409 5 is_stmt 0              @ ../src/driver/stm32g4-v120/src/stm32g4xx_hal_adc.c:2409:5
	mov	r0, r4
	blx	r1
.Ltmp680:
	.loc	7 2419 5 is_stmt 1              @ ../src/driver/stm32g4-v120/src/stm32g4xx_hal_adc.c:2419:5
	ldr	r1, [r4]
	movs	r0, #12
	str	r0, [r1]
.Ltmp681:
.LBB27_22:
	@DEBUG_VALUE: HAL_ADC_IRQHandler:tmp_multimode_config <- $r9
	@DEBUG_VALUE: HAL_ADC_IRQHandler:hadc <- $r4
	@DEBUG_VALUE: HAL_ADC_IRQHandler:overrun_error <- 0
	.loc	7 2423 53                       @ ../src/driver/stm32g4-v120/src/stm32g4xx_hal_adc.c:2423:53
	tst.w	r5, #96
	beq	.LBB27_41
.Ltmp682:
@ %bb.23:
	@DEBUG_VALUE: HAL_ADC_IRQHandler:tmp_multimode_config <- $r9
	@DEBUG_VALUE: HAL_ADC_IRQHandler:hadc <- $r4
	@DEBUG_VALUE: HAL_ADC_IRQHandler:overrun_error <- 0
	.loc	7 2427 16                       @ ../src/driver/stm32g4-v120/src/stm32g4xx_hal_adc.c:2427:16
	ldr	r0, [r4, #92]
.Ltmp683:
	.loc	7 2427 9 is_stmt 0              @ ../src/driver/stm32g4-v120/src/stm32g4xx_hal_adc.c:2427:9
	lsls	r0, r0, #27
	bmi	.LBB27_25
.Ltmp684:
@ %bb.24:
	@DEBUG_VALUE: HAL_ADC_IRQHandler:tmp_multimode_config <- $r9
	@DEBUG_VALUE: HAL_ADC_IRQHandler:hadc <- $r4
	@DEBUG_VALUE: HAL_ADC_IRQHandler:overrun_error <- 0
	.loc	7 2430 7 is_stmt 1              @ ../src/driver/stm32g4-v120/src/stm32g4xx_hal_adc.c:2430:7
	ldr	r0, [r4, #92]
	orr	r0, r0, #8192
	str	r0, [r4, #92]
.Ltmp685:
.LBB27_25:
	@DEBUG_VALUE: HAL_ADC_IRQHandler:tmp_multimode_config <- $r9
	@DEBUG_VALUE: HAL_ADC_IRQHandler:hadc <- $r4
	@DEBUG_VALUE: HAL_ADC_IRQHandler:overrun_error <- 0
	@DEBUG_VALUE: LL_ADC_INJ_IsTriggerSourceSWStart:ADCx <- $r1
	.loc	8 4531 12                       @ ../src/driver/stm32g4-v120/inc/stm32g4xx_ll_adc.h:4531:12
	ldr	r2, [r1, #76]
	movw	r3, #256
.Ltmp686:
	.loc	8 3744 12                       @ ../src/driver/stm32g4-v120/inc/stm32g4xx_ll_adc.h:3744:12
	ldr	r0, [r1, #12]
.Ltmp687:
	@DEBUG_VALUE: HAL_ADC_IRQHandler:tmp_adc_reg_is_trigger_source_sw_start <- [DW_OP_LLVM_convert 1 7, DW_OP_LLVM_convert 32 7, DW_OP_stack_value] undef
	.loc	8 0 12 is_stmt 0                @ ../src/driver/stm32g4-v120/inc/stm32g4xx_ll_adc.h:0:12
	movt	r3, #20480
.Ltmp688:
	.loc	7 2440 10 is_stmt 1             @ ../src/driver/stm32g4-v120/src/stm32g4xx_hal_adc.c:2440:10
	cmp	r1, r3
.Ltmp689:
	.loc	8 4531 12                       @ ../src/driver/stm32g4-v120/inc/stm32g4xx_ll_adc.h:4531:12
	and	r2, r2, #384
.Ltmp690:
	@DEBUG_VALUE: LL_ADC_REG_IsTriggerSourceSWStart:ADCx <- $r1
	@DEBUG_VALUE: HAL_ADC_IRQHandler:tmp_adc_inj_is_trigger_source_sw_start <- [DW_OP_LLVM_convert 1 7, DW_OP_LLVM_convert 32 7, DW_OP_stack_value] undef
	@DEBUG_VALUE: LL_ADC_INJ_IsTriggerSourceSWStart:ADCx <- $r1
	.loc	7 2440 10                       @ ../src/driver/stm32g4-v120/src/stm32g4xx_hal_adc.c:2440:10
	beq	.LBB27_28
.Ltmp691:
@ %bb.26:
	@DEBUG_VALUE: HAL_ADC_IRQHandler:tmp_multimode_config <- $r9
	@DEBUG_VALUE: HAL_ADC_IRQHandler:hadc <- $r4
	@DEBUG_VALUE: HAL_ADC_IRQHandler:overrun_error <- 0
	.loc	7 0 10 is_stmt 0                @ ../src/driver/stm32g4-v120/src/stm32g4xx_hal_adc.c:0:10
	movw	r6, #1280
	movt	r6, #20480
	.loc	7 2440 10                       @ ../src/driver/stm32g4-v120/src/stm32g4xx_hal_adc.c:2440:10
	cmp	r1, r6
	mov	r6, r1
	bne	.LBB27_32
.Ltmp692:
@ %bb.27:
	@DEBUG_VALUE: HAL_ADC_IRQHandler:tmp_multimode_config <- $r9
	@DEBUG_VALUE: HAL_ADC_IRQHandler:hadc <- $r4
	@DEBUG_VALUE: HAL_ADC_IRQHandler:overrun_error <- 0
	add.w	r6, r8, #248
	b	.LBB27_29
.Ltmp693:
.LBB27_28:
	@DEBUG_VALUE: HAL_ADC_IRQHandler:tmp_multimode_config <- $r9
	@DEBUG_VALUE: HAL_ADC_IRQHandler:hadc <- $r4
	@DEBUG_VALUE: LL_ADC_REG_IsTriggerSourceSWStart:ADCx <- $r1
	@DEBUG_VALUE: LL_ADC_INJ_IsTriggerSourceSWStart:ADCx <- $r1
	@DEBUG_VALUE: HAL_ADC_IRQHandler:overrun_error <- 0
	.loc	7 0 10                          @ ../src/driver/stm32g4-v120/src/stm32g4xx_hal_adc.c:0:10
	mov.w	r6, #1342177280
.Ltmp694:
.LBB27_29:
	@DEBUG_VALUE: HAL_ADC_IRQHandler:tmp_multimode_config <- $r9
	@DEBUG_VALUE: HAL_ADC_IRQHandler:hadc <- $r4
	@DEBUG_VALUE: HAL_ADC_IRQHandler:overrun_error <- 0
	.loc	7 2441 9 is_stmt 1              @ ../src/driver/stm32g4-v120/src/stm32g4xx_hal_adc.c:2441:9
	cmp	r6, r1
	mov	r6, r1
	beq	.LBB27_32
.Ltmp695:
@ %bb.30:
	@DEBUG_VALUE: HAL_ADC_IRQHandler:tmp_multimode_config <- $r9
	@DEBUG_VALUE: HAL_ADC_IRQHandler:hadc <- $r4
	@DEBUG_VALUE: HAL_ADC_IRQHandler:overrun_error <- 0
	cmp.w	r9, #7
	bhi.w	.LBB27_56
.Ltmp696:
@ %bb.31:
	@DEBUG_VALUE: HAL_ADC_IRQHandler:tmp_multimode_config <- $r9
	@DEBUG_VALUE: HAL_ADC_IRQHandler:hadc <- $r4
	@DEBUG_VALUE: HAL_ADC_IRQHandler:overrun_error <- 0
	.loc	7 0 9 is_stmt 0                 @ ../src/driver/stm32g4-v120/src/stm32g4xx_hal_adc.c:0:9
	movs	r6, #1
	lsl.w	r6, r6, r9
	tst.w	r6, #193
	mov	r6, r1
	beq.w	.LBB27_56
.Ltmp697:
.LBB27_32:
	@DEBUG_VALUE: HAL_ADC_IRQHandler:tmp_multimode_config <- $r9
	@DEBUG_VALUE: HAL_ADC_IRQHandler:hadc <- $r4
	@DEBUG_VALUE: HAL_ADC_IRQHandler:overrun_error <- 0
	ldr	r3, [r6, #12]
.Ltmp698:
	@DEBUG_VALUE: HAL_ADC_IRQHandler:tmp_cfgr <- $r3
	.loc	7 2462 68 is_stmt 1             @ ../src/driver/stm32g4-v120/src/stm32g4xx_hal_adc.c:2462:68
	cbz	r2, .LBB27_34
.Ltmp699:
@ %bb.33:
	@DEBUG_VALUE: HAL_ADC_IRQHandler:tmp_multimode_config <- $r9
	@DEBUG_VALUE: HAL_ADC_IRQHandler:hadc <- $r4
	@DEBUG_VALUE: HAL_ADC_IRQHandler:tmp_cfgr <- $r3
	@DEBUG_VALUE: HAL_ADC_IRQHandler:overrun_error <- 0
	.loc	7 0 0 is_stmt 0                 @ ../src/driver/stm32g4-v120/src/stm32g4xx_hal_adc.c:0:0
	and	r0, r0, #3072
.Ltmp700:
	.loc	7 2463 11 is_stmt 1             @ ../src/driver/stm32g4-v120/src/stm32g4xx_hal_adc.c:2463:11
	and	r2, r3, #33554432
	.loc	7 2463 59 is_stmt 0             @ ../src/driver/stm32g4-v120/src/stm32g4xx_hal_adc.c:2463:59
	add	r0, r2
	and	r2, r3, #8192
	adds	r0, r0, r2
	bne	.LBB27_40
.Ltmp701:
.LBB27_34:
	@DEBUG_VALUE: HAL_ADC_IRQHandler:tmp_multimode_config <- $r9
	@DEBUG_VALUE: HAL_ADC_IRQHandler:hadc <- $r4
	@DEBUG_VALUE: HAL_ADC_IRQHandler:tmp_cfgr <- $r3
	@DEBUG_VALUE: HAL_ADC_IRQHandler:overrun_error <- 0
	.loc	7 2468 11 is_stmt 1             @ ../src/driver/stm32g4-v120/src/stm32g4xx_hal_adc.c:2468:11
	ldr	r0, [r1]
.Ltmp702:
	.loc	7 2468 11 is_stmt 0             @ ../src/driver/stm32g4-v120/src/stm32g4xx_hal_adc.c:2468:11
	lsls	r2, r3, #10
	bmi	.LBB27_40
.Ltmp703:
@ %bb.35:
	@DEBUG_VALUE: HAL_ADC_IRQHandler:tmp_multimode_config <- $r9
	@DEBUG_VALUE: HAL_ADC_IRQHandler:hadc <- $r4
	@DEBUG_VALUE: HAL_ADC_IRQHandler:tmp_cfgr <- $r3
	@DEBUG_VALUE: HAL_ADC_IRQHandler:overrun_error <- 0
	.loc	7 0 0                           @ ../src/driver/stm32g4-v120/src/stm32g4xx_hal_adc.c:0:0
	ands	r0, r0, #64
	.loc	7 2468 11                       @ ../src/driver/stm32g4-v120/src/stm32g4xx_hal_adc.c:2468:11
	beq	.LBB27_40
.Ltmp704:
@ %bb.36:
	@DEBUG_VALUE: HAL_ADC_IRQHandler:tmp_multimode_config <- $r9
	@DEBUG_VALUE: HAL_ADC_IRQHandler:hadc <- $r4
	@DEBUG_VALUE: HAL_ADC_IRQHandler:tmp_cfgr <- $r3
	@DEBUG_VALUE: HAL_ADC_IRQHandler:overrun_error <- 0
	@DEBUG_VALUE: LL_ADC_INJ_IsConversionOngoing:ADCx <- $r1
	.loc	8 7063 12 is_stmt 1             @ ../src/driver/stm32g4-v120/inc/stm32g4xx_ll_adc.h:7063:12
	ldr	r0, [r1, #8]
.Ltmp705:
	.loc	7 2480 15                       @ ../src/driver/stm32g4-v120/src/stm32g4xx_hal_adc.c:2480:15
	lsls	r0, r0, #28
	bmi	.LBB27_39
.Ltmp706:
@ %bb.37:
	@DEBUG_VALUE: HAL_ADC_IRQHandler:tmp_multimode_config <- $r9
	@DEBUG_VALUE: HAL_ADC_IRQHandler:hadc <- $r4
	@DEBUG_VALUE: HAL_ADC_IRQHandler:tmp_cfgr <- $r3
	@DEBUG_VALUE: HAL_ADC_IRQHandler:overrun_error <- 0
	.loc	7 2483 13                       @ ../src/driver/stm32g4-v120/src/stm32g4xx_hal_adc.c:2483:13
	ldr	r0, [r1, #4]
	bic	r0, r0, #96
	str	r0, [r1, #4]
	.loc	7 2486 13                       @ ../src/driver/stm32g4-v120/src/stm32g4xx_hal_adc.c:2486:13
	ldr	r0, [r4, #92]
	bic	r0, r0, #4096
	str	r0, [r4, #92]
.Ltmp707:
	.loc	7 2488 24                       @ ../src/driver/stm32g4-v120/src/stm32g4xx_hal_adc.c:2488:24
	ldr	r0, [r4, #92]
.Ltmp708:
	.loc	7 2488 17 is_stmt 0             @ ../src/driver/stm32g4-v120/src/stm32g4xx_hal_adc.c:2488:17
	lsls	r0, r0, #23
	bmi	.LBB27_40
.Ltmp709:
@ %bb.38:
	@DEBUG_VALUE: HAL_ADC_IRQHandler:tmp_multimode_config <- $r9
	@DEBUG_VALUE: HAL_ADC_IRQHandler:hadc <- $r4
	@DEBUG_VALUE: HAL_ADC_IRQHandler:tmp_cfgr <- $r3
	@DEBUG_VALUE: HAL_ADC_IRQHandler:overrun_error <- 0
	.loc	7 2490 15 is_stmt 1             @ ../src/driver/stm32g4-v120/src/stm32g4xx_hal_adc.c:2490:15
	ldr	r0, [r4, #92]
	orr	r0, r0, #1
	str	r0, [r4, #92]
	b	.LBB27_40
.Ltmp710:
.LBB27_39:
	@DEBUG_VALUE: HAL_ADC_IRQHandler:tmp_multimode_config <- $r9
	@DEBUG_VALUE: HAL_ADC_IRQHandler:hadc <- $r4
	@DEBUG_VALUE: HAL_ADC_IRQHandler:tmp_cfgr <- $r3
	@DEBUG_VALUE: HAL_ADC_IRQHandler:overrun_error <- 0
	.loc	7 2496 13                       @ ../src/driver/stm32g4-v120/src/stm32g4xx_hal_adc.c:2496:13
	ldr	r0, [r4, #92]
	orr	r0, r0, #16
	str	r0, [r4, #92]
	.loc	7 2499 13                       @ ../src/driver/stm32g4-v120/src/stm32g4xx_hal_adc.c:2499:13
	ldr	r0, [r4, #96]
	orr	r0, r0, #1
	str	r0, [r4, #96]
.Ltmp711:
.LBB27_40:
	@DEBUG_VALUE: HAL_ADC_IRQHandler:tmp_multimode_config <- $r9
	@DEBUG_VALUE: HAL_ADC_IRQHandler:hadc <- $r4
	@DEBUG_VALUE: HAL_ADC_IRQHandler:tmp_cfgr <- $r3
	@DEBUG_VALUE: HAL_ADC_IRQHandler:overrun_error <- 0
	.loc	7 2512 11                       @ ../src/driver/stm32g4-v120/src/stm32g4xx_hal_adc.c:2512:11
	ldr	r1, [r4, #124]
	.loc	7 2512 5 is_stmt 0              @ ../src/driver/stm32g4-v120/src/stm32g4xx_hal_adc.c:2512:5
	mov	r0, r4
	blx	r1
.Ltmp712:
	.loc	7 2518 5 is_stmt 1              @ ../src/driver/stm32g4-v120/src/stm32g4xx_hal_adc.c:2518:5
	ldr	r1, [r4]
	movs	r0, #96
	str	r0, [r1]
.Ltmp713:
.LBB27_41:
	@DEBUG_VALUE: HAL_ADC_IRQHandler:tmp_multimode_config <- $r9
	@DEBUG_VALUE: HAL_ADC_IRQHandler:hadc <- $r4
	@DEBUG_VALUE: HAL_ADC_IRQHandler:overrun_error <- 0
	.loc	7 2522 52                       @ ../src/driver/stm32g4-v120/src/stm32g4xx_hal_adc.c:2522:52
	lsls	r0, r5, #24
	bpl	.LBB27_43
.Ltmp714:
@ %bb.42:
	@DEBUG_VALUE: HAL_ADC_IRQHandler:tmp_multimode_config <- $r9
	@DEBUG_VALUE: HAL_ADC_IRQHandler:hadc <- $r4
	@DEBUG_VALUE: HAL_ADC_IRQHandler:overrun_error <- 0
	.loc	7 2525 5                        @ ../src/driver/stm32g4-v120/src/stm32g4xx_hal_adc.c:2525:5
	ldr	r0, [r4, #92]
	.loc	7 2529 11                       @ ../src/driver/stm32g4-v120/src/stm32g4xx_hal_adc.c:2529:11
	ldr	r1, [r4, #116]
	.loc	7 2525 5                        @ ../src/driver/stm32g4-v120/src/stm32g4xx_hal_adc.c:2525:5
	orr	r0, r0, #65536
	str	r0, [r4, #92]
	.loc	7 2529 5                        @ ../src/driver/stm32g4-v120/src/stm32g4xx_hal_adc.c:2529:5
	mov	r0, r4
	blx	r1
.Ltmp715:
	.loc	7 2535 5                        @ ../src/driver/stm32g4-v120/src/stm32g4xx_hal_adc.c:2535:5
	ldr	r1, [r4]
	movs	r0, #128
	str	r0, [r1]
.Ltmp716:
.LBB27_43:
	@DEBUG_VALUE: HAL_ADC_IRQHandler:tmp_multimode_config <- $r9
	@DEBUG_VALUE: HAL_ADC_IRQHandler:hadc <- $r4
	@DEBUG_VALUE: HAL_ADC_IRQHandler:overrun_error <- 0
	.loc	7 2539 52                       @ ../src/driver/stm32g4-v120/src/stm32g4xx_hal_adc.c:2539:52
	lsls	r0, r5, #23
	bpl	.LBB27_45
.Ltmp717:
@ %bb.44:
	@DEBUG_VALUE: HAL_ADC_IRQHandler:tmp_multimode_config <- $r9
	@DEBUG_VALUE: HAL_ADC_IRQHandler:hadc <- $r4
	@DEBUG_VALUE: HAL_ADC_IRQHandler:overrun_error <- 0
	.loc	7 2542 5                        @ ../src/driver/stm32g4-v120/src/stm32g4xx_hal_adc.c:2542:5
	ldr	r0, [r4, #92]
	.loc	7 2546 11                       @ ../src/driver/stm32g4-v120/src/stm32g4xx_hal_adc.c:2546:11
	ldr.w	r1, [r4, #132]
	.loc	7 2542 5                        @ ../src/driver/stm32g4-v120/src/stm32g4xx_hal_adc.c:2542:5
	orr	r0, r0, #131072
	str	r0, [r4, #92]
	.loc	7 2546 5                        @ ../src/driver/stm32g4-v120/src/stm32g4xx_hal_adc.c:2546:5
	mov	r0, r4
	blx	r1
.Ltmp718:
	.loc	7 2552 5                        @ ../src/driver/stm32g4-v120/src/stm32g4xx_hal_adc.c:2552:5
	ldr	r1, [r4]
	mov.w	r0, #256
	str	r0, [r1]
.Ltmp719:
.LBB27_45:
	@DEBUG_VALUE: HAL_ADC_IRQHandler:tmp_multimode_config <- $r9
	@DEBUG_VALUE: HAL_ADC_IRQHandler:hadc <- $r4
	@DEBUG_VALUE: HAL_ADC_IRQHandler:overrun_error <- 0
	.loc	7 2556 52                       @ ../src/driver/stm32g4-v120/src/stm32g4xx_hal_adc.c:2556:52
	lsls	r0, r5, #22
	bpl	.LBB27_47
.Ltmp720:
@ %bb.46:
	@DEBUG_VALUE: HAL_ADC_IRQHandler:tmp_multimode_config <- $r9
	@DEBUG_VALUE: HAL_ADC_IRQHandler:hadc <- $r4
	@DEBUG_VALUE: HAL_ADC_IRQHandler:overrun_error <- 0
	.loc	7 2559 5                        @ ../src/driver/stm32g4-v120/src/stm32g4xx_hal_adc.c:2559:5
	ldr	r0, [r4, #92]
	.loc	7 2563 11                       @ ../src/driver/stm32g4-v120/src/stm32g4xx_hal_adc.c:2563:11
	ldr.w	r1, [r4, #136]
	.loc	7 2559 5                        @ ../src/driver/stm32g4-v120/src/stm32g4xx_hal_adc.c:2559:5
	orr	r0, r0, #262144
	str	r0, [r4, #92]
	.loc	7 2563 5                        @ ../src/driver/stm32g4-v120/src/stm32g4xx_hal_adc.c:2563:5
	mov	r0, r4
	blx	r1
.Ltmp721:
	.loc	7 2569 5                        @ ../src/driver/stm32g4-v120/src/stm32g4xx_hal_adc.c:2569:5
	ldr	r1, [r4]
	mov.w	r0, #512
	str	r0, [r1]
.Ltmp722:
.LBB27_47:
	@DEBUG_VALUE: HAL_ADC_IRQHandler:tmp_multimode_config <- $r9
	@DEBUG_VALUE: HAL_ADC_IRQHandler:hadc <- $r4
	@DEBUG_VALUE: HAL_ADC_IRQHandler:overrun_error <- 0
	.loc	7 2573 50                       @ ../src/driver/stm32g4-v120/src/stm32g4xx_hal_adc.c:2573:50
	lsls	r0, r5, #27
	bpl	.LBB27_53
.Ltmp723:
@ %bb.48:
	@DEBUG_VALUE: HAL_ADC_IRQHandler:tmp_multimode_config <- $r9
	@DEBUG_VALUE: HAL_ADC_IRQHandler:hadc <- $r4
	@DEBUG_VALUE: HAL_ADC_IRQHandler:overrun_error <- 0
	.loc	7 2581 20                       @ ../src/driver/stm32g4-v120/src/stm32g4xx_hal_adc.c:2581:20
	ldr	r0, [r4, #60]
.Ltmp724:
	.loc	7 2581 9 is_stmt 0              @ ../src/driver/stm32g4-v120/src/stm32g4xx_hal_adc.c:2581:9
	cbz	r0, .LBB27_51
.Ltmp725:
@ %bb.49:
	@DEBUG_VALUE: HAL_ADC_IRQHandler:tmp_multimode_config <- $r9
	@DEBUG_VALUE: HAL_ADC_IRQHandler:hadc <- $r4
	@DEBUG_VALUE: HAL_ADC_IRQHandler:overrun_error <- 0
	.loc	7 2589 11 is_stmt 1             @ ../src/driver/stm32g4-v120/src/stm32g4xx_hal_adc.c:2589:11
	cmp.w	r9, #0
	beq	.LBB27_55
.Ltmp726:
@ %bb.50:
	@DEBUG_VALUE: HAL_ADC_IRQHandler:tmp_multimode_config <- $r9
	@DEBUG_VALUE: HAL_ADC_IRQHandler:hadc <- $r4
	@DEBUG_VALUE: HAL_ADC_IRQHandler:overrun_error <- 0
	@DEBUG_VALUE: LL_ADC_GetMultiDMATransfer:ADCxy_COMMON <- undef
	.loc	8 6476 21                       @ ../src/driver/stm32g4-v120/inc/stm32g4xx_ll_adc.h:6476:21
	cmp	r1, r10
	it	eq
	moveq	r7, r8
	cmp.w	r1, #1342177280
	it	eq
	moveq	r7, r8
	ldr	r0, [r7]
.Ltmp727:
	@DEBUG_VALUE: HAL_ADC_IRQHandler:overrun_error <- undef
	.loc	7 2609 9                        @ ../src/driver/stm32g4-v120/src/stm32g4xx_hal_adc.c:2609:9
	tst.w	r0, #57344
	beq	.LBB27_52
.Ltmp728:
.LBB27_51:
	@DEBUG_VALUE: HAL_ADC_IRQHandler:tmp_multimode_config <- $r9
	@DEBUG_VALUE: HAL_ADC_IRQHandler:hadc <- $r4
	.loc	7 2612 7                        @ ../src/driver/stm32g4-v120/src/stm32g4xx_hal_adc.c:2612:7
	ldr	r0, [r4, #92]
	.loc	7 2623 13                       @ ../src/driver/stm32g4-v120/src/stm32g4xx_hal_adc.c:2623:13
	ldr	r1, [r4, #120]
	.loc	7 2612 7                        @ ../src/driver/stm32g4-v120/src/stm32g4xx_hal_adc.c:2612:7
	orr	r0, r0, #1024
	str	r0, [r4, #92]
	.loc	7 2615 7                        @ ../src/driver/stm32g4-v120/src/stm32g4xx_hal_adc.c:2615:7
	ldr	r0, [r4, #96]
	orr	r0, r0, #2
	str	r0, [r4, #96]
	.loc	7 2623 7                        @ ../src/driver/stm32g4-v120/src/stm32g4xx_hal_adc.c:2623:7
	mov	r0, r4
	blx	r1
.Ltmp729:
	.loc	7 2630 5                        @ ../src/driver/stm32g4-v120/src/stm32g4xx_hal_adc.c:2630:5
	ldr	r1, [r4]
.Ltmp730:
.LBB27_52:
	@DEBUG_VALUE: HAL_ADC_IRQHandler:tmp_multimode_config <- $r9
	@DEBUG_VALUE: HAL_ADC_IRQHandler:hadc <- $r4
	.loc	7 0 5 is_stmt 0                 @ ../src/driver/stm32g4-v120/src/stm32g4xx_hal_adc.c:0:5
	movs	r0, #16
	.loc	7 2630 5                        @ ../src/driver/stm32g4-v120/src/stm32g4xx_hal_adc.c:2630:5
	str	r0, [r1]
.Ltmp731:
.LBB27_53:
	@DEBUG_VALUE: HAL_ADC_IRQHandler:tmp_multimode_config <- $r9
	@DEBUG_VALUE: HAL_ADC_IRQHandler:hadc <- $r4
	.loc	7 2634 54 is_stmt 1             @ ../src/driver/stm32g4-v120/src/stm32g4xx_hal_adc.c:2634:54
	lsls	r0, r5, #21
.Ltmp732:
	.loc	7 2653 1                        @ ../src/driver/stm32g4-v120/src/stm32g4xx_hal_adc.c:2653:1
	it	pl
	poppl.w	{r4, r5, r6, r7, r8, r9, r10, pc}
.Ltmp733:
.LBB27_54:
	.loc	7 2637 5                        @ ../src/driver/stm32g4-v120/src/stm32g4xx_hal_adc.c:2637:5
	ldr	r0, [r4, #92]
	.loc	7 2647 11                       @ ../src/driver/stm32g4-v120/src/stm32g4xx_hal_adc.c:2647:11
	ldr.w	r2, [r4, #128]
	.loc	7 2637 5                        @ ../src/driver/stm32g4-v120/src/stm32g4xx_hal_adc.c:2637:5
	orr	r0, r0, #16384
	str	r0, [r4, #92]
	.loc	7 2640 5                        @ ../src/driver/stm32g4-v120/src/stm32g4xx_hal_adc.c:2640:5
	ldr	r0, [r4, #96]
	mov.w	r3, #1024
	orr	r0, r0, #8
	str	r0, [r4, #96]
	.loc	7 2647 5                        @ ../src/driver/stm32g4-v120/src/stm32g4xx_hal_adc.c:2647:5
	mov	r0, r4
	.loc	7 2643 5                        @ ../src/driver/stm32g4-v120/src/stm32g4xx_hal_adc.c:2643:5
	str	r3, [r1]
	.loc	7 2647 5                        @ ../src/driver/stm32g4-v120/src/stm32g4xx_hal_adc.c:2647:5
	pop.w	{r4, r5, r6, r7, r8, r9, r10, lr}
.Ltmp734:
	bx	r2
.Ltmp735:
.LBB27_55:
	@DEBUG_VALUE: HAL_ADC_IRQHandler:tmp_multimode_config <- $r9
	@DEBUG_VALUE: HAL_ADC_IRQHandler:hadc <- $r4
	@DEBUG_VALUE: HAL_ADC_IRQHandler:overrun_error <- 0
	.loc	7 2602 30                       @ ../src/driver/stm32g4-v120/src/stm32g4xx_hal_adc.c:2602:30
	ldr	r0, [r1, #12]
.Ltmp736:
	@DEBUG_VALUE: HAL_ADC_IRQHandler:overrun_error <- undef
	.loc	7 2609 9                        @ ../src/driver/stm32g4-v120/src/stm32g4xx_hal_adc.c:2609:9
	lsls	r0, r0, #31
	bne	.LBB27_51
	b	.LBB27_52
.Ltmp737:
.LBB27_56:
	@DEBUG_VALUE: HAL_ADC_IRQHandler:tmp_multimode_config <- $r9
	@DEBUG_VALUE: HAL_ADC_IRQHandler:hadc <- $r4
	@DEBUG_VALUE: HAL_ADC_IRQHandler:overrun_error <- 0
	.loc	7 2450 23                       @ ../src/driver/stm32g4-v120/src/stm32g4xx_hal_adc.c:2450:23
	cmp	r1, r3
	beq	.LBB27_60
.Ltmp738:
@ %bb.57:
	@DEBUG_VALUE: HAL_ADC_IRQHandler:tmp_multimode_config <- $r9
	@DEBUG_VALUE: HAL_ADC_IRQHandler:hadc <- $r4
	@DEBUG_VALUE: HAL_ADC_IRQHandler:overrun_error <- 0
	.loc	7 0 23 is_stmt 0                @ ../src/driver/stm32g4-v120/src/stm32g4xx_hal_adc.c:0:23
	movw	r3, #1280
	movt	r3, #20480
	mov	r6, r1
	.loc	7 2450 23                       @ ../src/driver/stm32g4-v120/src/stm32g4xx_hal_adc.c:2450:23
	cmp	r1, r3
	it	eq
	addeq.w	r6, r8, #248
	b	.LBB27_32
.Ltmp739:
.LBB27_58:
	@DEBUG_VALUE: HAL_ADC_IRQHandler:tmp_multimode_config <- $r9
	@DEBUG_VALUE: HAL_ADC_IRQHandler:hadc <- $r4
	@DEBUG_VALUE: HAL_ADC_IRQHandler:overrun_error <- 0
	.loc	7 2360 25 is_stmt 1             @ ../src/driver/stm32g4-v120/src/stm32g4xx_hal_adc.c:2360:25
	cmp	r1, r0
	beq	.LBB27_61
.Ltmp740:
@ %bb.59:
	@DEBUG_VALUE: HAL_ADC_IRQHandler:tmp_multimode_config <- $r9
	@DEBUG_VALUE: HAL_ADC_IRQHandler:hadc <- $r4
	@DEBUG_VALUE: HAL_ADC_IRQHandler:overrun_error <- 0
	.loc	7 0 25 is_stmt 0                @ ../src/driver/stm32g4-v120/src/stm32g4xx_hal_adc.c:0:25
	movw	r0, #1280
	movt	r0, #20480
	mov	r2, r1
	.loc	7 2360 25                       @ ../src/driver/stm32g4-v120/src/stm32g4xx_hal_adc.c:2360:25
	cmp	r1, r0
	it	eq
	addeq.w	r2, r8, #248
	b	.LBB27_15
.Ltmp741:
.LBB27_60:
	@DEBUG_VALUE: HAL_ADC_IRQHandler:tmp_multimode_config <- $r9
	@DEBUG_VALUE: HAL_ADC_IRQHandler:hadc <- $r4
	@DEBUG_VALUE: HAL_ADC_IRQHandler:overrun_error <- 0
	.loc	7 0 25                          @ ../src/driver/stm32g4-v120/src/stm32g4xx_hal_adc.c:0:25
	mov.w	r6, #1342177280
	b	.LBB27_32
.Ltmp742:
.LBB27_61:
	@DEBUG_VALUE: HAL_ADC_IRQHandler:tmp_multimode_config <- $r9
	@DEBUG_VALUE: HAL_ADC_IRQHandler:hadc <- $r4
	@DEBUG_VALUE: HAL_ADC_IRQHandler:overrun_error <- 0
	mov.w	r2, #1342177280
	b	.LBB27_15
.Lfunc_end27:
	.size	HAL_ADC_IRQHandler, .Lfunc_end27-HAL_ADC_IRQHandler
	.cfi_endproc
	.cantunwind
	.fnend
                                        @ -- End function
	.section	.text.HAL_ADC_ConfigChannel,"ax",%progbits
	.hidden	HAL_ADC_ConfigChannel           @ -- Begin function HAL_ADC_ConfigChannel
	.globl	HAL_ADC_ConfigChannel
	.p2align	1
	.type	HAL_ADC_ConfigChannel,%function
	.code	16                              @ @HAL_ADC_ConfigChannel
	.thumb_func
HAL_ADC_ConfigChannel:
.Lfunc_begin28:
	.loc	7 2759 0 is_stmt 1              @ ../src/driver/stm32g4-v120/src/stm32g4xx_hal_adc.c:2759:0
	.fnstart
	.cfi_startproc
@ %bb.0:
	@DEBUG_VALUE: HAL_ADC_ConfigChannel:hadc <- $r0
	@DEBUG_VALUE: HAL_ADC_ConfigChannel:sConfig <- $r1
	.save	{r4, r5, r6, r7, lr}
	push	{r4, r5, r6, r7, lr}
	.cfi_def_cfa_offset 20
	.cfi_offset lr, -4
	.cfi_offset r7, -8
	.cfi_offset r6, -12
	.cfi_offset r5, -16
	.cfi_offset r4, -20
	.pad	#4
	sub	sp, #4
	.cfi_def_cfa_offset 24
	movs	r2, #0
.Ltmp743:
	@DEBUG_VALUE: HAL_ADC_ConfigChannel:tmp_hal_status <- 0
	@DEBUG_VALUE: HAL_ADC_ConfigChannel:hadc <- $r0
	.loc	7 2763 17 prologue_end          @ ../src/driver/stm32g4-v120/src/stm32g4xx_hal_adc.c:2763:17
	str	r2, [sp]
.Ltmp744:
	.loc	7 2790 3                        @ ../src/driver/stm32g4-v120/src/stm32g4xx_hal_adc.c:2790:3
	ldrb.w	r2, [r0, #88]
.Ltmp745:
	.loc	7 2790 3 is_stmt 0              @ ../src/driver/stm32g4-v120/src/stm32g4xx_hal_adc.c:2790:3
	cmp	r2, #1
	@DEBUG_VALUE: HAL_ADC_ConfigChannel:sConfig <- $r1
	bne	.LBB28_2
.Ltmp746:
@ %bb.1:
	@DEBUG_VALUE: HAL_ADC_ConfigChannel:sConfig <- $r1
	@DEBUG_VALUE: HAL_ADC_ConfigChannel:hadc <- $r0
	@DEBUG_VALUE: HAL_ADC_ConfigChannel:tmp_hal_status <- 0
	.loc	7 0 3                           @ ../src/driver/stm32g4-v120/src/stm32g4xx_hal_adc.c:0:3
	movs	r1, #2
.Ltmp747:
	@DEBUG_VALUE: HAL_ADC_ConfigChannel:sConfig <- [DW_OP_LLVM_entry_value 1] $r1
	b	.LBB28_44
.Ltmp748:
.LBB28_2:
	@DEBUG_VALUE: HAL_ADC_ConfigChannel:sConfig <- $r1
	@DEBUG_VALUE: HAL_ADC_ConfigChannel:hadc <- $r0
	@DEBUG_VALUE: HAL_ADC_ConfigChannel:tmp_hal_status <- 0
	movs	r3, #1
.Ltmp749:
	.loc	7 2797 44 is_stmt 1             @ ../src/driver/stm32g4-v120/src/stm32g4xx_hal_adc.c:2797:44
	ldr	r7, [r0]
.Ltmp750:
	.loc	7 2790 3                        @ ../src/driver/stm32g4-v120/src/stm32g4xx_hal_adc.c:2790:3
	strb.w	r3, [r0, #88]
.Ltmp751:
	@DEBUG_VALUE: LL_ADC_REG_IsConversionOngoing:ADCx <- $r7
	.loc	8 6838 12                       @ ../src/driver/stm32g4-v120/inc/stm32g4xx_ll_adc.h:6838:12
	ldr	r3, [r7, #8]
.Ltmp752:
	.loc	7 2797 7                        @ ../src/driver/stm32g4-v120/src/stm32g4xx_hal_adc.c:2797:7
	lsls	r3, r3, #29
	bmi	.LBB28_6
.Ltmp753:
@ %bb.3:
	@DEBUG_VALUE: HAL_ADC_ConfigChannel:sConfig <- $r1
	@DEBUG_VALUE: HAL_ADC_ConfigChannel:hadc <- $r0
	@DEBUG_VALUE: HAL_ADC_ConfigChannel:tmp_hal_status <- 0
	@DEBUG_VALUE: LL_ADC_REG_SetSequencerRanks:Channel <- undef
	.loc	7 2800 74                       @ ../src/driver/stm32g4-v120/src/stm32g4xx_hal_adc.c:2800:74
	ldrd	r6, r3, [r1]
	movs	r2, #31
.Ltmp754:
	.loc	8 4092 25                       @ ../src/driver/stm32g4-v120/inc/stm32g4xx_ll_adc.h:4092:25
	ubfx	r5, r3, #8, #2
.Ltmp755:
	@DEBUG_VALUE: LL_ADC_REG_SetSequencerRanks:Rank <- $r3
	@DEBUG_VALUE: LL_ADC_REG_SetSequencerRanks:ADCx <- $r7
	add.w	r5, r7, r5, lsl #2
.Ltmp756:
	@DEBUG_VALUE: LL_ADC_REG_SetSequencerRanks:preg <- [DW_OP_plus_uconst 48, DW_OP_stack_value] $r5
	.loc	8 4094 3                        @ ../src/driver/stm32g4-v120/inc/stm32g4xx_ll_adc.h:4094:3
	ldr	r4, [r5, #48]
	and	r3, r3, #31
.Ltmp757:
	lsls	r2, r3
	ubfx	r6, r6, #26, #5
	bic.w	r2, r4, r2
	lsl.w	r3, r6, r3
	orrs	r2, r3
	str	r2, [r5, #48]
.Ltmp758:
	@DEBUG_VALUE: LL_ADC_REG_IsConversionOngoing:ADCx <- $r7
	.loc	8 6838 12                       @ ../src/driver/stm32g4-v120/inc/stm32g4xx_ll_adc.h:6838:12
	ldr	r2, [r7, #8]
.Ltmp759:
	@DEBUG_VALUE: LL_ADC_INJ_IsConversionOngoing:ADCx <- $r7
	@DEBUG_VALUE: HAL_ADC_ConfigChannel:tmp_adc_is_conversion_on_going_regular <- [DW_OP_constu 1, DW_OP_and, DW_OP_stack_value] undef
	.loc	8 7063 12                       @ ../src/driver/stm32g4-v120/inc/stm32g4xx_ll_adc.h:7063:12
	ldr	r3, [r7, #8]
	.loc	8 7063 11 is_stmt 0             @ ../src/driver/stm32g4-v120/inc/stm32g4xx_ll_adc.h:7063:11
	lsrs	r3, r3, #3
.Ltmp760:
	@DEBUG_VALUE: HAL_ADC_ConfigChannel:tmp_adc_is_conversion_on_going_injected <- [DW_OP_constu 1, DW_OP_and, DW_OP_stack_value] $r3
	.loc	7 2810 9 is_stmt 1              @ ../src/driver/stm32g4-v120/src/stm32g4xx_hal_adc.c:2810:9
	orr.w	r2, r3, r2, lsr #2
	lsls	r2, r2, #31
	bne.w	.LBB28_18
.Ltmp761:
@ %bb.4:
	@DEBUG_VALUE: HAL_ADC_ConfigChannel:tmp_adc_is_conversion_on_going_injected <- [DW_OP_constu 1, DW_OP_and, DW_OP_stack_value] $r3
	@DEBUG_VALUE: HAL_ADC_ConfigChannel:sConfig <- $r1
	@DEBUG_VALUE: HAL_ADC_ConfigChannel:hadc <- $r0
	@DEBUG_VALUE: HAL_ADC_ConfigChannel:tmp_hal_status <- 0
	.loc	7 0 0 is_stmt 0                 @ ../src/driver/stm32g4-v120/src/stm32g4xx_hal_adc.c:0:0
	ldr	r2, [r1]
	@DEBUG_VALUE: LL_ADC_SetChannelSamplingTime:Channel <- $r2
	@DEBUG_VALUE: LL_ADC_SetChannelSamplingTime:Channel <- $r2
	movs	r6, #4
	add.w	r3, r7, #20
.Ltmp762:
	and.w	r12, r6, r2, lsr #23
	ubfx	r6, r2, #25, #1
	@DEBUG_VALUE: LL_ADC_SetChannelSamplingTime:preg <- undef
	@DEBUG_VALUE: LL_ADC_SetChannelSamplingTime:preg <- undef
	.loc	7 2814 20 is_stmt 1             @ ../src/driver/stm32g4-v120/src/stm32g4xx_hal_adc.c:2814:20
	ldr	r5, [r1, #8]
	@DEBUG_VALUE: LL_ADC_SetChannelSamplingTime:ADCx <- $r7
	@DEBUG_VALUE: LL_ADC_SetChannelSamplingTime:ADCx <- $r7
	.loc	7 0 0 is_stmt 0                 @ ../src/driver/stm32g4-v120/src/stm32g4xx_hal_adc.c:0:0
	ldr.w	r6, [r3, r6, lsl #2]
	ubfx	r4, r2, #20, #5
	movs	r2, #7
	lsls	r2, r4
.Ltmp763:
	.loc	7 2814 11                       @ ../src/driver/stm32g4-v120/src/stm32g4xx_hal_adc.c:2814:11
	cmp.w	r5, #-2147483648
.Ltmp764:
	.loc	7 0 0                           @ ../src/driver/stm32g4-v120/src/stm32g4xx_hal_adc.c:0:0
	bic.w	r6, r6, r2
.Ltmp765:
	.loc	7 2814 11                       @ ../src/driver/stm32g4-v120/src/stm32g4xx_hal_adc.c:2814:11
	bne	.LBB28_7
.Ltmp766:
@ %bb.5:
	@DEBUG_VALUE: LL_ADC_SetChannelSamplingTime:ADCx <- $r7
	@DEBUG_VALUE: HAL_ADC_ConfigChannel:sConfig <- $r1
	@DEBUG_VALUE: HAL_ADC_ConfigChannel:hadc <- $r0
	@DEBUG_VALUE: HAL_ADC_ConfigChannel:tmp_hal_status <- 0
	@DEBUG_VALUE: LL_ADC_SetChannelSamplingTime:SamplingTime <- 0
	.loc	8 5333 3 is_stmt 1              @ ../src/driver/stm32g4-v120/inc/stm32g4xx_ll_adc.h:5333:3
	str.w	r6, [r3, r12]
.Ltmp767:
	@DEBUG_VALUE: LL_ADC_SetSamplingTimeCommonConfig:SamplingTimeCommonConfig <- -2147483648
	@DEBUG_VALUE: LL_ADC_SetSamplingTimeCommonConfig:ADCx <- $r7
	.loc	8 3557 3                        @ ../src/driver/stm32g4-v120/inc/stm32g4xx_ll_adc.h:3557:3
	ldr	r2, [r3]
	orr	r3, r2, #-2147483648
	b	.LBB28_8
.Ltmp768:
.LBB28_6:
	@DEBUG_VALUE: HAL_ADC_ConfigChannel:sConfig <- $r1
	@DEBUG_VALUE: HAL_ADC_ConfigChannel:hadc <- $r0
	@DEBUG_VALUE: HAL_ADC_ConfigChannel:tmp_hal_status <- 0
	.loc	7 2953 5                        @ ../src/driver/stm32g4-v120/src/stm32g4xx_hal_adc.c:2953:5
	ldr	r1, [r0, #92]
.Ltmp769:
	@DEBUG_VALUE: HAL_ADC_ConfigChannel:sConfig <- [DW_OP_LLVM_entry_value 1] $r1
	orr	r1, r1, #32
	str	r1, [r0, #92]
	movs	r1, #1
.Ltmp770:
	@DEBUG_VALUE: HAL_ADC_ConfigChannel:tmp_hal_status <- 1
	.loc	7 0 5 is_stmt 0                 @ ../src/driver/stm32g4-v120/src/stm32g4xx_hal_adc.c:0:5
	b	.LBB28_43
.Ltmp771:
.LBB28_7:
	@DEBUG_VALUE: LL_ADC_SetChannelSamplingTime:ADCx <- $r7
	@DEBUG_VALUE: HAL_ADC_ConfigChannel:sConfig <- $r1
	@DEBUG_VALUE: HAL_ADC_ConfigChannel:hadc <- $r0
	@DEBUG_VALUE: HAL_ADC_ConfigChannel:tmp_hal_status <- 0
	@DEBUG_VALUE: LL_ADC_SetChannelSamplingTime:SamplingTime <- $r5
	.loc	8 5333 3 is_stmt 1              @ ../src/driver/stm32g4-v120/inc/stm32g4xx_ll_adc.h:5333:3
	lsl.w	r2, r5, r4
	orrs	r2, r6
	str.w	r2, [r3, r12]
.Ltmp772:
	@DEBUG_VALUE: LL_ADC_SetSamplingTimeCommonConfig:SamplingTimeCommonConfig <- 0
	@DEBUG_VALUE: LL_ADC_SetSamplingTimeCommonConfig:ADCx <- $r7
	.loc	8 3557 3                        @ ../src/driver/stm32g4-v120/inc/stm32g4xx_ll_adc.h:3557:3
	ldr	r2, [r3]
	bic	r3, r2, #-2147483648
.Ltmp773:
.LBB28_8:
	@DEBUG_VALUE: HAL_ADC_ConfigChannel:sConfig <- $r1
	@DEBUG_VALUE: HAL_ADC_ConfigChannel:hadc <- $r0
	@DEBUG_VALUE: HAL_ADC_ConfigChannel:tmp_hal_status <- 0
	.loc	7 0 0 is_stmt 0                 @ ../src/driver/stm32g4-v120/src/stm32g4xx_hal_adc.c:0:0
	str	r3, [r7, #20]
.Ltmp774:
	@DEBUG_VALUE: HAL_ADC_ConfigChannel:tmpOffsetShifted <- undef
	.loc	7 2837 20 is_stmt 1             @ ../src/driver/stm32g4-v120/src/stm32g4xx_hal_adc.c:2837:20
	ldrd	r3, r6, [r1, #16]
.Ltmp775:
	.loc	7 2835 26                       @ ../src/driver/stm32g4-v120/src/stm32g4xx_hal_adc.c:2835:26
	ldr	r5, [r7, #12]
	.loc	7 2837 11                       @ ../src/driver/stm32g4-v120/src/stm32g4xx_hal_adc.c:2837:11
	cmp	r3, #4
	bne	.LBB28_17
.Ltmp776:
@ %bb.9:
	@DEBUG_VALUE: HAL_ADC_ConfigChannel:sConfig <- $r1
	@DEBUG_VALUE: HAL_ADC_ConfigChannel:hadc <- $r0
	@DEBUG_VALUE: HAL_ADC_ConfigChannel:tmp_hal_status <- 0
	.loc	8 3302 21                       @ ../src/driver/stm32g4-v120/inc/stm32g4xx_ll_adc.h:3302:21
	ldr	r2, [r7, #96]
.Ltmp777:
	@DEBUG_VALUE: LL_ADC_GetOffsetChannel:preg <- [DW_OP_plus_uconst 96, DW_OP_stack_value] $r7
	@DEBUG_VALUE: LL_ADC_GetOffsetChannel:Offsety <- 0
	@DEBUG_VALUE: LL_ADC_GetOffsetChannel:ADCx <- $r7
	.loc	8 3302 21 is_stmt 0             @ ../src/driver/stm32g4-v120/inc/stm32g4xx_ll_adc.h:3302:21
	ldr	r2, [r7, #96]
.Ltmp778:
	.loc	7 2852 104 is_stmt 1            @ ../src/driver/stm32g4-v120/src/stm32g4xx_hal_adc.c:2852:104
	ldr	r3, [r1]
	.loc	7 2852 12 is_stmt 0             @ ../src/driver/stm32g4-v120/src/stm32g4xx_hal_adc.c:2852:12
	ubfx	r2, r2, #26, #5
	.loc	7 2852 104                      @ ../src/driver/stm32g4-v120/src/stm32g4xx_hal_adc.c:2852:104
	rbit	r6, r3
	ubfx	r12, r3, #26, #5
	bfc	r3, #19, #13
	clz	r5, r6
	cmp	r3, #0
	mov	r4, r5
	movw	lr, #65535
	it	eq
	moveq	r4, r12
.Ltmp779:
	.loc	7 2852 12                       @ ../src/driver/stm32g4-v120/src/stm32g4xx_hal_adc.c:2852:12
	cmp	r2, r4
	movt	lr, #7
	@DEBUG_VALUE: LL_ADC_GetOffsetChannel:preg <- [DW_OP_plus_uconst 96, DW_OP_stack_value] $r7
	@DEBUG_VALUE: LL_ADC_GetOffsetChannel:Offsety <- 0
	@DEBUG_VALUE: LL_ADC_GetOffsetChannel:ADCx <- $r7
	bne	.LBB28_11
.Ltmp780:
@ %bb.10:
	@DEBUG_VALUE: HAL_ADC_ConfigChannel:sConfig <- $r1
	@DEBUG_VALUE: HAL_ADC_ConfigChannel:hadc <- $r0
	@DEBUG_VALUE: HAL_ADC_ConfigChannel:tmp_hal_status <- 0
	@DEBUG_VALUE: LL_ADC_SetOffsetState:ADCx <- $r7
	@DEBUG_VALUE: LL_ADC_SetOffsetState:Offsety <- 0
	@DEBUG_VALUE: LL_ADC_SetOffsetState:OffsetState <- 0
	.loc	8 3361 3 is_stmt 1              @ ../src/driver/stm32g4-v120/inc/stm32g4xx_ll_adc.h:3361:3
	ldr	r2, [r7, #96]
	bic	r2, r2, #-2147483648
	str	r2, [r7, #96]
.Ltmp781:
	.loc	7 2856 104                      @ ../src/driver/stm32g4-v120/src/stm32g4xx_hal_adc.c:2856:104
	ldr	r2, [r1]
	and.w	r3, r2, lr
	ubfx	r12, r2, #26, #5
	rbit	r2, r2
	clz	r5, r2
	@DEBUG_VALUE: LL_ADC_SetOffsetState:preg <- [DW_OP_plus_uconst 96, DW_OP_stack_value] $r7
.Ltmp782:
.LBB28_11:
	@DEBUG_VALUE: HAL_ADC_ConfigChannel:sConfig <- $r1
	@DEBUG_VALUE: HAL_ADC_ConfigChannel:hadc <- $r0
	@DEBUG_VALUE: HAL_ADC_ConfigChannel:tmp_hal_status <- 0
	@DEBUG_VALUE: LL_ADC_GetOffsetChannel:ADCx <- $r7
	@DEBUG_VALUE: LL_ADC_GetOffsetChannel:Offsety <- 1
	.loc	8 3302 21                       @ ../src/driver/stm32g4-v120/inc/stm32g4xx_ll_adc.h:3302:21
	ldr	r2, [r7, #100]
.Ltmp783:
	@DEBUG_VALUE: LL_ADC_GetOffsetChannel:preg <- [DW_OP_plus_uconst 100, DW_OP_stack_value] $r7
	@DEBUG_VALUE: LL_ADC_GetOffsetChannel:preg <- [DW_OP_plus_uconst 96, DW_OP_plus_uconst 4, DW_OP_stack_value] $r7
	@DEBUG_VALUE: LL_ADC_GetOffsetChannel:Offsety <- 1
	@DEBUG_VALUE: LL_ADC_GetOffsetChannel:ADCx <- $r7
	.loc	8 3302 21 is_stmt 0             @ ../src/driver/stm32g4-v120/inc/stm32g4xx_ll_adc.h:3302:21
	ldr	r2, [r7, #100]
.Ltmp784:
	.loc	7 2856 104 is_stmt 1            @ ../src/driver/stm32g4-v120/src/stm32g4xx_hal_adc.c:2856:104
	cmp	r3, #0
	.loc	7 2856 12 is_stmt 0             @ ../src/driver/stm32g4-v120/src/stm32g4xx_hal_adc.c:2856:12
	ubfx	r2, r2, #26, #5
	.loc	7 2856 104                      @ ../src/driver/stm32g4-v120/src/stm32g4xx_hal_adc.c:2856:104
	mov	r4, r5
	it	eq
	moveq	r4, r12
.Ltmp785:
	.loc	7 2856 12                       @ ../src/driver/stm32g4-v120/src/stm32g4xx_hal_adc.c:2856:12
	cmp	r2, r4
	bne	.LBB28_13
.Ltmp786:
@ %bb.12:
	@DEBUG_VALUE: HAL_ADC_ConfigChannel:sConfig <- $r1
	@DEBUG_VALUE: HAL_ADC_ConfigChannel:hadc <- $r0
	@DEBUG_VALUE: HAL_ADC_ConfigChannel:tmp_hal_status <- 0
	@DEBUG_VALUE: LL_ADC_SetOffsetState:ADCx <- $r7
	@DEBUG_VALUE: LL_ADC_SetOffsetState:Offsety <- 1
	@DEBUG_VALUE: LL_ADC_SetOffsetState:OffsetState <- 0
	.loc	8 3361 3 is_stmt 1              @ ../src/driver/stm32g4-v120/inc/stm32g4xx_ll_adc.h:3361:3
	ldr	r2, [r7, #100]
	bic	r2, r2, #-2147483648
	str	r2, [r7, #100]
.Ltmp787:
	.loc	7 2860 104                      @ ../src/driver/stm32g4-v120/src/stm32g4xx_hal_adc.c:2860:104
	ldr	r2, [r1]
	and.w	r3, r2, lr
	ubfx	r12, r2, #26, #5
	rbit	r2, r2
	clz	r5, r2
	@DEBUG_VALUE: LL_ADC_SetOffsetState:preg <- [DW_OP_plus_uconst 96, DW_OP_plus_uconst 4, DW_OP_stack_value] $r7
.Ltmp788:
.LBB28_13:
	@DEBUG_VALUE: HAL_ADC_ConfigChannel:sConfig <- $r1
	@DEBUG_VALUE: HAL_ADC_ConfigChannel:hadc <- $r0
	@DEBUG_VALUE: HAL_ADC_ConfigChannel:tmp_hal_status <- 0
	@DEBUG_VALUE: LL_ADC_GetOffsetChannel:ADCx <- $r7
	@DEBUG_VALUE: LL_ADC_GetOffsetChannel:Offsety <- 2
	.loc	8 3302 21                       @ ../src/driver/stm32g4-v120/inc/stm32g4xx_ll_adc.h:3302:21
	ldr	r2, [r7, #104]
.Ltmp789:
	@DEBUG_VALUE: LL_ADC_GetOffsetChannel:preg <- [DW_OP_plus_uconst 104, DW_OP_stack_value] $r7
	@DEBUG_VALUE: LL_ADC_GetOffsetChannel:preg <- [DW_OP_plus_uconst 96, DW_OP_plus_uconst 8, DW_OP_stack_value] $r7
	@DEBUG_VALUE: LL_ADC_GetOffsetChannel:Offsety <- 2
	@DEBUG_VALUE: LL_ADC_GetOffsetChannel:ADCx <- $r7
	.loc	8 3302 21 is_stmt 0             @ ../src/driver/stm32g4-v120/inc/stm32g4xx_ll_adc.h:3302:21
	ldr	r2, [r7, #104]
.Ltmp790:
	.loc	7 2860 104 is_stmt 1            @ ../src/driver/stm32g4-v120/src/stm32g4xx_hal_adc.c:2860:104
	cmp	r3, #0
	.loc	7 2860 12 is_stmt 0             @ ../src/driver/stm32g4-v120/src/stm32g4xx_hal_adc.c:2860:12
	ubfx	r2, r2, #26, #5
	.loc	7 2860 104                      @ ../src/driver/stm32g4-v120/src/stm32g4xx_hal_adc.c:2860:104
	mov	r4, r5
	it	eq
	moveq	r4, r12
.Ltmp791:
	.loc	7 2860 12                       @ ../src/driver/stm32g4-v120/src/stm32g4xx_hal_adc.c:2860:12
	cmp	r2, r4
	bne	.LBB28_15
.Ltmp792:
@ %bb.14:
	@DEBUG_VALUE: HAL_ADC_ConfigChannel:sConfig <- $r1
	@DEBUG_VALUE: HAL_ADC_ConfigChannel:hadc <- $r0
	@DEBUG_VALUE: HAL_ADC_ConfigChannel:tmp_hal_status <- 0
	@DEBUG_VALUE: LL_ADC_SetOffsetState:ADCx <- $r7
	@DEBUG_VALUE: LL_ADC_SetOffsetState:Offsety <- 2
	@DEBUG_VALUE: LL_ADC_SetOffsetState:OffsetState <- 0
	.loc	8 3361 3 is_stmt 1              @ ../src/driver/stm32g4-v120/inc/stm32g4xx_ll_adc.h:3361:3
	ldr	r2, [r7, #104]
	bic	r2, r2, #-2147483648
	str	r2, [r7, #104]
.Ltmp793:
	.loc	7 2864 104                      @ ../src/driver/stm32g4-v120/src/stm32g4xx_hal_adc.c:2864:104
	ldr	r2, [r1]
	and.w	r3, r2, lr
	ubfx	r12, r2, #26, #5
	rbit	r2, r2
	clz	r5, r2
	@DEBUG_VALUE: LL_ADC_SetOffsetState:preg <- [DW_OP_plus_uconst 96, DW_OP_plus_uconst 8, DW_OP_stack_value] $r7
.Ltmp794:
.LBB28_15:
	@DEBUG_VALUE: HAL_ADC_ConfigChannel:sConfig <- $r1
	@DEBUG_VALUE: HAL_ADC_ConfigChannel:hadc <- $r0
	@DEBUG_VALUE: HAL_ADC_ConfigChannel:tmp_hal_status <- 0
	@DEBUG_VALUE: LL_ADC_GetOffsetChannel:ADCx <- $r7
	@DEBUG_VALUE: LL_ADC_GetOffsetChannel:Offsety <- 3
	.loc	8 3302 21                       @ ../src/driver/stm32g4-v120/inc/stm32g4xx_ll_adc.h:3302:21
	ldr	r2, [r7, #108]
.Ltmp795:
	@DEBUG_VALUE: LL_ADC_GetOffsetChannel:preg <- [DW_OP_plus_uconst 108, DW_OP_stack_value] $r7
	@DEBUG_VALUE: LL_ADC_GetOffsetChannel:preg <- [DW_OP_plus_uconst 96, DW_OP_plus_uconst 12, DW_OP_stack_value] $r7
	@DEBUG_VALUE: LL_ADC_GetOffsetChannel:Offsety <- 3
	@DEBUG_VALUE: LL_ADC_GetOffsetChannel:ADCx <- $r7
	.loc	8 3302 21 is_stmt 0             @ ../src/driver/stm32g4-v120/inc/stm32g4xx_ll_adc.h:3302:21
	ldr	r2, [r7, #108]
.Ltmp796:
	.loc	7 2864 104 is_stmt 1            @ ../src/driver/stm32g4-v120/src/stm32g4xx_hal_adc.c:2864:104
	cmp	r3, #0
	.loc	7 2864 12 is_stmt 0             @ ../src/driver/stm32g4-v120/src/stm32g4xx_hal_adc.c:2864:12
	ubfx	r2, r2, #26, #5
	.loc	7 2864 104                      @ ../src/driver/stm32g4-v120/src/stm32g4xx_hal_adc.c:2864:104
	it	eq
	moveq	r5, r12
.Ltmp797:
	.loc	7 2864 12                       @ ../src/driver/stm32g4-v120/src/stm32g4xx_hal_adc.c:2864:12
	cmp	r2, r5
	bne	.LBB28_18
.Ltmp798:
@ %bb.16:
	@DEBUG_VALUE: HAL_ADC_ConfigChannel:sConfig <- $r1
	@DEBUG_VALUE: HAL_ADC_ConfigChannel:hadc <- $r0
	@DEBUG_VALUE: HAL_ADC_ConfigChannel:tmp_hal_status <- 0
	@DEBUG_VALUE: LL_ADC_SetOffsetState:ADCx <- $r7
	@DEBUG_VALUE: LL_ADC_SetOffsetState:Offsety <- 3
	@DEBUG_VALUE: LL_ADC_SetOffsetState:OffsetState <- 0
	.loc	8 3361 3 is_stmt 1              @ ../src/driver/stm32g4-v120/inc/stm32g4xx_ll_adc.h:3361:3
	ldr	r2, [r7, #108]
	bic	r2, r2, #-2147483648
	str	r2, [r7, #108]
.Ltmp799:
	@DEBUG_VALUE: LL_ADC_SetOffsetState:preg <- [DW_OP_plus_uconst 96, DW_OP_plus_uconst 12, DW_OP_stack_value] $r7
	.loc	8 0 3 is_stmt 0                 @ ../src/driver/stm32g4-v120/inc/stm32g4xx_ll_adc.h:0:3
	b	.LBB28_18
.Ltmp800:
.LBB28_17:
	@DEBUG_VALUE: HAL_ADC_ConfigChannel:sConfig <- $r1
	@DEBUG_VALUE: HAL_ADC_ConfigChannel:hadc <- $r0
	@DEBUG_VALUE: HAL_ADC_ConfigChannel:tmp_hal_status <- 0
	movs	r2, #6
	.loc	7 2835 26 is_stmt 1             @ ../src/driver/stm32g4-v120/src/stm32g4xx_hal_adc.c:2835:26
	and.w	r2, r2, r5, lsr #2
	lsl.w	r12, r6, r2
.Ltmp801:
	@DEBUG_VALUE: HAL_ADC_ConfigChannel:tmpOffsetShifted <- $r12
	.loc	7 2840 74                       @ ../src/driver/stm32g4-v120/src/stm32g4xx_hal_adc.c:2840:74
	ldr	r6, [r1]
.Ltmp802:
	@DEBUG_VALUE: LL_ADC_SetOffset:OffsetLevel <- $r12
	@DEBUG_VALUE: LL_ADC_SetOffset:Offsety <- $r3
	@DEBUG_VALUE: LL_ADC_SetOffset:ADCx <- $r7
	@DEBUG_VALUE: LL_ADC_SetOffset:Channel <- $r6
	.loc	8 3217 25                       @ ../src/driver/stm32g4-v120/inc/stm32g4xx_ll_adc.h:3217:25
	add.w	r5, r7, #96
.Ltmp803:
	@DEBUG_VALUE: LL_ADC_SetOffset:preg <- undef
	.loc	8 3219 3                        @ ../src/driver/stm32g4-v120/inc/stm32g4xx_ll_adc.h:3219:3
	ldr.w	r4, [r5, r3, lsl #2]
	movw	r2, #61440
	movt	r2, #1023
	and	r6, r6, #2080374784
.Ltmp804:
	ands	r2, r4
	orr.w	r6, r6, r12
	orrs	r2, r6
	orr	r2, r2, #-2147483648
	str.w	r2, [r5, r3, lsl #2]
.Ltmp805:
	.loc	7 2845 55                       @ ../src/driver/stm32g4-v120/src/stm32g4xx_hal_adc.c:2845:55
	ldr	r2, [r1, #16]
	.loc	7 2845 78 is_stmt 0             @ ../src/driver/stm32g4-v120/src/stm32g4xx_hal_adc.c:2845:78
	ldr	r3, [r1, #24]
.Ltmp806:
	@DEBUG_VALUE: LL_ADC_SetOffsetSign:preg <- undef
	@DEBUG_VALUE: LL_ADC_SetOffsetSign:Offsety <- $r2
	@DEBUG_VALUE: LL_ADC_SetOffsetSign:ADCx <- $r7
	@DEBUG_VALUE: LL_ADC_SetOffsetSign:OffsetSign <- $r3
	.loc	8 3416 3 is_stmt 1              @ ../src/driver/stm32g4-v120/inc/stm32g4xx_ll_adc.h:3416:3
	ldr.w	r6, [r5, r2, lsl #2]
	bic	r6, r6, #16777216
	orrs	r3, r6
.Ltmp807:
	str.w	r3, [r5, r2, lsl #2]
.Ltmp808:
	.loc	7 2846 61                       @ ../src/driver/stm32g4-v120/src/stm32g4xx_hal_adc.c:2846:61
	ldr	r2, [r1, #16]
.Ltmp809:
	.loc	7 2846 85 is_stmt 0             @ ../src/driver/stm32g4-v120/src/stm32g4xx_hal_adc.c:2846:85
	ldrb	r3, [r1, #28]
.Ltmp810:
	@DEBUG_VALUE: LL_ADC_SetOffsetSaturation:preg <- undef
	@DEBUG_VALUE: LL_ADC_SetOffsetSaturation:OffsetSaturation <- undef
	@DEBUG_VALUE: LL_ADC_SetOffsetSaturation:Offsety <- $r2
	@DEBUG_VALUE: LL_ADC_SetOffsetSaturation:ADCx <- $r7
	.loc	8 3471 3 is_stmt 1              @ ../src/driver/stm32g4-v120/inc/stm32g4xx_ll_adc.h:3471:3
	ldr.w	r6, [r5, r2, lsl #2]
	cmp	r3, #1
	bic	r6, r6, #33554432
	it	eq
	addeq.w	r6, r6, #33554432
	str.w	r6, [r5, r2, lsl #2]
.Ltmp811:
.LBB28_18:
	@DEBUG_VALUE: HAL_ADC_ConfigChannel:sConfig <- $r1
	@DEBUG_VALUE: HAL_ADC_ConfigChannel:hadc <- $r0
	@DEBUG_VALUE: HAL_ADC_ConfigChannel:tmp_hal_status <- 0
	@DEBUG_VALUE: LL_ADC_IsEnabled:ADCx <- $r7
	.loc	8 6716 12                       @ ../src/driver/stm32g4-v120/inc/stm32g4xx_ll_adc.h:6716:12
	ldr	r2, [r7, #8]
.Ltmp812:
	.loc	7 2874 9                        @ ../src/driver/stm32g4-v120/src/stm32g4xx_hal_adc.c:2874:9
	lsls	r2, r2, #31
	bne	.LBB28_26
.Ltmp813:
@ %bb.19:
	@DEBUG_VALUE: HAL_ADC_ConfigChannel:sConfig <- $r1
	@DEBUG_VALUE: HAL_ADC_ConfigChannel:hadc <- $r0
	@DEBUG_VALUE: HAL_ADC_ConfigChannel:tmp_hal_status <- 0
	.loc	7 2877 60                       @ ../src/driver/stm32g4-v120/src/stm32g4xx_hal_adc.c:2877:60
	ldr	r6, [r1]
	.loc	7 2877 78 is_stmt 0             @ ../src/driver/stm32g4-v120/src/stm32g4xx_hal_adc.c:2877:78
	ldr	r2, [r1, #12]
.Ltmp814:
	@DEBUG_VALUE: LL_ADC_SetChannelSingleDiff:Channel <- $r6
	@DEBUG_VALUE: LL_ADC_SetChannelSingleDiff:ADCx <- $r7
	@DEBUG_VALUE: LL_ADC_SetChannelSingleDiff:SingleDiff <- $r2
	.loc	8 5495 3 is_stmt 1              @ ../src/driver/stm32g4-v120/inc/stm32g4xx_ll_adc.h:5495:3
	ldr.w	r5, [r7, #176]
	mov	r3, r6
	bfc	r3, #19, #13
	bic.w	r12, r5, r3
	movw	r5, #65535
	and	r4, r2, #24
	movt	r5, #7
	lsrs	r5, r4
	movs	r4, #0
	ands	r5, r6
	movt	r4, #16511
	orr.w	r5, r5, r12
.Ltmp815:
	.loc	7 2880 11                       @ ../src/driver/stm32g4-v120/src/stm32g4xx_hal_adc.c:2880:11
	cmp	r2, r4
.Ltmp816:
	.loc	8 5495 3                        @ ../src/driver/stm32g4-v120/inc/stm32g4xx_ll_adc.h:5495:3
	str.w	r5, [r7, #176]
.Ltmp817:
	@DEBUG_VALUE: LL_ADC_SetChannelSingleDiff:Channel <- $r6
	@DEBUG_VALUE: LL_ADC_SetChannelSingleDiff:ADCx <- $r7
	.loc	7 2880 11                       @ ../src/driver/stm32g4-v120/src/stm32g4xx_hal_adc.c:2880:11
	bne	.LBB28_26
.Ltmp818:
@ %bb.20:
	@DEBUG_VALUE: HAL_ADC_ConfigChannel:sConfig <- $r1
	@DEBUG_VALUE: HAL_ADC_ConfigChannel:hadc <- $r0
	@DEBUG_VALUE: HAL_ADC_ConfigChannel:tmp_hal_status <- 0
	.loc	7 2885 50                       @ ../src/driver/stm32g4-v120/src/stm32g4xx_hal_adc.c:2885:50
	cbz	r3, .LBB28_23
.Ltmp819:
@ %bb.21:
	@DEBUG_VALUE: HAL_ADC_ConfigChannel:sConfig <- $r1
	@DEBUG_VALUE: HAL_ADC_ConfigChannel:hadc <- $r0
	@DEBUG_VALUE: HAL_ADC_ConfigChannel:tmp_hal_status <- 0
	@DEBUG_VALUE: __CLZ:value <- undef
	.file	9 "C:\\Users\\grodriguez\\Documents\\iit\\icub-firmware\\emBODY\\eBcode\\arch-arm\\libs\\lowlevel\\stm32hal\\proj" "../src/driver/stm32g4-v120/inc/cmsis_armclang.h"
	.loc	9 948 7                         @ ../src/driver/stm32g4-v120/inc/cmsis_armclang.h:948:7
	rbit	r2, r6
	clz	r2, r2
.Ltmp820:
	.loc	7 2885 50                       @ ../src/driver/stm32g4-v120/src/stm32g4xx_hal_adc.c:2885:50
	adds	r2, #1
	and	r3, r2, #30
.Ltmp821:
	@DEBUG_VALUE: __CLZ:value <- undef
	@DEBUG_VALUE: __CLZ:value <- undef
	@DEBUG_VALUE: __CLZ:value <- undef
	@DEBUG_VALUE: __CLZ:value <- undef
	cmp	r3, #9
	and	r3, r2, #31
.Ltmp822:
	@DEBUG_VALUE: __CLZ:value <- undef
	@DEBUG_VALUE: __CLZ:value <- undef
	bhi	.LBB28_24
.Ltmp823:
.LBB28_22:
	@DEBUG_VALUE: HAL_ADC_ConfigChannel:sConfig <- $r1
	@DEBUG_VALUE: HAL_ADC_ConfigChannel:hadc <- $r0
	@DEBUG_VALUE: HAL_ADC_ConfigChannel:tmp_hal_status <- 0
	.loc	7 0 50 is_stmt 0                @ ../src/driver/stm32g4-v120/src/stm32g4xx_hal_adc.c:0:50
	movs	r2, #1
	.loc	7 2885 50                       @ ../src/driver/stm32g4-v120/src/stm32g4xx_hal_adc.c:2885:50
	lsls	r2, r3
	add.w	r3, r3, r3, lsl #1
	orr.w	r3, r2, r3, lsl #20
	b	.LBB28_25
.Ltmp824:
.LBB28_23:
	@DEBUG_VALUE: HAL_ADC_ConfigChannel:sConfig <- $r1
	@DEBUG_VALUE: HAL_ADC_ConfigChannel:hadc <- $r0
	@DEBUG_VALUE: HAL_ADC_ConfigChannel:tmp_hal_status <- 0
	.loc	7 0 50                          @ ../src/driver/stm32g4-v120/src/stm32g4xx_hal_adc.c:0:50
	movs	r2, #1
	.loc	7 2885 50                       @ ../src/driver/stm32g4-v120/src/stm32g4xx_hal_adc.c:2885:50
	add.w	r2, r2, r6, lsr #26
	and	r3, r2, #30
	cmp	r3, #10
	and	r3, r2, #31
	blo	.LBB28_22
.Ltmp825:
.LBB28_24:
	@DEBUG_VALUE: HAL_ADC_ConfigChannel:sConfig <- $r1
	@DEBUG_VALUE: HAL_ADC_ConfigChannel:hadc <- $r0
	@DEBUG_VALUE: HAL_ADC_ConfigChannel:tmp_hal_status <- 0
	.loc	7 0 50                          @ ../src/driver/stm32g4-v120/src/stm32g4xx_hal_adc.c:0:50
	movs	r2, #1
	movs	r6, #0
	.loc	7 2885 50                       @ ../src/driver/stm32g4-v120/src/stm32g4xx_hal_adc.c:2885:50
	lsls	r2, r3
	add.w	r3, r3, r3, lsl #1
	movt	r6, #65056
	add.w	r3, r6, r3, lsl #20
	orrs	r2, r3
	orr	r3, r2, #33554432
.Ltmp826:
.LBB28_25:
	@DEBUG_VALUE: HAL_ADC_ConfigChannel:sConfig <- $r1
	@DEBUG_VALUE: HAL_ADC_ConfigChannel:hadc <- $r0
	@DEBUG_VALUE: HAL_ADC_ConfigChannel:tmp_hal_status <- 0
	.loc	8 5331 25 is_stmt 1             @ ../src/driver/stm32g4-v120/inc/stm32g4xx_ll_adc.h:5331:25
	ubfx	r6, r3, #25, #1
.Ltmp827:
	@DEBUG_VALUE: LL_ADC_SetChannelSamplingTime:Channel <- $r3
	@DEBUG_VALUE: LL_ADC_SetChannelSamplingTime:ADCx <- $r7
	add.w	r6, r7, r6, lsl #2
.Ltmp828:
	@DEBUG_VALUE: LL_ADC_SetChannelSamplingTime:preg <- [DW_OP_plus_uconst 20, DW_OP_stack_value] $r6
	.loc	7 2886 48                       @ ../src/driver/stm32g4-v120/src/stm32g4xx_hal_adc.c:2886:48
	ldr	r2, [r1, #8]
.Ltmp829:
	@DEBUG_VALUE: LL_ADC_SetChannelSamplingTime:SamplingTime <- $r2
	.loc	8 5333 3                        @ ../src/driver/stm32g4-v120/inc/stm32g4xx_ll_adc.h:5333:3
	ldr	r5, [r6, #20]
	ubfx	r3, r3, #20, #5
.Ltmp830:
	.loc	8 0 3 is_stmt 0                 @ ../src/driver/stm32g4-v120/inc/stm32g4xx_ll_adc.h:0:3
	movs	r4, #7
	.loc	8 5333 3                        @ ../src/driver/stm32g4-v120/inc/stm32g4xx_ll_adc.h:5333:3
	lsls	r4, r3
	bics	r5, r4
	lsls	r2, r3
.Ltmp831:
	orrs	r2, r5
	str	r2, [r6, #20]
.Ltmp832:
.LBB28_26:
	@DEBUG_VALUE: HAL_ADC_ConfigChannel:sConfig <- $r1
	@DEBUG_VALUE: HAL_ADC_ConfigChannel:hadc <- $r0
	@DEBUG_VALUE: HAL_ADC_ConfigChannel:tmp_hal_status <- 0
	.loc	7 2897 9 is_stmt 1              @ ../src/driver/stm32g4-v120/src/stm32g4xx_hal_adc.c:2897:9
	ldr	r5, [r1]
	movs	r1, #0
.Ltmp833:
	@DEBUG_VALUE: HAL_ADC_ConfigChannel:sConfig <- [DW_OP_LLVM_entry_value 1] $r1
	.loc	7 0 9 is_stmt 0                 @ ../src/driver/stm32g4-v120/src/stm32g4xx_hal_adc.c:0:9
	movt	r1, #32776
.Ltmp834:
	.loc	7 2897 9                        @ ../src/driver/stm32g4-v120/src/stm32g4xx_hal_adc.c:2897:9
	tst	r5, r1
	beq	.LBB28_42
.Ltmp835:
@ %bb.27:
	@DEBUG_VALUE: HAL_ADC_ConfigChannel:hadc <- $r0
	@DEBUG_VALUE: HAL_ADC_ConfigChannel:sConfig <- [DW_OP_LLVM_entry_value 1] $r1
	@DEBUG_VALUE: HAL_ADC_ConfigChannel:tmp_hal_status <- 0
	.loc	7 0 9                           @ ../src/driver/stm32g4-v120/src/stm32g4xx_hal_adc.c:0:9
	movw	lr, #256
	movt	lr, #20480
.Ltmp836:
	.loc	7 2899 68 is_stmt 1             @ ../src/driver/stm32g4-v120/src/stm32g4xx_hal_adc.c:2899:68
	add.w	r3, lr, #512
	mov	r4, r3
	cmp	r7, lr
	it	ne
	addne.w	r4, lr, #1536
	mov	r1, r4
	cmp.w	r7, #1342177280
	it	eq
	moveq	r1, r3
.Ltmp837:
	@DEBUG_VALUE: LL_ADC_GetCommonPathInternalCh:ADCxy_COMMON <- $r1
	.loc	8 2876 21                       @ ../src/driver/stm32g4-v120/inc/stm32g4xx_ll_adc.h:2876:21
	ldr	r6, [r1, #8]
	movs	r2, #0
	movt	r2, #49953
.Ltmp838:
	.loc	7 2903 62                       @ ../src/driver/stm32g4-v120/src/stm32g4xx_hal_adc.c:2903:62
	cmp	r5, r2
.Ltmp839:
	.loc	8 2876 21                       @ ../src/driver/stm32g4-v120/inc/stm32g4xx_ll_adc.h:2876:21
	and	r12, r6, #29360128
.Ltmp840:
	@DEBUG_VALUE: HAL_ADC_ConfigChannel:tmp_config_internal_channel <- $r12
	@DEBUG_VALUE: LL_ADC_GetCommonPathInternalCh:ADCxy_COMMON <- $r1
	.loc	7 2903 62                       @ ../src/driver/stm32g4-v120/src/stm32g4xx_hal_adc.c:2903:62
	beq	.LBB28_29
.Ltmp841:
@ %bb.28:
	@DEBUG_VALUE: HAL_ADC_ConfigChannel:tmp_config_internal_channel <- $r12
	@DEBUG_VALUE: HAL_ADC_ConfigChannel:hadc <- $r0
	@DEBUG_VALUE: HAL_ADC_ConfigChannel:sConfig <- [DW_OP_LLVM_entry_value 1] $r1
	@DEBUG_VALUE: HAL_ADC_ConfigChannel:tmp_hal_status <- 0
	.loc	7 0 62 is_stmt 0                @ ../src/driver/stm32g4-v120/src/stm32g4xx_hal_adc.c:0:62
	movs	r2, #16
	movt	r2, #37056
	.loc	7 2903 62                       @ ../src/driver/stm32g4-v120/src/stm32g4xx_hal_adc.c:2903:62
	cmp	r5, r2
	bne	.LBB28_35
.Ltmp842:
.LBB28_29:
	@DEBUG_VALUE: HAL_ADC_ConfigChannel:tmp_config_internal_channel <- $r12
	@DEBUG_VALUE: HAL_ADC_ConfigChannel:hadc <- $r0
	@DEBUG_VALUE: HAL_ADC_ConfigChannel:sConfig <- [DW_OP_LLVM_entry_value 1] $r1
	@DEBUG_VALUE: HAL_ADC_ConfigChannel:tmp_hal_status <- 0
	.loc	7 2903 11                       @ ../src/driver/stm32g4-v120/src/stm32g4xx_hal_adc.c:2903:11
	lsls	r2, r6, #8
	bmi	.LBB28_42
.Ltmp843:
@ %bb.30:
	@DEBUG_VALUE: HAL_ADC_ConfigChannel:tmp_config_internal_channel <- $r12
	@DEBUG_VALUE: HAL_ADC_ConfigChannel:hadc <- $r0
	@DEBUG_VALUE: HAL_ADC_ConfigChannel:sConfig <- [DW_OP_LLVM_entry_value 1] $r1
	@DEBUG_VALUE: HAL_ADC_ConfigChannel:tmp_hal_status <- 0
	.loc	7 0 11                          @ ../src/driver/stm32g4-v120/src/stm32g4xx_hal_adc.c:0:11
	movw	r2, #1536
	movt	r2, #20480
.Ltmp844:
	.loc	7 2906 13 is_stmt 1             @ ../src/driver/stm32g4-v120/src/stm32g4xx_hal_adc.c:2906:13
	cmp	r7, r2
	beq	.LBB28_32
.Ltmp845:
@ %bb.31:
	@DEBUG_VALUE: HAL_ADC_ConfigChannel:tmp_config_internal_channel <- $r12
	@DEBUG_VALUE: HAL_ADC_ConfigChannel:hadc <- $r0
	@DEBUG_VALUE: HAL_ADC_ConfigChannel:sConfig <- [DW_OP_LLVM_entry_value 1] $r1
	@DEBUG_VALUE: HAL_ADC_ConfigChannel:tmp_hal_status <- 0
	cmp.w	r7, #1342177280
	bne	.LBB28_42
.Ltmp846:
.LBB28_32:
	@DEBUG_VALUE: HAL_ADC_ConfigChannel:tmp_config_internal_channel <- $r12
	@DEBUG_VALUE: HAL_ADC_ConfigChannel:hadc <- $r0
	@DEBUG_VALUE: HAL_ADC_ConfigChannel:sConfig <- [DW_OP_LLVM_entry_value 1] $r1
	@DEBUG_VALUE: HAL_ADC_ConfigChannel:tmp_hal_status <- 0
	@DEBUG_VALUE: LL_ADC_SetCommonPathInternalCh:ADCxy_COMMON <- $r1
	@DEBUG_VALUE: LL_ADC_SetCommonPathInternalCh:PathInternal <- [DW_OP_constu 8388608, DW_OP_or, DW_OP_stack_value] $r12
	.loc	8 2795 3                        @ ../src/driver/stm32g4-v120/inc/stm32g4xx_ll_adc.h:2795:3
	ldr	r2, [r1, #8]
	bic	r2, r2, #29360128
	orr.w	r2, r2, r12
	orr	r2, r2, #8388608
	str	r2, [r1, #8]
.Ltmp847:
	.loc	7 2916 74                       @ ../src/driver/stm32g4-v120/src/stm32g4xx_hal_adc.c:2916:74
	movw	r1, :lower16:SystemCoreClock
.Ltmp848:
	movt	r1, :upper16:SystemCoreClock
	ldr	r1, [r1]
	movw	r2, #11619
	.loc	7 2916 90 is_stmt 0             @ ../src/driver/stm32g4-v120/src/stm32g4xx_hal_adc.c:2916:90
	lsrs	r1, r1, #6
	movt	r2, #1342
	umull	r1, r2, r1, r2
	lsrs	r1, r2, #6
	.loc	7 2916 71                       @ ../src/driver/stm32g4-v120/src/stm32g4xx_hal_adc.c:2916:71
	add.w	r1, r1, r1, lsl #1
	lsls	r1, r1, #2
.Ltmp849:
	.p2align	2
.LBB28_33:                              @ =>This Inner Loop Header: Depth=1
	@DEBUG_VALUE: HAL_ADC_ConfigChannel:tmp_config_internal_channel <- $r12
	@DEBUG_VALUE: HAL_ADC_ConfigChannel:hadc <- $r0
	@DEBUG_VALUE: HAL_ADC_ConfigChannel:sConfig <- [DW_OP_LLVM_entry_value 1] $r1
	@DEBUG_VALUE: HAL_ADC_ConfigChannel:tmp_hal_status <- 0
	.loc	7 0 0                           @ ../src/driver/stm32g4-v120/src/stm32g4xx_hal_adc.c:0:0
	str	r1, [sp]
	.loc	7 2917 18 is_stmt 1             @ ../src/driver/stm32g4-v120/src/stm32g4xx_hal_adc.c:2917:18
	ldr	r1, [sp]
	.loc	7 2917 11 is_stmt 0             @ ../src/driver/stm32g4-v120/src/stm32g4xx_hal_adc.c:2917:11
	cbz	r1, .LBB28_42
.Ltmp850:
@ %bb.34:                               @   in Loop: Header=BB28_33 Depth=1
	@DEBUG_VALUE: HAL_ADC_ConfigChannel:tmp_config_internal_channel <- $r12
	@DEBUG_VALUE: HAL_ADC_ConfigChannel:hadc <- $r0
	@DEBUG_VALUE: HAL_ADC_ConfigChannel:sConfig <- [DW_OP_LLVM_entry_value 1] $r1
	@DEBUG_VALUE: HAL_ADC_ConfigChannel:tmp_hal_status <- 0
	.loc	7 2919 28 is_stmt 1             @ ../src/driver/stm32g4-v120/src/stm32g4xx_hal_adc.c:2919:28
	ldr	r1, [sp]
	subs	r1, #1
	b	.LBB28_33
.Ltmp851:
.LBB28_35:
	@DEBUG_VALUE: HAL_ADC_ConfigChannel:tmp_config_internal_channel <- $r12
	@DEBUG_VALUE: HAL_ADC_ConfigChannel:hadc <- $r0
	@DEBUG_VALUE: HAL_ADC_ConfigChannel:sConfig <- [DW_OP_LLVM_entry_value 1] $r1
	@DEBUG_VALUE: HAL_ADC_ConfigChannel:tmp_hal_status <- 0
	.loc	7 0 28 is_stmt 0                @ ../src/driver/stm32g4-v120/src/stm32g4xx_hal_adc.c:0:28
	movs	r2, #0
	movt	r2, #51026
.Ltmp852:
	.loc	7 2923 55 is_stmt 1             @ ../src/driver/stm32g4-v120/src/stm32g4xx_hal_adc.c:2923:55
	cmp	r5, r2
	it	eq
	andseq	r2, r6, #16777216
	beq	.LBB28_41
.Ltmp853:
@ %bb.36:
	@DEBUG_VALUE: HAL_ADC_ConfigChannel:tmp_config_internal_channel <- $r12
	@DEBUG_VALUE: HAL_ADC_ConfigChannel:hadc <- $r0
	@DEBUG_VALUE: HAL_ADC_ConfigChannel:sConfig <- [DW_OP_LLVM_entry_value 1] $r1
	@DEBUG_VALUE: HAL_ADC_ConfigChannel:tmp_hal_status <- 0
	.loc	7 0 55 is_stmt 0                @ ../src/driver/stm32g4-v120/src/stm32g4xx_hal_adc.c:0:55
	movs	r1, #0
	movt	r1, #52100
.Ltmp854:
	.loc	7 2932 16 is_stmt 1             @ ../src/driver/stm32g4-v120/src/stm32g4xx_hal_adc.c:2932:16
	cmp	r5, r1
	mov.w	r1, #0
	it	eq
	andseq	r2, r6, #4194304
	bne	.LBB28_43
.Ltmp855:
@ %bb.37:
	@DEBUG_VALUE: HAL_ADC_ConfigChannel:tmp_config_internal_channel <- $r12
	@DEBUG_VALUE: HAL_ADC_ConfigChannel:hadc <- $r0
	@DEBUG_VALUE: HAL_ADC_ConfigChannel:sConfig <- [DW_OP_LLVM_entry_value 1] $r1
	@DEBUG_VALUE: HAL_ADC_ConfigChannel:tmp_hal_status <- 0
	.loc	7 2934 13                       @ ../src/driver/stm32g4-v120/src/stm32g4xx_hal_adc.c:2934:13
	cmp.w	r7, #1342177280
	beq	.LBB28_40
.Ltmp856:
@ %bb.38:
	@DEBUG_VALUE: HAL_ADC_ConfigChannel:tmp_config_internal_channel <- $r12
	@DEBUG_VALUE: HAL_ADC_ConfigChannel:hadc <- $r0
	@DEBUG_VALUE: HAL_ADC_ConfigChannel:sConfig <- [DW_OP_LLVM_entry_value 1] $r1
	@DEBUG_VALUE: HAL_ADC_ConfigChannel:tmp_hal_status <- 0
	cmp	r7, lr
	beq	.LBB28_42
.Ltmp857:
@ %bb.39:
	@DEBUG_VALUE: HAL_ADC_ConfigChannel:tmp_config_internal_channel <- $r12
	@DEBUG_VALUE: HAL_ADC_ConfigChannel:hadc <- $r0
	@DEBUG_VALUE: HAL_ADC_ConfigChannel:sConfig <- [DW_OP_LLVM_entry_value 1] $r1
	@DEBUG_VALUE: HAL_ADC_ConfigChannel:tmp_hal_status <- 0
	.loc	7 0 13 is_stmt 0                @ ../src/driver/stm32g4-v120/src/stm32g4xx_hal_adc.c:0:13
	mov	r3, r4
.Ltmp858:
.LBB28_40:
	@DEBUG_VALUE: HAL_ADC_ConfigChannel:tmp_config_internal_channel <- $r12
	@DEBUG_VALUE: HAL_ADC_ConfigChannel:hadc <- $r0
	@DEBUG_VALUE: HAL_ADC_ConfigChannel:sConfig <- [DW_OP_LLVM_entry_value 1] $r1
	@DEBUG_VALUE: HAL_ADC_ConfigChannel:tmp_hal_status <- 0
	@DEBUG_VALUE: LL_ADC_SetCommonPathInternalCh:ADCxy_COMMON <- $r3
	@DEBUG_VALUE: LL_ADC_SetCommonPathInternalCh:PathInternal <- [DW_OP_constu 4194304, DW_OP_or, DW_OP_stack_value] $r12
	.loc	8 2795 3 is_stmt 1              @ ../src/driver/stm32g4-v120/inc/stm32g4xx_ll_adc.h:2795:3
	ldr	r1, [r3, #8]
	bic	r1, r1, #29360128
	orr.w	r1, r1, r12
	orr	r1, r1, #4194304
	str	r1, [r3, #8]
	b	.LBB28_42
.Ltmp859:
.LBB28_41:
	@DEBUG_VALUE: HAL_ADC_ConfigChannel:tmp_config_internal_channel <- $r12
	@DEBUG_VALUE: HAL_ADC_ConfigChannel:hadc <- $r0
	@DEBUG_VALUE: HAL_ADC_ConfigChannel:sConfig <- [DW_OP_LLVM_entry_value 1] $r1
	@DEBUG_VALUE: HAL_ADC_ConfigChannel:tmp_hal_status <- 0
	@DEBUG_VALUE: LL_ADC_SetCommonPathInternalCh:ADCxy_COMMON <- $r1
	@DEBUG_VALUE: LL_ADC_SetCommonPathInternalCh:PathInternal <- [DW_OP_constu 16777216, DW_OP_or, DW_OP_stack_value] $r12
	.loc	8 2795 3 is_stmt 0              @ ../src/driver/stm32g4-v120/inc/stm32g4xx_ll_adc.h:2795:3
	ldr	r2, [r1, #8]
	bic	r2, r2, #29360128
	orr.w	r2, r2, r12
	orr	r2, r2, #16777216
	str	r2, [r1, #8]
.Ltmp860:
.LBB28_42:
	@DEBUG_VALUE: HAL_ADC_ConfigChannel:hadc <- $r0
	@DEBUG_VALUE: HAL_ADC_ConfigChannel:sConfig <- [DW_OP_LLVM_entry_value 1] $r1
	@DEBUG_VALUE: HAL_ADC_ConfigChannel:tmp_hal_status <- 0
	.loc	8 0 3                           @ ../src/driver/stm32g4-v120/inc/stm32g4xx_ll_adc.h:0:3
	movs	r1, #0
.Ltmp861:
.LBB28_43:
	@DEBUG_VALUE: HAL_ADC_ConfigChannel:hadc <- $r0
	@DEBUG_VALUE: HAL_ADC_ConfigChannel:sConfig <- [DW_OP_LLVM_entry_value 1] $r1
	@DEBUG_VALUE: HAL_ADC_ConfigChannel:tmp_hal_status <- $r1
	movs	r2, #0
.Ltmp862:
	.loc	7 2959 3 is_stmt 1              @ ../src/driver/stm32g4-v120/src/stm32g4xx_hal_adc.c:2959:3
	strb.w	r2, [r0, #88]
.Ltmp863:
.LBB28_44:
	@DEBUG_VALUE: HAL_ADC_ConfigChannel:hadc <- $r0
	@DEBUG_VALUE: HAL_ADC_ConfigChannel:sConfig <- [DW_OP_LLVM_entry_value 1] $r1
	.loc	7 2963 1                        @ ../src/driver/stm32g4-v120/src/stm32g4xx_hal_adc.c:2963:1
	mov	r0, r1
.Ltmp864:
	@DEBUG_VALUE: HAL_ADC_ConfigChannel:hadc <- [DW_OP_LLVM_entry_value 1] $r0
	add	sp, #4
	pop	{r4, r5, r6, r7, pc}
.Ltmp865:
.Lfunc_end28:
	.size	HAL_ADC_ConfigChannel, .Lfunc_end28-HAL_ADC_ConfigChannel
	.cfi_endproc
	.cantunwind
	.fnend
                                        @ -- End function
	.section	.text.HAL_ADC_AnalogWDGConfig,"ax",%progbits
	.hidden	HAL_ADC_AnalogWDGConfig         @ -- Begin function HAL_ADC_AnalogWDGConfig
	.globl	HAL_ADC_AnalogWDGConfig
	.p2align	2
	.type	HAL_ADC_AnalogWDGConfig,%function
	.code	16                              @ @HAL_ADC_AnalogWDGConfig
	.thumb_func
HAL_ADC_AnalogWDGConfig:
.Lfunc_begin29:
	.loc	7 2988 0                        @ ../src/driver/stm32g4-v120/src/stm32g4xx_hal_adc.c:2988:0
	.fnstart
	.cfi_startproc
@ %bb.0:
	@DEBUG_VALUE: HAL_ADC_AnalogWDGConfig:hadc <- $r0
	@DEBUG_VALUE: HAL_ADC_AnalogWDGConfig:hadc <- $r0
	@DEBUG_VALUE: HAL_ADC_AnalogWDGConfig:AnalogWDGConfig <- $r1
	.save	{r4, r5, r6, r7, lr}
	push	{r4, r5, r6, r7, lr}
	.cfi_def_cfa_offset 20
	.cfi_offset lr, -4
	.cfi_offset r7, -8
	.cfi_offset r6, -12
	.cfi_offset r5, -16
	.cfi_offset r4, -20
.Ltmp866:
	@DEBUG_VALUE: HAL_ADC_AnalogWDGConfig:tmp_hal_status <- 0
	.loc	7 3026 3 prologue_end           @ ../src/driver/stm32g4-v120/src/stm32g4xx_hal_adc.c:3026:3
	ldrb.w	r2, [r0, #88]
.Ltmp867:
	.loc	7 3026 3 is_stmt 0              @ ../src/driver/stm32g4-v120/src/stm32g4xx_hal_adc.c:3026:3
	cmp	r2, #1
	@DEBUG_VALUE: HAL_ADC_AnalogWDGConfig:AnalogWDGConfig <- $r1
	bne	.LBB29_2
.Ltmp868:
@ %bb.1:
	@DEBUG_VALUE: HAL_ADC_AnalogWDGConfig:AnalogWDGConfig <- $r1
	@DEBUG_VALUE: HAL_ADC_AnalogWDGConfig:hadc <- $r0
	@DEBUG_VALUE: HAL_ADC_AnalogWDGConfig:tmp_hal_status <- 0
	.loc	7 0 3                           @ ../src/driver/stm32g4-v120/src/stm32g4xx_hal_adc.c:0:3
	movs	r1, #2
.Ltmp869:
	@DEBUG_VALUE: HAL_ADC_AnalogWDGConfig:AnalogWDGConfig <- [DW_OP_LLVM_entry_value 1] $r1
	b	.LBB29_36
.Ltmp870:
.LBB29_2:
	@DEBUG_VALUE: HAL_ADC_AnalogWDGConfig:AnalogWDGConfig <- $r1
	@DEBUG_VALUE: HAL_ADC_AnalogWDGConfig:hadc <- $r0
	@DEBUG_VALUE: HAL_ADC_AnalogWDGConfig:tmp_hal_status <- 0
	.loc	7 3032 81 is_stmt 1             @ ../src/driver/stm32g4-v120/src/stm32g4xx_hal_adc.c:3032:81
	ldr	r2, [r0]
.Ltmp871:
	@DEBUG_VALUE: LL_ADC_REG_IsConversionOngoing:ADCx <- $r2
	.loc	7 0 81 is_stmt 0                @ ../src/driver/stm32g4-v120/src/stm32g4xx_hal_adc.c:0:81
	movw	r12, #0
.Ltmp872:
	.loc	8 6838 12 is_stmt 1             @ ../src/driver/stm32g4-v120/inc/stm32g4xx_ll_adc.h:6838:12
	ldr	r3, [r2, #8]
.Ltmp873:
	@DEBUG_VALUE: LL_ADC_INJ_IsConversionOngoing:ADCx <- $r2
	@DEBUG_VALUE: HAL_ADC_AnalogWDGConfig:tmp_adc_is_conversion_on_going_regular <- [DW_OP_constu 1, DW_OP_and, DW_OP_stack_value] undef
	.loc	8 7063 12                       @ ../src/driver/stm32g4-v120/inc/stm32g4xx_ll_adc.h:7063:12
	ldr	r5, [r2, #8]
	movt	r12, #32192
	.loc	8 7063 11 is_stmt 0             @ ../src/driver/stm32g4-v120/inc/stm32g4xx_ll_adc.h:7063:11
	lsrs	r5, r5, #3
.Ltmp874:
	@DEBUG_VALUE: HAL_ADC_AnalogWDGConfig:tmp_adc_is_conversion_on_going_injected <- [DW_OP_constu 1, DW_OP_and, DW_OP_stack_value] $r5
	.loc	7 3035 7 is_stmt 1              @ ../src/driver/stm32g4-v120/src/stm32g4xx_hal_adc.c:3035:7
	orr.w	r3, r5, r3, lsr #2
	lsls	r3, r3, #31
	bne.w	.LBB29_27
.Ltmp875:
@ %bb.3:
	@DEBUG_VALUE: HAL_ADC_AnalogWDGConfig:tmp_adc_is_conversion_on_going_injected <- [DW_OP_constu 1, DW_OP_and, DW_OP_stack_value] $r5
	@DEBUG_VALUE: HAL_ADC_AnalogWDGConfig:AnalogWDGConfig <- $r1
	@DEBUG_VALUE: HAL_ADC_AnalogWDGConfig:hadc <- $r0
	@DEBUG_VALUE: HAL_ADC_AnalogWDGConfig:tmp_hal_status <- 0
	.loc	7 3039 26                       @ ../src/driver/stm32g4-v120/src/stm32g4xx_hal_adc.c:3039:26
	ldrd	r3, r5, [r1]
.Ltmp876:
	.loc	7 0 0 is_stmt 0                 @ ../src/driver/stm32g4-v120/src/stm32g4xx_hal_adc.c:0:0
	sub.w	r5, r5, #8388608
.Ltmp877:
	.loc	7 3039 9                        @ ../src/driver/stm32g4-v120/src/stm32g4xx_hal_adc.c:3039:9
	cmp	r3, r12
.Ltmp878:
	.loc	7 0 0                           @ ../src/driver/stm32g4-v120/src/stm32g4xx_hal_adc.c:0:0
	ror.w	r4, r5, #22
.Ltmp879:
	.loc	7 3039 9                        @ ../src/driver/stm32g4-v120/src/stm32g4xx_hal_adc.c:3039:9
	bne	.LBB29_8
.Ltmp880:
@ %bb.4:
	@DEBUG_VALUE: HAL_ADC_AnalogWDGConfig:AnalogWDGConfig <- $r1
	@DEBUG_VALUE: HAL_ADC_AnalogWDGConfig:hadc <- $r0
	@DEBUG_VALUE: HAL_ADC_AnalogWDGConfig:tmp_hal_status <- 0
	.loc	7 0 9                           @ ../src/driver/stm32g4-v120/src/stm32g4xx_hal_adc.c:0:9
	movw	r3, #65535
.Ltmp881:
	.loc	7 3044 7 is_stmt 1              @ ../src/driver/stm32g4-v120/src/stm32g4xx_hal_adc.c:3044:7
	cmp	r4, #5
	movt	r3, #33343
	bhi	.LBB29_14
.Ltmp882:
@ %bb.5:
	@DEBUG_VALUE: HAL_ADC_AnalogWDGConfig:AnalogWDGConfig <- $r1
	@DEBUG_VALUE: HAL_ADC_AnalogWDGConfig:hadc <- $r0
	@DEBUG_VALUE: HAL_ADC_AnalogWDGConfig:tmp_hal_status <- 0
	.loc	7 0 7 is_stmt 0                 @ ../src/driver/stm32g4-v120/src/stm32g4xx_hal_adc.c:0:7
.LCPI29_0:
	tbb	[pc, r4]
.Ltmp883:
@ %bb.6:
.LJTI29_0:
	.byte	(.LBB29_7-(.LCPI29_0+4))/2
	.byte	(.LBB29_15-(.LCPI29_0+4))/2
	.byte	(.LBB29_16-(.LCPI29_0+4))/2
	.byte	(.LBB29_17-(.LCPI29_0+4))/2
	.byte	(.LBB29_18-(.LCPI29_0+4))/2
	.byte	(.LBB29_19-(.LCPI29_0+4))/2
	.p2align	1
.LBB29_7:
.Ltmp884:
	@DEBUG_VALUE: HAL_ADC_AnalogWDGConfig:AnalogWDGConfig <- $r1
	@DEBUG_VALUE: HAL_ADC_AnalogWDGConfig:hadc <- $r0
	@DEBUG_VALUE: HAL_ADC_AnalogWDGConfig:tmp_hal_status <- 0
	@DEBUG_VALUE: LL_ADC_SetAnalogWDMonitChannels:ADCx <- $r2
	@DEBUG_VALUE: LL_ADC_SetAnalogWDMonitChannels:AWDy <- 2109734912
	@DEBUG_VALUE: LL_ADC_SetAnalogWDMonitChannels:AWDChannelGroup <- 8912895
	@DEBUG_VALUE: LL_ADC_SetAnalogWDMonitChannels:preg <- [DW_OP_plus_uconst 12, DW_OP_stack_value] $r2
	.loc	8 5721 3 is_stmt 1              @ ../src/driver/stm32g4-v120/inc/stm32g4xx_ll_adc.h:5721:3
	ldr	r5, [r2, #12]
	ands	r3, r5
	orr	r3, r3, #8388608
	b	.LBB29_20
.Ltmp885:
.LBB29_8:
	@DEBUG_VALUE: HAL_ADC_AnalogWDGConfig:AnalogWDGConfig <- $r1
	@DEBUG_VALUE: HAL_ADC_AnalogWDGConfig:hadc <- $r0
	@DEBUG_VALUE: HAL_ADC_AnalogWDGConfig:tmp_hal_status <- 0
	.loc	8 0 3 is_stmt 0                 @ ../src/driver/stm32g4-v120/inc/stm32g4xx_ll_adc.h:0:3
	movw	lr, #65535
.Ltmp886:
	.loc	7 3105 7 is_stmt 1              @ ../src/driver/stm32g4-v120/src/stm32g4xx_hal_adc.c:3105:7
	cmp	r4, #5
	movt	lr, #7
	bhi	.LBB29_21
.Ltmp887:
@ %bb.9:
	@DEBUG_VALUE: HAL_ADC_AnalogWDGConfig:AnalogWDGConfig <- $r1
	@DEBUG_VALUE: HAL_ADC_AnalogWDGConfig:hadc <- $r0
	@DEBUG_VALUE: HAL_ADC_AnalogWDGConfig:tmp_hal_status <- 0
	.loc	7 0 7 is_stmt 0                 @ ../src/driver/stm32g4-v120/src/stm32g4xx_hal_adc.c:0:7
	movs	r5, #1
	lsl.w	r4, r5, r4
	tst.w	r4, #21
	beq	.LBB29_11
.Ltmp888:
@ %bb.10:
	@DEBUG_VALUE: HAL_ADC_AnalogWDGConfig:AnalogWDGConfig <- $r1
	@DEBUG_VALUE: HAL_ADC_AnalogWDGConfig:hadc <- $r0
	@DEBUG_VALUE: HAL_ADC_AnalogWDGConfig:tmp_hal_status <- 0
	@DEBUG_VALUE: LL_ADC_SetAnalogWDMonitChannels:ADCx <- $r2
	@DEBUG_VALUE: LL_ADC_SetAnalogWDMonitChannels:AWDy <- $r3
	@DEBUG_VALUE: LL_ADC_SetAnalogWDMonitChannels:AWDChannelGroup <- 25690111
	.loc	8 5718 25 is_stmt 1             @ ../src/driver/stm32g4-v120/inc/stm32g4xx_ll_adc.h:5718:25
	and	r5, r3, #1
	ubfx	r4, r3, #20, #2
	add.w	r5, r5, r5, lsl #3
	orr.w	r4, r4, r5, lsl #2
	movw	r6, #65535
	add.w	r4, r2, r4, lsl #2
.Ltmp889:
	@DEBUG_VALUE: LL_ADC_SetAnalogWDMonitChannels:preg <- [DW_OP_plus_uconst 12, DW_OP_stack_value] $r4
	.loc	8 0 25 is_stmt 0                @ ../src/driver/stm32g4-v120/inc/stm32g4xx_ll_adc.h:0:25
	movt	r6, #33343
	.loc	8 5721 3 is_stmt 1              @ ../src/driver/stm32g4-v120/inc/stm32g4xx_ll_adc.h:5721:3
	ldr	r5, [r4, #12]
	sub.w	r6, r6, #74973184
	ands	r6, r3
	bics	r5, r6
	add.w	r6, lr, #25165824
	ands	r3, r6
.Ltmp890:
	orrs	r3, r5
	b	.LBB29_22
.Ltmp891:
.LBB29_11:
	@DEBUG_VALUE: HAL_ADC_AnalogWDGConfig:AnalogWDGConfig <- $r1
	@DEBUG_VALUE: HAL_ADC_AnalogWDGConfig:hadc <- $r0
	@DEBUG_VALUE: HAL_ADC_AnalogWDGConfig:tmp_hal_status <- 0
	.loc	7 0 0 is_stmt 0                 @ ../src/driver/stm32g4-v120/src/stm32g4xx_hal_adc.c:0:0
	ldr	r4, [r1, #8]
	.loc	7 3112 47 is_stmt 1             @ ../src/driver/stm32g4-v120/src/stm32g4xx_hal_adc.c:3112:47
	add.w	r6, lr, #1048576
	.loc	7 0 0 is_stmt 0                 @ ../src/driver/stm32g4-v120/src/stm32g4xx_hal_adc.c:0:0
	rbit	r7, r4
	clz	r7, r7
	tst.w	r4, lr
	it	eq
	lsreq	r7, r4, #26
	and	r4, r7, #31
.Ltmp892:
	.loc	7 3112 15                       @ ../src/driver/stm32g4-v120/src/stm32g4xx_hal_adc.c:3112:15
	cmp	r3, r6
.Ltmp893:
	.loc	7 0 0                           @ ../src/driver/stm32g4-v120/src/stm32g4xx_hal_adc.c:0:0
	lsl.w	r3, r5, r4
.Ltmp894:
	.loc	7 3112 15                       @ ../src/driver/stm32g4-v120/src/stm32g4xx_hal_adc.c:3112:15
	bne	.LBB29_13
.Ltmp895:
@ %bb.12:
	@DEBUG_VALUE: HAL_ADC_AnalogWDGConfig:AnalogWDGConfig <- $r1
	@DEBUG_VALUE: HAL_ADC_AnalogWDGConfig:hadc <- $r0
	@DEBUG_VALUE: HAL_ADC_AnalogWDGConfig:tmp_hal_status <- 0
	.loc	7 3114 13 is_stmt 1             @ ../src/driver/stm32g4-v120/src/stm32g4xx_hal_adc.c:3114:13
	ldr.w	r4, [r2, #160]
	orrs	r3, r4
	str.w	r3, [r2, #160]
	b	.LBB29_23
