	.text
	.syntax unified
	.eabi_attribute	67, "2.09"	@ Tag_conformance
	.cpu	cortex-m4
	.eabi_attribute	6, 13	@ Tag_CPU_arch
	.eabi_attribute	7, 77	@ Tag_CPU_arch_profile
	.eabi_attribute	8, 0	@ Tag_ARM_ISA_use
	.eabi_attribute	9, 2	@ Tag_THUMB_ISA_use
	.fpu	fpv4-sp-d16
	.eabi_attribute	27, 1	@ Tag_ABI_HardFP_use
	.eabi_attribute	36, 1	@ Tag_FP_HP_extension
	.eabi_attribute	34, 1	@ Tag_CPU_unaligned_access
	.eabi_attribute	17, 1	@ Tag_ABI_PCS_GOT_use
	.eabi_attribute	20, 2	@ Tag_ABI_FP_denormal
	.eabi_attribute	21, 0	@ Tag_ABI_FP_exceptions
	.eabi_attribute	23, 1	@ Tag_ABI_FP_number_model
	.eabi_attribute	24, 1	@ Tag_ABI_align_needed
	.eabi_attribute	25, 1	@ Tag_ABI_align_preserved
	.eabi_attribute	28, 1	@ Tag_ABI_VFP_args
	.eabi_attribute	38, 1	@ Tag_ABI_FP_16bit_format
	.eabi_attribute	18, 2	@ Tag_ABI_PCS_wchar_t
	.eabi_attribute	26, 1	@ Tag_ABI_enum_size
	.eabi_attribute	14, 0	@ Tag_ABI_PCS_R9_use
	.file	"stm32g4xx_hal_pcd.c"
	.file	1 "C:\\Users\\grodriguez\\Documents\\iit\\icub-firmware\\emBODY\\eBcode\\arch-arm\\libs\\lowlevel\\stm32hal\\proj" "../src/driver/stm32g4-v120/inc/stm32g4xx_hal_def.h"
	.file	2 "C:\\Users\\grodriguez\\Documents\\iit\\icub-firmware\\emBODY\\eBcode\\arch-arm\\libs\\lowlevel\\stm32hal\\proj" "../api\\../src/driver/stm32g4-v120/inc/stm32g4xx_hal_pcd.h"
	.file	3 "C:\\" "Keil_v5\\ARM\\ARMCLANG\\Bin\\..\\include\\stdint.h"
	.section	.text.HAL_PCD_Init,"ax",%progbits
	.hidden	HAL_PCD_Init                    @ -- Begin function HAL_PCD_Init
	.globl	HAL_PCD_Init
	.p2align	1
	.type	HAL_PCD_Init,%function
	.code	16                              @ @HAL_PCD_Init
	.thumb_func
HAL_PCD_Init:
.Lfunc_begin0:
	.file	4 "C:\\Users\\grodriguez\\Documents\\iit\\icub-firmware\\emBODY\\eBcode\\arch-arm\\libs\\lowlevel\\stm32hal\\proj" "../src/driver/stm32g4-v120/src/stm32g4xx_hal_pcd.c"
	.loc	4 123 0                         @ ../src/driver/stm32g4-v120/src/stm32g4xx_hal_pcd.c:123:0
	.fnstart
	.cfi_sections .debug_frame
	.cfi_startproc
@ %bb.0:
	@DEBUG_VALUE: HAL_PCD_Init:hpcd <- $r0
	@DEBUG_VALUE: HAL_PCD_Init:hpcd <- $r0
	.save	{r4, r5, r6, r7, r8, lr}
	push.w	{r4, r5, r6, r7, r8, lr}
	.cfi_def_cfa_offset 24
	.cfi_offset lr, -4
	.cfi_offset r8, -8
	.cfi_offset r7, -12
	.cfi_offset r6, -16
	.cfi_offset r5, -20
	.cfi_offset r4, -24
	.pad	#24
	sub	sp, #24
	.cfi_def_cfa_offset 48
.Ltmp0:
	.loc	4 127 7 prologue_end            @ ../src/driver/stm32g4-v120/src/stm32g4xx_hal_pcd.c:127:7
	cmp	r0, #0
	beq	.LBB0_8
.Ltmp1:
@ %bb.1:
	@DEBUG_VALUE: HAL_PCD_Init:hpcd <- $r0
	.loc	4 0 7 is_stmt 0                 @ ../src/driver/stm32g4-v120/src/stm32g4xx_hal_pcd.c:0:7
	mov	r6, r0
.Ltmp2:
	@DEBUG_VALUE: HAL_PCD_Init:hpcd <- $r6
	.loc	4 135 13 is_stmt 1              @ ../src/driver/stm32g4-v120/src/stm32g4xx_hal_pcd.c:135:13
	ldrb.w	r0, [r0, #681]
.Ltmp3:
	.loc	4 135 7 is_stmt 0               @ ../src/driver/stm32g4-v120/src/stm32g4xx_hal_pcd.c:135:7
	cbnz	r0, .LBB0_3
.Ltmp4:
@ %bb.2:
	@DEBUG_VALUE: HAL_PCD_Init:hpcd <- $r6
	.loc	4 0 7                           @ ../src/driver/stm32g4-v120/src/stm32g4xx_hal_pcd.c:0:7
	movs	r0, #0
.Ltmp5:
	.loc	4 138 16 is_stmt 1              @ ../src/driver/stm32g4-v120/src/stm32g4xx_hal_pcd.c:138:16
	strb.w	r0, [r6, #680]
	.loc	4 164 5                         @ ../src/driver/stm32g4-v120/src/stm32g4xx_hal_pcd.c:164:5
	mov	r0, r6
	bl	HAL_PCD_MspInit
.Ltmp6:
.LBB0_3:
	@DEBUG_VALUE: HAL_PCD_Init:hpcd <- $r6
	.loc	4 0 5 is_stmt 0                 @ ../src/driver/stm32g4-v120/src/stm32g4xx_hal_pcd.c:0:5
	movs	r0, #3
	.loc	4 168 15 is_stmt 1              @ ../src/driver/stm32g4-v120/src/stm32g4xx_hal_pcd.c:168:15
	strb.w	r0, [r6, #681]
	.loc	4 171 3                         @ ../src/driver/stm32g4-v120/src/stm32g4xx_hal_pcd.c:171:3
	ldr	r0, [r6]
	bl	USB_DisableGlobalInt
.Ltmp7:
	@DEBUG_VALUE: HAL_PCD_Init:i <- 0
	.loc	4 174 31                        @ ../src/driver/stm32g4-v120/src/stm32g4xx_hal_pcd.c:174:31
	ldr	r1, [r6, #4]
	movs	r5, #0
.Ltmp8:
	.loc	4 174 3 is_stmt 0               @ ../src/driver/stm32g4-v120/src/stm32g4xx_hal_pcd.c:174:3
	cbz	r1, .LBB0_9
.Ltmp9:
@ %bb.4:
	@DEBUG_VALUE: HAL_PCD_Init:hpcd <- $r6
	@DEBUG_VALUE: HAL_PCD_Init:i <- 0
	.loc	4 0 3                           @ ../src/driver/stm32g4-v120/src/stm32g4xx_hal_pcd.c:0:3
	mov.w	r12, #1
	movs	r3, #0
	movs	r2, #0
.Ltmp10:
	.p2align	2
.LBB0_5:                                @ =>This Inner Loop Header: Depth=1
	@DEBUG_VALUE: HAL_PCD_Init:hpcd <- $r6
	@DEBUG_VALUE: HAL_PCD_Init:i <- $r2
	.loc	4 177 20 is_stmt 1              @ ../src/driver/stm32g4-v120/src/stm32g4xx_hal_pcd.c:177:20
	add.w	r3, r3, r3, lsl #2
	add.w	r0, r6, r3, lsl #3
	.loc	4 178 24                        @ ../src/driver/stm32g4-v120/src/stm32g4xx_hal_pcd.c:178:24
	strb.w	r2, [r0, #40]
	.loc	4 179 34                        @ ../src/driver/stm32g4-v120/src/stm32g4xx_hal_pcd.c:179:34
	uxtb	r3, r2
.Ltmp11:
	.loc	4 174 47                        @ ../src/driver/stm32g4-v120/src/stm32g4xx_hal_pcd.c:174:47
	adds	r2, #1
.Ltmp12:
	@DEBUG_VALUE: HAL_PCD_Init:i <- $r2
	.loc	4 179 32                        @ ../src/driver/stm32g4-v120/src/stm32g4xx_hal_pcd.c:179:32
	strh	r3, [r0, #54]
.Ltmp13:
	.loc	4 174 16                        @ ../src/driver/stm32g4-v120/src/stm32g4xx_hal_pcd.c:174:16
	uxtb	r3, r2
.Ltmp14:
	.loc	4 174 3 is_stmt 0               @ ../src/driver/stm32g4-v120/src/stm32g4xx_hal_pcd.c:174:3
	cmp	r1, r3
.Ltmp15:
	.loc	4 177 26 is_stmt 1              @ ../src/driver/stm32g4-v120/src/stm32g4xx_hal_pcd.c:177:26
	strb.w	r12, [r0, #41]
	.loc	4 181 25                        @ ../src/driver/stm32g4-v120/src/stm32g4xx_hal_pcd.c:181:25
	strb.w	r5, [r0, #43]
	.loc	4 182 30                        @ ../src/driver/stm32g4-v120/src/stm32g4xx_hal_pcd.c:182:30
	strd	r5, r5, [r0, #56]
	.loc	4 184 29                        @ ../src/driver/stm32g4-v120/src/stm32g4xx_hal_pcd.c:184:29
	str	r5, [r0, #64]
.Ltmp16:
	.loc	4 174 3                         @ ../src/driver/stm32g4-v120/src/stm32g4xx_hal_pcd.c:174:3
	bhi	.LBB0_5
.Ltmp17:
@ %bb.6:
	@DEBUG_VALUE: HAL_PCD_Init:hpcd <- $r6
	@DEBUG_VALUE: HAL_PCD_Init:i <- $r2
	.loc	4 0 3 is_stmt 0                 @ ../src/driver/stm32g4-v120/src/stm32g4xx_hal_pcd.c:0:3
	movs	r0, #0
	movs	r3, #0
	movs	r2, #0
.Ltmp18:
	.p2align	2
.LBB0_7:                                @ =>This Inner Loop Header: Depth=1
	@DEBUG_VALUE: HAL_PCD_Init:hpcd <- $r6
	@DEBUG_VALUE: HAL_PCD_Init:i <- $r2
	.loc	4 189 21 is_stmt 1              @ ../src/driver/stm32g4-v120/src/stm32g4xx_hal_pcd.c:189:21
	add.w	r3, r3, r3, lsl #2
	add.w	r4, r6, r3, lsl #3
	.loc	4 190 25                        @ ../src/driver/stm32g4-v120/src/stm32g4xx_hal_pcd.c:190:25
	strb.w	r2, [r4, #360]
.Ltmp19:
	.loc	4 187 47                        @ ../src/driver/stm32g4-v120/src/stm32g4xx_hal_pcd.c:187:47
	adds	r2, #1
.Ltmp20:
	@DEBUG_VALUE: HAL_PCD_Init:i <- $r2
	.loc	4 187 16 is_stmt 0              @ ../src/driver/stm32g4-v120/src/stm32g4xx_hal_pcd.c:187:16
	uxtb	r3, r2
.Ltmp21:
	.loc	4 187 3                         @ ../src/driver/stm32g4-v120/src/stm32g4xx_hal_pcd.c:187:3
	cmp	r1, r3
.Ltmp22:
	.loc	4 189 27 is_stmt 1              @ ../src/driver/stm32g4-v120/src/stm32g4xx_hal_pcd.c:189:27
	strb.w	r0, [r4, #361]
	.loc	4 192 26                        @ ../src/driver/stm32g4-v120/src/stm32g4xx_hal_pcd.c:192:26
	strb.w	r0, [r4, #363]
	.loc	4 193 31                        @ ../src/driver/stm32g4-v120/src/stm32g4xx_hal_pcd.c:193:31
	strd	r0, r0, [r4, #376]
	.loc	4 195 30                        @ ../src/driver/stm32g4-v120/src/stm32g4xx_hal_pcd.c:195:30
	str.w	r0, [r4, #384]
.Ltmp23:
	.loc	4 187 3                         @ ../src/driver/stm32g4-v120/src/stm32g4xx_hal_pcd.c:187:3
	bhi	.LBB0_7
	b	.LBB0_10
.Ltmp24:
.LBB0_8:
	@DEBUG_VALUE: HAL_PCD_Init:hpcd <- $r0
	.loc	4 0 3 is_stmt 0                 @ ../src/driver/stm32g4-v120/src/stm32g4xx_hal_pcd.c:0:3
	movs	r5, #1
	b	.LBB0_12
.Ltmp25:
.LBB0_9:
	@DEBUG_VALUE: HAL_PCD_Init:hpcd <- $r6
	@DEBUG_VALUE: HAL_PCD_Init:i <- 0
	movs	r1, #0
.Ltmp26:
.LBB0_10:
	@DEBUG_VALUE: HAL_PCD_Init:hpcd <- $r6
	.loc	4 199 9 is_stmt 1               @ ../src/driver/stm32g4-v120/src/stm32g4xx_hal_pcd.c:199:9
	add.w	lr, r6, #8
	.loc	4 199 27 is_stmt 0              @ ../src/driver/stm32g4-v120/src/stm32g4xx_hal_pcd.c:199:27
	ldr	r0, [r6]
	.loc	4 199 9                         @ ../src/driver/stm32g4-v120/src/stm32g4xx_hal_pcd.c:199:9
	ldm.w	lr, {r2, r3, r4, r12, lr}
	ldrd	r7, r8, [r6, #28]
	stm.w	sp, {r4, r12, lr}
	strd	r7, r8, [sp, #12]
	bl	USB_DevInit
.Ltmp27:
	.loc	4 0 9                           @ ../src/driver/stm32g4-v120/src/stm32g4xx_hal_pcd.c:0:9
	movs	r0, #1
	.loc	4 201 21 is_stmt 1              @ ../src/driver/stm32g4-v120/src/stm32g4xx_hal_pcd.c:201:21
	strb.w	r5, [r6, #36]
	.loc	4 202 15                        @ ../src/driver/stm32g4-v120/src/stm32g4xx_hal_pcd.c:202:15
	strb.w	r0, [r6, #681]
.Ltmp28:
	.loc	4 205 18                        @ ../src/driver/stm32g4-v120/src/stm32g4xx_hal_pcd.c:205:18
	ldr	r0, [r6, #28]
.Ltmp29:
	.loc	4 205 7 is_stmt 0               @ ../src/driver/stm32g4-v120/src/stm32g4xx_hal_pcd.c:205:7
	cmp	r0, #1
	bne	.LBB0_12
.Ltmp30:
@ %bb.11:
	@DEBUG_VALUE: HAL_PCD_Init:hpcd <- $r6
	.loc	4 207 11 is_stmt 1              @ ../src/driver/stm32g4-v120/src/stm32g4xx_hal_pcd.c:207:11
	mov	r0, r6
	bl	HAL_PCDEx_ActivateLPM
.Ltmp31:
	.loc	4 0 11 is_stmt 0                @ ../src/driver/stm32g4-v120/src/stm32g4xx_hal_pcd.c:0:11
	movs	r5, #0
.Ltmp32:
.LBB0_12:
	.loc	4 211 1 is_stmt 1               @ ../src/driver/stm32g4-v120/src/stm32g4xx_hal_pcd.c:211:1
	mov	r0, r5
	add	sp, #24
	pop.w	{r4, r5, r6, r7, r8, pc}
.Ltmp33:
.Lfunc_end0:
	.size	HAL_PCD_Init, .Lfunc_end0-HAL_PCD_Init
	.cfi_endproc
	.cantunwind
	.fnend
                                        @ -- End function
	.section	.text.HAL_PCD_MspInit,"ax",%progbits
	.hidden	HAL_PCD_MspInit                 @ -- Begin function HAL_PCD_MspInit
	.weak	HAL_PCD_MspInit
	.p2align	1
	.type	HAL_PCD_MspInit,%function
	.code	16                              @ @HAL_PCD_MspInit
	.thumb_func
HAL_PCD_MspInit:
.Lfunc_begin1:
	.loc	4 258 0                         @ ../src/driver/stm32g4-v120/src/stm32g4xx_hal_pcd.c:258:0
	.fnstart
	.cfi_startproc
@ %bb.0:
	@DEBUG_VALUE: HAL_PCD_MspInit:hpcd <- $r0
	.loc	4 265 1 prologue_end            @ ../src/driver/stm32g4-v120/src/stm32g4xx_hal_pcd.c:265:1
	bx	lr
.Ltmp34:
.Lfunc_end1:
	.size	HAL_PCD_MspInit, .Lfunc_end1-HAL_PCD_MspInit
	.cfi_endproc
	.cantunwind
	.fnend
                                        @ -- End function
	.section	.text.HAL_PCD_DeInit,"ax",%progbits
	.hidden	HAL_PCD_DeInit                  @ -- Begin function HAL_PCD_DeInit
	.globl	HAL_PCD_DeInit
	.p2align	1
	.type	HAL_PCD_DeInit,%function
	.code	16                              @ @HAL_PCD_DeInit
	.thumb_func
HAL_PCD_DeInit:
.Lfunc_begin2:
	.loc	4 219 0                         @ ../src/driver/stm32g4-v120/src/stm32g4xx_hal_pcd.c:219:0
	.fnstart
	.cfi_startproc
@ %bb.0:
	@DEBUG_VALUE: HAL_PCD_DeInit:hpcd <- $r0
	@DEBUG_VALUE: HAL_PCD_DeInit:hpcd <- $r0
	.save	{r4, lr}
	push	{r4, lr}
	.cfi_def_cfa_offset 8
	.cfi_offset lr, -4
	.cfi_offset r4, -8
.Ltmp35:
	.loc	4 221 7 prologue_end            @ ../src/driver/stm32g4-v120/src/stm32g4xx_hal_pcd.c:221:7
	cbz	r0, .LBB2_2
.Ltmp36:
@ %bb.1:
	@DEBUG_VALUE: HAL_PCD_DeInit:hpcd <- $r0
	.loc	4 0 7 is_stmt 0                 @ ../src/driver/stm32g4-v120/src/stm32g4xx_hal_pcd.c:0:7
	mov	r4, r0
.Ltmp37:
	@DEBUG_VALUE: HAL_PCD_DeInit:hpcd <- $r4
	@DEBUG_VALUE: HAL_PCD_DeInit:hpcd <- $r4
	movs	r0, #3
	.loc	4 226 15 is_stmt 1              @ ../src/driver/stm32g4-v120/src/stm32g4xx_hal_pcd.c:226:15
	strb.w	r0, [r4, #681]
.Ltmp38:
	.loc	4 229 28                        @ ../src/driver/stm32g4-v120/src/stm32g4xx_hal_pcd.c:229:28
	ldr	r0, [r4]
	.loc	4 229 7 is_stmt 0               @ ../src/driver/stm32g4-v120/src/stm32g4xx_hal_pcd.c:229:7
	bl	USB_StopDevice
.Ltmp39:
	.loc	4 229 7                         @ ../src/driver/stm32g4-v120/src/stm32g4xx_hal_pcd.c:229:7
	cbz	r0, .LBB2_3
.Ltmp40:
.LBB2_2:
	.loc	4 0 7                           @ ../src/driver/stm32g4-v120/src/stm32g4xx_hal_pcd.c:0:7
	movs	r0, #1
	.loc	4 250 1 is_stmt 1               @ ../src/driver/stm32g4-v120/src/stm32g4xx_hal_pcd.c:250:1
	pop	{r4, pc}
.LBB2_3:
.Ltmp41:
	@DEBUG_VALUE: HAL_PCD_DeInit:hpcd <- $r4
	.loc	4 244 3                         @ ../src/driver/stm32g4-v120/src/stm32g4xx_hal_pcd.c:244:3
	mov	r0, r4
	bl	HAL_PCD_MspDeInit
.Ltmp42:
	.loc	4 0 3 is_stmt 0                 @ ../src/driver/stm32g4-v120/src/stm32g4xx_hal_pcd.c:0:3
	movs	r0, #0
	.loc	4 247 15 is_stmt 1              @ ../src/driver/stm32g4-v120/src/stm32g4xx_hal_pcd.c:247:15
	strb.w	r0, [r4, #681]
	.loc	4 250 1                         @ ../src/driver/stm32g4-v120/src/stm32g4xx_hal_pcd.c:250:1
	pop	{r4, pc}
.Ltmp43:
.Lfunc_end2:
	.size	HAL_PCD_DeInit, .Lfunc_end2-HAL_PCD_DeInit
	.cfi_endproc
	.cantunwind
	.fnend
                                        @ -- End function
	.section	.text.HAL_PCD_MspDeInit,"ax",%progbits
	.hidden	HAL_PCD_MspDeInit               @ -- Begin function HAL_PCD_MspDeInit
	.weak	HAL_PCD_MspDeInit
	.p2align	1
	.type	HAL_PCD_MspDeInit,%function
	.code	16                              @ @HAL_PCD_MspDeInit
	.thumb_func
HAL_PCD_MspDeInit:
.Lfunc_begin3:
	.loc	4 273 0                         @ ../src/driver/stm32g4-v120/src/stm32g4xx_hal_pcd.c:273:0
	.fnstart
	.cfi_startproc
@ %bb.0:
	@DEBUG_VALUE: HAL_PCD_MspDeInit:hpcd <- $r0
	.loc	4 280 1 prologue_end            @ ../src/driver/stm32g4-v120/src/stm32g4xx_hal_pcd.c:280:1
	bx	lr
.Ltmp44:
.Lfunc_end3:
	.size	HAL_PCD_MspDeInit, .Lfunc_end3-HAL_PCD_MspDeInit
	.cfi_endproc
	.cantunwind
	.fnend
                                        @ -- End function
	.section	.text.HAL_PCD_Start,"ax",%progbits
	.hidden	HAL_PCD_Start                   @ -- Begin function HAL_PCD_Start
	.globl	HAL_PCD_Start
	.p2align	1
	.type	HAL_PCD_Start,%function
	.code	16                              @ @HAL_PCD_Start
	.thumb_func
HAL_PCD_Start:
.Lfunc_begin4:
	.loc	4 968 0                         @ ../src/driver/stm32g4-v120/src/stm32g4xx_hal_pcd.c:968:0
	.fnstart
	.cfi_startproc
@ %bb.0:
	@DEBUG_VALUE: HAL_PCD_Start:hpcd <- $r0
	.save	{r4, lr}
	push	{r4, lr}
	.cfi_def_cfa_offset 8
	.cfi_offset lr, -4
	.cfi_offset r4, -8
	mov	r4, r0
.Ltmp45:
	@DEBUG_VALUE: HAL_PCD_Start:hpcd <- $r4
	.loc	4 969 3 prologue_end            @ ../src/driver/stm32g4-v120/src/stm32g4xx_hal_pcd.c:969:3
	ldrb.w	r0, [r0, #680]
.Ltmp46:
	.loc	4 969 3 is_stmt 0               @ ../src/driver/stm32g4-v120/src/stm32g4xx_hal_pcd.c:969:3
	cmp	r0, #1
	itt	eq
	moveq	r0, #2
.Ltmp47:
	.loc	4 975 1 is_stmt 1               @ ../src/driver/stm32g4-v120/src/stm32g4xx_hal_pcd.c:975:1
	popeq	{r4, pc}
.Ltmp48:
.LBB4_1:
	.loc	4 970 3                         @ ../src/driver/stm32g4-v120/src/stm32g4xx_hal_pcd.c:970:3
	ldr	r0, [r4]
	movs	r1, #1
.Ltmp49:
	.loc	4 969 3                         @ ../src/driver/stm32g4-v120/src/stm32g4xx_hal_pcd.c:969:3
	strb.w	r1, [r4, #680]
.Ltmp50:
	.loc	4 970 3                         @ ../src/driver/stm32g4-v120/src/stm32g4xx_hal_pcd.c:970:3
	bl	USB_EnableGlobalInt
.Ltmp51:
	.loc	4 971 30                        @ ../src/driver/stm32g4-v120/src/stm32g4xx_hal_pcd.c:971:30
	ldr	r0, [r4]
	.loc	4 971 9 is_stmt 0               @ ../src/driver/stm32g4-v120/src/stm32g4xx_hal_pcd.c:971:9
	bl	USB_DevConnect
.Ltmp52:
	.loc	4 0 9                           @ ../src/driver/stm32g4-v120/src/stm32g4xx_hal_pcd.c:0:9
	movs	r0, #0
.Ltmp53:
	.loc	4 972 3 is_stmt 1               @ ../src/driver/stm32g4-v120/src/stm32g4xx_hal_pcd.c:972:3
	strb.w	r0, [r4, #680]
.Ltmp54:
	.loc	4 975 1                         @ ../src/driver/stm32g4-v120/src/stm32g4xx_hal_pcd.c:975:1
	pop	{r4, pc}
.Ltmp55:
.Lfunc_end4:
	.size	HAL_PCD_Start, .Lfunc_end4-HAL_PCD_Start
	.cfi_endproc
	.cantunwind
	.fnend
                                        @ -- End function
	.section	.text.HAL_PCD_Stop,"ax",%progbits
	.hidden	HAL_PCD_Stop                    @ -- Begin function HAL_PCD_Stop
	.globl	HAL_PCD_Stop
	.p2align	1
	.type	HAL_PCD_Stop,%function
	.code	16                              @ @HAL_PCD_Stop
	.thumb_func
HAL_PCD_Stop:
.Lfunc_begin5:
	.loc	4 983 0                         @ ../src/driver/stm32g4-v120/src/stm32g4xx_hal_pcd.c:983:0
	.fnstart
	.cfi_startproc
@ %bb.0:
	@DEBUG_VALUE: HAL_PCD_Stop:hpcd <- $r0
	.save	{r4, lr}
	push	{r4, lr}
	.cfi_def_cfa_offset 8
	.cfi_offset lr, -4
	.cfi_offset r4, -8
	mov	r4, r0
.Ltmp56:
	@DEBUG_VALUE: HAL_PCD_Stop:hpcd <- $r4
	.loc	4 984 3 prologue_end            @ ../src/driver/stm32g4-v120/src/stm32g4xx_hal_pcd.c:984:3
	ldrb.w	r0, [r0, #680]
.Ltmp57:
	.loc	4 984 3 is_stmt 0               @ ../src/driver/stm32g4-v120/src/stm32g4xx_hal_pcd.c:984:3
	cmp	r0, #1
	itt	eq
	moveq	r0, #2
.Ltmp58:
	.loc	4 990 1 is_stmt 1               @ ../src/driver/stm32g4-v120/src/stm32g4xx_hal_pcd.c:990:1
	popeq	{r4, pc}
.Ltmp59:
.LBB5_1:
	.loc	4 985 3                         @ ../src/driver/stm32g4-v120/src/stm32g4xx_hal_pcd.c:985:3
	ldr	r0, [r4]
	movs	r1, #1
.Ltmp60:
	.loc	4 984 3                         @ ../src/driver/stm32g4-v120/src/stm32g4xx_hal_pcd.c:984:3
	strb.w	r1, [r4, #680]
.Ltmp61:
	.loc	4 985 3                         @ ../src/driver/stm32g4-v120/src/stm32g4xx_hal_pcd.c:985:3
	bl	USB_DisableGlobalInt
.Ltmp62:
	.loc	4 986 33                        @ ../src/driver/stm32g4-v120/src/stm32g4xx_hal_pcd.c:986:33
	ldr	r0, [r4]
	.loc	4 986 9 is_stmt 0               @ ../src/driver/stm32g4-v120/src/stm32g4xx_hal_pcd.c:986:9
	bl	USB_DevDisconnect
.Ltmp63:
	.loc	4 0 9                           @ ../src/driver/stm32g4-v120/src/stm32g4xx_hal_pcd.c:0:9
	movs	r0, #0
.Ltmp64:
	.loc	4 987 3 is_stmt 1               @ ../src/driver/stm32g4-v120/src/stm32g4xx_hal_pcd.c:987:3
	strb.w	r0, [r4, #680]
.Ltmp65:
	.loc	4 990 1                         @ ../src/driver/stm32g4-v120/src/stm32g4xx_hal_pcd.c:990:1
	pop	{r4, pc}
.Ltmp66:
.Lfunc_end5:
	.size	HAL_PCD_Stop, .Lfunc_end5-HAL_PCD_Stop
	.cfi_endproc
	.cantunwind
	.fnend
                                        @ -- End function
	.section	.text.HAL_PCD_IRQHandler,"ax",%progbits
	.hidden	HAL_PCD_IRQHandler              @ -- Begin function HAL_PCD_IRQHandler
	.globl	HAL_PCD_IRQHandler
	.p2align	1
	.type	HAL_PCD_IRQHandler,%function
	.code	16                              @ @HAL_PCD_IRQHandler
	.thumb_func
HAL_PCD_IRQHandler:
.Lfunc_begin6:
	.loc	4 999 0                         @ ../src/driver/stm32g4-v120/src/stm32g4xx_hal_pcd.c:999:0
	.fnstart
	.cfi_startproc
@ %bb.0:
	@DEBUG_VALUE: HAL_PCD_IRQHandler:hpcd <- $r0
	.save	{r4, r5, r6, r7, r8, r9, r10, r11, lr}
	push.w	{r4, r5, r6, r7, r8, r9, r10, r11, lr}
	.cfi_def_cfa_offset 36
	.cfi_offset lr, -4
	.cfi_offset r11, -8
	.cfi_offset r10, -12
	.cfi_offset r9, -16
	.cfi_offset r8, -20
	.cfi_offset r7, -24
	.cfi_offset r6, -28
	.cfi_offset r5, -32
	.cfi_offset r4, -36
	.pad	#4
	sub	sp, #4
	.cfi_def_cfa_offset 40
	mov	r4, r0
.Ltmp67:
	@DEBUG_VALUE: HAL_PCD_IRQHandler:hpcd <- $r4
	.loc	4 1000 7 prologue_end           @ ../src/driver/stm32g4-v120/src/stm32g4xx_hal_pcd.c:1000:7
	ldr	r0, [r0]
	bl	USB_ReadInterrupts
.Ltmp68:
	mov	r1, r0
.Ltmp69:
	.loc	4 0 0 is_stmt 0                 @ ../src/driver/stm32g4-v120/src/stm32g4xx_hal_pcd.c:0:0
	ldr	r0, [r4]
	.loc	4 1000 7                        @ ../src/driver/stm32g4-v120/src/stm32g4xx_hal_pcd.c:1000:7
	lsls	r1, r1, #16
	bpl.w	.LBB6_100
.Ltmp70:
@ %bb.1:
	@DEBUG_VALUE: HAL_PCD_IRQHandler:hpcd <- $r4
	@DEBUG_VALUE: PCD_EP_ISR_Handler:hpcd <- $r4
	.loc	4 1672 27 is_stmt 1             @ ../src/driver/stm32g4-v120/src/stm32g4xx_hal_pcd.c:1672:27
	ldrsh.w	r1, [r0, #68]
	.loc	4 1672 3 is_stmt 0              @ ../src/driver/stm32g4-v120/src/stm32g4xx_hal_pcd.c:1672:3
	cmp.w	r1, #-1
	bgt.w	.LBB6_100
.Ltmp71:
@ %bb.2:
	@DEBUG_VALUE: PCD_EP_ISR_Handler:hpcd <- $r4
	@DEBUG_VALUE: HAL_PCD_IRQHandler:hpcd <- $r4
	.loc	4 0 3                           @ ../src/driver/stm32g4-v120/src/stm32g4xx_hal_pcd.c:0:3
	mov.w	r5, #-1
	add.w	r1, r4, #688
	movw	r11, #3855
	str	r1, [sp]                        @ 4-byte Spill
.Ltmp72:
	.p2align	2
.LBB6_3:                                @ =>This Inner Loop Header: Depth=1
	@DEBUG_VALUE: PCD_EP_ISR_Handler:hpcd <- $r4
	@DEBUG_VALUE: HAL_PCD_IRQHandler:hpcd <- $r4
	.loc	4 1674 29 is_stmt 1             @ ../src/driver/stm32g4-v120/src/stm32g4xx_hal_pcd.c:1674:29
	ldrh.w	r2, [r0, #68]
.Ltmp73:
	@DEBUG_VALUE: PCD_EP_ISR_Handler:wIstr <- undef
	.loc	4 1676 15                       @ ../src/driver/stm32g4-v120/src/stm32g4xx_hal_pcd.c:1676:15
	ands	r9, r2, #15
.Ltmp74:
	@DEBUG_VALUE: PCD_EP_ISR_Handler:epindex <- undef
	.loc	4 1678 9                        @ ../src/driver/stm32g4-v120/src/stm32g4xx_hal_pcd.c:1678:9
	beq	.LBB6_12
.Ltmp75:
@ %bb.4:                                @   in Loop: Header=BB6_3 Depth=1
	@DEBUG_VALUE: PCD_EP_ISR_Handler:hpcd <- $r4
	@DEBUG_VALUE: HAL_PCD_IRQHandler:hpcd <- $r4
	.loc	4 1766 16                       @ ../src/driver/stm32g4-v120/src/stm32g4xx_hal_pcd.c:1766:16
	ldrh.w	r8, [r0, r9, lsl #2]
.Ltmp76:
	@DEBUG_VALUE: PCD_EP_ISR_Handler:wEPVal <- undef
	lsl.w	r10, r9, #1
	.loc	4 1768 11                       @ ../src/driver/stm32g4-v120/src/stm32g4xx_hal_pcd.c:1768:11
	lsls.w	r1, r8, #16
	bpl.w	.LBB6_45
.Ltmp77:
@ %bb.5:                                @   in Loop: Header=BB6_3 Depth=1
	@DEBUG_VALUE: PCD_EP_ISR_Handler:hpcd <- $r4
	@DEBUG_VALUE: HAL_PCD_IRQHandler:hpcd <- $r4
	.loc	4 1771 9                        @ ../src/driver/stm32g4-v120/src/stm32g4xx_hal_pcd.c:1771:9
	ldrh.w	r1, [r0, r10, lsl #1]
	movw	r5, #3855
	and.w	r1, r1, r11
.Ltmp78:
	@DEBUG_VALUE: _wRegVal <- [DW_OP_constu 3855, DW_OP_and, DW_OP_stack_value] undef
	adds	r1, #128
	strh.w	r1, [r0, r10, lsl #1]
.Ltmp79:
	.loc	4 1772 15                       @ ../src/driver/stm32g4-v120/src/stm32g4xx_hal_pcd.c:1772:15
	add.w	r1, r9, r9, lsl #2
	add.w	r11, r4, r1, lsl #3
.Ltmp80:
	.loc	4 1775 17                       @ ../src/driver/stm32g4-v120/src/stm32g4xx_hal_pcd.c:1775:17
	ldrb.w	r1, [r11, #372]
.Ltmp81:
	.loc	4 1772 15                       @ ../src/driver/stm32g4-v120/src/stm32g4xx_hal_pcd.c:1772:15
	add.w	r6, r11, #360
.Ltmp82:
	@DEBUG_VALUE: PCD_EP_ISR_Handler:ep <- $r6
	.loc	4 1775 13                       @ ../src/driver/stm32g4-v120/src/stm32g4xx_hal_pcd.c:1775:13
	cmp	r1, #0
	beq.w	.LBB6_24
.Ltmp83:
@ %bb.6:                                @   in Loop: Header=BB6_3 Depth=1
	@DEBUG_VALUE: PCD_EP_ISR_Handler:ep <- $r6
	@DEBUG_VALUE: PCD_EP_ISR_Handler:hpcd <- $r4
	@DEBUG_VALUE: HAL_PCD_IRQHandler:hpcd <- $r4
	.loc	4 1787 19                       @ ../src/driver/stm32g4-v120/src/stm32g4xx_hal_pcd.c:1787:19
	ldrb.w	r1, [r11, #363]
.Ltmp84:
	.loc	4 1787 15 is_stmt 0             @ ../src/driver/stm32g4-v120/src/stm32g4xx_hal_pcd.c:1787:15
	cmp	r1, #2
	bne.w	.LBB6_26
.Ltmp85:
@ %bb.7:                                @   in Loop: Header=BB6_3 Depth=1
	@DEBUG_VALUE: PCD_EP_ISR_Handler:ep <- $r6
	@DEBUG_VALUE: PCD_EP_ISR_Handler:hpcd <- $r4
	@DEBUG_VALUE: HAL_PCD_IRQHandler:hpcd <- $r4
	@DEBUG_VALUE: HAL_PCD_EP_DB_Receive:hpcd <- $r4
	@DEBUG_VALUE: HAL_PCD_EP_DB_Receive:ep <- $r6
	.loc	4 0 0                           @ ../src/driver/stm32g4-v120/src/stm32g4xx_hal_pcd.c:0:0
	ldrh.w	r2, [r0, #80]
	ldrb	r1, [r6]
.Ltmp86:
	.loc	4 1940 23 is_stmt 1             @ ../src/driver/stm32g4-v120/src/stm32g4xx_hal_pcd.c:1940:23
	add	r2, r0
	add.w	r2, r2, r1, lsl #3
.Ltmp87:
	.loc	4 1905 7                        @ ../src/driver/stm32g4-v120/src/stm32g4xx_hal_pcd.c:1905:7
	lsls.w	r3, r8, #17
.Ltmp88:
	@DEBUG_VALUE: HAL_PCD_EP_DB_Receive:wEPVal <- undef
	bmi.w	.LBB6_31
.Ltmp89:
@ %bb.8:                                @   in Loop: Header=BB6_3 Depth=1
	@DEBUG_VALUE: HAL_PCD_EP_DB_Receive:ep <- $r6
	@DEBUG_VALUE: PCD_EP_ISR_Handler:ep <- $r6
	@DEBUG_VALUE: HAL_PCD_EP_DB_Receive:hpcd <- $r4
	@DEBUG_VALUE: PCD_EP_ISR_Handler:hpcd <- $r4
	@DEBUG_VALUE: HAL_PCD_IRQHandler:hpcd <- $r4
	.loc	4 1940 23                       @ ../src/driver/stm32g4-v120/src/stm32g4xx_hal_pcd.c:1940:23
	ldrh.w	r7, [r2, #1030]
.Ltmp90:
	.loc	4 1942 13                       @ ../src/driver/stm32g4-v120/src/stm32g4xx_hal_pcd.c:1942:13
	ldr.w	r2, [r11, #384]
.Ltmp91:
	@DEBUG_VALUE: HAL_PCD_EP_DB_Receive:count <- undef
	.loc	4 1942 25 is_stmt 0             @ ../src/driver/stm32g4-v120/src/stm32g4xx_hal_pcd.c:1942:25
	bfc	r7, #10, #22
.Ltmp92:
	.loc	4 1942 9                        @ ../src/driver/stm32g4-v120/src/stm32g4xx_hal_pcd.c:1942:9
	subs	r2, r2, r7
	mov.w	r3, #0
	it	lo
	movlo	r2, r3
.Ltmp93:
	.loc	4 0 0                           @ ../src/driver/stm32g4-v120/src/stm32g4xx_hal_pcd.c:0:0
	str.w	r2, [r11, #384]
.Ltmp94:
	.loc	4 1951 9 is_stmt 1              @ ../src/driver/stm32g4-v120/src/stm32g4xx_hal_pcd.c:1951:9
	bhi	.LBB6_10
.Ltmp95:
@ %bb.9:                                @   in Loop: Header=BB6_3 Depth=1
	@DEBUG_VALUE: HAL_PCD_EP_DB_Receive:ep <- $r6
	@DEBUG_VALUE: PCD_EP_ISR_Handler:ep <- $r6
	@DEBUG_VALUE: HAL_PCD_EP_DB_Receive:hpcd <- $r4
	@DEBUG_VALUE: PCD_EP_ISR_Handler:hpcd <- $r4
	@DEBUG_VALUE: HAL_PCD_IRQHandler:hpcd <- $r4
	.loc	4 1954 7                        @ ../src/driver/stm32g4-v120/src/stm32g4xx_hal_pcd.c:1954:7
	ldrh.w	r2, [r0, r1, lsl #2]
	movw	r3, #16143
	ands	r2, r3
.Ltmp96:
	@DEBUG_VALUE: _wRegVal <- [DW_OP_constu 16143, DW_OP_and, DW_OP_constu 8192, DW_OP_xor, DW_OP_stack_value] undef
	movw	r3, #41088
	eors	r2, r3
	strh.w	r2, [r0, r1, lsl #2]
.Ltmp97:
.LBB6_10:                               @   in Loop: Header=BB6_3 Depth=1
	@DEBUG_VALUE: HAL_PCD_EP_DB_Receive:ep <- $r6
	@DEBUG_VALUE: PCD_EP_ISR_Handler:ep <- $r6
	@DEBUG_VALUE: HAL_PCD_EP_DB_Receive:hpcd <- $r4
	@DEBUG_VALUE: PCD_EP_ISR_Handler:hpcd <- $r4
	@DEBUG_VALUE: HAL_PCD_IRQHandler:hpcd <- $r4
	.loc	4 1958 9                        @ ../src/driver/stm32g4-v120/src/stm32g4xx_hal_pcd.c:1958:9
	lsls.w	r2, r8, #25
	bmi.w	.LBB6_28
.Ltmp98:
@ %bb.11:                               @   in Loop: Header=BB6_3 Depth=1
	@DEBUG_VALUE: HAL_PCD_EP_DB_Receive:ep <- $r6
	@DEBUG_VALUE: PCD_EP_ISR_Handler:ep <- $r6
	@DEBUG_VALUE: HAL_PCD_EP_DB_Receive:hpcd <- $r4
	@DEBUG_VALUE: PCD_EP_ISR_Handler:hpcd <- $r4
	@DEBUG_VALUE: HAL_PCD_IRQHandler:hpcd <- $r4
	.loc	4 1960 7                        @ ../src/driver/stm32g4-v120/src/stm32g4xx_hal_pcd.c:1960:7
	ldrh.w	r2, [r0, r1, lsl #2]
	movw	r3, #32960
	ands	r2, r5
.Ltmp99:
	@DEBUG_VALUE: _wEPVal <- [DW_OP_constu 3983, DW_OP_and, DW_OP_stack_value] undef
	orrs	r2, r3
	strh.w	r2, [r0, r1, lsl #2]
	b	.LBB6_28
.Ltmp100:
	.p2align	2
.LBB6_12:                               @   in Loop: Header=BB6_3 Depth=1
	@DEBUG_VALUE: PCD_EP_ISR_Handler:hpcd <- $r4
	@DEBUG_VALUE: HAL_PCD_IRQHandler:hpcd <- $r4
	.loc	4 0 0 is_stmt 0                 @ ../src/driver/stm32g4-v120/src/stm32g4xx_hal_pcd.c:0:0
	ldrh	r1, [r0]
.Ltmp101:
	.loc	4 1683 11 is_stmt 1             @ ../src/driver/stm32g4-v120/src/stm32g4xx_hal_pcd.c:1683:11
	lsls	r2, r2, #27
	bmi	.LBB6_16
.Ltmp102:
@ %bb.13:                               @   in Loop: Header=BB6_3 Depth=1
	@DEBUG_VALUE: PCD_EP_ISR_Handler:hpcd <- $r4
	@DEBUG_VALUE: HAL_PCD_IRQHandler:hpcd <- $r4
	.loc	4 1689 9                        @ ../src/driver/stm32g4-v120/src/stm32g4xx_hal_pcd.c:1689:9
	and.w	r1, r1, r11
.Ltmp103:
	@DEBUG_VALUE: _wRegVal <- [DW_OP_constu 3855, DW_OP_and, DW_OP_stack_value] undef
	add.w	r1, r1, #32768
	strh	r1, [r0]
.Ltmp104:
	@DEBUG_VALUE: PCD_EP_ISR_Handler:ep <- [DW_OP_plus_uconst 40, DW_OP_stack_value] $r4
	.loc	4 1692 26                       @ ../src/driver/stm32g4-v120/src/stm32g4xx_hal_pcd.c:1692:26
	ldrh.w	r1, [r0, #80]
	ldrb.w	r2, [r4, #40]
	add	r0, r1
	add.w	r0, r0, r2, lsl #3
	ldrh.w	r0, [r0, #1026]
	.loc	4 1693 23                       @ ../src/driver/stm32g4-v120/src/stm32g4xx_hal_pcd.c:1693:23
	ldr	r1, [r4, #60]
	.loc	4 1692 26                       @ ../src/driver/stm32g4-v120/src/stm32g4xx_hal_pcd.c:1692:26
	bfc	r0, #10, #22
	.loc	4 1692 24 is_stmt 0             @ ../src/driver/stm32g4-v120/src/stm32g4xx_hal_pcd.c:1692:24
	str	r0, [r4, #68]
	.loc	4 1693 23 is_stmt 1             @ ../src/driver/stm32g4-v120/src/stm32g4xx_hal_pcd.c:1693:23
	add	r0, r1
	str	r0, [r4, #60]
	.loc	4 1699 9                        @ ../src/driver/stm32g4-v120/src/stm32g4xx_hal_pcd.c:1699:9
	mov	r0, r4
	movs	r1, #0
	bl	HAL_PCD_DataInStageCallback
.Ltmp105:
	.loc	4 1702 20                       @ ../src/driver/stm32g4-v120/src/stm32g4xx_hal_pcd.c:1702:20
	ldrb.w	r0, [r4, #36]
	.loc	4 1702 38 is_stmt 0             @ ../src/driver/stm32g4-v120/src/stm32g4xx_hal_pcd.c:1702:38
	cmp	r0, #0
	beq.w	.LBB6_99
.Ltmp106:
@ %bb.14:                               @   in Loop: Header=BB6_3 Depth=1
	@DEBUG_VALUE: PCD_EP_ISR_Handler:ep <- [DW_OP_plus_uconst 40, DW_OP_stack_value] $r4
	@DEBUG_VALUE: PCD_EP_ISR_Handler:hpcd <- $r4
	@DEBUG_VALUE: HAL_PCD_IRQHandler:hpcd <- $r4
	.loc	4 1702 46                       @ ../src/driver/stm32g4-v120/src/stm32g4xx_hal_pcd.c:1702:46
	ldr	r0, [r4, #64]
.Ltmp107:
	.loc	4 1702 13                       @ ../src/driver/stm32g4-v120/src/stm32g4xx_hal_pcd.c:1702:13
	cmp	r0, #0
	bne.w	.LBB6_99
.Ltmp108:
@ %bb.15:                               @   in Loop: Header=BB6_3 Depth=1
	@DEBUG_VALUE: PCD_EP_ISR_Handler:ep <- [DW_OP_plus_uconst 40, DW_OP_stack_value] $r4
	@DEBUG_VALUE: PCD_EP_ISR_Handler:hpcd <- $r4
	@DEBUG_VALUE: HAL_PCD_IRQHandler:hpcd <- $r4
	.loc	4 1704 52 is_stmt 1             @ ../src/driver/stm32g4-v120/src/stm32g4xx_hal_pcd.c:1704:52
	ldrb.w	r0, [r4, #36]
	.loc	4 1704 17 is_stmt 0             @ ../src/driver/stm32g4-v120/src/stm32g4xx_hal_pcd.c:1704:17
	ldr	r1, [r4]
	.loc	4 1704 64                       @ ../src/driver/stm32g4-v120/src/stm32g4xx_hal_pcd.c:1704:64
	orr	r0, r0, #128
	.loc	4 1704 35                       @ ../src/driver/stm32g4-v120/src/stm32g4xx_hal_pcd.c:1704:35
	uxtb	r0, r0
	.loc	4 1704 33                       @ ../src/driver/stm32g4-v120/src/stm32g4xx_hal_pcd.c:1704:33
	strh.w	r0, [r1, #76]
	.loc	4 1705 29 is_stmt 1             @ ../src/driver/stm32g4-v120/src/stm32g4xx_hal_pcd.c:1705:29
	movs	r0, #0
	strb.w	r0, [r4, #36]
	b	.LBB6_99
.Ltmp109:
.LBB6_16:                               @   in Loop: Header=BB6_3 Depth=1
	@DEBUG_VALUE: PCD_EP_ISR_Handler:hpcd <- $r4
	@DEBUG_VALUE: HAL_PCD_IRQHandler:hpcd <- $r4
	@DEBUG_VALUE: PCD_EP_ISR_Handler:ep <- [DW_OP_plus_uconst 360, DW_OP_stack_value] $r4
	@DEBUG_VALUE: PCD_EP_ISR_Handler:wEPVal <- $r1
	.loc	4 1717 13                       @ ../src/driver/stm32g4-v120/src/stm32g4xx_hal_pcd.c:1717:13
	lsls	r2, r1, #20
	bmi	.LBB6_30
.Ltmp110:
@ %bb.17:                               @   in Loop: Header=BB6_3 Depth=1
	@DEBUG_VALUE: PCD_EP_ISR_Handler:ep <- [DW_OP_plus_uconst 360, DW_OP_stack_value] $r4
	@DEBUG_VALUE: PCD_EP_ISR_Handler:hpcd <- $r4
	@DEBUG_VALUE: HAL_PCD_IRQHandler:hpcd <- $r4
	@DEBUG_VALUE: PCD_EP_ISR_Handler:wEPVal <- $r1
	.loc	4 1735 18                       @ ../src/driver/stm32g4-v120/src/stm32g4xx_hal_pcd.c:1735:18
	lsls	r1, r1, #16
.Ltmp111:
	bpl.w	.LBB6_99
.Ltmp112:
@ %bb.18:                               @   in Loop: Header=BB6_3 Depth=1
	@DEBUG_VALUE: PCD_EP_ISR_Handler:ep <- [DW_OP_plus_uconst 360, DW_OP_stack_value] $r4
	@DEBUG_VALUE: PCD_EP_ISR_Handler:hpcd <- $r4
	@DEBUG_VALUE: HAL_PCD_IRQHandler:hpcd <- $r4
	.loc	4 1737 11                       @ ../src/driver/stm32g4-v120/src/stm32g4xx_hal_pcd.c:1737:11
	ldrh	r1, [r0]
.Ltmp113:
	.loc	4 1740 28                       @ ../src/driver/stm32g4-v120/src/stm32g4xx_hal_pcd.c:1740:28
	addw	r2, r0, #1030
.Ltmp114:
	.loc	4 1737 11                       @ ../src/driver/stm32g4-v120/src/stm32g4xx_hal_pcd.c:1737:11
	and.w	r1, r1, r11
.Ltmp115:
	@DEBUG_VALUE: _wRegVal <- [DW_OP_constu 3855, DW_OP_and, DW_OP_stack_value] undef
	adds	r1, #128
	strh	r1, [r0]
.Ltmp116:
	.loc	4 1740 28                       @ ../src/driver/stm32g4-v120/src/stm32g4xx_hal_pcd.c:1740:28
	ldrh.w	r1, [r0, #80]
	ldrb.w	r3, [r4, #360]
	add	r1, r2
	ldrh.w	r3, [r1, r3, lsl #3]
	bfc	r3, #10, #22
	.loc	4 1740 26 is_stmt 0             @ ../src/driver/stm32g4-v120/src/stm32g4xx_hal_pcd.c:1740:26
	str.w	r3, [r4, #388]
.Ltmp117:
	.loc	4 1742 38 is_stmt 1             @ ../src/driver/stm32g4-v120/src/stm32g4xx_hal_pcd.c:1742:38
	cbz	r3, .LBB6_21
.Ltmp118:
@ %bb.19:                               @   in Loop: Header=BB6_3 Depth=1
	@DEBUG_VALUE: PCD_EP_ISR_Handler:ep <- [DW_OP_plus_uconst 360, DW_OP_stack_value] $r4
	@DEBUG_VALUE: PCD_EP_ISR_Handler:hpcd <- $r4
	@DEBUG_VALUE: HAL_PCD_IRQHandler:hpcd <- $r4
	.loc	4 1742 46 is_stmt 0             @ ../src/driver/stm32g4-v120/src/stm32g4xx_hal_pcd.c:1742:46
	ldr.w	r1, [r4, #380]
.Ltmp119:
	.loc	4 1742 15                       @ ../src/driver/stm32g4-v120/src/stm32g4xx_hal_pcd.c:1742:15
	cbz	r1, .LBB6_21
.Ltmp120:
@ %bb.20:                               @   in Loop: Header=BB6_3 Depth=1
	@DEBUG_VALUE: PCD_EP_ISR_Handler:ep <- [DW_OP_plus_uconst 360, DW_OP_stack_value] $r4
	@DEBUG_VALUE: PCD_EP_ISR_Handler:hpcd <- $r4
	@DEBUG_VALUE: HAL_PCD_IRQHandler:hpcd <- $r4
	.loc	4 1745 29 is_stmt 1             @ ../src/driver/stm32g4-v120/src/stm32g4xx_hal_pcd.c:1745:29
	ldrh.w	r2, [r4, #366]
	.loc	4 1744 13                       @ ../src/driver/stm32g4-v120/src/stm32g4xx_hal_pcd.c:1744:13
	bl	USB_ReadPMA
.Ltmp121:
	.loc	4 1747 27                       @ ../src/driver/stm32g4-v120/src/stm32g4xx_hal_pcd.c:1747:27
	ldr.w	r0, [r4, #380]
	.loc	4 1747 34 is_stmt 0             @ ../src/driver/stm32g4-v120/src/stm32g4xx_hal_pcd.c:1747:34
	ldr.w	r1, [r4, #388]
	.loc	4 1747 27                       @ ../src/driver/stm32g4-v120/src/stm32g4xx_hal_pcd.c:1747:27
	add	r0, r1
	str.w	r0, [r4, #380]
	.loc	4 1753 13 is_stmt 1             @ ../src/driver/stm32g4-v120/src/stm32g4xx_hal_pcd.c:1753:13
	mov	r0, r4
	movs	r1, #0
	bl	HAL_PCD_DataOutStageCallback
.Ltmp122:
	.loc	4 1757 11                       @ ../src/driver/stm32g4-v120/src/stm32g4xx_hal_pcd.c:1757:11
	ldr	r0, [r4]
	addw	r2, r0, #1030
.Ltmp123:
.LBB6_21:                               @   in Loop: Header=BB6_3 Depth=1
	@DEBUG_VALUE: PCD_EP_ISR_Handler:ep <- [DW_OP_plus_uconst 360, DW_OP_stack_value] $r4
	@DEBUG_VALUE: PCD_EP_ISR_Handler:hpcd <- $r4
	@DEBUG_VALUE: HAL_PCD_IRQHandler:hpcd <- $r4
	@DEBUG_VALUE: _wRegBase <- undef
	ldrh.w	r1, [r0, #80]
.Ltmp124:
	@DEBUG_VALUE: _wRegVal <- undef
	@DEBUG_VALUE: _wRegBase <- undef
	.loc	4 1757 11 is_stmt 0             @ ../src/driver/stm32g4-v120/src/stm32g4xx_hal_pcd.c:1757:11
	ldr.w	r3, [r4, #376]
.Ltmp125:
	.loc	4 1757 11                       @ ../src/driver/stm32g4-v120/src/stm32g4xx_hal_pcd.c:1757:11
	cmp	r3, #0
	beq.w	.LBB6_69
.Ltmp126:
@ %bb.22:                               @   in Loop: Header=BB6_3 Depth=1
	@DEBUG_VALUE: PCD_EP_ISR_Handler:ep <- [DW_OP_plus_uconst 360, DW_OP_stack_value] $r4
	@DEBUG_VALUE: PCD_EP_ISR_Handler:hpcd <- $r4
	@DEBUG_VALUE: HAL_PCD_IRQHandler:hpcd <- $r4
	.loc	4 1757 11                       @ ../src/driver/stm32g4-v120/src/stm32g4xx_hal_pcd.c:1757:11
	cmp	r3, #62
	bhi.w	.LBB6_70
.Ltmp127:
@ %bb.23:                               @   in Loop: Header=BB6_3 Depth=1
	@DEBUG_VALUE: PCD_EP_ISR_Handler:ep <- [DW_OP_plus_uconst 360, DW_OP_stack_value] $r4
	@DEBUG_VALUE: PCD_EP_ISR_Handler:hpcd <- $r4
	@DEBUG_VALUE: HAL_PCD_IRQHandler:hpcd <- $r4
	@DEBUG_VALUE: wNBlocks <- undef
	.loc	4 1757 11                       @ ../src/driver/stm32g4-v120/src/stm32g4xx_hal_pcd.c:1757:11
	and	r7, r3, #1
.Ltmp128:
	.loc	4 1757 11                       @ ../src/driver/stm32g4-v120/src/stm32g4xx_hal_pcd.c:1757:11
	add.w	r3, r7, r3, lsr #1
.Ltmp129:
	@DEBUG_VALUE: wNBlocks <- $r3
	lsls	r3, r3, #10
.Ltmp130:
	.loc	4 0 11                          @ ../src/driver/stm32g4-v120/src/stm32g4xx_hal_pcd.c:0:11
	b	.LBB6_71
.Ltmp131:
.LBB6_24:                               @   in Loop: Header=BB6_3 Depth=1
	@DEBUG_VALUE: PCD_EP_ISR_Handler:ep <- $r6
	@DEBUG_VALUE: PCD_EP_ISR_Handler:hpcd <- $r4
	@DEBUG_VALUE: HAL_PCD_IRQHandler:hpcd <- $r4
	.loc	4 1777 29 is_stmt 1             @ ../src/driver/stm32g4-v120/src/stm32g4xx_hal_pcd.c:1777:29
	ldrh.w	r1, [r0, #80]
	ldrb	r2, [r6]
	add	r1, r0
	add.w	r1, r1, r2, lsl #3
	ldrh.w	r7, [r1, #1030]
	bfc	r7, #10, #22
.Ltmp132:
	@DEBUG_VALUE: PCD_EP_ISR_Handler:count <- $r7
	.loc	4 1779 15                       @ ../src/driver/stm32g4-v120/src/stm32g4xx_hal_pcd.c:1779:15
	cmp	r7, #0
	beq	.LBB6_39
.Ltmp133:
@ %bb.25:                               @   in Loop: Header=BB6_3 Depth=1
	@DEBUG_VALUE: PCD_EP_ISR_Handler:count <- $r7
	@DEBUG_VALUE: PCD_EP_ISR_Handler:ep <- $r6
	@DEBUG_VALUE: PCD_EP_ISR_Handler:hpcd <- $r4
	@DEBUG_VALUE: HAL_PCD_IRQHandler:hpcd <- $r4
	.loc	4 1781 45                       @ ../src/driver/stm32g4-v120/src/stm32g4xx_hal_pcd.c:1781:45
	ldr.w	r1, [r11, #380]
	.loc	4 1781 60 is_stmt 0             @ ../src/driver/stm32g4-v120/src/stm32g4xx_hal_pcd.c:1781:60
	ldrh.w	r2, [r11, #366]
	b	.LBB6_38
.Ltmp134:
.LBB6_26:                               @   in Loop: Header=BB6_3 Depth=1
	@DEBUG_VALUE: PCD_EP_ISR_Handler:ep <- $r6
	@DEBUG_VALUE: PCD_EP_ISR_Handler:hpcd <- $r4
	@DEBUG_VALUE: HAL_PCD_IRQHandler:hpcd <- $r4
	.loc	4 1794 13 is_stmt 1             @ ../src/driver/stm32g4-v120/src/stm32g4xx_hal_pcd.c:1794:13
	ldrb	r2, [r6]
	movw	r3, #32960
	ldrh.w	r1, [r0, r2, lsl #2]
	ands	r1, r5
.Ltmp135:
	@DEBUG_VALUE: _wEPVal <- [DW_OP_constu 3983, DW_OP_and, DW_OP_stack_value] undef
	orrs	r1, r3
	strh.w	r1, [r0, r2, lsl #2]
.Ltmp136:
	.loc	4 1796 18                       @ ../src/driver/stm32g4-v120/src/stm32g4xx_hal_pcd.c:1796:18
	ldrh.w	r3, [r0, r2, lsl #2]
	.loc	4 0 0 is_stmt 0                 @ ../src/driver/stm32g4-v120/src/stm32g4xx_hal_pcd.c:0:0
	ldrh.w	r1, [r0, #80]
	lsls	r2, r2, #3
.Ltmp137:
	.loc	4 1809 33 is_stmt 1             @ ../src/driver/stm32g4-v120/src/stm32g4xx_hal_pcd.c:1809:33
	add	r2, r0
.Ltmp138:
	.loc	4 1796 17                       @ ../src/driver/stm32g4-v120/src/stm32g4xx_hal_pcd.c:1796:17
	lsls	r3, r3, #17
.Ltmp139:
	.loc	4 1809 33                       @ ../src/driver/stm32g4-v120/src/stm32g4xx_hal_pcd.c:1809:33
	add	r1, r2
.Ltmp140:
	.loc	4 1796 17                       @ ../src/driver/stm32g4-v120/src/stm32g4xx_hal_pcd.c:1796:17
	bmi	.LBB6_35
.Ltmp141:
@ %bb.27:                               @   in Loop: Header=BB6_3 Depth=1
	@DEBUG_VALUE: PCD_EP_ISR_Handler:ep <- $r6
	@DEBUG_VALUE: PCD_EP_ISR_Handler:hpcd <- $r4
	@DEBUG_VALUE: HAL_PCD_IRQHandler:hpcd <- $r4
	.loc	4 1809 33                       @ ../src/driver/stm32g4-v120/src/stm32g4xx_hal_pcd.c:1809:33
	ldrh.w	r7, [r1, #1030]
	bfc	r7, #10, #22
.Ltmp142:
	@DEBUG_VALUE: PCD_EP_ISR_Handler:count <- $r7
.LBB6_28:                               @   in Loop: Header=BB6_3 Depth=1
	@DEBUG_VALUE: PCD_EP_ISR_Handler:ep <- $r6
	@DEBUG_VALUE: PCD_EP_ISR_Handler:hpcd <- $r4
	@DEBUG_VALUE: HAL_PCD_IRQHandler:hpcd <- $r4
	.loc	4 0 0 is_stmt 0                 @ ../src/driver/stm32g4-v120/src/stm32g4xx_hal_pcd.c:0:0
	cmp	r7, #0
	beq	.LBB6_39
.Ltmp143:
@ %bb.29:                               @   in Loop: Header=BB6_3 Depth=1
	@DEBUG_VALUE: PCD_EP_ISR_Handler:ep <- $r6
	@DEBUG_VALUE: PCD_EP_ISR_Handler:hpcd <- $r4
	@DEBUG_VALUE: HAL_PCD_IRQHandler:hpcd <- $r4
	ldr.w	r1, [r11, #380]
	ldrh.w	r2, [r11, #370]
	b	.LBB6_38
.Ltmp144:
.LBB6_30:                               @   in Loop: Header=BB6_3 Depth=1
	@DEBUG_VALUE: PCD_EP_ISR_Handler:ep <- [DW_OP_plus_uconst 360, DW_OP_stack_value] $r4
	@DEBUG_VALUE: PCD_EP_ISR_Handler:hpcd <- $r4
	@DEBUG_VALUE: HAL_PCD_IRQHandler:hpcd <- $r4
	@DEBUG_VALUE: PCD_EP_ISR_Handler:wEPVal <- $r1
	.loc	4 1720 28 is_stmt 1             @ ../src/driver/stm32g4-v120/src/stm32g4xx_hal_pcd.c:1720:28
	ldrh.w	r1, [r0, #80]
.Ltmp145:
	ldrb.w	r2, [r4, #360]
	add	r1, r0
	add.w	r1, r1, r2, lsl #3
	ldrh.w	r3, [r1, #1030]
	.loc	4 1723 27                       @ ../src/driver/stm32g4-v120/src/stm32g4xx_hal_pcd.c:1723:27
	ldrh.w	r2, [r4, #366]
	.loc	4 1722 11                       @ ../src/driver/stm32g4-v120/src/stm32g4xx_hal_pcd.c:1722:11
	ldr	r1, [sp]                        @ 4-byte Reload
	.loc	4 1720 28                       @ ../src/driver/stm32g4-v120/src/stm32g4xx_hal_pcd.c:1720:28
	bfc	r3, #10, #22
	.loc	4 1720 26 is_stmt 0             @ ../src/driver/stm32g4-v120/src/stm32g4xx_hal_pcd.c:1720:26
	str.w	r3, [r4, #388]
	.loc	4 1722 11 is_stmt 1             @ ../src/driver/stm32g4-v120/src/stm32g4xx_hal_pcd.c:1722:11
	bl	USB_ReadPMA
.Ltmp146:
	.loc	4 1726 11                       @ ../src/driver/stm32g4-v120/src/stm32g4xx_hal_pcd.c:1726:11
	ldr	r0, [r4]
	ldrh	r1, [r0]
	and.w	r1, r1, r11
.Ltmp147:
	@DEBUG_VALUE: _wRegVal <- [DW_OP_constu 3855, DW_OP_and, DW_OP_stack_value] undef
	adds	r1, #128
	strh	r1, [r0]
.Ltmp148:
	.loc	4 1732 11                       @ ../src/driver/stm32g4-v120/src/stm32g4xx_hal_pcd.c:1732:11
	mov	r0, r4
	bl	HAL_PCD_SetupStageCallback
.Ltmp149:
	.loc	4 0 11 is_stmt 0                @ ../src/driver/stm32g4-v120/src/stm32g4xx_hal_pcd.c:0:11
	b	.LBB6_99
.Ltmp150:
.LBB6_31:                               @   in Loop: Header=BB6_3 Depth=1
	@DEBUG_VALUE: HAL_PCD_EP_DB_Receive:ep <- $r6
	@DEBUG_VALUE: PCD_EP_ISR_Handler:ep <- $r6
	@DEBUG_VALUE: HAL_PCD_EP_DB_Receive:hpcd <- $r4
	@DEBUG_VALUE: PCD_EP_ISR_Handler:hpcd <- $r4
	@DEBUG_VALUE: HAL_PCD_IRQHandler:hpcd <- $r4
	.loc	4 1908 23 is_stmt 1             @ ../src/driver/stm32g4-v120/src/stm32g4xx_hal_pcd.c:1908:23
	ldrh.w	r7, [r2, #1026]
.Ltmp151:
	.loc	4 1910 13                       @ ../src/driver/stm32g4-v120/src/stm32g4xx_hal_pcd.c:1910:13
	ldr.w	r2, [r11, #384]
.Ltmp152:
	@DEBUG_VALUE: HAL_PCD_EP_DB_Receive:count <- undef
	.loc	4 1910 25 is_stmt 0             @ ../src/driver/stm32g4-v120/src/stm32g4xx_hal_pcd.c:1910:25
	bfc	r7, #10, #22
.Ltmp153:
	.loc	4 1910 9                        @ ../src/driver/stm32g4-v120/src/stm32g4xx_hal_pcd.c:1910:9
	subs	r2, r2, r7
	mov.w	r3, #0
	it	lo
	movlo	r2, r3
.Ltmp154:
	.loc	4 0 0                           @ ../src/driver/stm32g4-v120/src/stm32g4xx_hal_pcd.c:0:0
	str.w	r2, [r11, #384]
.Ltmp155:
	.loc	4 1919 9 is_stmt 1              @ ../src/driver/stm32g4-v120/src/stm32g4xx_hal_pcd.c:1919:9
	bhi	.LBB6_33
.Ltmp156:
@ %bb.32:                               @   in Loop: Header=BB6_3 Depth=1
	@DEBUG_VALUE: HAL_PCD_EP_DB_Receive:ep <- $r6
	@DEBUG_VALUE: PCD_EP_ISR_Handler:ep <- $r6
	@DEBUG_VALUE: HAL_PCD_EP_DB_Receive:hpcd <- $r4
	@DEBUG_VALUE: PCD_EP_ISR_Handler:hpcd <- $r4
	@DEBUG_VALUE: HAL_PCD_IRQHandler:hpcd <- $r4
	.loc	4 1922 7                        @ ../src/driver/stm32g4-v120/src/stm32g4xx_hal_pcd.c:1922:7
	ldrh.w	r2, [r0, r1, lsl #2]
	movw	r3, #16143
	ands	r2, r3
.Ltmp157:
	@DEBUG_VALUE: _wRegVal <- [DW_OP_constu 16143, DW_OP_and, DW_OP_constu 8192, DW_OP_xor, DW_OP_stack_value] undef
	movw	r3, #41088
	eors	r2, r3
	strh.w	r2, [r0, r1, lsl #2]
.Ltmp158:
.LBB6_33:                               @   in Loop: Header=BB6_3 Depth=1
	@DEBUG_VALUE: HAL_PCD_EP_DB_Receive:ep <- $r6
	@DEBUG_VALUE: PCD_EP_ISR_Handler:ep <- $r6
	@DEBUG_VALUE: HAL_PCD_EP_DB_Receive:hpcd <- $r4
	@DEBUG_VALUE: PCD_EP_ISR_Handler:hpcd <- $r4
	@DEBUG_VALUE: HAL_PCD_IRQHandler:hpcd <- $r4
	.loc	4 1926 9                        @ ../src/driver/stm32g4-v120/src/stm32g4xx_hal_pcd.c:1926:9
	lsls.w	r2, r8, #25
	bpl	.LBB6_36
.Ltmp159:
@ %bb.34:                               @   in Loop: Header=BB6_3 Depth=1
	@DEBUG_VALUE: HAL_PCD_EP_DB_Receive:ep <- $r6
	@DEBUG_VALUE: PCD_EP_ISR_Handler:ep <- $r6
	@DEBUG_VALUE: HAL_PCD_EP_DB_Receive:hpcd <- $r4
	@DEBUG_VALUE: PCD_EP_ISR_Handler:hpcd <- $r4
	@DEBUG_VALUE: HAL_PCD_IRQHandler:hpcd <- $r4
	.loc	4 1928 7                        @ ../src/driver/stm32g4-v120/src/stm32g4xx_hal_pcd.c:1928:7
	ldrh.w	r2, [r0, r1, lsl #2]
	movw	r3, #32960
	ands	r2, r5
.Ltmp160:
	@DEBUG_VALUE: _wEPVal <- [DW_OP_constu 3983, DW_OP_and, DW_OP_stack_value] undef
	orrs	r2, r3
	strh.w	r2, [r0, r1, lsl #2]
	b	.LBB6_36
.Ltmp161:
.LBB6_35:                               @   in Loop: Header=BB6_3 Depth=1
	@DEBUG_VALUE: PCD_EP_ISR_Handler:ep <- $r6
	@DEBUG_VALUE: PCD_EP_ISR_Handler:hpcd <- $r4
	@DEBUG_VALUE: HAL_PCD_IRQHandler:hpcd <- $r4
	.loc	4 1799 33                       @ ../src/driver/stm32g4-v120/src/stm32g4xx_hal_pcd.c:1799:33
	ldrh.w	r7, [r1, #1026]
	bfc	r7, #10, #22
.Ltmp162:
	@DEBUG_VALUE: PCD_EP_ISR_Handler:count <- $r7
.LBB6_36:                               @   in Loop: Header=BB6_3 Depth=1
	@DEBUG_VALUE: PCD_EP_ISR_Handler:ep <- $r6
	@DEBUG_VALUE: PCD_EP_ISR_Handler:hpcd <- $r4
	@DEBUG_VALUE: HAL_PCD_IRQHandler:hpcd <- $r4
	.loc	4 0 0 is_stmt 0                 @ ../src/driver/stm32g4-v120/src/stm32g4xx_hal_pcd.c:0:0
	cbz	r7, .LBB6_39
.Ltmp163:
@ %bb.37:                               @   in Loop: Header=BB6_3 Depth=1
	@DEBUG_VALUE: PCD_EP_ISR_Handler:ep <- $r6
	@DEBUG_VALUE: PCD_EP_ISR_Handler:hpcd <- $r4
	@DEBUG_VALUE: HAL_PCD_IRQHandler:hpcd <- $r4
	ldr.w	r1, [r11, #380]
	ldrh.w	r2, [r11, #368]
.Ltmp164:
.LBB6_38:                               @   in Loop: Header=BB6_3 Depth=1
	@DEBUG_VALUE: PCD_EP_ISR_Handler:ep <- $r6
	@DEBUG_VALUE: PCD_EP_ISR_Handler:hpcd <- $r4
	@DEBUG_VALUE: HAL_PCD_IRQHandler:hpcd <- $r4
	mov	r3, r7
	bl	USB_ReadPMA
.Ltmp165:
	b	.LBB6_40
.Ltmp166:
.LBB6_39:                               @   in Loop: Header=BB6_3 Depth=1
	@DEBUG_VALUE: PCD_EP_ISR_Handler:ep <- $r6
	@DEBUG_VALUE: PCD_EP_ISR_Handler:hpcd <- $r4
	@DEBUG_VALUE: HAL_PCD_IRQHandler:hpcd <- $r4
	movs	r7, #0
.Ltmp167:
.LBB6_40:                               @   in Loop: Header=BB6_3 Depth=1
	@DEBUG_VALUE: PCD_EP_ISR_Handler:ep <- $r6
	@DEBUG_VALUE: PCD_EP_ISR_Handler:hpcd <- $r4
	@DEBUG_VALUE: HAL_PCD_IRQHandler:hpcd <- $r4
	.loc	4 1819 24 is_stmt 1             @ ../src/driver/stm32g4-v120/src/stm32g4xx_hal_pcd.c:1819:24
	ldr.w	r1, [r11, #388]
	.loc	4 1820 23                       @ ../src/driver/stm32g4-v120/src/stm32g4xx_hal_pcd.c:1820:23
	ldrd	r0, r2, [r11, #380]
	mov.w	r5, #-1
.Ltmp168:
	@DEBUG_VALUE: PCD_EP_ISR_Handler:count <- $r7
	.loc	4 1819 24                       @ ../src/driver/stm32g4-v120/src/stm32g4xx_hal_pcd.c:1819:24
	add	r1, r7
	.loc	4 1820 23                       @ ../src/driver/stm32g4-v120/src/stm32g4xx_hal_pcd.c:1820:23
	add	r0, r7
	.loc	4 1819 24                       @ ../src/driver/stm32g4-v120/src/stm32g4xx_hal_pcd.c:1819:24
	str.w	r1, [r11, #388]
	.loc	4 1820 23                       @ ../src/driver/stm32g4-v120/src/stm32g4xx_hal_pcd.c:1820:23
	str.w	r0, [r11, #380]
	cbz	r2, .LBB6_42
.Ltmp169:
@ %bb.41:                               @   in Loop: Header=BB6_3 Depth=1
	@DEBUG_VALUE: PCD_EP_ISR_Handler:count <- $r7
	@DEBUG_VALUE: PCD_EP_ISR_Handler:ep <- $r6
	@DEBUG_VALUE: PCD_EP_ISR_Handler:hpcd <- $r4
	@DEBUG_VALUE: HAL_PCD_IRQHandler:hpcd <- $r4
	.loc	4 1822 50                       @ ../src/driver/stm32g4-v120/src/stm32g4xx_hal_pcd.c:1822:50
	ldr.w	r0, [r11, #376]
.Ltmp170:
	.loc	4 1822 13 is_stmt 0             @ ../src/driver/stm32g4-v120/src/stm32g4xx_hal_pcd.c:1822:13
	cmp	r0, r7
	bls	.LBB6_43
.Ltmp171:
.LBB6_42:                               @   in Loop: Header=BB6_3 Depth=1
	@DEBUG_VALUE: PCD_EP_ISR_Handler:count <- $r7
	@DEBUG_VALUE: PCD_EP_ISR_Handler:ep <- $r6
	@DEBUG_VALUE: PCD_EP_ISR_Handler:hpcd <- $r4
	@DEBUG_VALUE: HAL_PCD_IRQHandler:hpcd <- $r4
	.loc	4 1828 50 is_stmt 1             @ ../src/driver/stm32g4-v120/src/stm32g4xx_hal_pcd.c:1828:50
	ldrb	r1, [r6]
	.loc	4 1828 11 is_stmt 0             @ ../src/driver/stm32g4-v120/src/stm32g4xx_hal_pcd.c:1828:11
	mov	r0, r4
	bl	HAL_PCD_DataOutStageCallback
.Ltmp172:
	.loc	4 0 11                          @ ../src/driver/stm32g4-v120/src/stm32g4xx_hal_pcd.c:0:11
	b	.LBB6_44
.Ltmp173:
.LBB6_43:                               @   in Loop: Header=BB6_3 Depth=1
	@DEBUG_VALUE: PCD_EP_ISR_Handler:count <- $r7
	@DEBUG_VALUE: PCD_EP_ISR_Handler:ep <- $r6
	@DEBUG_VALUE: PCD_EP_ISR_Handler:hpcd <- $r4
	@DEBUG_VALUE: HAL_PCD_IRQHandler:hpcd <- $r4
	.loc	4 1833 40 is_stmt 1             @ ../src/driver/stm32g4-v120/src/stm32g4xx_hal_pcd.c:1833:40
	ldr	r0, [r4]
	.loc	4 1833 18 is_stmt 0             @ ../src/driver/stm32g4-v120/src/stm32g4xx_hal_pcd.c:1833:18
	mov	r1, r6
	bl	USB_EPStartXfer
.Ltmp174:
.LBB6_44:                               @   in Loop: Header=BB6_3 Depth=1
	@DEBUG_VALUE: PCD_EP_ISR_Handler:count <- $r7
	@DEBUG_VALUE: PCD_EP_ISR_Handler:ep <- $r6
	@DEBUG_VALUE: PCD_EP_ISR_Handler:hpcd <- $r4
	@DEBUG_VALUE: HAL_PCD_IRQHandler:hpcd <- $r4
	.loc	4 0 18                          @ ../src/driver/stm32g4-v120/src/stm32g4xx_hal_pcd.c:0:18
	movw	r11, #3855
.Ltmp175:
.LBB6_45:                               @   in Loop: Header=BB6_3 Depth=1
	@DEBUG_VALUE: PCD_EP_ISR_Handler:hpcd <- $r4
	@DEBUG_VALUE: HAL_PCD_IRQHandler:hpcd <- $r4
	.loc	4 1838 11 is_stmt 1             @ ../src/driver/stm32g4-v120/src/stm32g4xx_hal_pcd.c:1838:11
	lsls.w	r0, r8, #24
	bpl.w	.LBB6_99
.Ltmp176:
@ %bb.46:                               @   in Loop: Header=BB6_3 Depth=1
	@DEBUG_VALUE: PCD_EP_ISR_Handler:hpcd <- $r4
	@DEBUG_VALUE: HAL_PCD_IRQHandler:hpcd <- $r4
	.loc	4 1843 9                        @ ../src/driver/stm32g4-v120/src/stm32g4xx_hal_pcd.c:1843:9
	ldr	r0, [r4]
.Ltmp177:
	.loc	4 1840 15                       @ ../src/driver/stm32g4-v120/src/stm32g4xx_hal_pcd.c:1840:15
	add.w	r1, r9, r9, lsl #2
	add.w	r2, r4, r1, lsl #3
.Ltmp178:
	.loc	4 1843 9                        @ ../src/driver/stm32g4-v120/src/stm32g4xx_hal_pcd.c:1843:9
	ldrh.w	r1, [r0, r10, lsl #1]
.Ltmp179:
	.loc	4 1840 15                       @ ../src/driver/stm32g4-v120/src/stm32g4xx_hal_pcd.c:1840:15
	add.w	r6, r2, #40
.Ltmp180:
	@DEBUG_VALUE: PCD_EP_ISR_Handler:ep <- $r6
	.loc	4 1843 9                        @ ../src/driver/stm32g4-v120/src/stm32g4xx_hal_pcd.c:1843:9
	and.w	r1, r1, r11
.Ltmp181:
	@DEBUG_VALUE: _wRegVal <- [DW_OP_constu 3855, DW_OP_and, DW_OP_stack_value] undef
	add.w	r1, r1, #32768
.Ltmp182:
	.loc	4 1846 40                       @ ../src/driver/stm32g4-v120/src/stm32g4xx_hal_pcd.c:1846:40
	lsls.w	r3, r8, #23
.Ltmp183:
	.loc	4 1843 9                        @ ../src/driver/stm32g4-v120/src/stm32g4xx_hal_pcd.c:1843:9
	strh.w	r1, [r0, r10, lsl #1]
.Ltmp184:
	.loc	4 1846 40                       @ ../src/driver/stm32g4-v120/src/stm32g4xx_hal_pcd.c:1846:40
	bpl	.LBB6_56
.Ltmp185:
@ %bb.47:                               @   in Loop: Header=BB6_3 Depth=1
	@DEBUG_VALUE: PCD_EP_ISR_Handler:ep <- $r6
	@DEBUG_VALUE: PCD_EP_ISR_Handler:hpcd <- $r4
	@DEBUG_VALUE: HAL_PCD_IRQHandler:hpcd <- $r4
	.loc	4 0 0 is_stmt 0                 @ ../src/driver/stm32g4-v120/src/stm32g4xx_hal_pcd.c:0:0
	ldrb.w	r1, [r2, #43]
	.loc	4 1846 40                       @ ../src/driver/stm32g4-v120/src/stm32g4xx_hal_pcd.c:1846:40
	cmp	r1, #2
	bne	.LBB6_56
.Ltmp186:
@ %bb.48:                               @   in Loop: Header=BB6_3 Depth=1
	@DEBUG_VALUE: PCD_EP_ISR_Handler:ep <- $r6
	@DEBUG_VALUE: PCD_EP_ISR_Handler:hpcd <- $r4
	@DEBUG_VALUE: HAL_PCD_IRQHandler:hpcd <- $r4
	@DEBUG_VALUE: HAL_PCD_EP_DB_Transmit:hpcd <- $r4
	@DEBUG_VALUE: HAL_PCD_EP_DB_Transmit:ep <- $r6
	.loc	4 0 0                           @ ../src/driver/stm32g4-v120/src/stm32g4xx_hal_pcd.c:0:0
	ldrh.w	r3, [r0, #80]
	ldrb	r1, [r6]
.Ltmp187:
	.loc	4 1987 7 is_stmt 1              @ ../src/driver/stm32g4-v120/src/stm32g4xx_hal_pcd.c:1987:7
	lsls.w	r7, r8, #25
.Ltmp188:
	@DEBUG_VALUE: HAL_PCD_EP_DB_Transmit:wEPVal <- undef
	.loc	4 0 0 is_stmt 0                 @ ../src/driver/stm32g4-v120/src/stm32g4xx_hal_pcd.c:0:0
	lsl.w	r7, r1, #3
.Ltmp189:
	.loc	4 2059 28 is_stmt 1             @ ../src/driver/stm32g4-v120/src/stm32g4xx_hal_pcd.c:2059:28
	add	r7, r0
.Ltmp190:
	.loc	4 1987 7                        @ ../src/driver/stm32g4-v120/src/stm32g4xx_hal_pcd.c:1987:7
	bmi	.LBB6_58
.Ltmp191:
@ %bb.49:                               @   in Loop: Header=BB6_3 Depth=1
	@DEBUG_VALUE: HAL_PCD_EP_DB_Transmit:ep <- $r6
	@DEBUG_VALUE: PCD_EP_ISR_Handler:ep <- $r6
	@DEBUG_VALUE: HAL_PCD_EP_DB_Transmit:hpcd <- $r4
	@DEBUG_VALUE: PCD_EP_ISR_Handler:hpcd <- $r4
	@DEBUG_VALUE: HAL_PCD_IRQHandler:hpcd <- $r4
	.loc	4 2059 28                       @ ../src/driver/stm32g4-v120/src/stm32g4xx_hal_pcd.c:2059:28
	addw	lr, r7, #1030
	ldrh.w	r7, [lr, r3]
.Ltmp192:
	@DEBUG_VALUE: HAL_PCD_EP_DB_Transmit:TxByteNbre <- undef
	.loc	4 2061 13                       @ ../src/driver/stm32g4-v120/src/stm32g4xx_hal_pcd.c:2061:13
	ldr	r3, [r2, #64]
	.loc	4 2061 25 is_stmt 0             @ ../src/driver/stm32g4-v120/src/stm32g4xx_hal_pcd.c:2061:25
	bfc	r7, #10, #22
.Ltmp193:
	.loc	4 2061 9                        @ ../src/driver/stm32g4-v120/src/stm32g4xx_hal_pcd.c:2061:9
	subs	r3, r3, r7
	mov.w	r5, #0
	it	lo
	movlo	r3, r5
.Ltmp194:
	.loc	4 0 0                           @ ../src/driver/stm32g4-v120/src/stm32g4xx_hal_pcd.c:0:0
	str	r3, [r2, #64]
.Ltmp195:
	.loc	4 2071 9 is_stmt 1              @ ../src/driver/stm32g4-v120/src/stm32g4xx_hal_pcd.c:2071:9
	bls.w	.LBB6_66
.Ltmp196:
@ %bb.50:                               @   in Loop: Header=BB6_3 Depth=1
	@DEBUG_VALUE: HAL_PCD_EP_DB_Transmit:ep <- $r6
	@DEBUG_VALUE: PCD_EP_ISR_Handler:ep <- $r6
	@DEBUG_VALUE: HAL_PCD_EP_DB_Transmit:hpcd <- $r4
	@DEBUG_VALUE: PCD_EP_ISR_Handler:hpcd <- $r4
	@DEBUG_VALUE: HAL_PCD_IRQHandler:hpcd <- $r4
	.loc	4 2089 11                       @ ../src/driver/stm32g4-v120/src/stm32g4xx_hal_pcd.c:2089:11
	lsls.w	r3, r8, #17
	bmi	.LBB6_52
.Ltmp197:
@ %bb.51:                               @   in Loop: Header=BB6_3 Depth=1
	@DEBUG_VALUE: HAL_PCD_EP_DB_Transmit:ep <- $r6
	@DEBUG_VALUE: PCD_EP_ISR_Handler:ep <- $r6
	@DEBUG_VALUE: HAL_PCD_EP_DB_Transmit:hpcd <- $r4
	@DEBUG_VALUE: PCD_EP_ISR_Handler:hpcd <- $r4
	@DEBUG_VALUE: HAL_PCD_IRQHandler:hpcd <- $r4
	.loc	4 2091 9                        @ ../src/driver/stm32g4-v120/src/stm32g4xx_hal_pcd.c:2091:9
	ldrh.w	r3, [r0, r1, lsl #2]
	movw	r5, #41088
	and.w	r3, r3, r11
.Ltmp198:
	@DEBUG_VALUE: _wEPVal <- [DW_OP_constu 3983, DW_OP_and, DW_OP_stack_value] undef
	add.w	r5, r5, #8192
	orrs	r3, r5
	strh.w	r3, [r0, r1, lsl #2]
.Ltmp199:
.LBB6_52:                               @   in Loop: Header=BB6_3 Depth=1
	@DEBUG_VALUE: HAL_PCD_EP_DB_Transmit:ep <- $r6
	@DEBUG_VALUE: PCD_EP_ISR_Handler:ep <- $r6
	@DEBUG_VALUE: HAL_PCD_EP_DB_Transmit:hpcd <- $r4
	@DEBUG_VALUE: PCD_EP_ISR_Handler:hpcd <- $r4
	@DEBUG_VALUE: HAL_PCD_IRQHandler:hpcd <- $r4
	.loc	4 2095 15                       @ ../src/driver/stm32g4-v120/src/stm32g4xx_hal_pcd.c:2095:15
	mov	r5, r2
	ldrb	r1, [r5, #76]!
.Ltmp200:
	.loc	4 2095 11 is_stmt 0             @ ../src/driver/stm32g4-v120/src/stm32g4xx_hal_pcd.c:2095:11
	cmp	r1, #1
	bne.w	.LBB6_97
.Ltmp201:
@ %bb.53:                               @   in Loop: Header=BB6_3 Depth=1
	@DEBUG_VALUE: HAL_PCD_EP_DB_Transmit:ep <- $r6
	@DEBUG_VALUE: PCD_EP_ISR_Handler:ep <- $r6
	@DEBUG_VALUE: HAL_PCD_EP_DB_Transmit:hpcd <- $r4
	@DEBUG_VALUE: PCD_EP_ISR_Handler:hpcd <- $r4
	@DEBUG_VALUE: HAL_PCD_IRQHandler:hpcd <- $r4
	.loc	4 2101 17 is_stmt 1             @ ../src/driver/stm32g4-v120/src/stm32g4xx_hal_pcd.c:2101:17
	mov	r3, r2
	ldr	r8, [r3, #72]!
	.loc	4 2101 36 is_stmt 0             @ ../src/driver/stm32g4-v120/src/stm32g4xx_hal_pcd.c:2101:36
	ldrd	r12, r1, [r3, #-16]
.Ltmp202:
	.loc	4 2098 24 is_stmt 1             @ ../src/driver/stm32g4-v120/src/stm32g4xx_hal_pcd.c:2098:24
	ldr	r9, [r3, #-4]
	.loc	4 2097 23                       @ ../src/driver/stm32g4-v120/src/stm32g4xx_hal_pcd.c:2097:23
	add	r1, r7
	.loc	4 2098 24                       @ ../src/driver/stm32g4-v120/src/stm32g4xx_hal_pcd.c:2098:24
	add	r9, r7
	.loc	4 2101 13                       @ ../src/driver/stm32g4-v120/src/stm32g4xx_hal_pcd.c:2101:13
	cmp	r8, r12
	.loc	4 2097 23                       @ ../src/driver/stm32g4-v120/src/stm32g4xx_hal_pcd.c:2097:23
	str	r1, [r3, #-12]
	.loc	4 2098 24                       @ ../src/driver/stm32g4-v120/src/stm32g4xx_hal_pcd.c:2098:24
	str	r9, [r3, #-4]
	.loc	4 2101 13                       @ ../src/driver/stm32g4-v120/src/stm32g4xx_hal_pcd.c:2101:13
	bhs.w	.LBB6_72
.Ltmp203:
@ %bb.54:                               @   in Loop: Header=BB6_3 Depth=1
	@DEBUG_VALUE: HAL_PCD_EP_DB_Transmit:ep <- $r6
	@DEBUG_VALUE: PCD_EP_ISR_Handler:ep <- $r6
	@DEBUG_VALUE: HAL_PCD_EP_DB_Transmit:hpcd <- $r4
	@DEBUG_VALUE: PCD_EP_ISR_Handler:hpcd <- $r4
	@DEBUG_VALUE: HAL_PCD_IRQHandler:hpcd <- $r4
	.loc	4 2106 18                       @ ../src/driver/stm32g4-v120/src/stm32g4xx_hal_pcd.c:2106:18
	cmp.w	r8, #0
	beq.w	.LBB6_81
.Ltmp204:
@ %bb.55:                               @   in Loop: Header=BB6_3 Depth=1
	@DEBUG_VALUE: HAL_PCD_EP_DB_Transmit:ep <- $r6
	@DEBUG_VALUE: PCD_EP_ISR_Handler:ep <- $r6
	@DEBUG_VALUE: HAL_PCD_EP_DB_Transmit:hpcd <- $r4
	@DEBUG_VALUE: PCD_EP_ISR_Handler:hpcd <- $r4
	@DEBUG_VALUE: HAL_PCD_IRQHandler:hpcd <- $r4
	@DEBUG_VALUE: HAL_PCD_EP_DB_Transmit:len <- $r8
	.loc	4 0 18 is_stmt 0                @ ../src/driver/stm32g4-v120/src/stm32g4xx_hal_pcd.c:0:18
	movs	r7, #0
	mov	r12, r8
.Ltmp205:
	@DEBUG_VALUE: HAL_PCD_EP_DB_Transmit:len <- $r12
	.loc	4 2114 27 is_stmt 1             @ ../src/driver/stm32g4-v120/src/stm32g4xx_hal_pcd.c:2114:27
	str	r7, [r3]
	.loc	4 2115 28                       @ ../src/driver/stm32g4-v120/src/stm32g4xx_hal_pcd.c:2115:28
	strb	r7, [r5]
	b	.LBB6_82
.Ltmp206:
.LBB6_56:                               @   in Loop: Header=BB6_3 Depth=1
	@DEBUG_VALUE: PCD_EP_ISR_Handler:ep <- $r6
	@DEBUG_VALUE: PCD_EP_ISR_Handler:hpcd <- $r4
	@DEBUG_VALUE: HAL_PCD_IRQHandler:hpcd <- $r4
	.loc	4 1850 34                       @ ../src/driver/stm32g4-v120/src/stm32g4xx_hal_pcd.c:1850:34
	ldrh.w	r3, [r0, #80]
	ldrb	r1, [r6]
	add	r3, r0
	add.w	r3, r3, r1, lsl #3
	ldrh.w	r3, [r3, #1026]
.Ltmp207:
	@DEBUG_VALUE: PCD_EP_ISR_Handler:TxByteNbre <- undef
	.loc	4 1852 19                       @ ../src/driver/stm32g4-v120/src/stm32g4xx_hal_pcd.c:1852:19
	ldr	r7, [r2, #64]
	.loc	4 1852 30 is_stmt 0             @ ../src/driver/stm32g4-v120/src/stm32g4xx_hal_pcd.c:1852:30
	bfc	r3, #10, #22
.Ltmp208:
	.loc	4 1852 15                       @ ../src/driver/stm32g4-v120/src/stm32g4xx_hal_pcd.c:1852:15
	subs	r7, r7, r3
	mov.w	r5, #0
	it	lo
	movlo	r7, r5
.Ltmp209:
	.loc	4 0 0                           @ ../src/driver/stm32g4-v120/src/stm32g4xx_hal_pcd.c:0:0
	str	r7, [r2, #64]
.Ltmp210:
	.loc	4 1862 15 is_stmt 1             @ ../src/driver/stm32g4-v120/src/stm32g4xx_hal_pcd.c:1862:15
	bls	.LBB6_65
.Ltmp211:
@ %bb.57:                               @   in Loop: Header=BB6_3 Depth=1
	@DEBUG_VALUE: PCD_EP_ISR_Handler:ep <- $r6
	@DEBUG_VALUE: PCD_EP_ISR_Handler:hpcd <- $r4
	@DEBUG_VALUE: HAL_PCD_IRQHandler:hpcd <- $r4
	.loc	4 1874 27                       @ ../src/driver/stm32g4-v120/src/stm32g4xx_hal_pcd.c:1874:27
	ldr	r1, [r2, #60]
	.loc	4 1875 28                       @ ../src/driver/stm32g4-v120/src/stm32g4xx_hal_pcd.c:1875:28
	ldr	r7, [r2, #68]
	.loc	4 1874 27                       @ ../src/driver/stm32g4-v120/src/stm32g4xx_hal_pcd.c:1874:27
	add	r1, r3
	str	r1, [r2, #60]
	.loc	4 1875 28                       @ ../src/driver/stm32g4-v120/src/stm32g4xx_hal_pcd.c:1875:28
	adds	r1, r7, r3
	str	r1, [r2, #68]
	.loc	4 1876 19                       @ ../src/driver/stm32g4-v120/src/stm32g4xx_hal_pcd.c:1876:19
	mov	r1, r6
	bl	USB_EPStartXfer
.Ltmp212:
	.loc	4 0 19 is_stmt 0                @ ../src/driver/stm32g4-v120/src/stm32g4xx_hal_pcd.c:0:19
	b	.LBB6_98
.Ltmp213:
.LBB6_58:                               @   in Loop: Header=BB6_3 Depth=1
	@DEBUG_VALUE: HAL_PCD_EP_DB_Transmit:ep <- $r6
	@DEBUG_VALUE: PCD_EP_ISR_Handler:ep <- $r6
	@DEBUG_VALUE: HAL_PCD_EP_DB_Transmit:hpcd <- $r4
	@DEBUG_VALUE: PCD_EP_ISR_Handler:hpcd <- $r4
	@DEBUG_VALUE: HAL_PCD_IRQHandler:hpcd <- $r4
	.loc	4 1990 28 is_stmt 1             @ ../src/driver/stm32g4-v120/src/stm32g4xx_hal_pcd.c:1990:28
	addw	lr, r7, #1026
	ldrh.w	r7, [lr, r3]
.Ltmp214:
	@DEBUG_VALUE: HAL_PCD_EP_DB_Transmit:TxByteNbre <- undef
	.loc	4 1992 13                       @ ../src/driver/stm32g4-v120/src/stm32g4xx_hal_pcd.c:1992:13
	ldr	r3, [r2, #64]
	.loc	4 1992 24 is_stmt 0             @ ../src/driver/stm32g4-v120/src/stm32g4xx_hal_pcd.c:1992:24
	bfc	r7, #10, #22
.Ltmp215:
	.loc	4 1992 9                        @ ../src/driver/stm32g4-v120/src/stm32g4xx_hal_pcd.c:1992:9
	subs	r3, r3, r7
	mov.w	r5, #0
	it	lo
	movlo	r3, r5
.Ltmp216:
	.loc	4 0 0                           @ ../src/driver/stm32g4-v120/src/stm32g4xx_hal_pcd.c:0:0
	str	r3, [r2, #64]
.Ltmp217:
	.loc	4 2001 9 is_stmt 1              @ ../src/driver/stm32g4-v120/src/stm32g4xx_hal_pcd.c:2001:9
	bls	.LBB6_67
.Ltmp218:
@ %bb.59:                               @   in Loop: Header=BB6_3 Depth=1
	@DEBUG_VALUE: HAL_PCD_EP_DB_Transmit:ep <- $r6
	@DEBUG_VALUE: PCD_EP_ISR_Handler:ep <- $r6
	@DEBUG_VALUE: HAL_PCD_EP_DB_Transmit:hpcd <- $r4
	@DEBUG_VALUE: PCD_EP_ISR_Handler:hpcd <- $r4
	@DEBUG_VALUE: HAL_PCD_IRQHandler:hpcd <- $r4
	.loc	4 2018 11                       @ ../src/driver/stm32g4-v120/src/stm32g4xx_hal_pcd.c:2018:11
	lsls.w	r3, r8, #17
	bpl	.LBB6_61
.Ltmp219:
@ %bb.60:                               @   in Loop: Header=BB6_3 Depth=1
	@DEBUG_VALUE: HAL_PCD_EP_DB_Transmit:ep <- $r6
	@DEBUG_VALUE: PCD_EP_ISR_Handler:ep <- $r6
	@DEBUG_VALUE: HAL_PCD_EP_DB_Transmit:hpcd <- $r4
	@DEBUG_VALUE: PCD_EP_ISR_Handler:hpcd <- $r4
	@DEBUG_VALUE: HAL_PCD_IRQHandler:hpcd <- $r4
	.loc	4 2020 9                        @ ../src/driver/stm32g4-v120/src/stm32g4xx_hal_pcd.c:2020:9
	ldrh.w	r3, [r0, r1, lsl #2]
	movw	r5, #41088
	and.w	r3, r3, r11
.Ltmp220:
	@DEBUG_VALUE: _wEPVal <- [DW_OP_constu 3983, DW_OP_and, DW_OP_stack_value] undef
	add.w	r5, r5, #8192
	orrs	r3, r5
	strh.w	r3, [r0, r1, lsl #2]
.Ltmp221:
.LBB6_61:                               @   in Loop: Header=BB6_3 Depth=1
	@DEBUG_VALUE: HAL_PCD_EP_DB_Transmit:ep <- $r6
	@DEBUG_VALUE: PCD_EP_ISR_Handler:ep <- $r6
	@DEBUG_VALUE: HAL_PCD_EP_DB_Transmit:hpcd <- $r4
	@DEBUG_VALUE: PCD_EP_ISR_Handler:hpcd <- $r4
	@DEBUG_VALUE: HAL_PCD_IRQHandler:hpcd <- $r4
	.loc	4 2024 15                       @ ../src/driver/stm32g4-v120/src/stm32g4xx_hal_pcd.c:2024:15
	mov	r3, r2
	ldrb	r1, [r3, #76]!
.Ltmp222:
	.loc	4 2024 11 is_stmt 0             @ ../src/driver/stm32g4-v120/src/stm32g4xx_hal_pcd.c:2024:11
	cmp	r1, #1
	bne.w	.LBB6_97
.Ltmp223:
@ %bb.62:                               @   in Loop: Header=BB6_3 Depth=1
	@DEBUG_VALUE: HAL_PCD_EP_DB_Transmit:ep <- $r6
	@DEBUG_VALUE: PCD_EP_ISR_Handler:ep <- $r6
	@DEBUG_VALUE: HAL_PCD_EP_DB_Transmit:hpcd <- $r4
	@DEBUG_VALUE: PCD_EP_ISR_Handler:hpcd <- $r4
	@DEBUG_VALUE: HAL_PCD_IRQHandler:hpcd <- $r4
	.loc	4 2030 17 is_stmt 1             @ ../src/driver/stm32g4-v120/src/stm32g4xx_hal_pcd.c:2030:17
	mov	r5, r2
	ldr	r12, [r5, #72]!
	.loc	4 2030 36 is_stmt 0             @ ../src/driver/stm32g4-v120/src/stm32g4xx_hal_pcd.c:2030:36
	ldrd	r9, r1, [r5, #-16]
.Ltmp224:
	.loc	4 2027 24 is_stmt 1             @ ../src/driver/stm32g4-v120/src/stm32g4xx_hal_pcd.c:2027:24
	ldr	r8, [r5, #-4]
	.loc	4 2026 23                       @ ../src/driver/stm32g4-v120/src/stm32g4xx_hal_pcd.c:2026:23
	add	r1, r7
	.loc	4 2027 24                       @ ../src/driver/stm32g4-v120/src/stm32g4xx_hal_pcd.c:2027:24
	add	r8, r7
	.loc	4 2030 13                       @ ../src/driver/stm32g4-v120/src/stm32g4xx_hal_pcd.c:2030:13
	cmp	r12, r9
	.loc	4 2026 23                       @ ../src/driver/stm32g4-v120/src/stm32g4xx_hal_pcd.c:2026:23
	str	r1, [r5, #-12]
	.loc	4 2027 24                       @ ../src/driver/stm32g4-v120/src/stm32g4xx_hal_pcd.c:2027:24
	str	r8, [r5, #-4]
	.loc	4 2030 13                       @ ../src/driver/stm32g4-v120/src/stm32g4xx_hal_pcd.c:2030:13
	bhs	.LBB6_73
.Ltmp225:
@ %bb.63:                               @   in Loop: Header=BB6_3 Depth=1
	@DEBUG_VALUE: HAL_PCD_EP_DB_Transmit:ep <- $r6
	@DEBUG_VALUE: PCD_EP_ISR_Handler:ep <- $r6
	@DEBUG_VALUE: HAL_PCD_EP_DB_Transmit:hpcd <- $r4
	@DEBUG_VALUE: PCD_EP_ISR_Handler:hpcd <- $r4
	@DEBUG_VALUE: HAL_PCD_IRQHandler:hpcd <- $r4
	.loc	4 0 13 is_stmt 0                @ ../src/driver/stm32g4-v120/src/stm32g4xx_hal_pcd.c:0:13
	mov.w	r8, #0
.Ltmp226:
	.loc	4 2035 18 is_stmt 1             @ ../src/driver/stm32g4-v120/src/stm32g4xx_hal_pcd.c:2035:18
	cmp.w	r12, #0
.Ltmp227:
	.loc	4 0 0 is_stmt 0                 @ ../src/driver/stm32g4-v120/src/stm32g4xx_hal_pcd.c:0:0
	strb.w	r8, [r3]
.Ltmp228:
	.loc	4 2035 18                       @ ../src/driver/stm32g4-v120/src/stm32g4xx_hal_pcd.c:2035:18
	bne	.LBB6_74
.Ltmp229:
@ %bb.64:                               @   in Loop: Header=BB6_3 Depth=1
	@DEBUG_VALUE: HAL_PCD_EP_DB_Transmit:ep <- $r6
	@DEBUG_VALUE: PCD_EP_ISR_Handler:ep <- $r6
	@DEBUG_VALUE: HAL_PCD_EP_DB_Transmit:hpcd <- $r4
	@DEBUG_VALUE: PCD_EP_ISR_Handler:hpcd <- $r4
	@DEBUG_VALUE: HAL_PCD_IRQHandler:hpcd <- $r4
	.loc	4 0 0                           @ ../src/driver/stm32g4-v120/src/stm32g4xx_hal_pcd.c:0:0
	mov	r12, r7
	b	.LBB6_75
.Ltmp230:
.LBB6_65:                               @   in Loop: Header=BB6_3 Depth=1
	@DEBUG_VALUE: PCD_EP_ISR_Handler:ep <- $r6
	@DEBUG_VALUE: PCD_EP_ISR_Handler:hpcd <- $r4
	@DEBUG_VALUE: HAL_PCD_IRQHandler:hpcd <- $r4
	.loc	4 1868 13 is_stmt 1             @ ../src/driver/stm32g4-v120/src/stm32g4xx_hal_pcd.c:1868:13
	mov	r0, r4
	bl	HAL_PCD_DataInStageCallback
.Ltmp231:
	.loc	4 0 13 is_stmt 0                @ ../src/driver/stm32g4-v120/src/stm32g4xx_hal_pcd.c:0:13
	b	.LBB6_98
.Ltmp232:
.LBB6_66:                               @   in Loop: Header=BB6_3 Depth=1
	@DEBUG_VALUE: HAL_PCD_EP_DB_Transmit:ep <- $r6
	@DEBUG_VALUE: PCD_EP_ISR_Handler:ep <- $r6
	@DEBUG_VALUE: HAL_PCD_EP_DB_Transmit:hpcd <- $r4
	@DEBUG_VALUE: PCD_EP_ISR_Handler:hpcd <- $r4
	@DEBUG_VALUE: HAL_PCD_IRQHandler:hpcd <- $r4
	.loc	4 2077 7 is_stmt 1              @ ../src/driver/stm32g4-v120/src/stm32g4xx_hal_pcd.c:2077:7
	mov	r0, r4
	bl	HAL_PCD_DataInStageCallback
.Ltmp233:
	.loc	4 2081 11                       @ ../src/driver/stm32g4-v120/src/stm32g4xx_hal_pcd.c:2081:11
	lsls.w	r0, r8, #17
	bpl	.LBB6_68
	b	.LBB6_97
.Ltmp234:
.LBB6_67:                               @   in Loop: Header=BB6_3 Depth=1
	@DEBUG_VALUE: HAL_PCD_EP_DB_Transmit:ep <- $r6
	@DEBUG_VALUE: PCD_EP_ISR_Handler:ep <- $r6
	@DEBUG_VALUE: HAL_PCD_EP_DB_Transmit:hpcd <- $r4
	@DEBUG_VALUE: PCD_EP_ISR_Handler:hpcd <- $r4
	@DEBUG_VALUE: HAL_PCD_IRQHandler:hpcd <- $r4
	.loc	4 2007 7                        @ ../src/driver/stm32g4-v120/src/stm32g4xx_hal_pcd.c:2007:7
	mov	r0, r4
	bl	HAL_PCD_DataInStageCallback
.Ltmp235:
	.loc	4 2010 11                       @ ../src/driver/stm32g4-v120/src/stm32g4xx_hal_pcd.c:2010:11
	lsls.w	r0, r8, #17
	bpl.w	.LBB6_97
.Ltmp236:
.LBB6_68:                               @   in Loop: Header=BB6_3 Depth=1
	@DEBUG_VALUE: HAL_PCD_EP_DB_Transmit:ep <- $r6
	@DEBUG_VALUE: PCD_EP_ISR_Handler:ep <- $r6
	@DEBUG_VALUE: HAL_PCD_EP_DB_Transmit:hpcd <- $r4
	@DEBUG_VALUE: PCD_EP_ISR_Handler:hpcd <- $r4
	@DEBUG_VALUE: HAL_PCD_IRQHandler:hpcd <- $r4
	.loc	4 0 0 is_stmt 0                 @ ../src/driver/stm32g4-v120/src/stm32g4xx_hal_pcd.c:0:0
	ldr	r0, [r4]
	ldrb	r1, [r6]
	movw	r3, #41088
	ldrh.w	r2, [r0, r1, lsl #2]
	add.w	r3, r3, #8192
	and.w	r2, r2, r11
.Ltmp237:
	@DEBUG_VALUE: _wEPVal <- [DW_OP_constu 3983, DW_OP_and, DW_OP_stack_value] undef
	orrs	r2, r3
	strh.w	r2, [r0, r1, lsl #2]
	b	.LBB6_97
.Ltmp238:
.LBB6_69:                               @   in Loop: Header=BB6_3 Depth=1
	@DEBUG_VALUE: PCD_EP_ISR_Handler:ep <- [DW_OP_plus_uconst 360, DW_OP_stack_value] $r4
	@DEBUG_VALUE: PCD_EP_ISR_Handler:hpcd <- $r4
	@DEBUG_VALUE: HAL_PCD_IRQHandler:hpcd <- $r4
	.loc	4 1757 11 is_stmt 1             @ ../src/driver/stm32g4-v120/src/stm32g4xx_hal_pcd.c:1757:11
	ldrh	r3, [r1, r2]
	movw	r7, #32768
	bic	r3, r3, #31744
	strh	r3, [r1, r2]
	ldrh	r3, [r1, r2]
	movt	r7, #65535
	orrs	r3, r7
	b	.LBB6_71
.Ltmp239:
.LBB6_70:                               @   in Loop: Header=BB6_3 Depth=1
	@DEBUG_VALUE: PCD_EP_ISR_Handler:ep <- [DW_OP_plus_uconst 360, DW_OP_stack_value] $r4
	@DEBUG_VALUE: PCD_EP_ISR_Handler:hpcd <- $r4
	@DEBUG_VALUE: HAL_PCD_IRQHandler:hpcd <- $r4
	.loc	4 1757 11 is_stmt 0             @ ../src/driver/stm32g4-v120/src/stm32g4xx_hal_pcd.c:1757:11
	lsrs	r7, r3, #5
.Ltmp240:
	@DEBUG_VALUE: wNBlocks <- $r7
	lsls	r6, r3, #27
	it	eq
	addeq.w	r7, r5, r3, lsr #5
.Ltmp241:
	@DEBUG_VALUE: wNBlocks <- $r7
	movw	r3, #32768
	movt	r3, #65535
	orr.w	r3, r3, r7, lsl #10
.Ltmp242:
.LBB6_71:                               @   in Loop: Header=BB6_3 Depth=1
	@DEBUG_VALUE: PCD_EP_ISR_Handler:ep <- [DW_OP_plus_uconst 360, DW_OP_stack_value] $r4
	@DEBUG_VALUE: PCD_EP_ISR_Handler:hpcd <- $r4
	@DEBUG_VALUE: HAL_PCD_IRQHandler:hpcd <- $r4
	.loc	4 0 0                           @ ../src/driver/stm32g4-v120/src/stm32g4xx_hal_pcd.c:0:0
	strh	r3, [r1, r2]
.Ltmp243:
	.loc	4 1758 11 is_stmt 1             @ ../src/driver/stm32g4-v120/src/stm32g4xx_hal_pcd.c:1758:11
	ldrh	r1, [r0]
	movw	r2, #16143
	ands	r1, r2
.Ltmp244:
	@DEBUG_VALUE: _wRegVal <- [DW_OP_constu 16143, DW_OP_and, DW_OP_constu 12288, DW_OP_xor, DW_OP_stack_value] undef
	movw	r2, #41088
	add.w	r2, r2, #4096
	eors	r1, r2
	strh	r1, [r0]
	b	.LBB6_99
.Ltmp245:
.LBB6_72:                               @   in Loop: Header=BB6_3 Depth=1
	@DEBUG_VALUE: HAL_PCD_EP_DB_Transmit:ep <- $r6
	@DEBUG_VALUE: PCD_EP_ISR_Handler:ep <- $r6
	@DEBUG_VALUE: HAL_PCD_EP_DB_Transmit:hpcd <- $r4
	@DEBUG_VALUE: PCD_EP_ISR_Handler:hpcd <- $r4
	@DEBUG_VALUE: HAL_PCD_IRQHandler:hpcd <- $r4
	@DEBUG_VALUE: HAL_PCD_EP_DB_Transmit:len <- $r12
	.loc	4 2104 27                       @ ../src/driver/stm32g4-v120/src/stm32g4xx_hal_pcd.c:2104:27
	sub.w	r5, r8, r12
	str	r5, [r3]
	b	.LBB6_82
.Ltmp246:
.LBB6_73:                               @   in Loop: Header=BB6_3 Depth=1
	@DEBUG_VALUE: HAL_PCD_EP_DB_Transmit:ep <- $r6
	@DEBUG_VALUE: PCD_EP_ISR_Handler:ep <- $r6
	@DEBUG_VALUE: HAL_PCD_EP_DB_Transmit:hpcd <- $r4
	@DEBUG_VALUE: PCD_EP_ISR_Handler:hpcd <- $r4
	@DEBUG_VALUE: HAL_PCD_IRQHandler:hpcd <- $r4
	@DEBUG_VALUE: HAL_PCD_EP_DB_Transmit:len <- $r9
	.loc	4 2033 27                       @ ../src/driver/stm32g4-v120/src/stm32g4xx_hal_pcd.c:2033:27
	sub.w	r8, r12, r9
	mov	r12, r9
.Ltmp247:
	@DEBUG_VALUE: HAL_PCD_EP_DB_Transmit:len <- $r12
.LBB6_74:                               @   in Loop: Header=BB6_3 Depth=1
	@DEBUG_VALUE: HAL_PCD_EP_DB_Transmit:ep <- $r6
	@DEBUG_VALUE: PCD_EP_ISR_Handler:ep <- $r6
	@DEBUG_VALUE: HAL_PCD_EP_DB_Transmit:hpcd <- $r4
	@DEBUG_VALUE: PCD_EP_ISR_Handler:hpcd <- $r4
	@DEBUG_VALUE: HAL_PCD_IRQHandler:hpcd <- $r4
	.loc	4 0 0 is_stmt 0                 @ ../src/driver/stm32g4-v120/src/stm32g4xx_hal_pcd.c:0:0
	str.w	r8, [r5]
.Ltmp248:
.LBB6_75:                               @   in Loop: Header=BB6_3 Depth=1
	@DEBUG_VALUE: HAL_PCD_EP_DB_Transmit:ep <- $r6
	@DEBUG_VALUE: PCD_EP_ISR_Handler:ep <- $r6
	@DEBUG_VALUE: HAL_PCD_EP_DB_Transmit:hpcd <- $r4
	@DEBUG_VALUE: PCD_EP_ISR_Handler:hpcd <- $r4
	@DEBUG_VALUE: HAL_PCD_IRQHandler:hpcd <- $r4
	@DEBUG_VALUE: HAL_PCD_EP_DB_Transmit:len <- $r12
	.loc	4 2049 9 is_stmt 1              @ ../src/driver/stm32g4-v120/src/stm32g4xx_hal_pcd.c:2049:9
	ldrb.w	r3, [r2, #41]
.Ltmp249:
	.loc	4 2049 9 is_stmt 0              @ ../src/driver/stm32g4-v120/src/stm32g4xx_hal_pcd.c:2049:9
	cmp	r3, #1
	beq	.LBB6_80
.Ltmp250:
@ %bb.76:                               @   in Loop: Header=BB6_3 Depth=1
	@DEBUG_VALUE: HAL_PCD_EP_DB_Transmit:len <- $r12
	@DEBUG_VALUE: HAL_PCD_EP_DB_Transmit:ep <- $r6
	@DEBUG_VALUE: PCD_EP_ISR_Handler:ep <- $r6
	@DEBUG_VALUE: HAL_PCD_EP_DB_Transmit:hpcd <- $r4
	@DEBUG_VALUE: PCD_EP_ISR_Handler:hpcd <- $r4
	@DEBUG_VALUE: HAL_PCD_IRQHandler:hpcd <- $r4
	cmp	r3, #0
	bne	.LBB6_92
.Ltmp251:
@ %bb.77:                               @   in Loop: Header=BB6_3 Depth=1
	@DEBUG_VALUE: HAL_PCD_EP_DB_Transmit:len <- $r12
	@DEBUG_VALUE: HAL_PCD_EP_DB_Transmit:ep <- $r6
	@DEBUG_VALUE: PCD_EP_ISR_Handler:ep <- $r6
	@DEBUG_VALUE: HAL_PCD_EP_DB_Transmit:hpcd <- $r4
	@DEBUG_VALUE: PCD_EP_ISR_Handler:hpcd <- $r4
	@DEBUG_VALUE: HAL_PCD_IRQHandler:hpcd <- $r4
	@DEBUG_VALUE: _wRegBase <- $r0
	.loc	4 2049 9                        @ ../src/driver/stm32g4-v120/src/stm32g4xx_hal_pcd.c:2049:9
	ldrh.w	r7, [r0, #80]
.Ltmp252:
	@DEBUG_VALUE: pdwReg <- undef
	@DEBUG_VALUE: _wRegBase <- undef
	.loc	4 2049 9                        @ ../src/driver/stm32g4-v120/src/stm32g4xx_hal_pcd.c:2049:9
	cmp.w	r12, #0
	beq	.LBB6_88
.Ltmp253:
@ %bb.78:                               @   in Loop: Header=BB6_3 Depth=1
	@DEBUG_VALUE: HAL_PCD_EP_DB_Transmit:len <- $r12
	@DEBUG_VALUE: HAL_PCD_EP_DB_Transmit:ep <- $r6
	@DEBUG_VALUE: PCD_EP_ISR_Handler:ep <- $r6
	@DEBUG_VALUE: HAL_PCD_EP_DB_Transmit:hpcd <- $r4
	@DEBUG_VALUE: PCD_EP_ISR_Handler:hpcd <- $r4
	@DEBUG_VALUE: HAL_PCD_IRQHandler:hpcd <- $r4
	.loc	4 2049 9                        @ ../src/driver/stm32g4-v120/src/stm32g4xx_hal_pcd.c:2049:9
	cmp.w	r12, #62
	bhi	.LBB6_90
.Ltmp254:
@ %bb.79:                               @   in Loop: Header=BB6_3 Depth=1
	@DEBUG_VALUE: HAL_PCD_EP_DB_Transmit:len <- $r12
	@DEBUG_VALUE: HAL_PCD_EP_DB_Transmit:ep <- $r6
	@DEBUG_VALUE: PCD_EP_ISR_Handler:ep <- $r6
	@DEBUG_VALUE: HAL_PCD_EP_DB_Transmit:hpcd <- $r4
	@DEBUG_VALUE: PCD_EP_ISR_Handler:hpcd <- $r4
	@DEBUG_VALUE: HAL_PCD_IRQHandler:hpcd <- $r4
	@DEBUG_VALUE: wNBlocks <- undef
	.loc	4 2049 9                        @ ../src/driver/stm32g4-v120/src/stm32g4xx_hal_pcd.c:2049:9
	and	r3, r12, #1
.Ltmp255:
	.loc	4 2049 9                        @ ../src/driver/stm32g4-v120/src/stm32g4xx_hal_pcd.c:2049:9
	add.w	r3, r3, r12, lsr #1
.Ltmp256:
	@DEBUG_VALUE: wNBlocks <- $r3
	lsls	r3, r3, #10
.Ltmp257:
	.loc	4 0 9                           @ ../src/driver/stm32g4-v120/src/stm32g4xx_hal_pcd.c:0:9
	b	.LBB6_91
.Ltmp258:
.LBB6_80:                               @   in Loop: Header=BB6_3 Depth=1
	@DEBUG_VALUE: HAL_PCD_EP_DB_Transmit:len <- $r12
	@DEBUG_VALUE: HAL_PCD_EP_DB_Transmit:ep <- $r6
	@DEBUG_VALUE: PCD_EP_ISR_Handler:ep <- $r6
	@DEBUG_VALUE: HAL_PCD_EP_DB_Transmit:hpcd <- $r4
	@DEBUG_VALUE: PCD_EP_ISR_Handler:hpcd <- $r4
	@DEBUG_VALUE: HAL_PCD_IRQHandler:hpcd <- $r4
	@DEBUG_VALUE: _wRegBase <- $r0
	.loc	4 2049 9                        @ ../src/driver/stm32g4-v120/src/stm32g4xx_hal_pcd.c:2049:9
	ldrh.w	r3, [r0, #80]
.Ltmp259:
	@DEBUG_VALUE: _wRegVal <- undef
	@DEBUG_VALUE: _wRegBase <- undef
	strh.w	r12, [lr, r3]
	b	.LBB6_92
.Ltmp260:
.LBB6_81:                               @   in Loop: Header=BB6_3 Depth=1
	@DEBUG_VALUE: HAL_PCD_EP_DB_Transmit:ep <- $r6
	@DEBUG_VALUE: PCD_EP_ISR_Handler:ep <- $r6
	@DEBUG_VALUE: HAL_PCD_EP_DB_Transmit:hpcd <- $r4
	@DEBUG_VALUE: PCD_EP_ISR_Handler:hpcd <- $r4
	@DEBUG_VALUE: HAL_PCD_IRQHandler:hpcd <- $r4
	@DEBUG_VALUE: HAL_PCD_EP_DB_Transmit:len <- $r7
	.loc	4 2109 28 is_stmt 1             @ ../src/driver/stm32g4-v120/src/stm32g4xx_hal_pcd.c:2109:28
	movs	r3, #0
	strb	r3, [r5]
.Ltmp261:
	.loc	4 0 0 is_stmt 0                 @ ../src/driver/stm32g4-v120/src/stm32g4xx_hal_pcd.c:0:0
	mov	r12, r7
.Ltmp262:
	@DEBUG_VALUE: HAL_PCD_EP_DB_Transmit:len <- $r12
.LBB6_82:                               @   in Loop: Header=BB6_3 Depth=1
	@DEBUG_VALUE: HAL_PCD_EP_DB_Transmit:len <- $r12
	@DEBUG_VALUE: HAL_PCD_EP_DB_Transmit:ep <- $r6
	@DEBUG_VALUE: PCD_EP_ISR_Handler:ep <- $r6
	@DEBUG_VALUE: HAL_PCD_EP_DB_Transmit:hpcd <- $r4
	@DEBUG_VALUE: PCD_EP_ISR_Handler:hpcd <- $r4
	@DEBUG_VALUE: HAL_PCD_IRQHandler:hpcd <- $r4
	@DEBUG_VALUE: HAL_PCD_EP_DB_Transmit:len <- $r12
	@DEBUG_VALUE: _wBase <- $r0
	.loc	4 2119 9 is_stmt 1              @ ../src/driver/stm32g4-v120/src/stm32g4xx_hal_pcd.c:2119:9
	ldrb.w	r3, [r2, #41]
.Ltmp263:
	.loc	4 2119 9 is_stmt 0              @ ../src/driver/stm32g4-v120/src/stm32g4xx_hal_pcd.c:2119:9
	cmp	r3, #1
	beq	.LBB6_87
.Ltmp264:
@ %bb.83:                               @   in Loop: Header=BB6_3 Depth=1
	@DEBUG_VALUE: HAL_PCD_EP_DB_Transmit:len <- $r12
	@DEBUG_VALUE: HAL_PCD_EP_DB_Transmit:ep <- $r6
	@DEBUG_VALUE: PCD_EP_ISR_Handler:ep <- $r6
	@DEBUG_VALUE: HAL_PCD_EP_DB_Transmit:hpcd <- $r4
	@DEBUG_VALUE: PCD_EP_ISR_Handler:hpcd <- $r4
	@DEBUG_VALUE: HAL_PCD_IRQHandler:hpcd <- $r4
	@DEBUG_VALUE: _wBase <- $r0
	cmp	r3, #0
	bne	.LBB6_95
.Ltmp265:
@ %bb.84:                               @   in Loop: Header=BB6_3 Depth=1
	@DEBUG_VALUE: HAL_PCD_EP_DB_Transmit:len <- $r12
	@DEBUG_VALUE: HAL_PCD_EP_DB_Transmit:ep <- $r6
	@DEBUG_VALUE: PCD_EP_ISR_Handler:ep <- $r6
	@DEBUG_VALUE: HAL_PCD_EP_DB_Transmit:hpcd <- $r4
	@DEBUG_VALUE: PCD_EP_ISR_Handler:hpcd <- $r4
	@DEBUG_VALUE: HAL_PCD_IRQHandler:hpcd <- $r4
	@DEBUG_VALUE: _wBase <- $r0
	@DEBUG_VALUE: _wRegBase <- $r0
	.loc	4 2119 9                        @ ../src/driver/stm32g4-v120/src/stm32g4xx_hal_pcd.c:2119:9
	ldrh.w	r7, [r0, #80]
.Ltmp266:
	@DEBUG_VALUE: _wRegVal <- undef
	@DEBUG_VALUE: _wRegBase <- undef
	.loc	4 2119 9                        @ ../src/driver/stm32g4-v120/src/stm32g4xx_hal_pcd.c:2119:9
	cmp.w	r12, #0
	beq	.LBB6_89
.Ltmp267:
@ %bb.85:                               @   in Loop: Header=BB6_3 Depth=1
	@DEBUG_VALUE: HAL_PCD_EP_DB_Transmit:len <- $r12
	@DEBUG_VALUE: HAL_PCD_EP_DB_Transmit:ep <- $r6
	@DEBUG_VALUE: PCD_EP_ISR_Handler:ep <- $r6
	@DEBUG_VALUE: HAL_PCD_EP_DB_Transmit:hpcd <- $r4
	@DEBUG_VALUE: PCD_EP_ISR_Handler:hpcd <- $r4
	@DEBUG_VALUE: HAL_PCD_IRQHandler:hpcd <- $r4
	@DEBUG_VALUE: _wBase <- $r0
	.loc	4 2119 9                        @ ../src/driver/stm32g4-v120/src/stm32g4xx_hal_pcd.c:2119:9
	cmp.w	r12, #62
	bhi	.LBB6_93
.Ltmp268:
@ %bb.86:                               @   in Loop: Header=BB6_3 Depth=1
	@DEBUG_VALUE: HAL_PCD_EP_DB_Transmit:len <- $r12
	@DEBUG_VALUE: HAL_PCD_EP_DB_Transmit:ep <- $r6
	@DEBUG_VALUE: PCD_EP_ISR_Handler:ep <- $r6
	@DEBUG_VALUE: HAL_PCD_EP_DB_Transmit:hpcd <- $r4
	@DEBUG_VALUE: PCD_EP_ISR_Handler:hpcd <- $r4
	@DEBUG_VALUE: HAL_PCD_IRQHandler:hpcd <- $r4
	@DEBUG_VALUE: _wBase <- $r0
	@DEBUG_VALUE: wNBlocks <- undef
	.loc	4 2119 9                        @ ../src/driver/stm32g4-v120/src/stm32g4xx_hal_pcd.c:2119:9
	and	r3, r12, #1
.Ltmp269:
	.loc	4 2119 9                        @ ../src/driver/stm32g4-v120/src/stm32g4xx_hal_pcd.c:2119:9
	add.w	r3, r3, r12, lsr #1
.Ltmp270:
	@DEBUG_VALUE: wNBlocks <- $r3
	lsls	r3, r3, #10
.Ltmp271:
	.loc	4 0 9                           @ ../src/driver/stm32g4-v120/src/stm32g4xx_hal_pcd.c:0:9
	b	.LBB6_94
.Ltmp272:
.LBB6_87:                               @   in Loop: Header=BB6_3 Depth=1
	@DEBUG_VALUE: HAL_PCD_EP_DB_Transmit:len <- $r12
	@DEBUG_VALUE: HAL_PCD_EP_DB_Transmit:ep <- $r6
	@DEBUG_VALUE: PCD_EP_ISR_Handler:ep <- $r6
	@DEBUG_VALUE: HAL_PCD_EP_DB_Transmit:hpcd <- $r4
	@DEBUG_VALUE: PCD_EP_ISR_Handler:hpcd <- $r4
	@DEBUG_VALUE: HAL_PCD_IRQHandler:hpcd <- $r4
	@DEBUG_VALUE: _wBase <- $r0
	.loc	4 2119 9                        @ ../src/driver/stm32g4-v120/src/stm32g4xx_hal_pcd.c:2119:9
	ldrh.w	r3, [r0, #80]
.Ltmp273:
	@DEBUG_VALUE: _wEPRegVal <- undef
	@DEBUG_VALUE: _wBase <- undef
	strh.w	r12, [lr, r3]
	b	.LBB6_95
.Ltmp274:
.LBB6_88:                               @   in Loop: Header=BB6_3 Depth=1
	@DEBUG_VALUE: HAL_PCD_EP_DB_Transmit:len <- $r12
	@DEBUG_VALUE: HAL_PCD_EP_DB_Transmit:ep <- $r6
	@DEBUG_VALUE: PCD_EP_ISR_Handler:ep <- $r6
	@DEBUG_VALUE: HAL_PCD_EP_DB_Transmit:hpcd <- $r4
	@DEBUG_VALUE: PCD_EP_ISR_Handler:hpcd <- $r4
	@DEBUG_VALUE: HAL_PCD_IRQHandler:hpcd <- $r4
	.loc	4 2049 9 is_stmt 1              @ ../src/driver/stm32g4-v120/src/stm32g4xx_hal_pcd.c:2049:9
	ldrh.w	r3, [r7, lr]
	bic	r3, r3, #31744
	strh.w	r3, [r7, lr]
	ldrh.w	r3, [r7, lr]
	orr	r3, r3, #32768
	b	.LBB6_91
.Ltmp275:
.LBB6_89:                               @   in Loop: Header=BB6_3 Depth=1
	@DEBUG_VALUE: HAL_PCD_EP_DB_Transmit:len <- $r12
	@DEBUG_VALUE: HAL_PCD_EP_DB_Transmit:ep <- $r6
	@DEBUG_VALUE: PCD_EP_ISR_Handler:ep <- $r6
	@DEBUG_VALUE: HAL_PCD_EP_DB_Transmit:hpcd <- $r4
	@DEBUG_VALUE: PCD_EP_ISR_Handler:hpcd <- $r4
	@DEBUG_VALUE: HAL_PCD_IRQHandler:hpcd <- $r4
	@DEBUG_VALUE: _wBase <- $r0
	.loc	4 2119 9                        @ ../src/driver/stm32g4-v120/src/stm32g4xx_hal_pcd.c:2119:9
	ldrh.w	r3, [r7, lr]
	bic	r3, r3, #31744
	strh.w	r3, [r7, lr]
	ldrh.w	r3, [r7, lr]
	orr	r3, r3, #32768
	b	.LBB6_94
.Ltmp276:
.LBB6_90:                               @   in Loop: Header=BB6_3 Depth=1
	@DEBUG_VALUE: HAL_PCD_EP_DB_Transmit:len <- $r12
	@DEBUG_VALUE: HAL_PCD_EP_DB_Transmit:ep <- $r6
	@DEBUG_VALUE: PCD_EP_ISR_Handler:ep <- $r6
	@DEBUG_VALUE: HAL_PCD_EP_DB_Transmit:hpcd <- $r4
	@DEBUG_VALUE: PCD_EP_ISR_Handler:hpcd <- $r4
	@DEBUG_VALUE: HAL_PCD_IRQHandler:hpcd <- $r4
	.loc	4 2049 9                        @ ../src/driver/stm32g4-v120/src/stm32g4xx_hal_pcd.c:2049:9
	lsls.w	r5, r12, #27
	lsr.w	r3, r12, #5
.Ltmp277:
	@DEBUG_VALUE: wNBlocks <- $r3
	.loc	4 0 9 is_stmt 0                 @ ../src/driver/stm32g4-v120/src/stm32g4xx_hal_pcd.c:0:9
	mov.w	r5, #-1
	.loc	4 2049 9                        @ ../src/driver/stm32g4-v120/src/stm32g4xx_hal_pcd.c:2049:9
	it	eq
	addeq.w	r3, r5, r12, lsr #5
.Ltmp278:
	@DEBUG_VALUE: wNBlocks <- $r3
	mov.w	r5, #32768
	orr.w	r3, r5, r3, lsl #10
.Ltmp279:
.LBB6_91:                               @   in Loop: Header=BB6_3 Depth=1
	@DEBUG_VALUE: HAL_PCD_EP_DB_Transmit:len <- $r12
	@DEBUG_VALUE: HAL_PCD_EP_DB_Transmit:ep <- $r6
	@DEBUG_VALUE: PCD_EP_ISR_Handler:ep <- $r6
	@DEBUG_VALUE: HAL_PCD_EP_DB_Transmit:hpcd <- $r4
	@DEBUG_VALUE: PCD_EP_ISR_Handler:hpcd <- $r4
	@DEBUG_VALUE: HAL_PCD_IRQHandler:hpcd <- $r4
	.loc	4 0 0                           @ ../src/driver/stm32g4-v120/src/stm32g4xx_hal_pcd.c:0:0
	strh.w	r3, [r7, lr]
.Ltmp280:
.LBB6_92:                               @   in Loop: Header=BB6_3 Depth=1
	@DEBUG_VALUE: HAL_PCD_EP_DB_Transmit:len <- $r12
	@DEBUG_VALUE: HAL_PCD_EP_DB_Transmit:ep <- $r6
	@DEBUG_VALUE: PCD_EP_ISR_Handler:ep <- $r6
	@DEBUG_VALUE: HAL_PCD_EP_DB_Transmit:hpcd <- $r4
	@DEBUG_VALUE: PCD_EP_ISR_Handler:hpcd <- $r4
	@DEBUG_VALUE: HAL_PCD_IRQHandler:hpcd <- $r4
	.loc	4 2052 58 is_stmt 1             @ ../src/driver/stm32g4-v120/src/stm32g4xx_hal_pcd.c:2052:58
	ldrh	r2, [r2, #48]
	b	.LBB6_96
.Ltmp281:
.LBB6_93:                               @   in Loop: Header=BB6_3 Depth=1
	@DEBUG_VALUE: HAL_PCD_EP_DB_Transmit:len <- $r12
	@DEBUG_VALUE: HAL_PCD_EP_DB_Transmit:ep <- $r6
	@DEBUG_VALUE: PCD_EP_ISR_Handler:ep <- $r6
	@DEBUG_VALUE: HAL_PCD_EP_DB_Transmit:hpcd <- $r4
	@DEBUG_VALUE: PCD_EP_ISR_Handler:hpcd <- $r4
	@DEBUG_VALUE: HAL_PCD_IRQHandler:hpcd <- $r4
	@DEBUG_VALUE: _wBase <- $r0
	.loc	4 2119 9                        @ ../src/driver/stm32g4-v120/src/stm32g4xx_hal_pcd.c:2119:9
	lsls.w	r5, r12, #27
	lsr.w	r3, r12, #5
.Ltmp282:
	@DEBUG_VALUE: wNBlocks <- $r3
	.loc	4 0 9 is_stmt 0                 @ ../src/driver/stm32g4-v120/src/stm32g4xx_hal_pcd.c:0:9
	mov.w	r5, #-1
	.loc	4 2119 9                        @ ../src/driver/stm32g4-v120/src/stm32g4xx_hal_pcd.c:2119:9
	it	eq
	addeq.w	r3, r5, r12, lsr #5
.Ltmp283:
	@DEBUG_VALUE: wNBlocks <- $r3
	mov.w	r5, #32768
	orr.w	r3, r5, r3, lsl #10
.Ltmp284:
.LBB6_94:                               @   in Loop: Header=BB6_3 Depth=1
	@DEBUG_VALUE: HAL_PCD_EP_DB_Transmit:len <- $r12
	@DEBUG_VALUE: HAL_PCD_EP_DB_Transmit:ep <- $r6
	@DEBUG_VALUE: PCD_EP_ISR_Handler:ep <- $r6
	@DEBUG_VALUE: HAL_PCD_EP_DB_Transmit:hpcd <- $r4
	@DEBUG_VALUE: PCD_EP_ISR_Handler:hpcd <- $r4
	@DEBUG_VALUE: HAL_PCD_IRQHandler:hpcd <- $r4
	@DEBUG_VALUE: _wBase <- $r0
	.loc	4 0 0                           @ ../src/driver/stm32g4-v120/src/stm32g4xx_hal_pcd.c:0:0
	strh.w	r3, [r7, lr]
.Ltmp285:
.LBB6_95:                               @   in Loop: Header=BB6_3 Depth=1
	@DEBUG_VALUE: HAL_PCD_EP_DB_Transmit:len <- $r12
	@DEBUG_VALUE: HAL_PCD_EP_DB_Transmit:ep <- $r6
	@DEBUG_VALUE: PCD_EP_ISR_Handler:ep <- $r6
	@DEBUG_VALUE: HAL_PCD_EP_DB_Transmit:hpcd <- $r4
	@DEBUG_VALUE: PCD_EP_ISR_Handler:hpcd <- $r4
	@DEBUG_VALUE: HAL_PCD_IRQHandler:hpcd <- $r4
	.loc	4 2122 58 is_stmt 1             @ ../src/driver/stm32g4-v120/src/stm32g4xx_hal_pcd.c:2122:58
	ldrh	r2, [r2, #50]
.Ltmp286:
.LBB6_96:                               @   in Loop: Header=BB6_3 Depth=1
	@DEBUG_VALUE: HAL_PCD_EP_DB_Transmit:len <- $r12
	@DEBUG_VALUE: HAL_PCD_EP_DB_Transmit:ep <- $r6
	@DEBUG_VALUE: PCD_EP_ISR_Handler:ep <- $r6
	@DEBUG_VALUE: HAL_PCD_EP_DB_Transmit:hpcd <- $r4
	@DEBUG_VALUE: PCD_EP_ISR_Handler:hpcd <- $r4
	@DEBUG_VALUE: HAL_PCD_IRQHandler:hpcd <- $r4
	.loc	4 0 0 is_stmt 0                 @ ../src/driver/stm32g4-v120/src/stm32g4xx_hal_pcd.c:0:0
	uxth.w	r3, r12
	bl	USB_WritePMA
.Ltmp287:
.LBB6_97:                               @   in Loop: Header=BB6_3 Depth=1
	@DEBUG_VALUE: HAL_PCD_EP_DB_Transmit:ep <- $r6
	@DEBUG_VALUE: PCD_EP_ISR_Handler:ep <- $r6
	@DEBUG_VALUE: HAL_PCD_EP_DB_Transmit:hpcd <- $r4
	@DEBUG_VALUE: PCD_EP_ISR_Handler:hpcd <- $r4
	@DEBUG_VALUE: HAL_PCD_IRQHandler:hpcd <- $r4
	.loc	4 2128 3 is_stmt 1              @ ../src/driver/stm32g4-v120/src/stm32g4xx_hal_pcd.c:2128:3
	ldr	r0, [r4]
	ldrb	r1, [r6]
	movw	r3, #3903
	ldrh.w	r2, [r0, r1, lsl #2]
	ands	r2, r3
.Ltmp288:
	@DEBUG_VALUE: _wRegVal <- [DW_OP_constu 3903, DW_OP_and, DW_OP_constu 48, DW_OP_xor, DW_OP_stack_value] undef
	movw	r3, #32960
	subs	r3, #16
	eors	r2, r3
	strh.w	r2, [r0, r1, lsl #2]
.Ltmp289:
.LBB6_98:                               @   in Loop: Header=BB6_3 Depth=1
	@DEBUG_VALUE: PCD_EP_ISR_Handler:ep <- $r6
	@DEBUG_VALUE: PCD_EP_ISR_Handler:hpcd <- $r4
	@DEBUG_VALUE: HAL_PCD_IRQHandler:hpcd <- $r4
	.loc	4 0 3 is_stmt 0                 @ ../src/driver/stm32g4-v120/src/stm32g4xx_hal_pcd.c:0:3
	mov.w	r5, #-1
.Ltmp290:
.LBB6_99:                               @   in Loop: Header=BB6_3 Depth=1
	@DEBUG_VALUE: PCD_EP_ISR_Handler:hpcd <- $r4
	@DEBUG_VALUE: HAL_PCD_IRQHandler:hpcd <- $r4
	.loc	4 1672 17 is_stmt 1             @ ../src/driver/stm32g4-v120/src/stm32g4xx_hal_pcd.c:1672:17
	ldr	r0, [r4]
	.loc	4 1672 27 is_stmt 0             @ ../src/driver/stm32g4-v120/src/stm32g4xx_hal_pcd.c:1672:27
	ldrsh.w	r1, [r0, #68]
	.loc	4 1672 3                        @ ../src/driver/stm32g4-v120/src/stm32g4xx_hal_pcd.c:1672:3
	cmp	r1, r5
	ble.w	.LBB6_3
.Ltmp291:
.LBB6_100:
	@DEBUG_VALUE: HAL_PCD_IRQHandler:hpcd <- $r4
	.loc	4 1007 7 is_stmt 1              @ ../src/driver/stm32g4-v120/src/stm32g4xx_hal_pcd.c:1007:7
	bl	USB_ReadInterrupts
.Ltmp292:
	.loc	4 1007 7 is_stmt 0              @ ../src/driver/stm32g4-v120/src/stm32g4xx_hal_pcd.c:1007:7
	lsls	r0, r0, #21
	bpl	.LBB6_103
.Ltmp293:
@ %bb.101:
	@DEBUG_VALUE: HAL_PCD_IRQHandler:hpcd <- $r4
	.loc	4 1009 5 is_stmt 1              @ ../src/driver/stm32g4-v120/src/stm32g4xx_hal_pcd.c:1009:5
	ldr	r0, [r4]
	ldrh.w	r1, [r0, #68]
	bic	r1, r1, #1024
	strh.w	r1, [r0, #68]
	.loc	4 1014 5                        @ ../src/driver/stm32g4-v120/src/stm32g4xx_hal_pcd.c:1014:5
	mov	r0, r4
	bl	HAL_PCD_ResetCallback
.Ltmp294:
	@DEBUG_VALUE: HAL_PCD_SetAddress:address <- 0
	@DEBUG_VALUE: HAL_PCD_SetAddress:hpcd <- $r4
	.loc	4 1345 3                        @ ../src/driver/stm32g4-v120/src/stm32g4xx_hal_pcd.c:1345:3
	ldrb.w	r0, [r4, #680]
.Ltmp295:
	.loc	4 1345 3 is_stmt 0              @ ../src/driver/stm32g4-v120/src/stm32g4xx_hal_pcd.c:1345:3
	cmp	r0, #1
	beq	.LBB6_103
.Ltmp296:
@ %bb.102:
	@DEBUG_VALUE: HAL_PCD_SetAddress:hpcd <- $r4
	@DEBUG_VALUE: HAL_PCD_IRQHandler:hpcd <- $r4
	@DEBUG_VALUE: HAL_PCD_SetAddress:address <- 0
	.loc	4 0 3                           @ ../src/driver/stm32g4-v120/src/stm32g4xx_hal_pcd.c:0:3
	movs	r0, #1
	movs	r5, #0
.Ltmp297:
	.loc	4 1345 3                        @ ../src/driver/stm32g4-v120/src/stm32g4xx_hal_pcd.c:1345:3
	strb.w	r0, [r4, #680]
.Ltmp298:
	.loc	4 1346 21 is_stmt 1             @ ../src/driver/stm32g4-v120/src/stm32g4xx_hal_pcd.c:1346:21
	strb.w	r5, [r4, #36]
	.loc	4 1347 33                       @ ../src/driver/stm32g4-v120/src/stm32g4xx_hal_pcd.c:1347:33
	ldr	r0, [r4]
	.loc	4 1347 9 is_stmt 0              @ ../src/driver/stm32g4-v120/src/stm32g4xx_hal_pcd.c:1347:9
	movs	r1, #0
	bl	USB_SetDevAddress
.Ltmp299:
	.loc	4 1348 3 is_stmt 1              @ ../src/driver/stm32g4-v120/src/stm32g4xx_hal_pcd.c:1348:3
	strb.w	r5, [r4, #680]
.Ltmp300:
.LBB6_103:
	@DEBUG_VALUE: HAL_PCD_IRQHandler:hpcd <- $r4
	.loc	4 1020 7                        @ ../src/driver/stm32g4-v120/src/stm32g4xx_hal_pcd.c:1020:7
	ldr	r0, [r4]
	bl	USB_ReadInterrupts
.Ltmp301:
	mov	r1, r0
.Ltmp302:
	.loc	4 0 0 is_stmt 0                 @ ../src/driver/stm32g4-v120/src/stm32g4xx_hal_pcd.c:0:0
	ldr	r0, [r4]
	.loc	4 1020 7                        @ ../src/driver/stm32g4-v120/src/stm32g4xx_hal_pcd.c:1020:7
	lsls	r1, r1, #17
	bpl	.LBB6_105
.Ltmp303:
@ %bb.104:
	@DEBUG_VALUE: HAL_PCD_IRQHandler:hpcd <- $r4
	.loc	4 1022 5 is_stmt 1              @ ../src/driver/stm32g4-v120/src/stm32g4xx_hal_pcd.c:1022:5
	ldrh.w	r1, [r0, #68]
	bic	r1, r1, #16384
	strh.w	r1, [r0, #68]
.Ltmp304:
.LBB6_105:
	@DEBUG_VALUE: HAL_PCD_IRQHandler:hpcd <- $r4
	.loc	4 1025 7                        @ ../src/driver/stm32g4-v120/src/stm32g4xx_hal_pcd.c:1025:7
	bl	USB_ReadInterrupts
.Ltmp305:
	mov	r1, r0
.Ltmp306:
	.loc	4 0 0 is_stmt 0                 @ ../src/driver/stm32g4-v120/src/stm32g4xx_hal_pcd.c:0:0
	ldr	r0, [r4]
	.loc	4 1025 7                        @ ../src/driver/stm32g4-v120/src/stm32g4xx_hal_pcd.c:1025:7
	lsls	r1, r1, #18
	bpl	.LBB6_107
.Ltmp307:
@ %bb.106:
	@DEBUG_VALUE: HAL_PCD_IRQHandler:hpcd <- $r4
	.loc	4 1027 5 is_stmt 1              @ ../src/driver/stm32g4-v120/src/stm32g4xx_hal_pcd.c:1027:5
	ldrh.w	r1, [r0, #68]
	bic	r1, r1, #8192
	strh.w	r1, [r0, #68]
.Ltmp308:
.LBB6_107:
	@DEBUG_VALUE: HAL_PCD_IRQHandler:hpcd <- $r4
	.loc	4 1030 7                        @ ../src/driver/stm32g4-v120/src/stm32g4xx_hal_pcd.c:1030:7
	bl	USB_ReadInterrupts
.Ltmp309:
	mov	r1, r0
.Ltmp310:
	.loc	4 0 0 is_stmt 0                 @ ../src/driver/stm32g4-v120/src/stm32g4xx_hal_pcd.c:0:0
	ldr	r0, [r4]
	.loc	4 1030 7                        @ ../src/driver/stm32g4-v120/src/stm32g4xx_hal_pcd.c:1030:7
	lsls	r1, r1, #19
	bpl	.LBB6_111
.Ltmp311:
@ %bb.108:
	@DEBUG_VALUE: HAL_PCD_IRQHandler:hpcd <- $r4
	.loc	4 1032 26 is_stmt 1             @ ../src/driver/stm32g4-v120/src/stm32g4xx_hal_pcd.c:1032:26
	ldrh.w	r1, [r0, #64]
	bic	r1, r1, #4
	strh.w	r1, [r0, #64]
	.loc	4 1033 26                       @ ../src/driver/stm32g4-v120/src/stm32g4xx_hal_pcd.c:1033:26
	ldrh.w	r1, [r0, #64]
	bic	r1, r1, #8
	strh.w	r1, [r0, #64]
.Ltmp312:
	.loc	4 1035 15                       @ ../src/driver/stm32g4-v120/src/stm32g4xx_hal_pcd.c:1035:15
	ldrb.w	r0, [r4, #736]
.Ltmp313:
	.loc	4 1035 9 is_stmt 0              @ ../src/driver/stm32g4-v120/src/stm32g4xx_hal_pcd.c:1035:9
	cmp	r0, #1
	bne	.LBB6_110
.Ltmp314:
@ %bb.109:
	@DEBUG_VALUE: HAL_PCD_IRQHandler:hpcd <- $r4
	.loc	4 0 9                           @ ../src/driver/stm32g4-v120/src/stm32g4xx_hal_pcd.c:0:9
	movs	r0, #0
.Ltmp315:
	.loc	4 1037 23 is_stmt 1             @ ../src/driver/stm32g4-v120/src/stm32g4xx_hal_pcd.c:1037:23
	strb.w	r0, [r4, #736]
	.loc	4 1041 7                        @ ../src/driver/stm32g4-v120/src/stm32g4xx_hal_pcd.c:1041:7
	mov	r0, r4
	movs	r1, #0
	bl	HAL_PCDEx_LPM_Callback
.Ltmp316:
.LBB6_110:
	@DEBUG_VALUE: HAL_PCD_IRQHandler:hpcd <- $r4
	.loc	4 1048 5                        @ ../src/driver/stm32g4-v120/src/stm32g4xx_hal_pcd.c:1048:5
	mov	r0, r4
	bl	HAL_PCD_ResumeCallback
.Ltmp317:
	.loc	4 1051 5                        @ ../src/driver/stm32g4-v120/src/stm32g4xx_hal_pcd.c:1051:5
	ldr	r0, [r4]
	ldrh.w	r1, [r0, #68]
	bic	r1, r1, #4096
	strh.w	r1, [r0, #68]
.Ltmp318:
.LBB6_111:
	@DEBUG_VALUE: HAL_PCD_IRQHandler:hpcd <- $r4
	.loc	4 1054 7                        @ ../src/driver/stm32g4-v120/src/stm32g4xx_hal_pcd.c:1054:7
	bl	USB_ReadInterrupts
.Ltmp319:
	.loc	4 1054 7 is_stmt 0              @ ../src/driver/stm32g4-v120/src/stm32g4xx_hal_pcd.c:1054:7
	lsls	r0, r0, #20
	bpl	.LBB6_113
.Ltmp320:
@ %bb.112:
	@DEBUG_VALUE: HAL_PCD_IRQHandler:hpcd <- $r4
	.loc	4 1057 11 is_stmt 1             @ ../src/driver/stm32g4-v120/src/stm32g4xx_hal_pcd.c:1057:11
	ldr	r0, [r4]
	.loc	4 1057 26 is_stmt 0             @ ../src/driver/stm32g4-v120/src/stm32g4xx_hal_pcd.c:1057:26
	ldrh.w	r1, [r0, #64]
	orr	r1, r1, #8
	strh.w	r1, [r0, #64]
	.loc	4 1060 5 is_stmt 1              @ ../src/driver/stm32g4-v120/src/stm32g4xx_hal_pcd.c:1060:5
	ldrh.w	r1, [r0, #68]
	bic	r1, r1, #2048
	strh.w	r1, [r0, #68]
	.loc	4 1062 26                       @ ../src/driver/stm32g4-v120/src/stm32g4xx_hal_pcd.c:1062:26
	ldrh.w	r1, [r0, #64]
	orr	r1, r1, #4
	strh.w	r1, [r0, #64]
	.loc	4 1067 5                        @ ../src/driver/stm32g4-v120/src/stm32g4xx_hal_pcd.c:1067:5
	mov	r0, r4
	bl	HAL_PCD_SuspendCallback
.Ltmp321:
.LBB6_113:
	@DEBUG_VALUE: HAL_PCD_IRQHandler:hpcd <- $r4
	.loc	4 1072 7                        @ ../src/driver/stm32g4-v120/src/stm32g4xx_hal_pcd.c:1072:7
	ldr	r0, [r4]
	bl	USB_ReadInterrupts
.Ltmp322:
	.loc	4 1072 7 is_stmt 0              @ ../src/driver/stm32g4-v120/src/stm32g4xx_hal_pcd.c:1072:7
	lsls	r0, r0, #24
	bpl	.LBB6_117
.Ltmp323:
@ %bb.114:
	@DEBUG_VALUE: HAL_PCD_IRQHandler:hpcd <- $r4
	.loc	4 1074 5 is_stmt 1              @ ../src/driver/stm32g4-v120/src/stm32g4xx_hal_pcd.c:1074:5
	ldr	r0, [r4]
	ldrh.w	r1, [r0, #68]
	bic	r1, r1, #128
	strh.w	r1, [r0, #68]
.Ltmp324:
	.loc	4 1075 15                       @ ../src/driver/stm32g4-v120/src/stm32g4xx_hal_pcd.c:1075:15
	ldrb.w	r1, [r4, #736]
.Ltmp325:
	.loc	4 1075 9 is_stmt 0              @ ../src/driver/stm32g4-v120/src/stm32g4xx_hal_pcd.c:1075:9
	cbz	r1, .LBB6_116
.Ltmp326:
@ %bb.115:
	@DEBUG_VALUE: HAL_PCD_IRQHandler:hpcd <- $r4
	.loc	4 1094 7 is_stmt 1              @ ../src/driver/stm32g4-v120/src/stm32g4xx_hal_pcd.c:1094:7
	mov	r0, r4
	bl	HAL_PCD_SuspendCallback
.Ltmp327:
	.loc	4 0 7 is_stmt 0                 @ ../src/driver/stm32g4-v120/src/stm32g4xx_hal_pcd.c:0:7
	b	.LBB6_117
.Ltmp328:
.LBB6_116:
	@DEBUG_VALUE: HAL_PCD_IRQHandler:hpcd <- $r4
	.loc	4 1078 28 is_stmt 1             @ ../src/driver/stm32g4-v120/src/stm32g4xx_hal_pcd.c:1078:28
	ldrh.w	r1, [r0, #64]
	orr	r1, r1, #4
	strh.w	r1, [r0, #64]
	.loc	4 1079 28                       @ ../src/driver/stm32g4-v120/src/stm32g4xx_hal_pcd.c:1079:28
	ldrh.w	r1, [r0, #64]
	orr	r1, r1, #8
	strh.w	r1, [r0, #64]
	movs	r1, #1
	.loc	4 1081 23                       @ ../src/driver/stm32g4-v120/src/stm32g4xx_hal_pcd.c:1081:23
	strb.w	r1, [r4, #736]
	.loc	4 1082 47                       @ ../src/driver/stm32g4-v120/src/stm32g4xx_hal_pcd.c:1082:47
	ldrh.w	r0, [r0, #84]
	movs	r1, #60
	.loc	4 1082 73 is_stmt 0             @ ../src/driver/stm32g4-v120/src/stm32g4xx_hal_pcd.c:1082:73
	and.w	r0, r1, r0, lsr #2
	.loc	4 1082 18                       @ ../src/driver/stm32g4-v120/src/stm32g4xx_hal_pcd.c:1082:18
	str.w	r0, [r4, #740]
	.loc	4 1086 7 is_stmt 1              @ ../src/driver/stm32g4-v120/src/stm32g4xx_hal_pcd.c:1086:7
	mov	r0, r4
	movs	r1, #1
	bl	HAL_PCDEx_LPM_Callback
.Ltmp329:
.LBB6_117:
	@DEBUG_VALUE: HAL_PCD_IRQHandler:hpcd <- $r4
	.loc	4 1099 7                        @ ../src/driver/stm32g4-v120/src/stm32g4xx_hal_pcd.c:1099:7
	ldr	r0, [r4]
	bl	USB_ReadInterrupts
.Ltmp330:
	.loc	4 1099 7 is_stmt 0              @ ../src/driver/stm32g4-v120/src/stm32g4xx_hal_pcd.c:1099:7
	lsls	r0, r0, #22
	bpl	.LBB6_119
.Ltmp331:
@ %bb.118:
	@DEBUG_VALUE: HAL_PCD_IRQHandler:hpcd <- $r4
	.loc	4 1101 5 is_stmt 1              @ ../src/driver/stm32g4-v120/src/stm32g4xx_hal_pcd.c:1101:5
	ldr	r0, [r4]
	ldrh.w	r1, [r0, #68]
	bic	r1, r1, #512
	strh.w	r1, [r0, #68]
	.loc	4 1106 5                        @ ../src/driver/stm32g4-v120/src/stm32g4xx_hal_pcd.c:1106:5
	mov	r0, r4
	bl	HAL_PCD_SOFCallback
.Ltmp332:
.LBB6_119:
	@DEBUG_VALUE: HAL_PCD_IRQHandler:hpcd <- $r4
	.loc	4 1110 7                        @ ../src/driver/stm32g4-v120/src/stm32g4xx_hal_pcd.c:1110:7
	ldr	r0, [r4]
	bl	USB_ReadInterrupts
.Ltmp333:
	.loc	4 1110 7 is_stmt 0              @ ../src/driver/stm32g4-v120/src/stm32g4xx_hal_pcd.c:1110:7
	lsls	r0, r0, #23
	bpl	.LBB6_121
.Ltmp334:
@ %bb.120:
	@DEBUG_VALUE: HAL_PCD_IRQHandler:hpcd <- $r4
	.loc	4 1113 5 is_stmt 1              @ ../src/driver/stm32g4-v120/src/stm32g4xx_hal_pcd.c:1113:5
	ldr	r0, [r4]
	ldrh.w	r1, [r0, #68]
	bic	r1, r1, #256
	strh.w	r1, [r0, #68]
.Ltmp335:
.LBB6_121:
	@DEBUG_VALUE: HAL_PCD_IRQHandler:hpcd <- $r4
	.loc	4 1115 1                        @ ../src/driver/stm32g4-v120/src/stm32g4xx_hal_pcd.c:1115:1
	add	sp, #4
	pop.w	{r4, r5, r6, r7, r8, r9, r10, r11, pc}
.Ltmp336:
.Lfunc_end6:
	.size	HAL_PCD_IRQHandler, .Lfunc_end6-HAL_PCD_IRQHandler
	.cfi_endproc
	.file	5 "C:\\Users\\grodriguez\\Documents\\iit\\icub-firmware\\emBODY\\eBcode\\arch-arm\\libs\\lowlevel\\stm32hal\\proj" "../src/driver/stm32g4-v120/inc/stm32g474xx.h"
	.file	6 "C:\\Users\\grodriguez\\Documents\\iit\\icub-firmware\\emBODY\\eBcode\\arch-arm\\libs\\lowlevel\\stm32hal\\proj" "../src/driver/stm32g4-v120/inc/stm32g4xx_ll_usb.h"
	.cantunwind
	.fnend
                                        @ -- End function
	.section	.text.HAL_PCD_ResetCallback,"ax",%progbits
	.hidden	HAL_PCD_ResetCallback           @ -- Begin function HAL_PCD_ResetCallback
	.weak	HAL_PCD_ResetCallback
	.p2align	1
	.type	HAL_PCD_ResetCallback,%function
	.code	16                              @ @HAL_PCD_ResetCallback
	.thumb_func
HAL_PCD_ResetCallback:
.Lfunc_begin7:
	.loc	4 1187 0                        @ ../src/driver/stm32g4-v120/src/stm32g4xx_hal_pcd.c:1187:0
	.fnstart
	.cfi_startproc
@ %bb.0:
	@DEBUG_VALUE: HAL_PCD_ResetCallback:hpcd <- $r0
	.loc	4 1194 1 prologue_end           @ ../src/driver/stm32g4-v120/src/stm32g4xx_hal_pcd.c:1194:1
	bx	lr
.Ltmp337:
.Lfunc_end7:
	.size	HAL_PCD_ResetCallback, .Lfunc_end7-HAL_PCD_ResetCallback
	.cfi_endproc
	.cantunwind
	.fnend
                                        @ -- End function
	.section	.text.HAL_PCD_SetAddress,"ax",%progbits
	.hidden	HAL_PCD_SetAddress              @ -- Begin function HAL_PCD_SetAddress
	.globl	HAL_PCD_SetAddress
	.p2align	1
	.type	HAL_PCD_SetAddress,%function
	.code	16                              @ @HAL_PCD_SetAddress
	.thumb_func
HAL_PCD_SetAddress:
.Lfunc_begin8:
	.loc	4 1344 0                        @ ../src/driver/stm32g4-v120/src/stm32g4xx_hal_pcd.c:1344:0
	.fnstart
	.cfi_startproc
@ %bb.0:
	@DEBUG_VALUE: HAL_PCD_SetAddress:hpcd <- $r0
	@DEBUG_VALUE: HAL_PCD_SetAddress:address <- $r1
	.save	{r4, lr}
	push	{r4, lr}
	.cfi_def_cfa_offset 8
	.cfi_offset lr, -4
	.cfi_offset r4, -8
	mov	r4, r0
.Ltmp338:
	@DEBUG_VALUE: HAL_PCD_SetAddress:address <- undef
	@DEBUG_VALUE: HAL_PCD_SetAddress:hpcd <- $r4
	.loc	4 1345 3 prologue_end           @ ../src/driver/stm32g4-v120/src/stm32g4xx_hal_pcd.c:1345:3
	ldrb.w	r0, [r0, #680]
.Ltmp339:
	.loc	4 1345 3 is_stmt 0              @ ../src/driver/stm32g4-v120/src/stm32g4xx_hal_pcd.c:1345:3
	cmp	r0, #1
.Ltmp340:
	@DEBUG_VALUE: HAL_PCD_SetAddress:address <- $r1
	.loc	4 0 3                           @ ../src/driver/stm32g4-v120/src/stm32g4xx_hal_pcd.c:0:3
	itt	eq
	moveq	r0, #2
.Ltmp341:
	.loc	4 1351 1 is_stmt 1              @ ../src/driver/stm32g4-v120/src/stm32g4xx_hal_pcd.c:1351:1
	popeq	{r4, pc}
.Ltmp342:
.LBB8_1:
	@DEBUG_VALUE: HAL_PCD_SetAddress:address <- $r1
	@DEBUG_VALUE: HAL_PCD_SetAddress:address <- $r1
	.loc	4 0 1 is_stmt 0                 @ ../src/driver/stm32g4-v120/src/stm32g4xx_hal_pcd.c:0:1
	movs	r0, #1
.Ltmp343:
	.loc	4 1345 3 is_stmt 1              @ ../src/driver/stm32g4-v120/src/stm32g4xx_hal_pcd.c:1345:3
	strb.w	r0, [r4, #680]
.Ltmp344:
	.loc	4 1346 21                       @ ../src/driver/stm32g4-v120/src/stm32g4xx_hal_pcd.c:1346:21
	strb.w	r1, [r4, #36]
	.loc	4 1347 33                       @ ../src/driver/stm32g4-v120/src/stm32g4xx_hal_pcd.c:1347:33
	ldr	r0, [r4]
	.loc	4 1347 9 is_stmt 0              @ ../src/driver/stm32g4-v120/src/stm32g4xx_hal_pcd.c:1347:9
	bl	USB_SetDevAddress
.Ltmp345:
	.loc	4 0 9                           @ ../src/driver/stm32g4-v120/src/stm32g4xx_hal_pcd.c:0:9
	movs	r0, #0
.Ltmp346:
	.loc	4 1348 3 is_stmt 1              @ ../src/driver/stm32g4-v120/src/stm32g4xx_hal_pcd.c:1348:3
	strb.w	r0, [r4, #680]
.Ltmp347:
	.loc	4 1351 1                        @ ../src/driver/stm32g4-v120/src/stm32g4xx_hal_pcd.c:1351:1
	pop	{r4, pc}
.Ltmp348:
.Lfunc_end8:
	.size	HAL_PCD_SetAddress, .Lfunc_end8-HAL_PCD_SetAddress
	.cfi_endproc
	.cantunwind
	.fnend
                                        @ -- End function
	.section	.text.HAL_PCD_ResumeCallback,"ax",%progbits
	.hidden	HAL_PCD_ResumeCallback          @ -- Begin function HAL_PCD_ResumeCallback
	.weak	HAL_PCD_ResumeCallback
	.p2align	1
	.type	HAL_PCD_ResumeCallback,%function
	.code	16                              @ @HAL_PCD_ResumeCallback
	.thumb_func
HAL_PCD_ResumeCallback:
.Lfunc_begin9:
	.loc	4 1217 0                        @ ../src/driver/stm32g4-v120/src/stm32g4xx_hal_pcd.c:1217:0
	.fnstart
	.cfi_startproc
@ %bb.0:
	@DEBUG_VALUE: HAL_PCD_ResumeCallback:hpcd <- $r0
	.loc	4 1224 1 prologue_end           @ ../src/driver/stm32g4-v120/src/stm32g4xx_hal_pcd.c:1224:1
	bx	lr
.Ltmp349:
.Lfunc_end9:
	.size	HAL_PCD_ResumeCallback, .Lfunc_end9-HAL_PCD_ResumeCallback
	.cfi_endproc
	.cantunwind
	.fnend
                                        @ -- End function
	.section	.text.HAL_PCD_SuspendCallback,"ax",%progbits
	.hidden	HAL_PCD_SuspendCallback         @ -- Begin function HAL_PCD_SuspendCallback
	.weak	HAL_PCD_SuspendCallback
	.p2align	1
	.type	HAL_PCD_SuspendCallback,%function
	.code	16                              @ @HAL_PCD_SuspendCallback
	.thumb_func
HAL_PCD_SuspendCallback:
.Lfunc_begin10:
	.loc	4 1202 0                        @ ../src/driver/stm32g4-v120/src/stm32g4xx_hal_pcd.c:1202:0
	.fnstart
	.cfi_startproc
@ %bb.0:
	@DEBUG_VALUE: HAL_PCD_SuspendCallback:hpcd <- $r0
	.loc	4 1209 1 prologue_end           @ ../src/driver/stm32g4-v120/src/stm32g4xx_hal_pcd.c:1209:1
	bx	lr
.Ltmp350:
.Lfunc_end10:
	.size	HAL_PCD_SuspendCallback, .Lfunc_end10-HAL_PCD_SuspendCallback
	.cfi_endproc
	.cantunwind
	.fnend
                                        @ -- End function
	.section	.text.HAL_PCD_SOFCallback,"ax",%progbits
	.hidden	HAL_PCD_SOFCallback             @ -- Begin function HAL_PCD_SOFCallback
	.weak	HAL_PCD_SOFCallback
	.p2align	1
	.type	HAL_PCD_SOFCallback,%function
	.code	16                              @ @HAL_PCD_SOFCallback
	.thumb_func
HAL_PCD_SOFCallback:
.Lfunc_begin11:
	.loc	4 1172 0                        @ ../src/driver/stm32g4-v120/src/stm32g4xx_hal_pcd.c:1172:0
	.fnstart
	.cfi_startproc
@ %bb.0:
	@DEBUG_VALUE: HAL_PCD_SOFCallback:hpcd <- $r0
	.loc	4 1179 1 prologue_end           @ ../src/driver/stm32g4-v120/src/stm32g4xx_hal_pcd.c:1179:1
	bx	lr
.Ltmp351:
.Lfunc_end11:
	.size	HAL_PCD_SOFCallback, .Lfunc_end11-HAL_PCD_SOFCallback
	.cfi_endproc
	.cantunwind
	.fnend
                                        @ -- End function
	.section	.text.HAL_PCD_DataOutStageCallback,"ax",%progbits
	.hidden	HAL_PCD_DataOutStageCallback    @ -- Begin function HAL_PCD_DataOutStageCallback
	.weak	HAL_PCD_DataOutStageCallback
	.p2align	1
	.type	HAL_PCD_DataOutStageCallback,%function
	.code	16                              @ @HAL_PCD_DataOutStageCallback
	.thumb_func
HAL_PCD_DataOutStageCallback:
.Lfunc_begin12:
	.loc	4 1125 0                        @ ../src/driver/stm32g4-v120/src/stm32g4xx_hal_pcd.c:1125:0
	.fnstart
	.cfi_startproc
@ %bb.0:
	@DEBUG_VALUE: HAL_PCD_DataOutStageCallback:hpcd <- $r0
	@DEBUG_VALUE: HAL_PCD_DataOutStageCallback:epnum <- $r1
	.loc	4 1133 1 prologue_end           @ ../src/driver/stm32g4-v120/src/stm32g4xx_hal_pcd.c:1133:1
	bx	lr
.Ltmp352:
.Lfunc_end12:
	.size	HAL_PCD_DataOutStageCallback, .Lfunc_end12-HAL_PCD_DataOutStageCallback
	.cfi_endproc
	.cantunwind
	.fnend
                                        @ -- End function
	.section	.text.HAL_PCD_DataInStageCallback,"ax",%progbits
	.hidden	HAL_PCD_DataInStageCallback     @ -- Begin function HAL_PCD_DataInStageCallback
	.weak	HAL_PCD_DataInStageCallback
	.p2align	1
	.type	HAL_PCD_DataInStageCallback,%function
	.code	16                              @ @HAL_PCD_DataInStageCallback
	.thumb_func
HAL_PCD_DataInStageCallback:
.Lfunc_begin13:
	.loc	4 1142 0                        @ ../src/driver/stm32g4-v120/src/stm32g4xx_hal_pcd.c:1142:0
	.fnstart
	.cfi_startproc
@ %bb.0:
	@DEBUG_VALUE: HAL_PCD_DataInStageCallback:hpcd <- $r0
	@DEBUG_VALUE: HAL_PCD_DataInStageCallback:epnum <- $r1
	.loc	4 1150 1 prologue_end           @ ../src/driver/stm32g4-v120/src/stm32g4xx_hal_pcd.c:1150:1
	bx	lr
.Ltmp353:
.Lfunc_end13:
	.size	HAL_PCD_DataInStageCallback, .Lfunc_end13-HAL_PCD_DataInStageCallback
	.cfi_endproc
	.cantunwind
	.fnend
                                        @ -- End function
	.section	.text.HAL_PCD_SetupStageCallback,"ax",%progbits
	.hidden	HAL_PCD_SetupStageCallback      @ -- Begin function HAL_PCD_SetupStageCallback
	.weak	HAL_PCD_SetupStageCallback
	.p2align	1
	.type	HAL_PCD_SetupStageCallback,%function
	.code	16                              @ @HAL_PCD_SetupStageCallback
	.thumb_func
HAL_PCD_SetupStageCallback:
.Lfunc_begin14:
	.loc	4 1157 0                        @ ../src/driver/stm32g4-v120/src/stm32g4xx_hal_pcd.c:1157:0
	.fnstart
	.cfi_startproc
@ %bb.0:
	@DEBUG_VALUE: HAL_PCD_SetupStageCallback:hpcd <- $r0
	.loc	4 1164 1 prologue_end           @ ../src/driver/stm32g4-v120/src/stm32g4xx_hal_pcd.c:1164:1
	bx	lr
.Ltmp354:
.Lfunc_end14:
	.size	HAL_PCD_SetupStageCallback, .Lfunc_end14-HAL_PCD_SetupStageCallback
	.cfi_endproc
	.cantunwind
	.fnend
                                        @ -- End function
	.section	.text.HAL_PCD_ISOOUTIncompleteCallback,"ax",%progbits
	.hidden	HAL_PCD_ISOOUTIncompleteCallback @ -- Begin function HAL_PCD_ISOOUTIncompleteCallback
	.weak	HAL_PCD_ISOOUTIncompleteCallback
	.p2align	1
	.type	HAL_PCD_ISOOUTIncompleteCallback,%function
	.code	16                              @ @HAL_PCD_ISOOUTIncompleteCallback
	.thumb_func
HAL_PCD_ISOOUTIncompleteCallback:
.Lfunc_begin15:
	.loc	4 1233 0                        @ ../src/driver/stm32g4-v120/src/stm32g4xx_hal_pcd.c:1233:0
	.fnstart
	.cfi_startproc
@ %bb.0:
	@DEBUG_VALUE: HAL_PCD_ISOOUTIncompleteCallback:hpcd <- $r0
	@DEBUG_VALUE: HAL_PCD_ISOOUTIncompleteCallback:epnum <- $r1
	.loc	4 1241 1 prologue_end           @ ../src/driver/stm32g4-v120/src/stm32g4xx_hal_pcd.c:1241:1
	bx	lr
.Ltmp355:
.Lfunc_end15:
	.size	HAL_PCD_ISOOUTIncompleteCallback, .Lfunc_end15-HAL_PCD_ISOOUTIncompleteCallback
	.cfi_endproc
	.cantunwind
	.fnend
                                        @ -- End function
	.section	.text.HAL_PCD_ISOINIncompleteCallback,"ax",%progbits
	.hidden	HAL_PCD_ISOINIncompleteCallback @ -- Begin function HAL_PCD_ISOINIncompleteCallback
	.weak	HAL_PCD_ISOINIncompleteCallback
	.p2align	1
	.type	HAL_PCD_ISOINIncompleteCallback,%function
	.code	16                              @ @HAL_PCD_ISOINIncompleteCallback
	.thumb_func
HAL_PCD_ISOINIncompleteCallback:
.Lfunc_begin16:
	.loc	4 1250 0                        @ ../src/driver/stm32g4-v120/src/stm32g4xx_hal_pcd.c:1250:0
	.fnstart
	.cfi_startproc
@ %bb.0:
	@DEBUG_VALUE: HAL_PCD_ISOINIncompleteCallback:hpcd <- $r0
	@DEBUG_VALUE: HAL_PCD_ISOINIncompleteCallback:epnum <- $r1
	.loc	4 1258 1 prologue_end           @ ../src/driver/stm32g4-v120/src/stm32g4xx_hal_pcd.c:1258:1
	bx	lr
.Ltmp356:
.Lfunc_end16:
	.size	HAL_PCD_ISOINIncompleteCallback, .Lfunc_end16-HAL_PCD_ISOINIncompleteCallback
	.cfi_endproc
	.cantunwind
	.fnend
                                        @ -- End function
	.section	.text.HAL_PCD_ConnectCallback,"ax",%progbits
	.hidden	HAL_PCD_ConnectCallback         @ -- Begin function HAL_PCD_ConnectCallback
	.weak	HAL_PCD_ConnectCallback
	.p2align	1
	.type	HAL_PCD_ConnectCallback,%function
	.code	16                              @ @HAL_PCD_ConnectCallback
	.thumb_func
HAL_PCD_ConnectCallback:
.Lfunc_begin17:
	.loc	4 1266 0                        @ ../src/driver/stm32g4-v120/src/stm32g4xx_hal_pcd.c:1266:0
	.fnstart
	.cfi_startproc
@ %bb.0:
	@DEBUG_VALUE: HAL_PCD_ConnectCallback:hpcd <- $r0
	.loc	4 1273 1 prologue_end           @ ../src/driver/stm32g4-v120/src/stm32g4xx_hal_pcd.c:1273:1
	bx	lr
.Ltmp357:
.Lfunc_end17:
	.size	HAL_PCD_ConnectCallback, .Lfunc_end17-HAL_PCD_ConnectCallback
	.cfi_endproc
	.cantunwind
	.fnend
                                        @ -- End function
	.section	.text.HAL_PCD_DisconnectCallback,"ax",%progbits
	.hidden	HAL_PCD_DisconnectCallback      @ -- Begin function HAL_PCD_DisconnectCallback
	.weak	HAL_PCD_DisconnectCallback
	.p2align	1
	.type	HAL_PCD_DisconnectCallback,%function
	.code	16                              @ @HAL_PCD_DisconnectCallback
	.thumb_func
HAL_PCD_DisconnectCallback:
.Lfunc_begin18:
	.loc	4 1281 0                        @ ../src/driver/stm32g4-v120/src/stm32g4xx_hal_pcd.c:1281:0
	.fnstart
	.cfi_startproc
@ %bb.0:
	@DEBUG_VALUE: HAL_PCD_DisconnectCallback:hpcd <- $r0
	.loc	4 1288 1 prologue_end           @ ../src/driver/stm32g4-v120/src/stm32g4xx_hal_pcd.c:1288:1
	bx	lr
.Ltmp358:
.Lfunc_end18:
	.size	HAL_PCD_DisconnectCallback, .Lfunc_end18-HAL_PCD_DisconnectCallback
	.cfi_endproc
	.cantunwind
	.fnend
                                        @ -- End function
	.section	.text.HAL_PCD_DevConnect,"ax",%progbits
	.hidden	HAL_PCD_DevConnect              @ -- Begin function HAL_PCD_DevConnect
	.globl	HAL_PCD_DevConnect
	.p2align	1
	.type	HAL_PCD_DevConnect,%function
	.code	16                              @ @HAL_PCD_DevConnect
	.thumb_func
HAL_PCD_DevConnect:
.Lfunc_begin19:
	.loc	4 1315 0                        @ ../src/driver/stm32g4-v120/src/stm32g4xx_hal_pcd.c:1315:0
	.fnstart
	.cfi_startproc
@ %bb.0:
	@DEBUG_VALUE: HAL_PCD_DevConnect:hpcd <- $r0
	.save	{r4, lr}
	push	{r4, lr}
	.cfi_def_cfa_offset 8
	.cfi_offset lr, -4
	.cfi_offset r4, -8
	mov	r4, r0
.Ltmp359:
	@DEBUG_VALUE: HAL_PCD_DevConnect:hpcd <- $r4
	.loc	4 1316 3 prologue_end           @ ../src/driver/stm32g4-v120/src/stm32g4xx_hal_pcd.c:1316:3
	ldrb.w	r0, [r0, #680]
.Ltmp360:
	.loc	4 1316 3 is_stmt 0              @ ../src/driver/stm32g4-v120/src/stm32g4xx_hal_pcd.c:1316:3
	cmp	r0, #1
	itt	eq
	moveq	r0, #2
.Ltmp361:
	.loc	4 1321 1 is_stmt 1              @ ../src/driver/stm32g4-v120/src/stm32g4xx_hal_pcd.c:1321:1
	popeq	{r4, pc}
.Ltmp362:
.LBB19_1:
	.loc	4 1317 30                       @ ../src/driver/stm32g4-v120/src/stm32g4xx_hal_pcd.c:1317:30
	ldr	r0, [r4]
	movs	r1, #1
.Ltmp363:
	.loc	4 1316 3                        @ ../src/driver/stm32g4-v120/src/stm32g4xx_hal_pcd.c:1316:3
	strb.w	r1, [r4, #680]
.Ltmp364:
	.loc	4 1317 9                        @ ../src/driver/stm32g4-v120/src/stm32g4xx_hal_pcd.c:1317:9
	bl	USB_DevConnect
.Ltmp365:
	.loc	4 0 9 is_stmt 0                 @ ../src/driver/stm32g4-v120/src/stm32g4xx_hal_pcd.c:0:9
	movs	r0, #0
.Ltmp366:
	.loc	4 1318 3 is_stmt 1              @ ../src/driver/stm32g4-v120/src/stm32g4xx_hal_pcd.c:1318:3
	strb.w	r0, [r4, #680]
.Ltmp367:
	.loc	4 1321 1                        @ ../src/driver/stm32g4-v120/src/stm32g4xx_hal_pcd.c:1321:1
	pop	{r4, pc}
.Ltmp368:
.Lfunc_end19:
	.size	HAL_PCD_DevConnect, .Lfunc_end19-HAL_PCD_DevConnect
	.cfi_endproc
	.cantunwind
	.fnend
                                        @ -- End function
	.section	.text.HAL_PCD_DevDisconnect,"ax",%progbits
	.hidden	HAL_PCD_DevDisconnect           @ -- Begin function HAL_PCD_DevDisconnect
	.globl	HAL_PCD_DevDisconnect
	.p2align	1
	.type	HAL_PCD_DevDisconnect,%function
	.code	16                              @ @HAL_PCD_DevDisconnect
	.thumb_func
HAL_PCD_DevDisconnect:
.Lfunc_begin20:
	.loc	4 1329 0                        @ ../src/driver/stm32g4-v120/src/stm32g4xx_hal_pcd.c:1329:0
	.fnstart
	.cfi_startproc
@ %bb.0:
	@DEBUG_VALUE: HAL_PCD_DevDisconnect:hpcd <- $r0
	.save	{r4, lr}
	push	{r4, lr}
	.cfi_def_cfa_offset 8
	.cfi_offset lr, -4
	.cfi_offset r4, -8
	mov	r4, r0
.Ltmp369:
	@DEBUG_VALUE: HAL_PCD_DevDisconnect:hpcd <- $r4
	.loc	4 1330 3 prologue_end           @ ../src/driver/stm32g4-v120/src/stm32g4xx_hal_pcd.c:1330:3
	ldrb.w	r0, [r0, #680]
.Ltmp370:
	.loc	4 1330 3 is_stmt 0              @ ../src/driver/stm32g4-v120/src/stm32g4xx_hal_pcd.c:1330:3
	cmp	r0, #1
	itt	eq
	moveq	r0, #2
.Ltmp371:
	.loc	4 1335 1 is_stmt 1              @ ../src/driver/stm32g4-v120/src/stm32g4xx_hal_pcd.c:1335:1
	popeq	{r4, pc}
.Ltmp372:
.LBB20_1:
	.loc	4 1331 33                       @ ../src/driver/stm32g4-v120/src/stm32g4xx_hal_pcd.c:1331:33
	ldr	r0, [r4]
	movs	r1, #1
.Ltmp373:
	.loc	4 1330 3                        @ ../src/driver/stm32g4-v120/src/stm32g4xx_hal_pcd.c:1330:3
	strb.w	r1, [r4, #680]
.Ltmp374:
	.loc	4 1331 9                        @ ../src/driver/stm32g4-v120/src/stm32g4xx_hal_pcd.c:1331:9
	bl	USB_DevDisconnect
.Ltmp375:
	.loc	4 0 9 is_stmt 0                 @ ../src/driver/stm32g4-v120/src/stm32g4xx_hal_pcd.c:0:9
	movs	r0, #0
.Ltmp376:
	.loc	4 1332 3 is_stmt 1              @ ../src/driver/stm32g4-v120/src/stm32g4xx_hal_pcd.c:1332:3
	strb.w	r0, [r4, #680]
.Ltmp377:
	.loc	4 1335 1                        @ ../src/driver/stm32g4-v120/src/stm32g4xx_hal_pcd.c:1335:1
	pop	{r4, pc}
.Ltmp378:
.Lfunc_end20:
	.size	HAL_PCD_DevDisconnect, .Lfunc_end20-HAL_PCD_DevDisconnect
	.cfi_endproc
	.cantunwind
	.fnend
                                        @ -- End function
	.section	.text.HAL_PCD_EP_Open,"ax",%progbits
	.hidden	HAL_PCD_EP_Open                 @ -- Begin function HAL_PCD_EP_Open
	.globl	HAL_PCD_EP_Open
	.p2align	1
	.type	HAL_PCD_EP_Open,%function
	.code	16                              @ @HAL_PCD_EP_Open
	.thumb_func
HAL_PCD_EP_Open:
.Lfunc_begin21:
	.loc	4 1361 0                        @ ../src/driver/stm32g4-v120/src/stm32g4xx_hal_pcd.c:1361:0
	.fnstart
	.cfi_startproc
@ %bb.0:
	@DEBUG_VALUE: HAL_PCD_EP_Open:hpcd <- $r0
	@DEBUG_VALUE: HAL_PCD_EP_Open:ep_addr <- $r1
	@DEBUG_VALUE: HAL_PCD_EP_Open:ep_mps <- $r2
	@DEBUG_VALUE: HAL_PCD_EP_Open:ep_type <- $r3
	.save	{r4, r5, r7, lr}
	push	{r4, r5, r7, lr}
	.cfi_def_cfa_offset 16
	.cfi_offset lr, -4
	.cfi_offset r7, -8
	.cfi_offset r5, -12
	.cfi_offset r4, -16
	mov	r5, r0
.Ltmp379:
	@DEBUG_VALUE: HAL_PCD_EP_Open:hpcd <- $r5
	@DEBUG_VALUE: HAL_PCD_EP_Open:ret <- 0
	@DEBUG_VALUE: HAL_PCD_EP_Open:ep_type <- $r3
	@DEBUG_VALUE: HAL_PCD_EP_Open:ep_mps <- $r2
	@DEBUG_VALUE: HAL_PCD_EP_Open:ep_addr <- $r1
	@DEBUG_VALUE: HAL_PCD_EP_Open:hpcd <- $r5
	.loc	4 1365 7 prologue_end           @ ../src/driver/stm32g4-v120/src/stm32g4xx_hal_pcd.c:1365:7
	lsls	r0, r1, #24
.Ltmp380:
	.loc	4 0 0 is_stmt 0                 @ ../src/driver/stm32g4-v120/src/stm32g4xx_hal_pcd.c:0:0
	and	r0, r1, #7
.Ltmp381:
	.loc	4 1372 11 is_stmt 1             @ ../src/driver/stm32g4-v120/src/stm32g4xx_hal_pcd.c:1372:11
	add.w	r1, r0, r0, lsl #2
.Ltmp382:
	@DEBUG_VALUE: HAL_PCD_EP_Open:ep_addr <- [DW_OP_LLVM_entry_value 1] $r1
	add.w	r12, r5, r1, lsl #3
.Ltmp383:
	.loc	4 1365 7                        @ ../src/driver/stm32g4-v120/src/stm32g4xx_hal_pcd.c:1365:7
	bmi	.LBB21_2
.Ltmp384:
@ %bb.1:
	@DEBUG_VALUE: HAL_PCD_EP_Open:hpcd <- $r5
	@DEBUG_VALUE: HAL_PCD_EP_Open:ep_type <- $r3
	@DEBUG_VALUE: HAL_PCD_EP_Open:ep_mps <- $r2
	@DEBUG_VALUE: HAL_PCD_EP_Open:ep_addr <- [DW_OP_LLVM_entry_value 1] $r1
	@DEBUG_VALUE: HAL_PCD_EP_Open:ret <- 0
	.loc	4 1372 11                       @ ../src/driver/stm32g4-v120/src/stm32g4xx_hal_pcd.c:1372:11
	add.w	r1, r12, #360
.Ltmp385:
	@DEBUG_VALUE: HAL_PCD_EP_Open:ep <- $r1
	.loc	4 0 11 is_stmt 0                @ ../src/driver/stm32g4-v120/src/stm32g4xx_hal_pcd.c:0:11
	movs	r4, #0
	.loc	4 1373 15 is_stmt 1             @ ../src/driver/stm32g4-v120/src/stm32g4xx_hal_pcd.c:1373:15
	strb.w	r4, [r12, #361]
	b	.LBB21_3
.Ltmp386:
.LBB21_2:
	@DEBUG_VALUE: HAL_PCD_EP_Open:hpcd <- $r5
	@DEBUG_VALUE: HAL_PCD_EP_Open:ep_type <- $r3
	@DEBUG_VALUE: HAL_PCD_EP_Open:ep_mps <- $r2
	@DEBUG_VALUE: HAL_PCD_EP_Open:ep_addr <- [DW_OP_LLVM_entry_value 1] $r1
	@DEBUG_VALUE: HAL_PCD_EP_Open:ret <- 0
	.loc	4 0 15 is_stmt 0                @ ../src/driver/stm32g4-v120/src/stm32g4xx_hal_pcd.c:0:15
	movs	r4, #1
.Ltmp387:
	.loc	4 1367 11 is_stmt 1             @ ../src/driver/stm32g4-v120/src/stm32g4xx_hal_pcd.c:1367:11
	add.w	r1, r12, #40
.Ltmp388:
	@DEBUG_VALUE: HAL_PCD_EP_Open:ep <- $r1
	.loc	4 1368 15                       @ ../src/driver/stm32g4-v120/src/stm32g4xx_hal_pcd.c:1368:15
	strb.w	r4, [r12, #41]
.Ltmp389:
.LBB21_3:
	@DEBUG_VALUE: HAL_PCD_EP_Open:hpcd <- $r5
	@DEBUG_VALUE: HAL_PCD_EP_Open:ep_type <- $r3
	@DEBUG_VALUE: HAL_PCD_EP_Open:ep_mps <- $r2
	@DEBUG_VALUE: HAL_PCD_EP_Open:ep <- $r1
	@DEBUG_VALUE: HAL_PCD_EP_Open:ep_addr <- [DW_OP_LLVM_entry_value 1] $r1
	@DEBUG_VALUE: HAL_PCD_EP_Open:ret <- 0
	@DEBUG_VALUE: HAL_PCD_EP_Open:ep <- $r1
	.loc	4 1380 11                       @ ../src/driver/stm32g4-v120/src/stm32g4xx_hal_pcd.c:1380:11
	ldrb	r4, [r1, #1]
.Ltmp390:
	.loc	4 1376 11                       @ ../src/driver/stm32g4-v120/src/stm32g4xx_hal_pcd.c:1376:11
	strb	r0, [r1]
	.loc	4 1377 17                       @ ../src/driver/stm32g4-v120/src/stm32g4xx_hal_pcd.c:1377:17
	str	r2, [r1, #16]
	.loc	4 1378 12                       @ ../src/driver/stm32g4-v120/src/stm32g4xx_hal_pcd.c:1378:12
	strb	r3, [r1, #3]
	.loc	4 1380 7                        @ ../src/driver/stm32g4-v120/src/stm32g4xx_hal_pcd.c:1380:7
	cbz	r4, .LBB21_5
.Ltmp391:
@ %bb.4:
	@DEBUG_VALUE: HAL_PCD_EP_Open:hpcd <- $r5
	@DEBUG_VALUE: HAL_PCD_EP_Open:ep_type <- $r3
	@DEBUG_VALUE: HAL_PCD_EP_Open:ep_mps <- $r2
	@DEBUG_VALUE: HAL_PCD_EP_Open:ep <- $r1
	@DEBUG_VALUE: HAL_PCD_EP_Open:ep_addr <- [DW_OP_LLVM_entry_value 1] $r1
	@DEBUG_VALUE: HAL_PCD_EP_Open:ret <- 0
	.loc	4 1383 21                       @ ../src/driver/stm32g4-v120/src/stm32g4xx_hal_pcd.c:1383:21
	strh	r0, [r1, #14]
.Ltmp392:
.LBB21_5:
	@DEBUG_VALUE: HAL_PCD_EP_Open:hpcd <- $r5
	@DEBUG_VALUE: HAL_PCD_EP_Open:ep_type <- $r3
	@DEBUG_VALUE: HAL_PCD_EP_Open:ep_mps <- $r2
	@DEBUG_VALUE: HAL_PCD_EP_Open:ep <- $r1
	@DEBUG_VALUE: HAL_PCD_EP_Open:ep_addr <- [DW_OP_LLVM_entry_value 1] $r1
	@DEBUG_VALUE: HAL_PCD_EP_Open:ret <- 0
	.loc	4 1386 7                        @ ../src/driver/stm32g4-v120/src/stm32g4xx_hal_pcd.c:1386:7
	cmp	r3, #2
	itt	eq
	moveq	r0, #0
.Ltmp393:
	.loc	4 1388 24                       @ ../src/driver/stm32g4-v120/src/stm32g4xx_hal_pcd.c:1388:24
	strbeq	r0, [r1, #4]
.Ltmp394:
	.loc	4 1391 3                        @ ../src/driver/stm32g4-v120/src/stm32g4xx_hal_pcd.c:1391:3
	ldrb.w	r0, [r5, #680]
.Ltmp395:
	.loc	4 1391 3 is_stmt 0              @ ../src/driver/stm32g4-v120/src/stm32g4xx_hal_pcd.c:1391:3
	cmp	r0, #1
	itt	eq
	moveq	r0, #2
.Ltmp396:
	.loc	4 1396 1 is_stmt 1              @ ../src/driver/stm32g4-v120/src/stm32g4xx_hal_pcd.c:1396:1
	popeq	{r4, r5, r7, pc}
.Ltmp397:
.LBB21_6:
	@DEBUG_VALUE: HAL_PCD_EP_Open:ep_type <- $r3
	@DEBUG_VALUE: HAL_PCD_EP_Open:ep_mps <- $r2
	@DEBUG_VALUE: HAL_PCD_EP_Open:ep <- $r1
	@DEBUG_VALUE: HAL_PCD_EP_Open:ep_addr <- [DW_OP_LLVM_entry_value 1] $r1
	@DEBUG_VALUE: HAL_PCD_EP_Open:ret <- 0
	.loc	4 1392 36                       @ ../src/driver/stm32g4-v120/src/stm32g4xx_hal_pcd.c:1392:36
	ldr	r0, [r5]
	movs	r2, #1
.Ltmp398:
	@DEBUG_VALUE: HAL_PCD_EP_Open:ep_mps <- [DW_OP_LLVM_entry_value 1] $r2
	.loc	4 1391 3                        @ ../src/driver/stm32g4-v120/src/stm32g4xx_hal_pcd.c:1391:3
	strb.w	r2, [r5, #680]
.Ltmp399:
	.loc	4 1392 9                        @ ../src/driver/stm32g4-v120/src/stm32g4xx_hal_pcd.c:1392:9
	bl	USB_ActivateEndpoint
.Ltmp400:
	@DEBUG_VALUE: HAL_PCD_EP_Open:ep_type <- [DW_OP_LLVM_entry_value 1] $r3
	.loc	4 0 9 is_stmt 0                 @ ../src/driver/stm32g4-v120/src/stm32g4xx_hal_pcd.c:0:9
	movs	r0, #0
.Ltmp401:
	.loc	4 1393 3 is_stmt 1              @ ../src/driver/stm32g4-v120/src/stm32g4xx_hal_pcd.c:1393:3
	strb.w	r0, [r5, #680]
.Ltmp402:
	.loc	4 1396 1                        @ ../src/driver/stm32g4-v120/src/stm32g4xx_hal_pcd.c:1396:1
	pop	{r4, r5, r7, pc}
.Ltmp403:
.Lfunc_end21:
	.size	HAL_PCD_EP_Open, .Lfunc_end21-HAL_PCD_EP_Open
	.cfi_endproc
	.cantunwind
	.fnend
                                        @ -- End function
	.section	.text.HAL_PCD_EP_Close,"ax",%progbits
	.hidden	HAL_PCD_EP_Close                @ -- Begin function HAL_PCD_EP_Close
	.globl	HAL_PCD_EP_Close
	.p2align	1
	.type	HAL_PCD_EP_Close,%function
	.code	16                              @ @HAL_PCD_EP_Close
	.thumb_func
HAL_PCD_EP_Close:
.Lfunc_begin22:
	.loc	4 1405 0                        @ ../src/driver/stm32g4-v120/src/stm32g4xx_hal_pcd.c:1405:0
	.fnstart
	.cfi_startproc
@ %bb.0:
	@DEBUG_VALUE: HAL_PCD_EP_Close:hpcd <- $r0
	@DEBUG_VALUE: HAL_PCD_EP_Close:ep_addr <- $r1
	.save	{r4, lr}
	push	{r4, lr}
	.cfi_def_cfa_offset 8
	.cfi_offset lr, -4
	.cfi_offset r4, -8
	mov	r4, r0
.Ltmp404:
	@DEBUG_VALUE: HAL_PCD_EP_Close:hpcd <- $r4
	@DEBUG_VALUE: HAL_PCD_EP_Close:ep_addr <- $r1
	@DEBUG_VALUE: HAL_PCD_EP_Close:hpcd <- $r4
	.loc	4 1408 7 prologue_end           @ ../src/driver/stm32g4-v120/src/stm32g4xx_hal_pcd.c:1408:7
	lsls	r0, r1, #24
.Ltmp405:
	.loc	4 0 0 is_stmt 0                 @ ../src/driver/stm32g4-v120/src/stm32g4xx_hal_pcd.c:0:0
	and	r0, r1, #7
.Ltmp406:
	.loc	4 1415 11 is_stmt 1             @ ../src/driver/stm32g4-v120/src/stm32g4xx_hal_pcd.c:1415:11
	add.w	r1, r0, r0, lsl #2
.Ltmp407:
	@DEBUG_VALUE: HAL_PCD_EP_Close:ep_addr <- [DW_OP_LLVM_entry_value 1] $r1
	add.w	r2, r4, r1, lsl #3
.Ltmp408:
	.loc	4 1408 7                        @ ../src/driver/stm32g4-v120/src/stm32g4xx_hal_pcd.c:1408:7
	bmi	.LBB22_2
.Ltmp409:
@ %bb.1:
	@DEBUG_VALUE: HAL_PCD_EP_Close:hpcd <- $r4
	@DEBUG_VALUE: HAL_PCD_EP_Close:ep_addr <- [DW_OP_LLVM_entry_value 1] $r1
	.loc	4 1415 11                       @ ../src/driver/stm32g4-v120/src/stm32g4xx_hal_pcd.c:1415:11
	add.w	r1, r2, #360
.Ltmp410:
	@DEBUG_VALUE: HAL_PCD_EP_Close:ep <- $r1
	.loc	4 0 11 is_stmt 0                @ ../src/driver/stm32g4-v120/src/stm32g4xx_hal_pcd.c:0:11
	movs	r3, #0
	.loc	4 1416 15 is_stmt 1             @ ../src/driver/stm32g4-v120/src/stm32g4xx_hal_pcd.c:1416:15
	strb.w	r3, [r2, #361]
	b	.LBB22_3
.Ltmp411:
.LBB22_2:
	@DEBUG_VALUE: HAL_PCD_EP_Close:hpcd <- $r4
	@DEBUG_VALUE: HAL_PCD_EP_Close:ep_addr <- [DW_OP_LLVM_entry_value 1] $r1
	.loc	4 0 15 is_stmt 0                @ ../src/driver/stm32g4-v120/src/stm32g4xx_hal_pcd.c:0:15
	movs	r3, #1
.Ltmp412:
	.loc	4 1410 11 is_stmt 1             @ ../src/driver/stm32g4-v120/src/stm32g4xx_hal_pcd.c:1410:11
	add.w	r1, r2, #40
.Ltmp413:
	@DEBUG_VALUE: HAL_PCD_EP_Close:ep <- $r1
	.loc	4 1411 15                       @ ../src/driver/stm32g4-v120/src/stm32g4xx_hal_pcd.c:1411:15
	strb.w	r3, [r2, #41]
.Ltmp414:
.LBB22_3:
	@DEBUG_VALUE: HAL_PCD_EP_Close:hpcd <- $r4
	@DEBUG_VALUE: HAL_PCD_EP_Close:ep <- $r1
	@DEBUG_VALUE: HAL_PCD_EP_Close:ep_addr <- [DW_OP_LLVM_entry_value 1] $r1
	@DEBUG_VALUE: HAL_PCD_EP_Close:ep <- $r1
	.loc	4 1420 3                        @ ../src/driver/stm32g4-v120/src/stm32g4xx_hal_pcd.c:1420:3
	ldrb.w	r2, [r4, #680]
.Ltmp415:
	.loc	4 1418 13                       @ ../src/driver/stm32g4-v120/src/stm32g4xx_hal_pcd.c:1418:13
	strb	r0, [r1]
.Ltmp416:
	.loc	4 1420 3                        @ ../src/driver/stm32g4-v120/src/stm32g4xx_hal_pcd.c:1420:3
	cmp	r2, #1
	itt	eq
	moveq	r0, #2
.Ltmp417:
	.loc	4 1424 1                        @ ../src/driver/stm32g4-v120/src/stm32g4xx_hal_pcd.c:1424:1
	popeq	{r4, pc}
.Ltmp418:
.LBB22_4:
	@DEBUG_VALUE: HAL_PCD_EP_Close:ep <- $r1
	@DEBUG_VALUE: HAL_PCD_EP_Close:ep_addr <- [DW_OP_LLVM_entry_value 1] $r1
	.loc	4 1421 38                       @ ../src/driver/stm32g4-v120/src/stm32g4xx_hal_pcd.c:1421:38
	ldr	r0, [r4]
	movs	r2, #1
.Ltmp419:
	.loc	4 1420 3                        @ ../src/driver/stm32g4-v120/src/stm32g4xx_hal_pcd.c:1420:3
	strb.w	r2, [r4, #680]
.Ltmp420:
	.loc	4 1421 9                        @ ../src/driver/stm32g4-v120/src/stm32g4xx_hal_pcd.c:1421:9
	bl	USB_DeactivateEndpoint
.Ltmp421:
	.loc	4 0 9 is_stmt 0                 @ ../src/driver/stm32g4-v120/src/stm32g4xx_hal_pcd.c:0:9
	movs	r0, #0
.Ltmp422:
	.loc	4 1422 3 is_stmt 1              @ ../src/driver/stm32g4-v120/src/stm32g4xx_hal_pcd.c:1422:3
	strb.w	r0, [r4, #680]
.Ltmp423:
	.loc	4 1424 1                        @ ../src/driver/stm32g4-v120/src/stm32g4xx_hal_pcd.c:1424:1
	pop	{r4, pc}
.Ltmp424:
.Lfunc_end22:
	.size	HAL_PCD_EP_Close, .Lfunc_end22-HAL_PCD_EP_Close
	.cfi_endproc
	.cantunwind
	.fnend
                                        @ -- End function
	.section	.text.HAL_PCD_EP_Receive,"ax",%progbits
	.hidden	HAL_PCD_EP_Receive              @ -- Begin function HAL_PCD_EP_Receive
	.globl	HAL_PCD_EP_Receive
	.p2align	1
	.type	HAL_PCD_EP_Receive,%function
	.code	16                              @ @HAL_PCD_EP_Receive
	.thumb_func
HAL_PCD_EP_Receive:
.Lfunc_begin23:
	.loc	4 1436 0                        @ ../src/driver/stm32g4-v120/src/stm32g4xx_hal_pcd.c:1436:0
	.fnstart
	.cfi_startproc
@ %bb.0:
	@DEBUG_VALUE: HAL_PCD_EP_Receive:hpcd <- $r0
	@DEBUG_VALUE: HAL_PCD_EP_Receive:hpcd <- $r0
	@DEBUG_VALUE: HAL_PCD_EP_Receive:ep_addr <- $r1
	@DEBUG_VALUE: HAL_PCD_EP_Receive:ep_addr <- $r1
	@DEBUG_VALUE: HAL_PCD_EP_Receive:pBuf <- $r2
	@DEBUG_VALUE: HAL_PCD_EP_Receive:pBuf <- $r2
	@DEBUG_VALUE: HAL_PCD_EP_Receive:len <- $r3
	@DEBUG_VALUE: HAL_PCD_EP_Receive:len <- $r3
	.save	{r4, lr}
	push	{r4, lr}
	.cfi_def_cfa_offset 8
	.cfi_offset lr, -4
	.cfi_offset r4, -8
.Ltmp425:
	.loc	4 1439 30 prologue_end          @ ../src/driver/stm32g4-v120/src/stm32g4xx_hal_pcd.c:1439:30
	and	r12, r1, #7
	.loc	4 1439 9 is_stmt 0              @ ../src/driver/stm32g4-v120/src/stm32g4xx_hal_pcd.c:1439:9
	add.w	r1, r12, r12, lsl #2
.Ltmp426:
	@DEBUG_VALUE: HAL_PCD_EP_Receive:ep_addr <- [DW_OP_LLVM_entry_value 1] $r1
	add.w	lr, r0, r1, lsl #3
.Ltmp427:
	.loc	4 0 0                           @ ../src/driver/stm32g4-v120/src/stm32g4xx_hal_pcd.c:0:0
	ldr	r0, [r0]
.Ltmp428:
	@DEBUG_VALUE: HAL_PCD_EP_Receive:hpcd <- [DW_OP_LLVM_entry_value 1] $r0
	.loc	4 1439 9                        @ ../src/driver/stm32g4-v120/src/stm32g4xx_hal_pcd.c:1439:9
	add.w	r1, lr, #360
.Ltmp429:
	@DEBUG_VALUE: HAL_PCD_EP_Receive:ep <- $r1
	.loc	4 0 9                           @ ../src/driver/stm32g4-v120/src/stm32g4xx_hal_pcd.c:0:9
	movs	r4, #0
	.loc	4 1442 17 is_stmt 1             @ ../src/driver/stm32g4-v120/src/stm32g4xx_hal_pcd.c:1442:17
	str.w	r2, [lr, #380]
	.loc	4 1443 16                       @ ../src/driver/stm32g4-v120/src/stm32g4xx_hal_pcd.c:1443:16
	str.w	r3, [lr, #384]
	.loc	4 1444 18                       @ ../src/driver/stm32g4-v120/src/stm32g4xx_hal_pcd.c:1444:18
	str.w	r4, [lr, #388]
	.loc	4 1445 13                       @ ../src/driver/stm32g4-v120/src/stm32g4xx_hal_pcd.c:1445:13
	strb.w	r4, [lr, #361]
	.loc	4 1446 11                       @ ../src/driver/stm32g4-v120/src/stm32g4xx_hal_pcd.c:1446:11
	strb.w	r12, [lr, #360]
.Ltmp430:
	.loc	4 0 0 is_stmt 0                 @ ../src/driver/stm32g4-v120/src/stm32g4xx_hal_pcd.c:0:0
	bl	USB_EPStartXfer
.Ltmp431:
	@DEBUG_VALUE: HAL_PCD_EP_Receive:len <- [DW_OP_LLVM_entry_value 1] $r3
	@DEBUG_VALUE: HAL_PCD_EP_Receive:pBuf <- [DW_OP_LLVM_entry_value 1] $r2
	.loc	4 1457 3 is_stmt 1              @ ../src/driver/stm32g4-v120/src/stm32g4xx_hal_pcd.c:1457:3
	movs	r0, #0
	pop	{r4, pc}
.Ltmp432:
.Lfunc_end23:
	.size	HAL_PCD_EP_Receive, .Lfunc_end23-HAL_PCD_EP_Receive
	.cfi_endproc
	.cantunwind
	.fnend
                                        @ -- End function
	.section	.text.HAL_PCD_EP_GetRxCount,"ax",%progbits
	.hidden	HAL_PCD_EP_GetRxCount           @ -- Begin function HAL_PCD_EP_GetRxCount
	.globl	HAL_PCD_EP_GetRxCount
	.p2align	1
	.type	HAL_PCD_EP_GetRxCount,%function
	.code	16                              @ @HAL_PCD_EP_GetRxCount
	.thumb_func
HAL_PCD_EP_GetRxCount:
.Lfunc_begin24:
	.loc	4 1467 0                        @ ../src/driver/stm32g4-v120/src/stm32g4xx_hal_pcd.c:1467:0
	.fnstart
	.cfi_startproc
@ %bb.0:
	@DEBUG_VALUE: HAL_PCD_EP_GetRxCount:hpcd <- $r0
	@DEBUG_VALUE: HAL_PCD_EP_GetRxCount:hpcd <- $r0
	@DEBUG_VALUE: HAL_PCD_EP_GetRxCount:ep_addr <- $r1
	@DEBUG_VALUE: HAL_PCD_EP_GetRxCount:ep_addr <- $r1
	.loc	4 1468 31 prologue_end          @ ../src/driver/stm32g4-v120/src/stm32g4xx_hal_pcd.c:1468:31
	and	r1, r1, #7
.Ltmp433:
	@DEBUG_VALUE: HAL_PCD_EP_GetRxCount:ep_addr <- [DW_OP_LLVM_entry_value 1] $r1
	.loc	4 1468 46 is_stmt 0             @ ../src/driver/stm32g4-v120/src/stm32g4xx_hal_pcd.c:1468:46
	add.w	r1, r1, r1, lsl #2
	add.w	r0, r0, r1, lsl #3
.Ltmp434:
	@DEBUG_VALUE: HAL_PCD_EP_GetRxCount:hpcd <- [DW_OP_LLVM_entry_value 1] $r0
	ldr.w	r0, [r0, #388]
	.loc	4 1468 3                        @ ../src/driver/stm32g4-v120/src/stm32g4xx_hal_pcd.c:1468:3
	bx	lr
.Ltmp435:
.Lfunc_end24:
	.size	HAL_PCD_EP_GetRxCount, .Lfunc_end24-HAL_PCD_EP_GetRxCount
	.cfi_endproc
	.cantunwind
	.fnend
                                        @ -- End function
	.section	.text.HAL_PCD_EP_Transmit,"ax",%progbits
	.hidden	HAL_PCD_EP_Transmit             @ -- Begin function HAL_PCD_EP_Transmit
	.globl	HAL_PCD_EP_Transmit
	.p2align	1
	.type	HAL_PCD_EP_Transmit,%function
	.code	16                              @ @HAL_PCD_EP_Transmit
	.thumb_func
HAL_PCD_EP_Transmit:
.Lfunc_begin25:
	.loc	4 1479 0 is_stmt 1              @ ../src/driver/stm32g4-v120/src/stm32g4xx_hal_pcd.c:1479:0
	.fnstart
	.cfi_startproc
@ %bb.0:
	@DEBUG_VALUE: HAL_PCD_EP_Transmit:hpcd <- $r0
	@DEBUG_VALUE: HAL_PCD_EP_Transmit:hpcd <- $r0
	@DEBUG_VALUE: HAL_PCD_EP_Transmit:ep_addr <- $r1
	@DEBUG_VALUE: HAL_PCD_EP_Transmit:ep_addr <- $r1
	@DEBUG_VALUE: HAL_PCD_EP_Transmit:pBuf <- $r2
	@DEBUG_VALUE: HAL_PCD_EP_Transmit:pBuf <- $r2
	@DEBUG_VALUE: HAL_PCD_EP_Transmit:len <- $r3
	@DEBUG_VALUE: HAL_PCD_EP_Transmit:len <- $r3
	.save	{r7, lr}
	push	{r7, lr}
	.cfi_def_cfa_offset 8
	.cfi_offset lr, -4
	.cfi_offset r7, -8
.Ltmp436:
	.loc	4 1482 29 prologue_end          @ ../src/driver/stm32g4-v120/src/stm32g4xx_hal_pcd.c:1482:29
	and	r12, r1, #7
	.loc	4 1482 9 is_stmt 0              @ ../src/driver/stm32g4-v120/src/stm32g4xx_hal_pcd.c:1482:9
	add.w	r1, r12, r12, lsl #2
.Ltmp437:
	@DEBUG_VALUE: HAL_PCD_EP_Transmit:ep_addr <- [DW_OP_LLVM_entry_value 1] $r1
	add.w	r1, r0, r1, lsl #3
	.loc	4 1491 11 is_stmt 1             @ ../src/driver/stm32g4-v120/src/stm32g4xx_hal_pcd.c:1491:11
	strb	r12, [r1, #40]!
.Ltmp438:
	@DEBUG_VALUE: HAL_PCD_EP_Transmit:ep <- $r1
	.loc	4 0 0 is_stmt 0                 @ ../src/driver/stm32g4-v120/src/stm32g4xx_hal_pcd.c:0:0
	ldr	r0, [r0]
.Ltmp439:
	@DEBUG_VALUE: HAL_PCD_EP_Transmit:hpcd <- [DW_OP_LLVM_entry_value 1] $r0
	mov.w	r12, #1
.Ltmp440:
	.loc	4 1485 17 is_stmt 1             @ ../src/driver/stm32g4-v120/src/stm32g4xx_hal_pcd.c:1485:17
	add.w	r7, r1, #20
	.loc	4 1487 20                       @ ../src/driver/stm32g4-v120/src/stm32g4xx_hal_pcd.c:1487:20
	strb.w	r12, [r1, #36]
	mov.w	lr, #0
	.loc	4 1485 17                       @ ../src/driver/stm32g4-v120/src/stm32g4xx_hal_pcd.c:1485:17
	stm.w	r7, {r2, r3, lr}
	.loc	4 1488 19                       @ ../src/driver/stm32g4-v120/src/stm32g4xx_hal_pcd.c:1488:19
	str	r3, [r1, #32]
	.loc	4 1490 13                       @ ../src/driver/stm32g4-v120/src/stm32g4xx_hal_pcd.c:1490:13
	strb.w	r12, [r1, #1]
.Ltmp441:
	.loc	4 0 0 is_stmt 0                 @ ../src/driver/stm32g4-v120/src/stm32g4xx_hal_pcd.c:0:0
	bl	USB_EPStartXfer
.Ltmp442:
	@DEBUG_VALUE: HAL_PCD_EP_Transmit:len <- [DW_OP_LLVM_entry_value 1] $r3
	@DEBUG_VALUE: HAL_PCD_EP_Transmit:pBuf <- [DW_OP_LLVM_entry_value 1] $r2
	.loc	4 1502 3 is_stmt 1              @ ../src/driver/stm32g4-v120/src/stm32g4xx_hal_pcd.c:1502:3
	movs	r0, #0
	pop	{r7, pc}
.Ltmp443:
.Lfunc_end25:
	.size	HAL_PCD_EP_Transmit, .Lfunc_end25-HAL_PCD_EP_Transmit
	.cfi_endproc
	.cantunwind
	.fnend
                                        @ -- End function
	.section	.text.HAL_PCD_EP_SetStall,"ax",%progbits
	.hidden	HAL_PCD_EP_SetStall             @ -- Begin function HAL_PCD_EP_SetStall
	.globl	HAL_PCD_EP_SetStall
	.p2align	1
	.type	HAL_PCD_EP_SetStall,%function
	.code	16                              @ @HAL_PCD_EP_SetStall
	.thumb_func
HAL_PCD_EP_SetStall:
.Lfunc_begin26:
	.loc	4 1512 0                        @ ../src/driver/stm32g4-v120/src/stm32g4xx_hal_pcd.c:1512:0
	.fnstart
	.cfi_startproc
@ %bb.0:
	@DEBUG_VALUE: HAL_PCD_EP_SetStall:hpcd <- $r0
	@DEBUG_VALUE: HAL_PCD_EP_SetStall:ep_addr <- $r1
	.save	{r4, r5, r7, lr}
	push	{r4, r5, r7, lr}
	.cfi_def_cfa_offset 16
	.cfi_offset lr, -4
	.cfi_offset r7, -8
	.cfi_offset r5, -12
	.cfi_offset r4, -16
	mov	r4, r0
	@DEBUG_VALUE: HAL_PCD_EP_SetStall:ep_addr <- $r1
.Ltmp444:
	@DEBUG_VALUE: HAL_PCD_EP_SetStall:hpcd <- $r4
	.loc	4 1515 54 prologue_end          @ ../src/driver/stm32g4-v120/src/stm32g4xx_hal_pcd.c:1515:54
	ldr	r0, [r0, #4]
	.loc	4 1515 26 is_stmt 0             @ ../src/driver/stm32g4-v120/src/stm32g4xx_hal_pcd.c:1515:26
	and	r5, r1, #7
.Ltmp445:
	.loc	4 1515 7                        @ ../src/driver/stm32g4-v120/src/stm32g4xx_hal_pcd.c:1515:7
	cmp	r5, r0
	itt	hi
	movhi	r0, #1
	.loc	4 1544 1 is_stmt 1              @ ../src/driver/stm32g4-v120/src/stm32g4xx_hal_pcd.c:1544:1
	pophi	{r4, r5, r7, pc}
.Ltmp446:
.LBB26_1:
	@DEBUG_VALUE: HAL_PCD_EP_SetStall:ep_addr <- $r1
	.loc	4 1520 7                        @ ../src/driver/stm32g4-v120/src/stm32g4xx_hal_pcd.c:1520:7
	lsls	r0, r1, #24
	bmi	.LBB26_3
.Ltmp447:
@ %bb.2:
	@DEBUG_VALUE: HAL_PCD_EP_SetStall:ep_addr <- $r1
	.loc	4 1527 11                       @ ../src/driver/stm32g4-v120/src/stm32g4xx_hal_pcd.c:1527:11
	add.w	r0, r1, r1, lsl #2
	add.w	r0, r4, r0, lsl #3
	add.w	r1, r0, #360
.Ltmp448:
	@DEBUG_VALUE: HAL_PCD_EP_SetStall:ep_addr <- [DW_OP_LLVM_entry_value 1] $r1
	@DEBUG_VALUE: HAL_PCD_EP_SetStall:ep <- $r1
	.loc	4 0 11 is_stmt 0                @ ../src/driver/stm32g4-v120/src/stm32g4xx_hal_pcd.c:0:11
	movs	r2, #0
	.loc	4 1528 15 is_stmt 1             @ ../src/driver/stm32g4-v120/src/stm32g4xx_hal_pcd.c:1528:15
	strb.w	r2, [r0, #361]
	b	.LBB26_4
.Ltmp449:
.LBB26_3:
	@DEBUG_VALUE: HAL_PCD_EP_SetStall:ep_addr <- $r1
	.loc	4 1522 11                       @ ../src/driver/stm32g4-v120/src/stm32g4xx_hal_pcd.c:1522:11
	add.w	r0, r5, r5, lsl #2
	add.w	r0, r4, r0, lsl #3
	movs	r2, #1
	add.w	r1, r0, #40
.Ltmp450:
	@DEBUG_VALUE: HAL_PCD_EP_SetStall:ep_addr <- [DW_OP_LLVM_entry_value 1] $r1
	@DEBUG_VALUE: HAL_PCD_EP_SetStall:ep <- $r1
	.loc	4 1523 15                       @ ../src/driver/stm32g4-v120/src/stm32g4xx_hal_pcd.c:1523:15
	strb.w	r2, [r0, #41]
.Ltmp451:
.LBB26_4:
	@DEBUG_VALUE: HAL_PCD_EP_SetStall:ep <- $r1
	@DEBUG_VALUE: HAL_PCD_EP_SetStall:ep_addr <- [DW_OP_LLVM_entry_value 1] $r1
	@DEBUG_VALUE: HAL_PCD_EP_SetStall:ep <- $r1
	.loc	4 1534 3                        @ ../src/driver/stm32g4-v120/src/stm32g4xx_hal_pcd.c:1534:3
	ldrb.w	r0, [r4, #680]
	movs	r2, #1
.Ltmp452:
	.loc	4 1534 3 is_stmt 0              @ ../src/driver/stm32g4-v120/src/stm32g4xx_hal_pcd.c:1534:3
	cmp	r0, #1
.Ltmp453:
	.loc	4 1531 16 is_stmt 1             @ ../src/driver/stm32g4-v120/src/stm32g4xx_hal_pcd.c:1531:16
	strb	r2, [r1, #2]
	.loc	4 1532 11                       @ ../src/driver/stm32g4-v120/src/stm32g4xx_hal_pcd.c:1532:11
	strb	r5, [r1]
	itt	eq
	moveq	r0, #2
	.loc	4 1544 1                        @ ../src/driver/stm32g4-v120/src/stm32g4xx_hal_pcd.c:1544:1
	popeq	{r4, r5, r7, pc}
.Ltmp454:
.LBB26_5:
	@DEBUG_VALUE: HAL_PCD_EP_SetStall:ep <- $r1
	@DEBUG_VALUE: HAL_PCD_EP_SetStall:ep_addr <- [DW_OP_LLVM_entry_value 1] $r1
	.loc	4 1536 30                       @ ../src/driver/stm32g4-v120/src/stm32g4xx_hal_pcd.c:1536:30
	ldr	r0, [r4]
.Ltmp455:
	.loc	4 1534 3                        @ ../src/driver/stm32g4-v120/src/stm32g4xx_hal_pcd.c:1534:3
	strb.w	r2, [r4, #680]
.Ltmp456:
	.loc	4 1536 9                        @ ../src/driver/stm32g4-v120/src/stm32g4xx_hal_pcd.c:1536:9
	bl	USB_EPSetStall
.Ltmp457:
	.loc	4 1537 7                        @ ../src/driver/stm32g4-v120/src/stm32g4xx_hal_pcd.c:1537:7
	cbnz	r5, .LBB26_7
.Ltmp458:
@ %bb.6:
	@DEBUG_VALUE: HAL_PCD_EP_SetStall:ep_addr <- [DW_OP_LLVM_entry_value 1] $r1
	.loc	4 1539 34                       @ ../src/driver/stm32g4-v120/src/stm32g4xx_hal_pcd.c:1539:34
	ldr	r0, [r4]
	.loc	4 1539 55 is_stmt 0             @ ../src/driver/stm32g4-v120/src/stm32g4xx_hal_pcd.c:1539:55
	add.w	r1, r4, #688
	.loc	4 1539 11                       @ ../src/driver/stm32g4-v120/src/stm32g4xx_hal_pcd.c:1539:11
	bl	USB_EP0_OutStart
.Ltmp459:
.LBB26_7:
	@DEBUG_VALUE: HAL_PCD_EP_SetStall:ep_addr <- [DW_OP_LLVM_entry_value 1] $r1
	.loc	4 0 11                          @ ../src/driver/stm32g4-v120/src/stm32g4xx_hal_pcd.c:0:11
	movs	r0, #0
.Ltmp460:
	.loc	4 1541 3 is_stmt 1              @ ../src/driver/stm32g4-v120/src/stm32g4xx_hal_pcd.c:1541:3
	strb.w	r0, [r4, #680]
.Ltmp461:
	.loc	4 1544 1                        @ ../src/driver/stm32g4-v120/src/stm32g4xx_hal_pcd.c:1544:1
	pop	{r4, r5, r7, pc}
.Ltmp462:
.Lfunc_end26:
	.size	HAL_PCD_EP_SetStall, .Lfunc_end26-HAL_PCD_EP_SetStall
	.cfi_endproc
	.cantunwind
	.fnend
                                        @ -- End function
	.section	.text.HAL_PCD_EP_ClrStall,"ax",%progbits
	.hidden	HAL_PCD_EP_ClrStall             @ -- Begin function HAL_PCD_EP_ClrStall
	.globl	HAL_PCD_EP_ClrStall
	.p2align	1
	.type	HAL_PCD_EP_ClrStall,%function
	.code	16                              @ @HAL_PCD_EP_ClrStall
	.thumb_func
HAL_PCD_EP_ClrStall:
.Lfunc_begin27:
	.loc	4 1553 0                        @ ../src/driver/stm32g4-v120/src/stm32g4xx_hal_pcd.c:1553:0
	.fnstart
	.cfi_startproc
@ %bb.0:
	@DEBUG_VALUE: HAL_PCD_EP_ClrStall:hpcd <- $r0
	@DEBUG_VALUE: HAL_PCD_EP_ClrStall:ep_addr <- $r1
	.save	{r4, r5, r7, lr}
	push	{r4, r5, r7, lr}
	.cfi_def_cfa_offset 16
	.cfi_offset lr, -4
	.cfi_offset r7, -8
	.cfi_offset r5, -12
	.cfi_offset r4, -16
	mov	r4, r0
	@DEBUG_VALUE: HAL_PCD_EP_ClrStall:ep_addr <- $r1
.Ltmp463:
	@DEBUG_VALUE: HAL_PCD_EP_ClrStall:hpcd <- $r4
	.loc	4 1556 48 prologue_end          @ ../src/driver/stm32g4-v120/src/stm32g4xx_hal_pcd.c:1556:48
	ldr	r0, [r0, #4]
	.loc	4 1556 26 is_stmt 0             @ ../src/driver/stm32g4-v120/src/stm32g4xx_hal_pcd.c:1556:26
	and	r2, r1, #15
.Ltmp464:
	.loc	4 1556 7                        @ ../src/driver/stm32g4-v120/src/stm32g4xx_hal_pcd.c:1556:7
	cmp	r2, r0
	bls	.LBB27_2
.Ltmp465:
@ %bb.1:
	@DEBUG_VALUE: HAL_PCD_EP_ClrStall:hpcd <- $r4
	@DEBUG_VALUE: HAL_PCD_EP_ClrStall:ep_addr <- $r1
	.loc	4 0 7                           @ ../src/driver/stm32g4-v120/src/stm32g4xx_hal_pcd.c:0:7
	movs	r5, #1
	b	.LBB27_8
.Ltmp466:
.LBB27_2:
	@DEBUG_VALUE: HAL_PCD_EP_ClrStall:hpcd <- $r4
	@DEBUG_VALUE: HAL_PCD_EP_ClrStall:ep_addr <- $r1
	.loc	4 1561 7 is_stmt 1              @ ../src/driver/stm32g4-v120/src/stm32g4xx_hal_pcd.c:1561:7
	lsls	r0, r1, #24
.Ltmp467:
	.loc	4 0 0 is_stmt 0                 @ ../src/driver/stm32g4-v120/src/stm32g4xx_hal_pcd.c:0:0
	and	r0, r1, #7
.Ltmp468:
	.loc	4 1568 11 is_stmt 1             @ ../src/driver/stm32g4-v120/src/stm32g4xx_hal_pcd.c:1568:11
	add.w	r1, r0, r0, lsl #2
.Ltmp469:
	@DEBUG_VALUE: HAL_PCD_EP_ClrStall:ep_addr <- [DW_OP_LLVM_entry_value 1] $r1
	add.w	r2, r4, r1, lsl #3
.Ltmp470:
	.loc	4 1561 7                        @ ../src/driver/stm32g4-v120/src/stm32g4xx_hal_pcd.c:1561:7
	bmi	.LBB27_4
.Ltmp471:
@ %bb.3:
	@DEBUG_VALUE: HAL_PCD_EP_ClrStall:hpcd <- $r4
	@DEBUG_VALUE: HAL_PCD_EP_ClrStall:ep_addr <- [DW_OP_LLVM_entry_value 1] $r1
	.loc	4 1568 11                       @ ../src/driver/stm32g4-v120/src/stm32g4xx_hal_pcd.c:1568:11
	add.w	r1, r2, #360
.Ltmp472:
	@DEBUG_VALUE: HAL_PCD_EP_ClrStall:ep <- $r1
	.loc	4 0 11 is_stmt 0                @ ../src/driver/stm32g4-v120/src/stm32g4xx_hal_pcd.c:0:11
	movs	r3, #0
	.loc	4 1569 15 is_stmt 1             @ ../src/driver/stm32g4-v120/src/stm32g4xx_hal_pcd.c:1569:15
	strb.w	r3, [r2, #361]
	b	.LBB27_5
.Ltmp473:
.LBB27_4:
	@DEBUG_VALUE: HAL_PCD_EP_ClrStall:hpcd <- $r4
	@DEBUG_VALUE: HAL_PCD_EP_ClrStall:ep_addr <- [DW_OP_LLVM_entry_value 1] $r1
	.loc	4 0 15 is_stmt 0                @ ../src/driver/stm32g4-v120/src/stm32g4xx_hal_pcd.c:0:15
	movs	r3, #1
.Ltmp474:
	.loc	4 1563 11 is_stmt 1             @ ../src/driver/stm32g4-v120/src/stm32g4xx_hal_pcd.c:1563:11
	add.w	r1, r2, #40
.Ltmp475:
	@DEBUG_VALUE: HAL_PCD_EP_ClrStall:ep <- $r1
	.loc	4 1564 15                       @ ../src/driver/stm32g4-v120/src/stm32g4xx_hal_pcd.c:1564:15
	strb.w	r3, [r2, #41]
.Ltmp476:
.LBB27_5:
	@DEBUG_VALUE: HAL_PCD_EP_ClrStall:hpcd <- $r4
	@DEBUG_VALUE: HAL_PCD_EP_ClrStall:ep <- $r1
	@DEBUG_VALUE: HAL_PCD_EP_ClrStall:ep_addr <- [DW_OP_LLVM_entry_value 1] $r1
	@DEBUG_VALUE: HAL_PCD_EP_ClrStall:ep <- $r1
	.loc	4 1575 3                        @ ../src/driver/stm32g4-v120/src/stm32g4xx_hal_pcd.c:1575:3
	ldrb.w	r2, [r4, #680]
	movs	r5, #0
.Ltmp477:
	.loc	4 1575 3 is_stmt 0              @ ../src/driver/stm32g4-v120/src/stm32g4xx_hal_pcd.c:1575:3
	cmp	r2, #1
.Ltmp478:
	.loc	4 1572 16 is_stmt 1             @ ../src/driver/stm32g4-v120/src/stm32g4xx_hal_pcd.c:1572:16
	strb	r5, [r1, #2]
	.loc	4 1573 11                       @ ../src/driver/stm32g4-v120/src/stm32g4xx_hal_pcd.c:1573:11
	strb	r0, [r1]
.Ltmp479:
	.loc	4 1575 3                        @ ../src/driver/stm32g4-v120/src/stm32g4xx_hal_pcd.c:1575:3
	bne	.LBB27_7
.Ltmp480:
@ %bb.6:
	@DEBUG_VALUE: HAL_PCD_EP_ClrStall:hpcd <- $r4
	@DEBUG_VALUE: HAL_PCD_EP_ClrStall:ep <- $r1
	@DEBUG_VALUE: HAL_PCD_EP_ClrStall:ep_addr <- [DW_OP_LLVM_entry_value 1] $r1
	.loc	4 0 3 is_stmt 0                 @ ../src/driver/stm32g4-v120/src/stm32g4xx_hal_pcd.c:0:3
	movs	r5, #2
	b	.LBB27_8
.Ltmp481:
.LBB27_7:
	@DEBUG_VALUE: HAL_PCD_EP_ClrStall:hpcd <- $r4
	@DEBUG_VALUE: HAL_PCD_EP_ClrStall:ep <- $r1
	@DEBUG_VALUE: HAL_PCD_EP_ClrStall:ep_addr <- [DW_OP_LLVM_entry_value 1] $r1
	.loc	4 1576 32 is_stmt 1             @ ../src/driver/stm32g4-v120/src/stm32g4xx_hal_pcd.c:1576:32
	ldr	r0, [r4]
	movs	r2, #1
.Ltmp482:
	.loc	4 1575 3                        @ ../src/driver/stm32g4-v120/src/stm32g4xx_hal_pcd.c:1575:3
	strb.w	r2, [r4, #680]
.Ltmp483:
	.loc	4 1576 9                        @ ../src/driver/stm32g4-v120/src/stm32g4xx_hal_pcd.c:1576:9
	bl	USB_EPClearStall
.Ltmp484:
	.loc	4 1577 3                        @ ../src/driver/stm32g4-v120/src/stm32g4xx_hal_pcd.c:1577:3
	strb.w	r5, [r4, #680]
.Ltmp485:
.LBB27_8:
	@DEBUG_VALUE: HAL_PCD_EP_ClrStall:hpcd <- $r4
	.loc	4 1580 1                        @ ../src/driver/stm32g4-v120/src/stm32g4xx_hal_pcd.c:1580:1
	mov	r0, r5
	pop	{r4, r5, r7, pc}
.Ltmp486:
.Lfunc_end27:
	.size	HAL_PCD_EP_ClrStall, .Lfunc_end27-HAL_PCD_EP_ClrStall
	.cfi_endproc
	.cantunwind
	.fnend
                                        @ -- End function
	.section	.text.HAL_PCD_EP_Flush,"ax",%progbits
	.hidden	HAL_PCD_EP_Flush                @ -- Begin function HAL_PCD_EP_Flush
	.globl	HAL_PCD_EP_Flush
	.p2align	1
	.type	HAL_PCD_EP_Flush,%function
	.code	16                              @ @HAL_PCD_EP_Flush
	.thumb_func
HAL_PCD_EP_Flush:
.Lfunc_begin28:
	.loc	4 1589 0                        @ ../src/driver/stm32g4-v120/src/stm32g4xx_hal_pcd.c:1589:0
	.fnstart
	.cfi_startproc
@ %bb.0:
	@DEBUG_VALUE: HAL_PCD_EP_Flush:hpcd <- $r0
	@DEBUG_VALUE: HAL_PCD_EP_Flush:ep_addr <- $r1
	.loc	4 1594 3 prologue_end           @ ../src/driver/stm32g4-v120/src/stm32g4xx_hal_pcd.c:1594:3
	movs	r0, #0
.Ltmp487:
	@DEBUG_VALUE: HAL_PCD_EP_Flush:hpcd <- [DW_OP_LLVM_entry_value 1] $r0
	bx	lr
.Ltmp488:
.Lfunc_end28:
	.size	HAL_PCD_EP_Flush, .Lfunc_end28-HAL_PCD_EP_Flush
	.cfi_endproc
	.cantunwind
	.fnend
                                        @ -- End function
	.section	.text.HAL_PCD_ActivateRemoteWakeup,"ax",%progbits
	.hidden	HAL_PCD_ActivateRemoteWakeup    @ -- Begin function HAL_PCD_ActivateRemoteWakeup
	.globl	HAL_PCD_ActivateRemoteWakeup
	.p2align	1
	.type	HAL_PCD_ActivateRemoteWakeup,%function
	.code	16                              @ @HAL_PCD_ActivateRemoteWakeup
	.thumb_func
HAL_PCD_ActivateRemoteWakeup:
.Lfunc_begin29:
	.loc	4 1603 0                        @ ../src/driver/stm32g4-v120/src/stm32g4xx_hal_pcd.c:1603:0
	.fnstart
	.cfi_startproc
@ %bb.0:
	@DEBUG_VALUE: HAL_PCD_ActivateRemoteWakeup:hpcd <- $r0
	@DEBUG_VALUE: HAL_PCD_ActivateRemoteWakeup:hpcd <- $r0
	.loc	4 1604 42 prologue_end          @ ../src/driver/stm32g4-v120/src/stm32g4xx_hal_pcd.c:1604:42
	ldr	r0, [r0]
.Ltmp489:
	@DEBUG_VALUE: HAL_PCD_ActivateRemoteWakeup:hpcd <- [DW_OP_LLVM_entry_value 1] $r0
	.loc	4 1604 11 is_stmt 0             @ ../src/driver/stm32g4-v120/src/stm32g4xx_hal_pcd.c:1604:11
	b	USB_ActivateRemoteWakeup
.Ltmp490:
.Lfunc_end29:
	.size	HAL_PCD_ActivateRemoteWakeup, .Lfunc_end29-HAL_PCD_ActivateRemoteWakeup
	.cfi_endproc
	.cantunwind
	.fnend
                                        @ -- End function
	.section	.text.HAL_PCD_DeActivateRemoteWakeup,"ax",%progbits
	.hidden	HAL_PCD_DeActivateRemoteWakeup  @ -- Begin function HAL_PCD_DeActivateRemoteWakeup
	.globl	HAL_PCD_DeActivateRemoteWakeup
	.p2align	1
	.type	HAL_PCD_DeActivateRemoteWakeup,%function
	.code	16                              @ @HAL_PCD_DeActivateRemoteWakeup
	.thumb_func
HAL_PCD_DeActivateRemoteWakeup:
.Lfunc_begin30:
	.loc	4 1613 0 is_stmt 1              @ ../src/driver/stm32g4-v120/src/stm32g4xx_hal_pcd.c:1613:0
	.fnstart
	.cfi_startproc
@ %bb.0:
	@DEBUG_VALUE: HAL_PCD_DeActivateRemoteWakeup:hpcd <- $r0
	@DEBUG_VALUE: HAL_PCD_DeActivateRemoteWakeup:hpcd <- $r0
	.loc	4 1614 44 prologue_end          @ ../src/driver/stm32g4-v120/src/stm32g4xx_hal_pcd.c:1614:44
	ldr	r0, [r0]
.Ltmp491:
	@DEBUG_VALUE: HAL_PCD_DeActivateRemoteWakeup:hpcd <- [DW_OP_LLVM_entry_value 1] $r0
	.loc	4 1614 11 is_stmt 0             @ ../src/driver/stm32g4-v120/src/stm32g4xx_hal_pcd.c:1614:11
	b	USB_DeActivateRemoteWakeup
.Ltmp492:
.Lfunc_end30:
	.size	HAL_PCD_DeActivateRemoteWakeup, .Lfunc_end30-HAL_PCD_DeActivateRemoteWakeup
	.cfi_endproc
	.cantunwind
	.fnend
                                        @ -- End function
	.section	.text.HAL_PCD_GetState,"ax",%progbits
	.hidden	HAL_PCD_GetState                @ -- Begin function HAL_PCD_GetState
	.globl	HAL_PCD_GetState
	.p2align	1
	.type	HAL_PCD_GetState,%function
	.code	16                              @ @HAL_PCD_GetState
	.thumb_func
HAL_PCD_GetState:
.Lfunc_begin31:
	.loc	4 1642 0 is_stmt 1              @ ../src/driver/stm32g4-v120/src/stm32g4xx_hal_pcd.c:1642:0
	.fnstart
	.cfi_startproc
@ %bb.0:
	@DEBUG_VALUE: HAL_PCD_GetState:hpcd <- $r0
	@DEBUG_VALUE: HAL_PCD_GetState:hpcd <- $r0
	.loc	4 1643 16 prologue_end          @ ../src/driver/stm32g4-v120/src/stm32g4xx_hal_pcd.c:1643:16
	ldrb.w	r0, [r0, #681]
.Ltmp493:
	@DEBUG_VALUE: HAL_PCD_GetState:hpcd <- [DW_OP_LLVM_entry_value 1] $r0
	.loc	4 1643 3 is_stmt 0              @ ../src/driver/stm32g4-v120/src/stm32g4xx_hal_pcd.c:1643:3
	bx	lr
.Ltmp494:
.Lfunc_end31:
	.size	HAL_PCD_GetState, .Lfunc_end31-HAL_PCD_GetState
	.cfi_endproc
	.cantunwind
	.fnend
                                        @ -- End function
	.section	".note.GNU-stack","",%progbits
	.eabi_attribute	30, 3	@ Tag_ABI_optimization_goals
	.ARM_attribute	16, 1	@ Tag_AV_eba