	.text
	.syntax unified
	.eabi_attribute	67, "2.09"	@ Tag_conformance
	.cpu	cortex-m4
	.eabi_attribute	6, 13	@ Tag_CPU_arch
	.eabi_attribute	7, 77	@ Tag_CPU_arch_profile
	.eabi_attribute	8, 0	@ Tag_ARM_ISA_use
	.eabi_attribute	9, 2	@ Tag_THUMB_ISA_use
	.fpu	fpv4-sp-d16
	.eabi_attribute	27, 1	@ Tag_ABI_HardFP_use
	.eabi_attribute	36, 1	@ Tag_FP_HP_extension
	.eabi_attribute	34, 1	@ Tag_CPU_unaligned_access
	.eabi_attribute	17, 1	@ Tag_ABI_PCS_GOT_use
	.eabi_attribute	20, 2	@ Tag_ABI_FP_denormal
	.eabi_attribute	21, 0	@ Tag_ABI_FP_exceptions
	.eabi_attribute	23, 1	@ Tag_ABI_FP_number_model
	.eabi_attribute	24, 1	@ Tag_ABI_align_needed
	.eabi_attribute	25, 1	@ Tag_ABI_align_preserved
	.eabi_attribute	28, 1	@ Tag_ABI_VFP_args
	.eabi_attribute	38, 1	@ Tag_ABI_FP_16bit_format
	.eabi_attribute	18, 2	@ Tag_ABI_PCS_wchar_t
	.eabi_attribute	26, 1	@ Tag_ABI_enum_size
	.eabi_attribute	14, 0	@ Tag_ABI_PCS_R9_use
	.file	"stm32g4xx_hal_crc.c"
	.file	1 "C:\\Users\\grodriguez\\Documents\\iit\\icub-firmware\\emBODY\\eBcode\\arch-arm\\libs\\lowlevel\\stm32hal\\proj" "../src/driver/stm32g4-v120/inc/stm32g4xx_hal_def.h"
	.file	2 "C:\\Users\\grodriguez\\Documents\\iit\\icub-firmware\\emBODY\\eBcode\\arch-arm\\libs\\lowlevel\\stm32hal\\proj" "../api\\../src/driver/stm32g4-v120/inc/stm32g4xx_hal_crc.h"
	.file	3 "C:\\" "Keil_v5\\ARM\\ARMCLANG\\Bin\\..\\include\\stdint.h"
	.section	.text.HAL_CRC_Init,"ax",%progbits
	.hidden	HAL_CRC_Init                    @ -- Begin function HAL_CRC_Init
	.globl	HAL_CRC_Init
	.p2align	1
	.type	HAL_CRC_Init,%function
	.code	16                              @ @HAL_CRC_Init
	.thumb_func
HAL_CRC_Init:
.Lfunc_begin0:
	.file	4 "C:\\Users\\grodriguez\\Documents\\iit\\icub-firmware\\emBODY\\eBcode\\arch-arm\\libs\\lowlevel\\stm32hal\\proj" "../src/driver/stm32g4-v120/src/stm32g4xx_hal_crc.c"
	.loc	4 104 0                         @ ../src/driver/stm32g4-v120/src/stm32g4xx_hal_crc.c:104:0
	.fnstart
	.cfi_sections .debug_frame
	.cfi_startproc
@ %bb.0:
	@DEBUG_VALUE: HAL_CRC_Init:hcrc <- $r0
	@DEBUG_VALUE: HAL_CRC_Init:hcrc <- $r0
	.save	{r4, lr}
	push	{r4, lr}
	.cfi_def_cfa_offset 8
	.cfi_offset lr, -4
	.cfi_offset r4, -8
.Ltmp0:
	.loc	4 106 7 prologue_end            @ ../src/driver/stm32g4-v120/src/stm32g4xx_hal_crc.c:106:7
	cbz	r0, .LBB0_5
.Ltmp1:
@ %bb.1:
	@DEBUG_VALUE: HAL_CRC_Init:hcrc <- $r0
	.loc	4 0 7 is_stmt 0                 @ ../src/driver/stm32g4-v120/src/stm32g4xx_hal_crc.c:0:7
	mov	r4, r0
.Ltmp2:
	@DEBUG_VALUE: HAL_CRC_Init:hcrc <- $r4
	.loc	4 114 13 is_stmt 1              @ ../src/driver/stm32g4-v120/src/stm32g4xx_hal_crc.c:114:13
	ldrb	r0, [r0, #29]
.Ltmp3:
	.loc	4 114 7 is_stmt 0               @ ../src/driver/stm32g4-v120/src/stm32g4xx_hal_crc.c:114:7
	cbnz	r0, .LBB0_3
.Ltmp4:
@ %bb.2:
	@DEBUG_VALUE: HAL_CRC_Init:hcrc <- $r4
	.loc	4 0 7                           @ ../src/driver/stm32g4-v120/src/stm32g4xx_hal_crc.c:0:7
	movs	r0, #0
.Ltmp5:
	.loc	4 117 16 is_stmt 1              @ ../src/driver/stm32g4-v120/src/stm32g4xx_hal_crc.c:117:16
	strb	r0, [r4, #28]
	.loc	4 119 5                         @ ../src/driver/stm32g4-v120/src/stm32g4xx_hal_crc.c:119:5
	mov	r0, r4
	bl	HAL_CRC_MspInit
.Ltmp6:
.LBB0_3:
	@DEBUG_VALUE: HAL_CRC_Init:hcrc <- $r4
	.loc	4 0 5 is_stmt 0                 @ ../src/driver/stm32g4-v120/src/stm32g4xx_hal_crc.c:0:5
	movs	r0, #2
	.loc	4 122 15 is_stmt 1              @ ../src/driver/stm32g4-v120/src/stm32g4xx_hal_crc.c:122:15
	strb	r0, [r4, #29]
.Ltmp7:
	.loc	4 127 18                        @ ../src/driver/stm32g4-v120/src/stm32g4xx_hal_crc.c:127:18
	ldrb	r0, [r4, #4]
.Ltmp8:
	.loc	4 127 7 is_stmt 0               @ ../src/driver/stm32g4-v120/src/stm32g4xx_hal_crc.c:127:7
	cbz	r0, .LBB0_6
.Ltmp9:
@ %bb.4:
	@DEBUG_VALUE: HAL_CRC_Init:hcrc <- $r4
	.loc	4 136 51 is_stmt 1              @ ../src/driver/stm32g4-v120/src/stm32g4xx_hal_crc.c:136:51
	ldrd	r1, r2, [r4, #8]
	.loc	4 136 9 is_stmt 0               @ ../src/driver/stm32g4-v120/src/stm32g4xx_hal_crc.c:136:9
	mov	r0, r4
	bl	HAL_CRCEx_Polynomial_Set
.Ltmp10:
	.loc	4 136 9                         @ ../src/driver/stm32g4-v120/src/stm32g4xx_hal_crc.c:136:9
	cbz	r0, .LBB0_7
.Ltmp11:
.LBB0_5:
	.loc	4 0 9                           @ ../src/driver/stm32g4-v120/src/stm32g4xx_hal_crc.c:0:9
	movs	r0, #1
	.loc	4 172 1 is_stmt 1               @ ../src/driver/stm32g4-v120/src/stm32g4xx_hal_crc.c:172:1
	pop	{r4, pc}
.LBB0_6:
.Ltmp12:
	@DEBUG_VALUE: HAL_CRC_Init:hcrc <- $r4
	.loc	4 130 5                         @ ../src/driver/stm32g4-v120/src/stm32g4xx_hal_crc.c:130:5
	ldr	r0, [r4]
	movw	r1, #7607
	movt	r1, #1217
	str	r1, [r0, #20]
	.loc	4 131 5                         @ ../src/driver/stm32g4-v120/src/stm32g4xx_hal_crc.c:131:5
	ldr	r1, [r0, #8]
	bic	r1, r1, #24
	str	r1, [r0, #8]
.Ltmp13:
.LBB0_7:
	@DEBUG_VALUE: HAL_CRC_Init:hcrc <- $r4
	.loc	4 145 18                        @ ../src/driver/stm32g4-v120/src/stm32g4xx_hal_crc.c:145:18
	ldrb	r0, [r4, #5]
.Ltmp14:
	.loc	4 145 7 is_stmt 0               @ ../src/driver/stm32g4-v120/src/stm32g4xx_hal_crc.c:145:7
	cmp	r0, #0
.Ltmp15:
	.loc	4 151 5 is_stmt 1               @ ../src/driver/stm32g4-v120/src/stm32g4xx_hal_crc.c:151:5
	ite	ne
	ldrne	r0, [r4, #16]
	moveq.w	r0, #-1
.Ltmp16:
	.loc	4 0 0 is_stmt 0                 @ ../src/driver/stm32g4-v120/src/stm32g4xx_hal_crc.c:0:0
	ldr	r1, [r4]
.Ltmp17:
	.loc	4 157 3 is_stmt 1               @ ../src/driver/stm32g4-v120/src/stm32g4xx_hal_crc.c:157:3
	ldrd	r2, r3, [r4, #20]
.Ltmp18:
	.loc	4 0 0 is_stmt 0                 @ ../src/driver/stm32g4-v120/src/stm32g4xx_hal_crc.c:0:0
	str	r0, [r1, #16]
.Ltmp19:
	.loc	4 157 3                         @ ../src/driver/stm32g4-v120/src/stm32g4xx_hal_crc.c:157:3
	ldr	r0, [r1, #8]
	bic	r0, r0, #96
	orrs	r0, r2
	str	r0, [r1, #8]
	.loc	4 161 3 is_stmt 1               @ ../src/driver/stm32g4-v120/src/stm32g4xx_hal_crc.c:161:3
	ldr	r0, [r1, #8]
	bic	r0, r0, #128
	orrs	r0, r3
	str	r0, [r1, #8]
	movs	r0, #1
	.loc	4 168 15                        @ ../src/driver/stm32g4-v120/src/stm32g4xx_hal_crc.c:168:15
	strb	r0, [r4, #29]
	movs	r0, #0
	.loc	4 172 1                         @ ../src/driver/stm32g4-v120/src/stm32g4xx_hal_crc.c:172:1
	pop	{r4, pc}
.Ltmp20:
.Lfunc_end0:
	.size	HAL_CRC_Init, .Lfunc_end0-HAL_CRC_Init
	.cfi_endproc
	.cantunwind
	.fnend
                                        @ -- End function
	.section	.text.HAL_CRC_MspInit,"ax",%progbits
	.hidden	HAL_CRC_MspInit                 @ -- Begin function HAL_CRC_MspInit
	.weak	HAL_CRC_MspInit
	.p2align	1
	.type	HAL_CRC_MspInit,%function
	.code	16                              @ @HAL_CRC_MspInit
	.thumb_func
HAL_CRC_MspInit:
.Lfunc_begin1:
	.loc	4 224 0                         @ ../src/driver/stm32g4-v120/src/stm32g4xx_hal_crc.c:224:0
	.fnstart
	.cfi_startproc
@ %bb.0:
	@DEBUG_VALUE: HAL_CRC_MspInit:hcrc <- $r0
	.loc	4 231 1 prologue_end            @ ../src/driver/stm32g4-v120/src/stm32g4xx_hal_crc.c:231:1
	bx	lr
.Ltmp21:
.Lfunc_end1:
	.size	HAL_CRC_MspInit, .Lfunc_end1-HAL_CRC_MspInit
	.cfi_endproc
	.cantunwind
	.fnend
                                        @ -- End function
	.section	.text.HAL_CRC_DeInit,"ax",%progbits
	.hidden	HAL_CRC_DeInit                  @ -- Begin function HAL_CRC_DeInit
	.globl	HAL_CRC_DeInit
	.p2align	1
	.type	HAL_CRC_DeInit,%function
	.code	16                              @ @HAL_CRC_DeInit
	.thumb_func
HAL_CRC_DeInit:
.Lfunc_begin2:
	.loc	4 180 0                         @ ../src/driver/stm32g4-v120/src/stm32g4xx_hal_crc.c:180:0
	.fnstart
	.cfi_startproc
@ %bb.0:
	@DEBUG_VALUE: HAL_CRC_DeInit:hcrc <- $r0
	@DEBUG_VALUE: HAL_CRC_DeInit:hcrc <- $r0
	.save	{r4, r5, r7, lr}
	push	{r4, r5, r7, lr}
	.cfi_def_cfa_offset 16
	.cfi_offset lr, -4
	.cfi_offset r7, -8
	.cfi_offset r5, -12
	.cfi_offset r4, -16
.Ltmp22:
	.loc	4 182 7 prologue_end            @ ../src/driver/stm32g4-v120/src/stm32g4xx_hal_crc.c:182:7
	cbz	r0, .LBB2_3
.Ltmp23:
@ %bb.1:
	@DEBUG_VALUE: HAL_CRC_DeInit:hcrc <- $r0
	.loc	4 0 7 is_stmt 0                 @ ../src/driver/stm32g4-v120/src/stm32g4xx_hal_crc.c:0:7
	mov	r4, r0
.Ltmp24:
	@DEBUG_VALUE: HAL_CRC_DeInit:hcrc <- $r4
	.loc	4 191 13 is_stmt 1              @ ../src/driver/stm32g4-v120/src/stm32g4xx_hal_crc.c:191:13
	ldrb	r0, [r0, #29]
	movs	r5, #2
.Ltmp25:
	.loc	4 191 7 is_stmt 0               @ ../src/driver/stm32g4-v120/src/stm32g4xx_hal_crc.c:191:7
	cmp	r0, #2
	beq	.LBB2_4
.Ltmp26:
@ %bb.2:
	@DEBUG_VALUE: HAL_CRC_DeInit:hcrc <- $r4
	.loc	4 197 15 is_stmt 1              @ ../src/driver/stm32g4-v120/src/stm32g4xx_hal_crc.c:197:15
	strb	r5, [r4, #29]
	.loc	4 200 3                         @ ../src/driver/stm32g4-v120/src/stm32g4xx_hal_crc.c:200:3
	ldr	r0, [r4]
	movs	r5, #0
	ldr	r1, [r0, #8]
	orr	r1, r1, #1
	str	r1, [r0, #8]
	.loc	4 203 3                         @ ../src/driver/stm32g4-v120/src/stm32g4xx_hal_crc.c:203:3
	ldr	r1, [r0, #4]
	str	r5, [r0, #4]
	.loc	4 206 3                         @ ../src/driver/stm32g4-v120/src/stm32g4xx_hal_crc.c:206:3
	mov	r0, r4
	bl	HAL_CRC_MspDeInit
.Ltmp27:
	.loc	4 209 15                        @ ../src/driver/stm32g4-v120/src/stm32g4xx_hal_crc.c:209:15
	strb	r5, [r4, #29]
.Ltmp28:
	.loc	4 212 3                         @ ../src/driver/stm32g4-v120/src/stm32g4xx_hal_crc.c:212:3
	strb	r5, [r4, #28]
	b	.LBB2_4
.Ltmp29:
.LBB2_3:
	@DEBUG_VALUE: HAL_CRC_DeInit:hcrc <- $r0
	.loc	4 0 3 is_stmt 0                 @ ../src/driver/stm32g4-v120/src/stm32g4xx_hal_crc.c:0:3
	movs	r5, #1
.Ltmp30:
.LBB2_4:
	.loc	4 216 1 is_stmt 1               @ ../src/driver/stm32g4-v120/src/stm32g4xx_hal_crc.c:216:1
	mov	r0, r5
	pop	{r4, r5, r7, pc}
.Ltmp31:
.Lfunc_end2:
	.size	HAL_CRC_DeInit, .Lfunc_end2-HAL_CRC_DeInit
	.cfi_endproc
	.cantunwind
	.fnend
                                        @ -- End function
	.section	.text.HAL_CRC_MspDeInit,"ax",%progbits
	.hidden	HAL_CRC_MspDeInit               @ -- Begin function HAL_CRC_MspDeInit
	.weak	HAL_CRC_MspDeInit
	.p2align	1
	.type	HAL_CRC_MspDeInit,%function
	.code	16                              @ @HAL_CRC_MspDeInit
	.thumb_func
HAL_CRC_MspDeInit:
.Lfunc_begin3:
	.loc	4 239 0                         @ ../src/driver/stm32g4-v120/src/stm32g4xx_hal_crc.c:239:0
	.fnstart
	.cfi_startproc
@ %bb.0:
	@DEBUG_VALUE: HAL_CRC_MspDeInit:hcrc <- $r0
	.loc	4 246 1 prologue_end            @ ../src/driver/stm32g4-v120/src/stm32g4xx_hal_crc.c:246:1
	bx	lr
.Ltmp32:
.Lfunc_end3:
	.size	HAL_CRC_MspDeInit, .Lfunc_end3-HAL_CRC_MspDeInit
	.cfi_endproc
	.cantunwind
	.fnend
                                        @ -- End function
	.section	.text.HAL_CRC_Accumulate,"ax",%progbits
	.hidden	HAL_CRC_Accumulate              @ -- Begin function HAL_CRC_Accumulate
	.globl	HAL_CRC_Accumulate
	.p2align	1
	.type	HAL_CRC_Accumulate,%function
	.code	16                              @ @HAL_CRC_Accumulate
	.thumb_func
HAL_CRC_Accumulate:
.Lfunc_begin4:
	.loc	4 288 0                         @ ../src/driver/stm32g4-v120/src/stm32g4xx_hal_crc.c:288:0
	.fnstart
	.cfi_startproc
@ %bb.0:
	@DEBUG_VALUE: HAL_CRC_Accumulate:hcrc <- $r0
	@DEBUG_VALUE: HAL_CRC_Accumulate:pBuffer <- $r1
	@DEBUG_VALUE: HAL_CRC_Accumulate:BufferLength <- $r2
	.save	{r4, lr}
	push	{r4, lr}
	.cfi_def_cfa_offset 8
	.cfi_offset lr, -4
	.cfi_offset r4, -8
	mov	r4, r0
.Ltmp33:
	@DEBUG_VALUE: HAL_CRC_Accumulate:hcrc <- $r4
	movs	r0, #2
.Ltmp34:
	@DEBUG_VALUE: HAL_CRC_Accumulate:temp <- 0
	@DEBUG_VALUE: HAL_CRC_Accumulate:hcrc <- $r4
	.loc	4 293 15 prologue_end           @ ../src/driver/stm32g4-v120/src/stm32g4xx_hal_crc.c:293:15
	strb	r0, [r4, #29]
	.loc	4 295 17                        @ ../src/driver/stm32g4-v120/src/stm32g4xx_hal_crc.c:295:17
	ldr	r0, [r4, #32]
	@DEBUG_VALUE: HAL_CRC_Accumulate:BufferLength <- $r2
	.loc	4 295 3 is_stmt 0               @ ../src/driver/stm32g4-v120/src/stm32g4xx_hal_crc.c:295:3
	cmp	r0, #1
	@DEBUG_VALUE: HAL_CRC_Accumulate:pBuffer <- $r1
	beq	.LBB4_6
.Ltmp35:
@ %bb.1:
	@DEBUG_VALUE: HAL_CRC_Accumulate:hcrc <- $r4
	@DEBUG_VALUE: HAL_CRC_Accumulate:BufferLength <- $r2
	@DEBUG_VALUE: HAL_CRC_Accumulate:pBuffer <- $r1
	@DEBUG_VALUE: HAL_CRC_Accumulate:temp <- 0
	cmp	r0, #2
	beq	.LBB4_7
.Ltmp36:
@ %bb.2:
	@DEBUG_VALUE: HAL_CRC_Accumulate:hcrc <- $r4
	@DEBUG_VALUE: HAL_CRC_Accumulate:BufferLength <- $r2
	@DEBUG_VALUE: HAL_CRC_Accumulate:pBuffer <- $r1
	@DEBUG_VALUE: HAL_CRC_Accumulate:temp <- 0
	cmp	r0, #3
	bne	.LBB4_8
.Ltmp37:
@ %bb.3:
	@DEBUG_VALUE: HAL_CRC_Accumulate:hcrc <- $r4
	@DEBUG_VALUE: HAL_CRC_Accumulate:BufferLength <- $r2
	@DEBUG_VALUE: HAL_CRC_Accumulate:pBuffer <- $r1
	@DEBUG_VALUE: HAL_CRC_Accumulate:temp <- 0
	@DEBUG_VALUE: HAL_CRC_Accumulate:index <- 0
	.loc	4 0 3                           @ ../src/driver/stm32g4-v120/src/stm32g4xx_hal_crc.c:0:3
	ldr	r0, [r4]
.Ltmp38:
	.loc	4 299 7 is_stmt 1               @ ../src/driver/stm32g4-v120/src/stm32g4xx_hal_crc.c:299:7
	cbz	r2, .LBB4_5
.Ltmp39:
	.p2align	2
.LBB4_4:                                @ =>This Inner Loop Header: Depth=1
	@DEBUG_VALUE: HAL_CRC_Accumulate:hcrc <- $r4
	@DEBUG_VALUE: HAL_CRC_Accumulate:temp <- 0
	@DEBUG_VALUE: HAL_CRC_Accumulate:index <- undef
	.loc	4 301 30                        @ ../src/driver/stm32g4-v120/src/stm32g4xx_hal_crc.c:301:30
	ldr	r3, [r1], #4
.Ltmp40:
	@DEBUG_VALUE: HAL_CRC_Accumulate:pBuffer <- [DW_OP_LLVM_entry_value 1] $r1
	.loc	4 299 30                        @ ../src/driver/stm32g4-v120/src/stm32g4xx_hal_crc.c:299:30
	subs	r2, #1
.Ltmp41:
	@DEBUG_VALUE: HAL_CRC_Accumulate:BufferLength <- [DW_OP_LLVM_entry_value 1] $r2
	.loc	4 301 28                        @ ../src/driver/stm32g4-v120/src/stm32g4xx_hal_crc.c:301:28
	str	r3, [r0]
.Ltmp42:
	@DEBUG_VALUE: HAL_CRC_Accumulate:index <- [DW_OP_plus_uconst 1, DW_OP_stack_value] undef
	.loc	4 299 7                         @ ../src/driver/stm32g4-v120/src/stm32g4xx_hal_crc.c:299:7
	bne	.LBB4_4
.Ltmp43:
.LBB4_5:
	@DEBUG_VALUE: HAL_CRC_Accumulate:hcrc <- $r4
	@DEBUG_VALUE: HAL_CRC_Accumulate:temp <- 0
	.loc	4 303 30                        @ ../src/driver/stm32g4-v120/src/stm32g4xx_hal_crc.c:303:30
	ldr	r0, [r0]
.Ltmp44:
	@DEBUG_VALUE: HAL_CRC_Accumulate:temp <- $r0
	.loc	4 0 30 is_stmt 0                @ ../src/driver/stm32g4-v120/src/stm32g4xx_hal_crc.c:0:30
	b	.LBB4_9
.Ltmp45:
.LBB4_6:
	@DEBUG_VALUE: HAL_CRC_Accumulate:hcrc <- $r4
	@DEBUG_VALUE: HAL_CRC_Accumulate:BufferLength <- $r2
	@DEBUG_VALUE: HAL_CRC_Accumulate:pBuffer <- $r1
	@DEBUG_VALUE: HAL_CRC_Accumulate:temp <- 0
	.loc	4 307 14 is_stmt 1              @ ../src/driver/stm32g4-v120/src/stm32g4xx_hal_crc.c:307:14
	mov	r0, r4
	bl	CRC_Handle_8
.Ltmp46:
	@DEBUG_VALUE: HAL_CRC_Accumulate:BufferLength <- [DW_OP_LLVM_entry_value 1] $r2
	@DEBUG_VALUE: HAL_CRC_Accumulate:pBuffer <- [DW_OP_LLVM_entry_value 1] $r1
	@DEBUG_VALUE: HAL_CRC_Accumulate:temp <- $r0
	.loc	4 0 14 is_stmt 0                @ ../src/driver/stm32g4-v120/src/stm32g4xx_hal_crc.c:0:14
	b	.LBB4_9
.Ltmp47:
.LBB4_7:
	@DEBUG_VALUE: HAL_CRC_Accumulate:hcrc <- $r4
	@DEBUG_VALUE: HAL_CRC_Accumulate:BufferLength <- $r2
	@DEBUG_VALUE: HAL_CRC_Accumulate:pBuffer <- $r1
	@DEBUG_VALUE: HAL_CRC_Accumulate:temp <- 0
	.loc	4 311 14 is_stmt 1              @ ../src/driver/stm32g4-v120/src/stm32g4xx_hal_crc.c:311:14
	mov	r0, r4
	bl	CRC_Handle_16
.Ltmp48:
	@DEBUG_VALUE: HAL_CRC_Accumulate:BufferLength <- [DW_OP_LLVM_entry_value 1] $r2
	@DEBUG_VALUE: HAL_CRC_Accumulate:pBuffer <- [DW_OP_LLVM_entry_value 1] $r1
	@DEBUG_VALUE: HAL_CRC_Accumulate:temp <- $r0
	.loc	4 0 14 is_stmt 0                @ ../src/driver/stm32g4-v120/src/stm32g4xx_hal_crc.c:0:14
	b	.LBB4_9
.Ltmp49:
.LBB4_8:
	@DEBUG_VALUE: HAL_CRC_Accumulate:hcrc <- $r4
	@DEBUG_VALUE: HAL_CRC_Accumulate:BufferLength <- $r2
	@DEBUG_VALUE: HAL_CRC_Accumulate:pBuffer <- $r1
	@DEBUG_VALUE: HAL_CRC_Accumulate:temp <- 0
	movs	r0, #0
.Ltmp50:
.LBB4_9:
	@DEBUG_VALUE: HAL_CRC_Accumulate:hcrc <- $r4
	@DEBUG_VALUE: HAL_CRC_Accumulate:temp <- $r0
	movs	r1, #1
	.loc	4 318 15 is_stmt 1              @ ../src/driver/stm32g4-v120/src/stm32g4xx_hal_crc.c:318:15
	strb	r1, [r4, #29]
	.loc	4 321 3                         @ ../src/driver/stm32g4-v120/src/stm32g4xx_hal_crc.c:321:3
	pop	{r4, pc}
.Ltmp51:
.Lfunc_end4:
	.size	HAL_CRC_Accumulate, .Lfunc_end4-HAL_CRC_Accumulate
	.cfi_endproc
	.cantunwind
	.fnend
                                        @ -- End function
	.section	.text.CRC_Handle_8,"ax",%progbits
	.p2align	1                               @ -- Begin function CRC_Handle_8
	.type	CRC_Handle_8,%function
	.code	16                              @ @CRC_Handle_8
	.thumb_func
CRC_Handle_8:
.Lfunc_begin5:
	.loc	4 433 0                         @ ../src/driver/stm32g4-v120/src/stm32g4xx_hal_crc.c:433:0
	.fnstart
	.cfi_startproc
@ %bb.0:
	@DEBUG_VALUE: CRC_Handle_8:hcrc <- $r0
	@DEBUG_VALUE: CRC_Handle_8:pBuffer <- $r1
	@DEBUG_VALUE: CRC_Handle_8:BufferLength <- $r2
	.save	{r4, lr}
	push	{r4, lr}
	.cfi_def_cfa_offset 8
	.cfi_offset lr, -4
	.cfi_offset r4, -8
	movs	r3, #0
	@DEBUG_VALUE: CRC_Handle_8:BufferLength <- $r2
	@DEBUG_VALUE: CRC_Handle_8:pBuffer <- $r1
.Ltmp52:
	.loc	4 441 3 prologue_end            @ ../src/driver/stm32g4-v120/src/stm32g4xx_hal_crc.c:441:3
	cmp.w	r3, r2, lsr #2
.Ltmp53:
	@DEBUG_VALUE: CRC_Handle_8:i <- 0
	@DEBUG_VALUE: CRC_Handle_8:hcrc <- $r0
	beq	.LBB5_4
.Ltmp54:
@ %bb.1:
	@DEBUG_VALUE: CRC_Handle_8:BufferLength <- $r2
	@DEBUG_VALUE: CRC_Handle_8:pBuffer <- $r1
	@DEBUG_VALUE: CRC_Handle_8:hcrc <- $r0
	@DEBUG_VALUE: CRC_Handle_8:i <- 0
	.loc	4 0 3 is_stmt 0                 @ ../src/driver/stm32g4-v120/src/stm32g4xx_hal_crc.c:0:3
	ldr.w	r12, [r0]
	lsr.w	lr, r2, #2
	.loc	4 441 3                         @ ../src/driver/stm32g4-v120/src/stm32g4xx_hal_crc.c:441:3
	adds	r3, r1, #1
.Ltmp55:
	.p2align	2
.LBB5_2:                                @ =>This Inner Loop Header: Depth=1
	@DEBUG_VALUE: CRC_Handle_8:BufferLength <- $r2
	@DEBUG_VALUE: CRC_Handle_8:pBuffer <- $r1
	@DEBUG_VALUE: CRC_Handle_8:hcrc <- $r0
	@DEBUG_VALUE: CRC_Handle_8:i <- undef
	.loc	4 445 68 is_stmt 1              @ ../src/driver/stm32g4-v120/src/stm32g4xx_hal_crc.c:445:68
	ldr	r4, [r3, #-1]
.Ltmp56:
	.loc	4 441 18                        @ ../src/driver/stm32g4-v120/src/stm32g4xx_hal_crc.c:441:18
	subs.w	lr, lr, #1
.Ltmp57:
	.loc	4 445 68                        @ ../src/driver/stm32g4-v120/src/stm32g4xx_hal_crc.c:445:68
	rev	r4, r4
.Ltmp58:
	.loc	4 441 18                        @ ../src/driver/stm32g4-v120/src/stm32g4xx_hal_crc.c:441:18
	add.w	r3, r3, #4
.Ltmp59:
	.loc	4 443 24                        @ ../src/driver/stm32g4-v120/src/stm32g4xx_hal_crc.c:443:24
	str.w	r4, [r12]
.Ltmp60:
	@DEBUG_VALUE: CRC_Handle_8:i <- [DW_OP_plus_uconst 1, DW_OP_stack_value] undef
	.loc	4 441 3                         @ ../src/driver/stm32g4-v120/src/stm32g4xx_hal_crc.c:441:3
	bne	.LBB5_2
.Ltmp61:
@ %bb.3:
	@DEBUG_VALUE: CRC_Handle_8:BufferLength <- $r2
	@DEBUG_VALUE: CRC_Handle_8:pBuffer <- $r1
	@DEBUG_VALUE: CRC_Handle_8:hcrc <- $r0
	.loc	4 449 21                        @ ../src/driver/stm32g4-v120/src/stm32g4xx_hal_crc.c:449:21
	bic	r3, r2, #3
.Ltmp62:
.LBB5_4:
	@DEBUG_VALUE: CRC_Handle_8:BufferLength <- $r2
	@DEBUG_VALUE: CRC_Handle_8:pBuffer <- $r1
	@DEBUG_VALUE: CRC_Handle_8:hcrc <- $r0
	and	r2, r2, #3
.Ltmp63:
	@DEBUG_VALUE: CRC_Handle_8:BufferLength <- [DW_OP_LLVM_entry_value 1] $r2
	.loc	4 449 7 is_stmt 0               @ ../src/driver/stm32g4-v120/src/stm32g4xx_hal_crc.c:449:7
	cmp	r2, #3
	beq	.LBB5_8
.Ltmp64:
@ %bb.5:
	@DEBUG_VALUE: CRC_Handle_8:pBuffer <- $r1
	@DEBUG_VALUE: CRC_Handle_8:hcrc <- $r0
	@DEBUG_VALUE: CRC_Handle_8:BufferLength <- [DW_OP_LLVM_entry_value 1] $r2
	cmp	r2, #2
	beq	.LBB5_10
.Ltmp65:
@ %bb.6:
	@DEBUG_VALUE: CRC_Handle_8:pBuffer <- $r1
	@DEBUG_VALUE: CRC_Handle_8:hcrc <- $r0
	@DEBUG_VALUE: CRC_Handle_8:BufferLength <- [DW_OP_LLVM_entry_value 1] $r2
	cmp	r2, #1
	bne	.LBB5_11
.Ltmp66:
@ %bb.7:
	@DEBUG_VALUE: CRC_Handle_8:pBuffer <- $r1
	@DEBUG_VALUE: CRC_Handle_8:hcrc <- $r0
	@DEBUG_VALUE: CRC_Handle_8:BufferLength <- [DW_OP_LLVM_entry_value 1] $r2
	.loc	4 453 61 is_stmt 1              @ ../src/driver/stm32g4-v120/src/stm32g4xx_hal_crc.c:453:61
	ldrb	r1, [r1, r3]
.Ltmp67:
	@DEBUG_VALUE: CRC_Handle_8:pBuffer <- [DW_OP_LLVM_entry_value 1] $r1
	.loc	4 453 45 is_stmt 0              @ ../src/driver/stm32g4-v120/src/stm32g4xx_hal_crc.c:453:45
	ldr	r2, [r0]
	b	.LBB5_9
.Ltmp68:
.LBB5_8:
	@DEBUG_VALUE: CRC_Handle_8:pBuffer <- $r1
	@DEBUG_VALUE: CRC_Handle_8:hcrc <- $r0
	@DEBUG_VALUE: CRC_Handle_8:BufferLength <- [DW_OP_LLVM_entry_value 1] $r2
	.loc	4 463 79 is_stmt 1              @ ../src/driver/stm32g4-v120/src/stm32g4xx_hal_crc.c:463:79
	orr	r4, r3, #1
	.loc	4 463 15 is_stmt 0              @ ../src/driver/stm32g4-v120/src/stm32g4xx_hal_crc.c:463:15
	ldrb.w	r12, [r1, r3]
	.loc	4 463 62                        @ ../src/driver/stm32g4-v120/src/stm32g4xx_hal_crc.c:463:62
	ldrb	r4, [r1, r4]
	.loc	4 464 52 is_stmt 1              @ ../src/driver/stm32g4-v120/src/stm32g4xx_hal_crc.c:464:52
	ldr	r2, [r0]
.Ltmp69:
	@DEBUG_VALUE: CRC_Handle_8:pReg <- $r2
	.loc	4 463 50                        @ ../src/driver/stm32g4-v120/src/stm32g4xx_hal_crc.c:463:50
	orr.w	r4, r4, r12, lsl #8
.Ltmp70:
	@DEBUG_VALUE: CRC_Handle_8:data <- $r4
	.loc	4 465 13                        @ ../src/driver/stm32g4-v120/src/stm32g4xx_hal_crc.c:465:13
	strh	r4, [r2]
	.loc	4 467 78                        @ ../src/driver/stm32g4-v120/src/stm32g4xx_hal_crc.c:467:78
	orr	r3, r3, #2
	.loc	4 467 61 is_stmt 0              @ ../src/driver/stm32g4-v120/src/stm32g4xx_hal_crc.c:467:61
	ldrb	r1, [r1, r3]
.Ltmp71:
	@DEBUG_VALUE: CRC_Handle_8:pBuffer <- [DW_OP_LLVM_entry_value 1] $r1
.LBB5_9:
	@DEBUG_VALUE: CRC_Handle_8:hcrc <- $r0
	@DEBUG_VALUE: CRC_Handle_8:pBuffer <- [DW_OP_LLVM_entry_value 1] $r1
	@DEBUG_VALUE: CRC_Handle_8:BufferLength <- [DW_OP_LLVM_entry_value 1] $r2
	.loc	4 0 0                           @ ../src/driver/stm32g4-v120/src/stm32g4xx_hal_crc.c:0:0
	strb	r1, [r2]
	b	.LBB5_11
.Ltmp72:
.LBB5_10:
	@DEBUG_VALUE: CRC_Handle_8:pBuffer <- $r1
	@DEBUG_VALUE: CRC_Handle_8:hcrc <- $r0
	@DEBUG_VALUE: CRC_Handle_8:BufferLength <- [DW_OP_LLVM_entry_value 1] $r2
	.loc	4 457 15 is_stmt 1              @ ../src/driver/stm32g4-v120/src/stm32g4xx_hal_crc.c:457:15
	ldrb	r2, [r1, r3]
	.loc	4 457 79 is_stmt 0              @ ../src/driver/stm32g4-v120/src/stm32g4xx_hal_crc.c:457:79
	orr	r3, r3, #1
	.loc	4 457 62                        @ ../src/driver/stm32g4-v120/src/stm32g4xx_hal_crc.c:457:62
	ldrb	r1, [r1, r3]
.Ltmp73:
	@DEBUG_VALUE: CRC_Handle_8:pBuffer <- [DW_OP_LLVM_entry_value 1] $r1
	.loc	4 458 52 is_stmt 1              @ ../src/driver/stm32g4-v120/src/stm32g4xx_hal_crc.c:458:52
	ldr	r3, [r0]
.Ltmp74:
	@DEBUG_VALUE: CRC_Handle_8:pReg <- $r3
	.loc	4 457 50                        @ ../src/driver/stm32g4-v120/src/stm32g4xx_hal_crc.c:457:50
	orr.w	r1, r1, r2, lsl #8
.Ltmp75:
	@DEBUG_VALUE: CRC_Handle_8:data <- $r1
	.loc	4 459 13                        @ ../src/driver/stm32g4-v120/src/stm32g4xx_hal_crc.c:459:13
	strh	r1, [r3]
.Ltmp76:
.LBB5_11:
	@DEBUG_VALUE: CRC_Handle_8:hcrc <- $r0
	@DEBUG_VALUE: CRC_Handle_8:BufferLength <- [DW_OP_LLVM_entry_value 1] $r2
	.loc	4 472 16                        @ ../src/driver/stm32g4-v120/src/stm32g4xx_hal_crc.c:472:16
	ldr	r0, [r0]
.Ltmp77:
	@DEBUG_VALUE: CRC_Handle_8:hcrc <- [DW_OP_LLVM_entry_value 1] $r0
	.loc	4 472 26 is_stmt 0              @ ../src/driver/stm32g4-v120/src/stm32g4xx_hal_crc.c:472:26
	ldr	r0, [r0]
	.loc	4 472 3                         @ ../src/driver/stm32g4-v120/src/stm32g4xx_hal_crc.c:472:3
	pop	{r4, pc}
.Ltmp78:
.Lfunc_end5:
	.size	CRC_Handle_8, .Lfunc_end5-CRC_Handle_8
	.cfi_endproc
	.cantunwind
	.fnend
                                        @ -- End function
	.section	.text.CRC_Handle_16,"ax",%progbits
	.p2align	1                               @ -- Begin function CRC_Handle_16
	.type	CRC_Handle_16,%function
	.code	16                              @ @CRC_Handle_16
	.thumb_func
CRC_Handle_16:
.Lfunc_begin6:
	.loc	4 484 0 is_stmt 1               @ ../src/driver/stm32g4-v120/src/stm32g4xx_hal_crc.c:484:0
	.fnstart
	.cfi_startproc
@ %bb.0:
	@DEBUG_VALUE: CRC_Handle_16:hcrc <- $r0
	@DEBUG_VALUE: CRC_Handle_16:pBuffer <- $r1
	@DEBUG_VALUE: CRC_Handle_16:BufferLength <- $r2
	.save	{r4, r5, r7, lr}
	push	{r4, r5, r7, lr}
	.cfi_def_cfa_offset 16
	.cfi_offset lr, -4
	.cfi_offset r7, -8
	.cfi_offset r5, -12
	.cfi_offset r4, -16
	movs	r3, #0
	@DEBUG_VALUE: CRC_Handle_16:BufferLength <- $r2
	@DEBUG_VALUE: CRC_Handle_16:pBuffer <- $r1
.Ltmp79:
	.loc	4 491 3 prologue_end            @ ../src/driver/stm32g4-v120/src/stm32g4xx_hal_crc.c:491:3
	cmp.w	r3, r2, lsr #1
.Ltmp80:
	@DEBUG_VALUE: CRC_Handle_16:i <- 0
	@DEBUG_VALUE: CRC_Handle_16:hcrc <- $r0
	beq	.LBB6_4
.Ltmp81:
@ %bb.1:
	@DEBUG_VALUE: CRC_Handle_16:BufferLength <- $r2
	@DEBUG_VALUE: CRC_Handle_16:pBuffer <- $r1
	@DEBUG_VALUE: CRC_Handle_16:hcrc <- $r0
	@DEBUG_VALUE: CRC_Handle_16:i <- 0
	.loc	4 0 3 is_stmt 0                 @ ../src/driver/stm32g4-v120/src/stm32g4xx_hal_crc.c:0:3
	ldr.w	r12, [r0]
	lsr.w	lr, r2, #1
	.loc	4 491 3                         @ ../src/driver/stm32g4-v120/src/stm32g4xx_hal_crc.c:491:3
	adds	r3, r1, #2
.Ltmp82:
	.p2align	2
.LBB6_2:                                @ =>This Inner Loop Header: Depth=1
	@DEBUG_VALUE: CRC_Handle_16:BufferLength <- $r2
	@DEBUG_VALUE: CRC_Handle_16:pBuffer <- $r1
	@DEBUG_VALUE: CRC_Handle_16:hcrc <- $r0
	@DEBUG_VALUE: CRC_Handle_16:i <- undef
	.loc	4 493 27 is_stmt 1              @ ../src/driver/stm32g4-v120/src/stm32g4xx_hal_crc.c:493:27
	ldrh	r4, [r3, #-2]
	.loc	4 493 73 is_stmt 0              @ ../src/driver/stm32g4-v120/src/stm32g4xx_hal_crc.c:493:73
	ldrh	r5, [r3], #4
.Ltmp83:
	.loc	4 491 18 is_stmt 1              @ ../src/driver/stm32g4-v120/src/stm32g4xx_hal_crc.c:491:18
	subs.w	lr, lr, #1
.Ltmp84:
	.loc	4 493 61                        @ ../src/driver/stm32g4-v120/src/stm32g4xx_hal_crc.c:493:61
	orr.w	r4, r5, r4, lsl #16
	.loc	4 493 24 is_stmt 0              @ ../src/driver/stm32g4-v120/src/stm32g4xx_hal_crc.c:493:24
	str.w	r4, [r12]
.Ltmp85:
	@DEBUG_VALUE: CRC_Handle_16:i <- [DW_OP_plus_uconst 1, DW_OP_stack_value] undef
	.loc	4 491 3 is_stmt 1               @ ../src/driver/stm32g4-v120/src/stm32g4xx_hal_crc.c:491:3
	bne	.LBB6_2
.Ltmp86:
@ %bb.3:
	@DEBUG_VALUE: CRC_Handle_16:BufferLength <- $r2
	@DEBUG_VALUE: CRC_Handle_16:pBuffer <- $r1
	@DEBUG_VALUE: CRC_Handle_16:hcrc <- $r0
	.loc	4 495 21                        @ ../src/driver/stm32g4-v120/src/stm32g4xx_hal_crc.c:495:21
	bic	r3, r2, #1
.Ltmp87:
.LBB6_4:
	@DEBUG_VALUE: CRC_Handle_16:BufferLength <- $r2
	@DEBUG_VALUE: CRC_Handle_16:pBuffer <- $r1
	@DEBUG_VALUE: CRC_Handle_16:hcrc <- $r0
	.loc	4 502 16                        @ ../src/driver/stm32g4-v120/src/stm32g4xx_hal_crc.c:502:16
	ldr	r0, [r0]
.Ltmp88:
	@DEBUG_VALUE: CRC_Handle_16:hcrc <- [DW_OP_LLVM_entry_value 1] $r0
	.loc	4 495 7                         @ ../src/driver/stm32g4-v120/src/stm32g4xx_hal_crc.c:495:7
	lsls	r2, r2, #31
.Ltmp89:
	@DEBUG_VALUE: CRC_Handle_16:BufferLength <- [DW_OP_LLVM_entry_value 1] $r2
	.loc	4 498 13                        @ ../src/driver/stm32g4-v120/src/stm32g4xx_hal_crc.c:498:13
	itt	ne
	ldrhne.w	r1, [r1, r3, lsl #1]
.Ltmp90:
	@DEBUG_VALUE: CRC_Handle_16:pBuffer <- [DW_OP_LLVM_entry_value 1] $r1
	.loc	4 498 11 is_stmt 0              @ ../src/driver/stm32g4-v120/src/stm32g4xx_hal_crc.c:498:11
	strhne	r1, [r0]
.Ltmp91:
	.loc	4 502 26 is_stmt 1              @ ../src/driver/stm32g4-v120/src/stm32g4xx_hal_crc.c:502:26
	ldr	r0, [r0]
	.loc	4 502 3 is_stmt 0               @ ../src/driver/stm32g4-v120/src/stm32g4xx_hal_crc.c:502:3
	pop	{r4, r5, r7, pc}
.Ltmp92:
.Lfunc_end6:
	.size	CRC_Handle_16, .Lfunc_end6-CRC_Handle_16
	.cfi_endproc
	.cantunwind
	.fnend
                                        @ -- End function
	.section	.text.HAL_CRC_Calculate,"ax",%progbits
	.hidden	HAL_CRC_Calculate               @ -- Begin function HAL_CRC_Calculate
	.globl	HAL_CRC_Calculate
	.p2align	1
	.type	HAL_CRC_Calculate,%function
	.code	16                              @ @HAL_CRC_Calculate
	.thumb_func
HAL_CRC_Calculate:
.Lfunc_begin7:
	.loc	4 340 0 is_stmt 1               @ ../src/driver/stm32g4-v120/src/stm32g4xx_hal_crc.c:340:0
	.fnstart
	.cfi_startproc
@ %bb.0:
	@DEBUG_VALUE: HAL_CRC_Calculate:hcrc <- $r0
	@DEBUG_VALUE: HAL_CRC_Calculate:pBuffer <- $r1
	@DEBUG_VALUE: HAL_CRC_Calculate:BufferLength <- $r2
	.save	{r4, r5, r7, lr}
	push	{r4, r5, r7, lr}
	.cfi_def_cfa_offset 16
	.cfi_offset lr, -4
	.cfi_offset r7, -8
	.cfi_offset r5, -12
	.cfi_offset r4, -16
	mov	r5, r0
.Ltmp93:
	@DEBUG_VALUE: HAL_CRC_Calculate:hcrc <- $r5
	movs	r0, #2
.Ltmp94:
	@DEBUG_VALUE: HAL_CRC_Calculate:temp <- 0
	@DEBUG_VALUE: HAL_CRC_Calculate:pBuffer <- $r1
	@DEBUG_VALUE: HAL_CRC_Calculate:hcrc <- $r5
	.loc	4 345 15 prologue_end           @ ../src/driver/stm32g4-v120/src/stm32g4xx_hal_crc.c:345:15
	strb	r0, [r5, #29]
	.loc	4 349 3                         @ ../src/driver/stm32g4-v120/src/stm32g4xx_hal_crc.c:349:3
	ldr	r0, [r5]
	.loc	4 351 17                        @ ../src/driver/stm32g4-v120/src/stm32g4xx_hal_crc.c:351:17
	ldr	r3, [r5, #32]
	.loc	4 349 3                         @ ../src/driver/stm32g4-v120/src/stm32g4xx_hal_crc.c:349:3
	ldr	r4, [r0, #8]
	@DEBUG_VALUE: HAL_CRC_Calculate:BufferLength <- $r2
	.loc	4 351 3                         @ ../src/driver/stm32g4-v120/src/stm32g4xx_hal_crc.c:351:3
	cmp	r3, #1
	.loc	4 349 3                         @ ../src/driver/stm32g4-v120/src/stm32g4xx_hal_crc.c:349:3
	orr	r4, r4, #1
	str	r4, [r0, #8]
	.loc	4 351 3                         @ ../src/driver/stm32g4-v120/src/stm32g4xx_hal_crc.c:351:3
	beq	.LBB7_6
.Ltmp95:
@ %bb.1:
	@DEBUG_VALUE: HAL_CRC_Calculate:hcrc <- $r5
	@DEBUG_VALUE: HAL_CRC_Calculate:BufferLength <- $r2
	@DEBUG_VALUE: HAL_CRC_Calculate:pBuffer <- $r1
	@DEBUG_VALUE: HAL_CRC_Calculate:temp <- 0
	cmp	r3, #2
	beq	.LBB7_7
.Ltmp96:
@ %bb.2:
	@DEBUG_VALUE: HAL_CRC_Calculate:hcrc <- $r5
	@DEBUG_VALUE: HAL_CRC_Calculate:BufferLength <- $r2
	@DEBUG_VALUE: HAL_CRC_Calculate:pBuffer <- $r1
	@DEBUG_VALUE: HAL_CRC_Calculate:temp <- 0
	cmp	r3, #3
	bne	.LBB7_8
.Ltmp97:
@ %bb.3:
	@DEBUG_VALUE: HAL_CRC_Calculate:hcrc <- $r5
	@DEBUG_VALUE: HAL_CRC_Calculate:BufferLength <- $r2
	@DEBUG_VALUE: HAL_CRC_Calculate:pBuffer <- $r1
	@DEBUG_VALUE: HAL_CRC_Calculate:temp <- 0
	@DEBUG_VALUE: HAL_CRC_Calculate:index <- 0
	.loc	4 355 7                         @ ../src/driver/stm32g4-v120/src/stm32g4xx_hal_crc.c:355:7
	cbz	r2, .LBB7_5
.Ltmp98:
	.p2align	2
.LBB7_4:                                @ =>This Inner Loop Header: Depth=1
	@DEBUG_VALUE: HAL_CRC_Calculate:hcrc <- $r5
	@DEBUG_VALUE: HAL_CRC_Calculate:temp <- 0
	@DEBUG_VALUE: HAL_CRC_Calculate:index <- undef
	.loc	4 357 30                        @ ../src/driver/stm32g4-v120/src/stm32g4xx_hal_crc.c:357:30
	ldr	r3, [r1], #4
.Ltmp99:
	@DEBUG_VALUE: HAL_CRC_Calculate:pBuffer <- [DW_OP_LLVM_entry_value 1] $r1
	.loc	4 355 30                        @ ../src/driver/stm32g4-v120/src/stm32g4xx_hal_crc.c:355:30
	subs	r2, #1
.Ltmp100:
	@DEBUG_VALUE: HAL_CRC_Calculate:BufferLength <- [DW_OP_LLVM_entry_value 1] $r2
	.loc	4 357 28                        @ ../src/driver/stm32g4-v120/src/stm32g4xx_hal_crc.c:357:28
	str	r3, [r0]
.Ltmp101:
	@DEBUG_VALUE: HAL_CRC_Calculate:index <- [DW_OP_plus_uconst 1, DW_OP_stack_value] undef
	.loc	4 355 7                         @ ../src/driver/stm32g4-v120/src/stm32g4xx_hal_crc.c:355:7
	bne	.LBB7_4
.Ltmp102:
.LBB7_5:
	@DEBUG_VALUE: HAL_CRC_Calculate:hcrc <- $r5
	@DEBUG_VALUE: HAL_CRC_Calculate:temp <- 0
	.loc	4 359 30                        @ ../src/driver/stm32g4-v120/src/stm32g4xx_hal_crc.c:359:30
	ldr	r0, [r0]
.Ltmp103:
	@DEBUG_VALUE: HAL_CRC_Calculate:temp <- $r0
	.loc	4 0 30 is_stmt 0                @ ../src/driver/stm32g4-v120/src/stm32g4xx_hal_crc.c:0:30
	b	.LBB7_9
.Ltmp104:
.LBB7_6:
	@DEBUG_VALUE: HAL_CRC_Calculate:hcrc <- $r5
	@DEBUG_VALUE: HAL_CRC_Calculate:BufferLength <- $r2
	@DEBUG_VALUE: HAL_CRC_Calculate:pBuffer <- $r1
	@DEBUG_VALUE: HAL_CRC_Calculate:temp <- 0
	.loc	4 364 14 is_stmt 1              @ ../src/driver/stm32g4-v120/src/stm32g4xx_hal_crc.c:364:14
	mov	r0, r5
	bl	CRC_Handle_8
.Ltmp105:
	@DEBUG_VALUE: HAL_CRC_Calculate:BufferLength <- [DW_OP_LLVM_entry_value 1] $r2
	@DEBUG_VALUE: HAL_CRC_Calculate:pBuffer <- [DW_OP_LLVM_entry_value 1] $r1
	@DEBUG_VALUE: HAL_CRC_Calculate:temp <- $r0
	.loc	4 0 14 is_stmt 0                @ ../src/driver/stm32g4-v120/src/stm32g4xx_hal_crc.c:0:14
	b	.LBB7_9
.Ltmp106:
.LBB7_7:
	@DEBUG_VALUE: HAL_CRC_Calculate:hcrc <- $r5
	@DEBUG_VALUE: HAL_CRC_Calculate:BufferLength <- $r2
	@DEBUG_VALUE: HAL_CRC_Calculate:pBuffer <- $r1
	@DEBUG_VALUE: HAL_CRC_Calculate:temp <- 0
	.loc	4 369 14 is_stmt 1              @ ../src/driver/stm32g4-v120/src/stm32g4xx_hal_crc.c:369:14
	mov	r0, r5
	bl	CRC_Handle_16
.Ltmp107:
	@DEBUG_VALUE: HAL_CRC_Calculate:BufferLength <- [DW_OP_LLVM_entry_value 1] $r2
	@DEBUG_VALUE: HAL_CRC_Calculate:pBuffer <- [DW_OP_LLVM_entry_value 1] $r1
	@DEBUG_VALUE: HAL_CRC_Calculate:temp <- $r0
	.loc	4 0 14 is_stmt 0                @ ../src/driver/stm32g4-v120/src/stm32g4xx_hal_crc.c:0:14
	b	.LBB7_9
.Ltmp108:
.LBB7_8:
	@DEBUG_VALUE: HAL_CRC_Calculate:hcrc <- $r5
	@DEBUG_VALUE: HAL_CRC_Calculate:BufferLength <- $r2
	@DEBUG_VALUE: HAL_CRC_Calculate:pBuffer <- $r1
	@DEBUG_VALUE: HAL_CRC_Calculate:temp <- 0
	movs	r0, #0
.Ltmp109:
.LBB7_9:
	@DEBUG_VALUE: HAL_CRC_Calculate:hcrc <- $r5
	@DEBUG_VALUE: HAL_CRC_Calculate:temp <- $r0
	movs	r1, #1
	.loc	4 377 15 is_stmt 1              @ ../src/driver/stm32g4-v120/src/stm32g4xx_hal_crc.c:377:15
	strb	r1, [r5, #29]
	.loc	4 380 3                         @ ../src/driver/stm32g4-v120/src/stm32g4xx_hal_crc.c:380:3
	pop	{r4, r5, r7, pc}
.Ltmp110:
.Lfunc_end7:
	.size	HAL_CRC_Calculate, .Lfunc_end7-HAL_CRC_Calculate
	.cfi_endproc
	.cantunwind
	.fnend
                                        @ -- End function
	.section	.text.HAL_CRC_GetState,"ax",%progbits
	.hidden	HAL_CRC_GetState                @ -- Begin function HAL_CRC_GetState
	.globl	HAL_CRC_GetState
	.p2align	1
	.type	HAL_CRC_GetState,%function
	.code	16                              @ @HAL_CRC_GetState
	.thumb_func
HAL_CRC_GetState:
.Lfunc_begin8:
	.loc	4 407 0                         @ ../src/driver/stm32g4-v120/src/stm32g4xx_hal_crc.c:407:0
	.fnstart
	.cfi_startproc
@ %bb.0:
	@DEBUG_VALUE: HAL_CRC_GetState:hcrc <- $r0
	@DEBUG_VALUE: HAL_CRC_GetState:hcrc <- $r0
	.loc	4 409 16 prologue_end           @ ../src/driver/stm32g4-v120/src/stm32g4xx_hal_crc.c:409:16
	ldrb	r0, [r0, #29]
.Ltmp111:
	@DEBUG_VALUE: HAL_CRC_GetState:hcrc <- [DW_OP_LLVM_entry_value 1] $r0
	.loc	4 409 3 is_stmt 0               @ ../src/driver/stm32g4-v120/src/stm32g4xx_hal_crc.c:409:3
	bx	lr
.Ltmp112:
.Lfunc_end8:
	.size	HAL_CRC_GetState, .Lfunc_end8-HAL_CRC_GetState
	.cfi_endproc
	.cantunwind
	.fnend
                                        @ -- End function
	.file	5 "C:\\Users\\grodriguez\\Documents\\iit\\icub-firmware\\emBODY\\eBcode\\arch-arm\\libs\\lowlevel\\stm32hal\\proj" "../src/driver/stm32g4-v120/inc/stm32g474xx.h"
	.section	".note.GNU-stack","",%progbits
	.eabi_attribute	30, 3	@ Tag_ABI_optimization_goals
	.ARM_attribute	16, 1	@ Tag_AV_eba