	.text
	.syntax unified
	.eabi_attribute	67, "2.09"	@ Tag_conformance
	.cpu	cortex-m4
	.eabi_attribute	6, 13	@ Tag_CPU_arch
	.eabi_attribute	7, 77	@ Tag_CPU_arch_profile
	.eabi_attribute	8, 0	@ Tag_ARM_ISA_use
	.eabi_attribute	9, 2	@ Tag_THUMB_ISA_use
	.fpu	fpv4-sp-d16
	.eabi_attribute	27, 1	@ Tag_ABI_HardFP_use
	.eabi_attribute	36, 1	@ Tag_FP_HP_extension
	.eabi_attribute	34, 1	@ Tag_CPU_unaligned_access
	.eabi_attribute	17, 1	@ Tag_ABI_PCS_GOT_use
	.eabi_attribute	20, 2	@ Tag_ABI_FP_denormal
	.eabi_attribute	21, 0	@ Tag_ABI_FP_exceptions
	.eabi_attribute	23, 1	@ Tag_ABI_FP_number_model
	.eabi_attribute	24, 1	@ Tag_ABI_align_needed
	.eabi_attribute	25, 1	@ Tag_ABI_align_preserved
	.eabi_attribute	28, 1	@ Tag_ABI_VFP_args
	.eabi_attribute	38, 1	@ Tag_ABI_FP_16bit_format
	.eabi_attribute	18, 2	@ Tag_ABI_PCS_wchar_t
	.eabi_attribute	26, 1	@ Tag_ABI_enum_size
	.eabi_attribute	14, 0	@ Tag_ABI_PCS_R9_use
	.file	"stm32g4xx_hal_fmac.c"
	.file	1 "C:\\Users\\grodriguez\\Documents\\iit\\icub-firmware\\emBODY\\eBcode\\arch-arm\\libs\\lowlevel\\stm32hal\\proj" "../src/driver/stm32g4-v120/inc/stm32g4xx_hal_def.h"
	.file	2 "C:\\Users\\grodriguez\\Documents\\iit\\icub-firmware\\emBODY\\eBcode\\arch-arm\\libs\\lowlevel\\stm32hal\\proj" "../api\\../src/driver/stm32g4-v120/inc/stm32g4xx_hal_dma.h"
	.file	3 "C:\\Users\\grodriguez\\Documents\\iit\\icub-firmware\\emBODY\\eBcode\\arch-arm\\libs\\lowlevel\\stm32hal\\proj" "../api\\../src/driver/stm32g4-v120/inc/stm32g4xx_hal_fmac.h"
	.file	4 "C:\\" "Keil_v5\\ARM\\ARMCLANG\\Bin\\..\\include\\stdint.h"
	.file	5 "C:\\Users\\grodriguez\\Documents\\iit\\icub-firmware\\emBODY\\eBcode\\arch-arm\\libs\\lowlevel\\stm32hal\\proj" "../src/driver/stm32g4-v120/inc/stm32g474xx.h"
	.section	.text.HAL_FMAC_Init,"ax",%progbits
	.hidden	HAL_FMAC_Init                   @ -- Begin function HAL_FMAC_Init
	.globl	HAL_FMAC_Init
	.p2align	1
	.type	HAL_FMAC_Init,%function
	.code	16                              @ @HAL_FMAC_Init
	.thumb_func
HAL_FMAC_Init:
.Lfunc_begin0:
	.file	6 "C:\\Users\\grodriguez\\Documents\\iit\\icub-firmware\\emBODY\\eBcode\\arch-arm\\libs\\lowlevel\\stm32hal\\proj" "../src/driver/stm32g4-v120/src/stm32g4xx_hal_fmac.c"
	.loc	6 388 0                         @ ../src/driver/stm32g4-v120/src/stm32g4xx_hal_fmac.c:388:0
	.fnstart
	.cfi_sections .debug_frame
	.cfi_startproc
@ %bb.0:
	@DEBUG_VALUE: HAL_FMAC_Init:hfmac <- $r0
	@DEBUG_VALUE: HAL_FMAC_Init:hfmac <- $r0
	.loc	6 392 7 prologue_end            @ ../src/driver/stm32g4-v120/src/stm32g4xx_hal_fmac.c:392:7
	cbz	r0, .LBB0_5
.Ltmp0:
@ %bb.1:
	@DEBUG_VALUE: HAL_FMAC_Init:hfmac <- $r0
	.save	{r4, r5, r6, lr}
	push	{r4, r5, r6, lr}
	.cfi_def_cfa_offset 16
	.cfi_offset lr, -4
	.cfi_offset r6, -8
	.cfi_offset r5, -12
	.cfi_offset r4, -16
	mov	r4, r0
.Ltmp1:
	@DEBUG_VALUE: HAL_FMAC_Init:hfmac <- $r4
	.loc	6 400 14                        @ ../src/driver/stm32g4-v120/src/stm32g4xx_hal_fmac.c:400:14
	ldrb.w	r0, [r0, #49]
.Ltmp2:
	.loc	6 400 7 is_stmt 0               @ ../src/driver/stm32g4-v120/src/stm32g4xx_hal_fmac.c:400:7
	cbnz	r0, .LBB0_3
.Ltmp3:
@ %bb.2:
	@DEBUG_VALUE: HAL_FMAC_Init:hfmac <- $r4
	.loc	6 0 7                           @ ../src/driver/stm32g4-v120/src/stm32g4xx_hal_fmac.c:0:7
	movs	r0, #0
.Ltmp4:
	.loc	6 403 17 is_stmt 1              @ ../src/driver/stm32g4-v120/src/stm32g4xx_hal_fmac.c:403:17
	strb.w	r0, [r4, #48]
	.loc	6 424 5                         @ ../src/driver/stm32g4-v120/src/stm32g4xx_hal_fmac.c:424:5
	mov	r0, r4
	bl	HAL_FMAC_MspInit
.Ltmp5:
.LBB0_3:
	@DEBUG_VALUE: HAL_FMAC_Init:hfmac <- $r4
	.loc	6 0 5 is_stmt 0                 @ ../src/driver/stm32g4-v120/src/stm32g4xx_hal_fmac.c:0:5
	movs	r5, #0
	movs	r6, #32
.Ltmp6:
	.loc	6 433 7 is_stmt 1               @ ../src/driver/stm32g4-v120/src/stm32g4xx_hal_fmac.c:433:7
	mov	r0, r4
.Ltmp7:
	.loc	6 429 22                        @ ../src/driver/stm32g4-v120/src/stm32g4xx_hal_fmac.c:429:22
	str	r5, [r4, #4]
.Ltmp8:
	@DEBUG_VALUE: FMAC_ResetInputStateAndDataPointers:hfmac <- $r4
	@DEBUG_VALUE: FMAC_ResetDataPointers:hfmac <- $r4
	.loc	6 1618 17                       @ ../src/driver/stm32g4-v120/src/stm32g4xx_hal_fmac.c:1618:17
	str	r5, [r4, #12]
	.loc	6 1620 27                       @ ../src/driver/stm32g4-v120/src/stm32g4xx_hal_fmac.c:1620:27
	strh	r5, [r4, #16]
	.loc	6 1621 18                       @ ../src/driver/stm32g4-v120/src/stm32g4xx_hal_fmac.c:1621:18
	strb.w	r6, [r4, #51]
.Ltmp9:
	@DEBUG_VALUE: FMAC_ResetOutputStateAndDataPointers:hfmac <- $r4
	.loc	6 1619 21                       @ ../src/driver/stm32g4-v120/src/stm32g4xx_hal_fmac.c:1619:21
	strd	r5, r5, [r4, #20]
.Ltmp10:
	.loc	6 1632 22                       @ ../src/driver/stm32g4-v120/src/stm32g4xx_hal_fmac.c:1632:22
	str	r5, [r4, #32]
	.loc	6 1633 28                       @ ../src/driver/stm32g4-v120/src/stm32g4xx_hal_fmac.c:1633:28
	strh	r5, [r4, #28]
	.loc	6 1634 18                       @ ../src/driver/stm32g4-v120/src/stm32g4xx_hal_fmac.c:1634:18
	strb.w	r6, [r4, #50]
.Ltmp11:
	.loc	6 433 7                         @ ../src/driver/stm32g4-v120/src/stm32g4xx_hal_fmac.c:433:7
	bl	FMAC_Reset
.Ltmp12:
	.loc	6 433 7 is_stmt 0               @ ../src/driver/stm32g4-v120/src/stm32g4xx_hal_fmac.c:433:7
	cmp	r0, #3
	bne	.LBB0_6
.Ltmp13:
@ %bb.4:
	@DEBUG_VALUE: HAL_FMAC_Init:hfmac <- $r4
	.loc	6 436 22 is_stmt 1              @ ../src/driver/stm32g4-v120/src/stm32g4xx_hal_fmac.c:436:22
	ldr	r0, [r4, #52]
	movs	r6, #160
.Ltmp14:
	@DEBUG_VALUE: HAL_FMAC_Init:status <- 3
	orr	r1, r0, #16
	movs	r0, #3
	b	.LBB0_7
.Ltmp15:
.LBB0_5:
	@DEBUG_VALUE: HAL_FMAC_Init:hfmac <- $r0
	.loc	6 0 22 is_stmt 0                @ ../src/driver/stm32g4-v120/src/stm32g4xx_hal_fmac.c:0:22
	movs	r0, #1
.Ltmp16:
	@DEBUG_VALUE: HAL_FMAC_Init:hfmac <- [DW_OP_LLVM_entry_value 1] $r0
	.loc	6 453 1 is_stmt 1               @ ../src/driver/stm32g4-v120/src/stm32g4xx_hal_fmac.c:453:1
	bx	lr
.Ltmp17:
.LBB0_6:
	@DEBUG_VALUE: FMAC_ResetOutputStateAndDataPointers:hfmac <- $r4
	@DEBUG_VALUE: FMAC_ResetDataPointers:hfmac <- $r4
	@DEBUG_VALUE: FMAC_ResetInputStateAndDataPointers:hfmac <- $r4
	@DEBUG_VALUE: HAL_FMAC_Init:hfmac <- $r4
	.loc	6 0 1 is_stmt 0                 @ ../src/driver/stm32g4-v120/src/stm32g4xx_hal_fmac.c:0:1
	movs	r1, #0
.Ltmp18:
	movs	r0, #0
.Ltmp19:
.LBB0_7:
	@DEBUG_VALUE: HAL_FMAC_Init:hfmac <- $r4
	str	r1, [r4, #52]
	strb.w	r6, [r4, #49]
.Ltmp20:
	@DEBUG_VALUE: HAL_FMAC_Init:status <- $r0
	.loc	6 450 3 is_stmt 1               @ ../src/driver/stm32g4-v120/src/stm32g4xx_hal_fmac.c:450:3
	strb.w	r5, [r4, #48]
	pop	{r4, r5, r6, pc}
.Ltmp21:
.Lfunc_end0:
	.size	HAL_FMAC_Init, .Lfunc_end0-HAL_FMAC_Init
	.cfi_endproc
	.cantunwind
	.fnend
                                        @ -- End function
	.section	.text.HAL_FMAC_MspInit,"ax",%progbits
	.hidden	HAL_FMAC_MspInit                @ -- Begin function HAL_FMAC_MspInit
	.weak	HAL_FMAC_MspInit
	.p2align	1
	.type	HAL_FMAC_MspInit,%function
	.code	16                              @ @HAL_FMAC_MspInit
	.thumb_func
HAL_FMAC_MspInit:
.Lfunc_begin1:
	.loc	6 508 0                         @ ../src/driver/stm32g4-v120/src/stm32g4xx_hal_fmac.c:508:0
	.fnstart
	.cfi_startproc
@ %bb.0:
	@DEBUG_VALUE: HAL_FMAC_MspInit:hfmac <- $r0
	.loc	6 515 1 prologue_end            @ ../src/driver/stm32g4-v120/src/stm32g4xx_hal_fmac.c:515:1
	bx	lr
.Ltmp22:
.Lfunc_end1:
	.size	HAL_FMAC_MspInit, .Lfunc_end1-HAL_FMAC_MspInit
	.cfi_endproc
	.cantunwind
	.fnend
                                        @ -- End function
	.section	.text.FMAC_Reset,"ax",%progbits
	.p2align	1                               @ -- Begin function FMAC_Reset
	.type	FMAC_Reset,%function
	.code	16                              @ @FMAC_Reset
	.thumb_func
FMAC_Reset:
.Lfunc_begin2:
	.loc	6 1577 0                        @ ../src/driver/stm32g4-v120/src/stm32g4xx_hal_fmac.c:1577:0
	.fnstart
	.cfi_startproc
@ %bb.0:
	@DEBUG_VALUE: FMAC_Reset:hfmac <- $r0
	.save	{r4, r5, r7, lr}
	push	{r4, r5, r7, lr}
	.cfi_def_cfa_offset 16
	.cfi_offset lr, -4
	.cfi_offset r7, -8
	.cfi_offset r5, -12
	.cfi_offset r4, -16
	mov	r4, r0
.Ltmp23:
	@DEBUG_VALUE: FMAC_Reset:hfmac <- $r4
	@DEBUG_VALUE: FMAC_Reset:hfmac <- $r4
	.loc	6 1581 15 prologue_end          @ ../src/driver/stm32g4-v120/src/stm32g4xx_hal_fmac.c:1581:15
	bl	HAL_GetTick
.Ltmp24:
	.loc	6 1584 3                        @ ../src/driver/stm32g4-v120/src/stm32g4xx_hal_fmac.c:1584:3
	ldr	r1, [r4]
	ldr	r2, [r1, #16]
	orr	r2, r2, #65536
	str	r2, [r1, #16]
	.loc	6 1587 10                       @ ../src/driver/stm32g4-v120/src/stm32g4xx_hal_fmac.c:1587:10
	ldr	r1, [r1, #16]
	.loc	6 1587 3 is_stmt 0              @ ../src/driver/stm32g4-v120/src/stm32g4xx_hal_fmac.c:1587:3
	lsls	r1, r1, #15
.Ltmp25:
	@DEBUG_VALUE: FMAC_Reset:tickstart <- $r0
	bpl	.LBB2_4
.Ltmp26:
@ %bb.1:
	@DEBUG_VALUE: FMAC_Reset:hfmac <- $r4
	@DEBUG_VALUE: FMAC_Reset:tickstart <- $r0
	.loc	6 0 3                           @ ../src/driver/stm32g4-v120/src/stm32g4xx_hal_fmac.c:0:3
	mov	r5, r0
.Ltmp27:
	@DEBUG_VALUE: FMAC_Reset:tickstart <- $r5
	@DEBUG_VALUE: FMAC_Reset:tickstart <- $r5
	.p2align	2
.LBB2_2:                                @ =>This Inner Loop Header: Depth=1
	@DEBUG_VALUE: FMAC_Reset:tickstart <- $r5
	@DEBUG_VALUE: FMAC_Reset:hfmac <- $r4
	.loc	6 1589 10 is_stmt 1             @ ../src/driver/stm32g4-v120/src/stm32g4xx_hal_fmac.c:1589:10
	bl	HAL_GetTick
.Ltmp28:
	.loc	6 1589 24 is_stmt 0             @ ../src/driver/stm32g4-v120/src/stm32g4xx_hal_fmac.c:1589:24
	subs	r0, r0, r5
.Ltmp29:
	.loc	6 1589 9                        @ ../src/driver/stm32g4-v120/src/stm32g4xx_hal_fmac.c:1589:9
	cmp.w	r0, #500
	bhi	.LBB2_5
.Ltmp30:
@ %bb.3:                                @   in Loop: Header=BB2_2 Depth=1
	@DEBUG_VALUE: FMAC_Reset:tickstart <- $r5
	@DEBUG_VALUE: FMAC_Reset:hfmac <- $r4
	.loc	6 1587 10 is_stmt 1             @ ../src/driver/stm32g4-v120/src/stm32g4xx_hal_fmac.c:1587:10
	ldr	r0, [r4]
	ldr	r0, [r0, #16]
	.loc	6 1587 3 is_stmt 0              @ ../src/driver/stm32g4-v120/src/stm32g4xx_hal_fmac.c:1587:3
	lsls	r0, r0, #15
	bmi	.LBB2_2
.Ltmp31:
.LBB2_4:
	@DEBUG_VALUE: FMAC_Reset:hfmac <- $r4
	.loc	6 0 3                           @ ../src/driver/stm32g4-v120/src/stm32g4xx_hal_fmac.c:0:3
	movs	r0, #0
	.loc	6 1596 20 is_stmt 1             @ ../src/driver/stm32g4-v120/src/stm32g4xx_hal_fmac.c:1596:20
	str	r0, [r4, #52]
	.loc	6 1598 1                        @ ../src/driver/stm32g4-v120/src/stm32g4xx_hal_fmac.c:1598:1
	pop	{r4, r5, r7, pc}
.Ltmp32:
.LBB2_5:
	@DEBUG_VALUE: FMAC_Reset:tickstart <- $r5
	@DEBUG_VALUE: FMAC_Reset:hfmac <- $r4
	.loc	6 1591 24                       @ ../src/driver/stm32g4-v120/src/stm32g4xx_hal_fmac.c:1591:24
	ldr	r0, [r4, #52]
	orr	r0, r0, #128
	str	r0, [r4, #52]
	movs	r0, #3
.Ltmp33:
	.loc	6 1598 1                        @ ../src/driver/stm32g4-v120/src/stm32g4xx_hal_fmac.c:1598:1
	pop	{r4, r5, r7, pc}
.Ltmp34:
.Lfunc_end2:
	.size	FMAC_Reset, .Lfunc_end2-FMAC_Reset
	.cfi_endproc
	.cantunwind
	.fnend
                                        @ -- End function
	.section	.text.HAL_FMAC_DeInit,"ax",%progbits
	.hidden	HAL_FMAC_DeInit                 @ -- Begin function HAL_FMAC_DeInit
	.globl	HAL_FMAC_DeInit
	.p2align	1
	.type	HAL_FMAC_DeInit,%function
	.code	16                              @ @HAL_FMAC_DeInit
	.thumb_func
HAL_FMAC_DeInit:
.Lfunc_begin3:
	.loc	6 461 0                         @ ../src/driver/stm32g4-v120/src/stm32g4xx_hal_fmac.c:461:0
	.fnstart
	.cfi_startproc
@ %bb.0:
	@DEBUG_VALUE: HAL_FMAC_DeInit:hfmac <- $r0
	@DEBUG_VALUE: HAL_FMAC_DeInit:hfmac <- $r0
	.save	{r4, r5, r7, lr}
	push	{r4, r5, r7, lr}
	.cfi_def_cfa_offset 16
	.cfi_offset lr, -4
	.cfi_offset r7, -8
	.cfi_offset r5, -12
	.cfi_offset r4, -16
.Ltmp35:
	.loc	6 463 7 prologue_end            @ ../src/driver/stm32g4-v120/src/stm32g4xx_hal_fmac.c:463:7
	cbz	r0, .LBB3_2
.Ltmp36:
@ %bb.1:
	@DEBUG_VALUE: HAL_FMAC_DeInit:hfmac <- $r0
	.loc	6 0 7 is_stmt 0                 @ ../src/driver/stm32g4-v120/src/stm32g4xx_hal_fmac.c:0:7
	mov	r5, r0
.Ltmp37:
	@DEBUG_VALUE: HAL_FMAC_DeInit:hfmac <- $r5
	@DEBUG_VALUE: HAL_FMAC_DeInit:hfmac <- $r5
	movs	r0, #36
	.loc	6 472 16 is_stmt 1              @ ../src/driver/stm32g4-v120/src/stm32g4xx_hal_fmac.c:472:16
	strb.w	r0, [r5, #49]
	movs	r4, #0
	movs	r0, #32
	.loc	6 475 20                        @ ../src/driver/stm32g4-v120/src/stm32g4xx_hal_fmac.c:475:20
	str	r4, [r5, #52]
	.loc	6 478 22                        @ ../src/driver/stm32g4-v120/src/stm32g4xx_hal_fmac.c:478:22
	str	r4, [r5, #4]
.Ltmp38:
	@DEBUG_VALUE: FMAC_ResetInputStateAndDataPointers:hfmac <- $r5
	@DEBUG_VALUE: FMAC_ResetDataPointers:hfmac <- $r5
	.loc	6 1618 17                       @ ../src/driver/stm32g4-v120/src/stm32g4xx_hal_fmac.c:1618:17
	str	r4, [r5, #12]
	.loc	6 1620 27                       @ ../src/driver/stm32g4-v120/src/stm32g4xx_hal_fmac.c:1620:27
	strh	r4, [r5, #16]
	.loc	6 1621 18                       @ ../src/driver/stm32g4-v120/src/stm32g4xx_hal_fmac.c:1621:18
	strb.w	r0, [r5, #51]
.Ltmp39:
	@DEBUG_VALUE: FMAC_ResetOutputStateAndDataPointers:hfmac <- $r5
	.loc	6 1619 21                       @ ../src/driver/stm32g4-v120/src/stm32g4xx_hal_fmac.c:1619:21
	strd	r4, r4, [r5, #20]
.Ltmp40:
	.loc	6 1632 22                       @ ../src/driver/stm32g4-v120/src/stm32g4xx_hal_fmac.c:1632:22
	str	r4, [r5, #32]
	.loc	6 1633 28                       @ ../src/driver/stm32g4-v120/src/stm32g4xx_hal_fmac.c:1633:28
	strh	r4, [r5, #28]
	.loc	6 1634 18                       @ ../src/driver/stm32g4-v120/src/stm32g4xx_hal_fmac.c:1634:18
	strb.w	r0, [r5, #50]
.Ltmp41:
	.loc	6 490 3                         @ ../src/driver/stm32g4-v120/src/stm32g4xx_hal_fmac.c:490:3
	mov	r0, r5
	bl	HAL_FMAC_MspDeInit
.Ltmp42:
	.loc	6 494 16                        @ ../src/driver/stm32g4-v120/src/stm32g4xx_hal_fmac.c:494:16
	strb.w	r4, [r5, #49]
.Ltmp43:
	.loc	6 497 3                         @ ../src/driver/stm32g4-v120/src/stm32g4xx_hal_fmac.c:497:3
	strb.w	r4, [r5, #48]
	b	.LBB3_3
.Ltmp44:
.LBB3_2:
	@DEBUG_VALUE: HAL_FMAC_DeInit:hfmac <- $r0
	.loc	6 0 3 is_stmt 0                 @ ../src/driver/stm32g4-v120/src/stm32g4xx_hal_fmac.c:0:3
	movs	r4, #1
.Ltmp45:
.LBB3_3:
	.loc	6 500 1 is_stmt 1               @ ../src/driver/stm32g4-v120/src/stm32g4xx_hal_fmac.c:500:1
	mov	r0, r4
	pop	{r4, r5, r7, pc}
.Ltmp46:
.Lfunc_end3:
	.size	HAL_FMAC_DeInit, .Lfunc_end3-HAL_FMAC_DeInit
	.cfi_endproc
	.cantunwind
	.fnend
                                        @ -- End function
	.section	.text.HAL_FMAC_MspDeInit,"ax",%progbits
	.hidden	HAL_FMAC_MspDeInit              @ -- Begin function HAL_FMAC_MspDeInit
	.weak	HAL_FMAC_MspDeInit
	.p2align	1
	.type	HAL_FMAC_MspDeInit,%function
	.code	16                              @ @HAL_FMAC_MspDeInit
	.thumb_func
HAL_FMAC_MspDeInit:
.Lfunc_begin4:
	.loc	6 523 0                         @ ../src/driver/stm32g4-v120/src/stm32g4xx_hal_fmac.c:523:0
	.fnstart
	.cfi_startproc
@ %bb.0:
	@DEBUG_VALUE: HAL_FMAC_MspDeInit:hfmac <- $r0
	.loc	6 530 1 prologue_end            @ ../src/driver/stm32g4-v120/src/stm32g4xx_hal_fmac.c:530:1
	bx	lr
.Ltmp47:
.Lfunc_end4:
	.size	HAL_FMAC_MspDeInit, .Lfunc_end4-HAL_FMAC_MspDeInit
	.cfi_endproc
	.cantunwind
	.fnend
                                        @ -- End function
	.section	.text.HAL_FMAC_FilterConfig,"ax",%progbits
	.hidden	HAL_FMAC_FilterConfig           @ -- Begin function HAL_FMAC_FilterConfig
	.globl	HAL_FMAC_FilterConfig
	.p2align	1
	.type	HAL_FMAC_FilterConfig,%function
	.code	16                              @ @HAL_FMAC_FilterConfig
	.thumb_func
HAL_FMAC_FilterConfig:
.Lfunc_begin5:
	.loc	6 806 0                         @ ../src/driver/stm32g4-v120/src/stm32g4xx_hal_fmac.c:806:0
	.fnstart
	.cfi_startproc
@ %bb.0:
	@DEBUG_VALUE: HAL_FMAC_FilterConfig:hfmac <- $r0
	@DEBUG_VALUE: HAL_FMAC_FilterConfig:hfmac <- $r0
	@DEBUG_VALUE: HAL_FMAC_FilterConfig:hfmac <- $r0
	@DEBUG_VALUE: HAL_FMAC_FilterConfig:pConfig <- $r1
	@DEBUG_VALUE: HAL_FMAC_FilterConfig:pConfig <- $r1
	@DEBUG_VALUE: HAL_FMAC_FilterConfig:pConfig <- $r1
	.loc	6 807 11 prologue_end           @ ../src/driver/stm32g4-v120/src/stm32g4xx_hal_fmac.c:807:11
	movs	r2, #1
.Ltmp48:
	b	FMAC_FilterConfig
.Ltmp49:
.Lfunc_end5:
	.size	HAL_FMAC_FilterConfig, .Lfunc_end5-HAL_FMAC_FilterConfig
	.cfi_endproc
	.cantunwind
	.fnend
                                        @ -- End function
	.section	.text.FMAC_FilterConfig,"ax",%progbits
	.p2align	1                               @ -- Begin function FMAC_FilterConfig
	.type	FMAC_FilterConfig,%function
	.code	16                              @ @FMAC_FilterConfig
	.thumb_func
FMAC_FilterConfig:
.Lfunc_begin6:
	.loc	6 1650 0                        @ ../src/driver/stm32g4-v120/src/stm32g4xx_hal_fmac.c:1650:0
	.fnstart
	.cfi_startproc
@ %bb.0:
	@DEBUG_VALUE: FMAC_FilterConfig:hfmac <- $r0
	@DEBUG_VALUE: FMAC_FilterConfig:pConfig <- $r1
	@DEBUG_VALUE: FMAC_FilterConfig:PreloadAccess <- $r2
	.save	{r4, r5, r6, r7, r8, r9, lr}
	push.w	{r4, r5, r6, r7, r8, r9, lr}
	.cfi_def_cfa_offset 28
	.cfi_offset lr, -4
	.cfi_offset r9, -8
	.cfi_offset r8, -12
	.cfi_offset r7, -16
	.cfi_offset r6, -20
	.cfi_offset r5, -24
	.cfi_offset r4, -28
	.pad	#4
	sub	sp, #4
	.cfi_def_cfa_offset 32
	mov	r4, r0
.Ltmp50:
	@DEBUG_VALUE: FMAC_FilterConfig:PreloadAccess <- undef
	@DEBUG_VALUE: FMAC_FilterConfig:hfmac <- $r4
	.loc	6 1669 7 prologue_end           @ ../src/driver/stm32g4-v120/src/stm32g4xx_hal_fmac.c:1669:7
	ldr	r0, [r0]
	ldr	r0, [r0, #12]
.Ltmp51:
	@DEBUG_VALUE: FMAC_FilterConfig:PreloadAccess <- $r2
	.loc	6 1669 7 is_stmt 0              @ ../src/driver/stm32g4-v120/src/stm32g4xx_hal_fmac.c:1669:7
	cmp	r0, #0
	@DEBUG_VALUE: FMAC_FilterConfig:pConfig <- $r1
	bmi.w	.LBB6_21
.Ltmp52:
@ %bb.1:
	@DEBUG_VALUE: FMAC_FilterConfig:hfmac <- $r4
	@DEBUG_VALUE: FMAC_FilterConfig:PreloadAccess <- $r2
	@DEBUG_VALUE: FMAC_FilterConfig:pConfig <- $r1
	@DEBUG_VALUE: FMAC_FilterConfig:PreloadAccess <- $r2
	@DEBUG_VALUE: FMAC_FilterConfig:pConfig <- $r1
	.loc	6 1675 14 is_stmt 1             @ ../src/driver/stm32g4-v120/src/stm32g4xx_hal_fmac.c:1675:14
	ldrb.w	r0, [r4, #49]
.Ltmp53:
	.loc	6 1675 7 is_stmt 0              @ ../src/driver/stm32g4-v120/src/stm32g4xx_hal_fmac.c:1675:7
	cmp	r0, #32
	bne.w	.LBB6_22
.Ltmp54:
@ %bb.2:
	@DEBUG_VALUE: FMAC_FilterConfig:hfmac <- $r4
	@DEBUG_VALUE: FMAC_FilterConfig:PreloadAccess <- $r2
	@DEBUG_VALUE: FMAC_FilterConfig:pConfig <- $r1
	.loc	6 0 7                           @ ../src/driver/stm32g4-v120/src/stm32g4xx_hal_fmac.c:0:7
	movs	r0, #36
	mov	r9, r2
.Ltmp55:
	@DEBUG_VALUE: FMAC_FilterConfig:PreloadAccess <- $r9
	@DEBUG_VALUE: FMAC_FilterConfig:PreloadAccess <- $r9
	mov	r6, r1
.Ltmp56:
	@DEBUG_VALUE: FMAC_FilterConfig:pConfig <- $r6
	@DEBUG_VALUE: FMAC_FilterConfig:pConfig <- $r6
	.loc	6 1681 16 is_stmt 1             @ ../src/driver/stm32g4-v120/src/stm32g4xx_hal_fmac.c:1681:16
	strb.w	r0, [r4, #49]
	.loc	6 1684 15                       @ ../src/driver/stm32g4-v120/src/stm32g4xx_hal_fmac.c:1684:15
	bl	HAL_GetTick
.Ltmp57:
	mov	r8, r0
.Ltmp58:
	@DEBUG_VALUE: FMAC_FilterConfig:tickstart <- $r8
	.loc	6 1690 16                       @ ../src/driver/stm32g4-v120/src/stm32g4xx_hal_fmac.c:1690:16
	ldrb	r0, [r6, #1]
	movs	r1, #0
.Ltmp59:
	.loc	6 1687 22                       @ ../src/driver/stm32g4-v120/src/stm32g4xx_hal_fmac.c:1687:22
	str	r1, [r4, #4]
	.loc	6 1690 7                        @ ../src/driver/stm32g4-v120/src/stm32g4xx_hal_fmac.c:1690:7
	cbz	r0, .LBB6_4
.Ltmp60:
@ %bb.3:
	@DEBUG_VALUE: FMAC_FilterConfig:PreloadAccess <- $r9
	@DEBUG_VALUE: FMAC_FilterConfig:tickstart <- $r8
	@DEBUG_VALUE: FMAC_FilterConfig:pConfig <- $r6
	@DEBUG_VALUE: FMAC_FilterConfig:hfmac <- $r4
	.loc	6 1692 5                        @ ../src/driver/stm32g4-v120/src/stm32g4xx_hal_fmac.c:1692:5
	ldr	r1, [r4]
	movw	r3, #65535
	ldr	r2, [r1]
	bics	r2, r3
	ldrb	r3, [r6]
	orr.w	r0, r2, r0, lsl #8
	add	r0, r3
	str	r0, [r1]
.Ltmp61:
.LBB6_4:
	@DEBUG_VALUE: FMAC_FilterConfig:PreloadAccess <- $r9
	@DEBUG_VALUE: FMAC_FilterConfig:tickstart <- $r8
	@DEBUG_VALUE: FMAC_FilterConfig:pConfig <- $r6
	@DEBUG_VALUE: FMAC_FilterConfig:hfmac <- $r4
	.loc	6 1699 16                       @ ../src/driver/stm32g4-v120/src/stm32g4xx_hal_fmac.c:1699:16
	ldr	r0, [r6, #4]
.Ltmp62:
	.loc	6 1699 7 is_stmt 0              @ ../src/driver/stm32g4-v120/src/stm32g4xx_hal_fmac.c:1699:7
	adds	r1, r0, #1
	beq	.LBB6_6
.Ltmp63:
@ %bb.5:
	@DEBUG_VALUE: FMAC_FilterConfig:PreloadAccess <- $r9
	@DEBUG_VALUE: FMAC_FilterConfig:tickstart <- $r8
	@DEBUG_VALUE: FMAC_FilterConfig:pConfig <- $r6
	@DEBUG_VALUE: FMAC_FilterConfig:hfmac <- $r4
	.loc	6 1704 5 is_stmt 1              @ ../src/driver/stm32g4-v120/src/stm32g4xx_hal_fmac.c:1704:5
	ldr	r1, [r4]
	lsrs	r0, r0, #24
	ldr	r2, [r1]
	bfi	r2, r0, #24, #2
	str	r2, [r1]
.Ltmp64:
.LBB6_6:
	@DEBUG_VALUE: FMAC_FilterConfig:PreloadAccess <- $r9
	@DEBUG_VALUE: FMAC_FilterConfig:tickstart <- $r8
	@DEBUG_VALUE: FMAC_FilterConfig:pConfig <- $r6
	@DEBUG_VALUE: FMAC_FilterConfig:hfmac <- $r4
	.loc	6 1710 16                       @ ../src/driver/stm32g4-v120/src/stm32g4xx_hal_fmac.c:1710:16
	ldrb	r0, [r6, #9]
.Ltmp65:
	.loc	6 1710 7 is_stmt 0              @ ../src/driver/stm32g4-v120/src/stm32g4xx_hal_fmac.c:1710:7
	cbz	r0, .LBB6_8
.Ltmp66:
@ %bb.7:
	@DEBUG_VALUE: FMAC_FilterConfig:PreloadAccess <- $r9
	@DEBUG_VALUE: FMAC_FilterConfig:tickstart <- $r8
	@DEBUG_VALUE: FMAC_FilterConfig:pConfig <- $r6
	@DEBUG_VALUE: FMAC_FilterConfig:hfmac <- $r4
	.loc	6 1712 5 is_stmt 1              @ ../src/driver/stm32g4-v120/src/stm32g4xx_hal_fmac.c:1712:5
	ldr	r1, [r4]
	movw	r3, #65535
	ldr	r2, [r1, #4]
	bics	r2, r3
	ldrb	r3, [r6, #8]
	orr.w	r0, r2, r0, lsl #8
	add	r0, r3
	str	r0, [r1, #4]
.Ltmp67:
.LBB6_8:
	@DEBUG_VALUE: FMAC_FilterConfig:PreloadAccess <- $r9
	@DEBUG_VALUE: FMAC_FilterConfig:tickstart <- $r8
	@DEBUG_VALUE: FMAC_FilterConfig:pConfig <- $r6
	@DEBUG_VALUE: FMAC_FilterConfig:hfmac <- $r4
	.loc	6 1719 16                       @ ../src/driver/stm32g4-v120/src/stm32g4xx_hal_fmac.c:1719:16
	ldrb	r0, [r6, #11]
.Ltmp68:
	.loc	6 1719 7 is_stmt 0              @ ../src/driver/stm32g4-v120/src/stm32g4xx_hal_fmac.c:1719:7
	cbz	r0, .LBB6_10
.Ltmp69:
@ %bb.9:
	@DEBUG_VALUE: FMAC_FilterConfig:PreloadAccess <- $r9
	@DEBUG_VALUE: FMAC_FilterConfig:tickstart <- $r8
	@DEBUG_VALUE: FMAC_FilterConfig:pConfig <- $r6
	@DEBUG_VALUE: FMAC_FilterConfig:hfmac <- $r4
	.loc	6 1721 5 is_stmt 1              @ ../src/driver/stm32g4-v120/src/stm32g4xx_hal_fmac.c:1721:5
	ldr	r1, [r4]
	movw	r3, #65535
	ldr	r2, [r1, #8]
	bics	r2, r3
	ldrb	r3, [r6, #10]
	orr.w	r0, r2, r0, lsl #8
	add	r0, r3
	str	r0, [r1, #8]
.Ltmp70:
.LBB6_10:
	@DEBUG_VALUE: FMAC_FilterConfig:PreloadAccess <- $r9
	@DEBUG_VALUE: FMAC_FilterConfig:tickstart <- $r8
	@DEBUG_VALUE: FMAC_FilterConfig:pConfig <- $r6
	@DEBUG_VALUE: FMAC_FilterConfig:hfmac <- $r4
	.loc	6 1728 16                       @ ../src/driver/stm32g4-v120/src/stm32g4xx_hal_fmac.c:1728:16
	ldr	r0, [r6, #12]
.Ltmp71:
	.loc	6 1728 7 is_stmt 0              @ ../src/driver/stm32g4-v120/src/stm32g4xx_hal_fmac.c:1728:7
	adds	r1, r0, #1
	beq	.LBB6_12
.Ltmp72:
@ %bb.11:
	@DEBUG_VALUE: FMAC_FilterConfig:PreloadAccess <- $r9
	@DEBUG_VALUE: FMAC_FilterConfig:tickstart <- $r8
	@DEBUG_VALUE: FMAC_FilterConfig:pConfig <- $r6
	@DEBUG_VALUE: FMAC_FilterConfig:hfmac <- $r4
	.loc	6 1733 5 is_stmt 1              @ ../src/driver/stm32g4-v120/src/stm32g4xx_hal_fmac.c:1733:5
	ldr	r1, [r4]
	lsrs	r0, r0, #24
	ldr	r2, [r1, #8]
	bfi	r2, r0, #24, #2
	str	r2, [r1, #8]
.Ltmp73:
.LBB6_12:
	@DEBUG_VALUE: FMAC_FilterConfig:PreloadAccess <- $r9
	@DEBUG_VALUE: FMAC_FilterConfig:tickstart <- $r8
	@DEBUG_VALUE: FMAC_FilterConfig:pConfig <- $r6
	@DEBUG_VALUE: FMAC_FilterConfig:hfmac <- $r4
	.loc	6 1743 17                       @ ../src/driver/stm32g4-v120/src/stm32g4xx_hal_fmac.c:1743:17
	ldrb	r0, [r6, #29]
.Ltmp74:
	.loc	6 1739 20                       @ ../src/driver/stm32g4-v120/src/stm32g4xx_hal_fmac.c:1739:20
	ldr	r1, [r6, #32]
.Ltmp75:
	.loc	6 1743 57                       @ ../src/driver/stm32g4-v120/src/stm32g4xx_hal_fmac.c:1743:57
	orr	r2, r0, #2
	cmp	r2, #3
.Ltmp76:
	.loc	6 1739 25                       @ ../src/driver/stm32g4-v120/src/stm32g4xx_hal_fmac.c:1739:25
	and	r1, r1, #32768
.Ltmp77:
	@DEBUG_VALUE: FMAC_FilterConfig:tmpcr <- $r1
	.loc	6 1743 57                       @ ../src/driver/stm32g4-v120/src/stm32g4xx_hal_fmac.c:1743:57
	beq	.LBB6_14
.Ltmp78:
@ %bb.13:
	@DEBUG_VALUE: FMAC_FilterConfig:PreloadAccess <- $r9
	@DEBUG_VALUE: FMAC_FilterConfig:tickstart <- $r8
	@DEBUG_VALUE: FMAC_FilterConfig:pConfig <- $r6
	@DEBUG_VALUE: FMAC_FilterConfig:hfmac <- $r4
	@DEBUG_VALUE: FMAC_FilterConfig:tmpcr <- $r1
	.loc	6 1744 17                       @ ../src/driver/stm32g4-v120/src/stm32g4xx_hal_fmac.c:1744:17
	ldrb	r3, [r6, #30]
	.loc	6 1744 57 is_stmt 0             @ ../src/driver/stm32g4-v120/src/stm32g4xx_hal_fmac.c:1744:57
	orr	r2, r3, #2
	cmp	r2, #3
	bne	.LBB6_15
.Ltmp79:
.LBB6_14:
	@DEBUG_VALUE: FMAC_FilterConfig:PreloadAccess <- $r9
	@DEBUG_VALUE: FMAC_FilterConfig:tickstart <- $r8
	@DEBUG_VALUE: FMAC_FilterConfig:pConfig <- $r6
	@DEBUG_VALUE: FMAC_FilterConfig:hfmac <- $r4
	@DEBUG_VALUE: FMAC_FilterConfig:tmpcr <- $r1
	.loc	6 1754 34 is_stmt 1             @ ../src/driver/stm32g4-v120/src/stm32g4xx_hal_fmac.c:1754:34
	ldrb	r3, [r6, #30]
.Ltmp80:
	.loc	6 1746 11                       @ ../src/driver/stm32g4-v120/src/stm32g4xx_hal_fmac.c:1746:11
	orr	r1, r1, #12
.Ltmp81:
	@DEBUG_VALUE: FMAC_FilterConfig:tmpcr <- $r1
.LBB6_15:
	@DEBUG_VALUE: FMAC_FilterConfig:PreloadAccess <- $r9
	@DEBUG_VALUE: FMAC_FilterConfig:tickstart <- $r8
	@DEBUG_VALUE: FMAC_FilterConfig:pConfig <- $r6
	@DEBUG_VALUE: FMAC_FilterConfig:hfmac <- $r4
	@DEBUG_VALUE: FMAC_FilterConfig:tmpcr <- $r1
	@DEBUG_VALUE: FMAC_FilterConfig:tmpcr <- $r1
	.loc	6 1750 3                        @ ../src/driver/stm32g4-v120/src/stm32g4xx_hal_fmac.c:1750:3
	ldr	r2, [r4]
	str	r1, [r2, #16]
	.loc	6 1753 22                       @ ../src/driver/stm32g4-v120/src/stm32g4xx_hal_fmac.c:1753:22
	strb	r0, [r4, #8]
	.loc	6 1754 23                       @ ../src/driver/stm32g4-v120/src/stm32g4xx_hal_fmac.c:1754:23
	strb	r3, [r4, #9]
	.loc	6 1764 53                       @ ../src/driver/stm32g4-v120/src/stm32g4xx_hal_fmac.c:1764:53
	ldr	r0, [r6, #36]
	.loc	6 1765 48                       @ ../src/driver/stm32g4-v120/src/stm32g4xx_hal_fmac.c:1765:48
	ldrb.w	r3, [r6, #40]
	.loc	6 1766 48                       @ ../src/driver/stm32g4-v120/src/stm32g4xx_hal_fmac.c:1766:48
	ldrb.w	r5, [r6, #41]
	.loc	6 1767 48                       @ ../src/driver/stm32g4-v120/src/stm32g4xx_hal_fmac.c:1767:48
	ldrb.w	r7, [r6, #42]
	.loc	6 1765 89                       @ ../src/driver/stm32g4-v120/src/stm32g4xx_hal_fmac.c:1765:89
	orrs	r0, r3
.Ltmp82:
	.loc	6 1770 17                       @ ../src/driver/stm32g4-v120/src/stm32g4xx_hal_fmac.c:1770:17
	ldr	r1, [r6, #24]
.Ltmp83:
	.loc	6 1766 89                       @ ../src/driver/stm32g4-v120/src/stm32g4xx_hal_fmac.c:1766:89
	orr.w	r0, r0, r5, lsl #8
	orr.w	r0, r0, r7, lsl #16
	orr	r0, r0, #-2147483648
.Ltmp84:
	.loc	6 1770 34                       @ ../src/driver/stm32g4-v120/src/stm32g4xx_hal_fmac.c:1770:34
	cmp	r1, #0
.Ltmp85:
	.loc	6 1764 22                       @ ../src/driver/stm32g4-v120/src/stm32g4xx_hal_fmac.c:1764:22
	str	r0, [r4, #4]
.Ltmp86:
	.loc	6 1770 34                       @ ../src/driver/stm32g4-v120/src/stm32g4xx_hal_fmac.c:1770:34
	beq	.LBB6_30
.Ltmp87:
@ %bb.16:
	@DEBUG_VALUE: FMAC_FilterConfig:PreloadAccess <- $r9
	@DEBUG_VALUE: FMAC_FilterConfig:tickstart <- $r8
	@DEBUG_VALUE: FMAC_FilterConfig:pConfig <- $r6
	@DEBUG_VALUE: FMAC_FilterConfig:hfmac <- $r4
	.loc	6 1770 47 is_stmt 0             @ ../src/driver/stm32g4-v120/src/stm32g4xx_hal_fmac.c:1770:47
	ldrb	r3, [r6, #28]
.Ltmp88:
	.loc	6 1770 7                        @ ../src/driver/stm32g4-v120/src/stm32g4xx_hal_fmac.c:1770:7
	cmp	r3, #0
	beq	.LBB6_30
.Ltmp89:
@ %bb.17:
	@DEBUG_VALUE: FMAC_FilterConfig:PreloadAccess <- $r9
	@DEBUG_VALUE: FMAC_FilterConfig:tickstart <- $r8
	@DEBUG_VALUE: FMAC_FilterConfig:pConfig <- $r6
	@DEBUG_VALUE: FMAC_FilterConfig:hfmac <- $r4
	.loc	6 1786 5 is_stmt 1              @ ../src/driver/stm32g4-v120/src/stm32g4xx_hal_fmac.c:1786:5
	ldrb	r0, [r6, #20]
	.loc	6 1791 9                        @ ../src/driver/stm32g4-v120/src/stm32g4xx_hal_fmac.c:1791:9
	cmp.w	r9, #1
	.loc	6 1786 5                        @ ../src/driver/stm32g4-v120/src/stm32g4xx_hal_fmac.c:1786:5
	orr.w	r7, r3, r0, lsl #8
	add.w	r7, r7, #-2113929216
	str	r7, [r2, #12]
	.loc	6 1791 9                        @ ../src/driver/stm32g4-v120/src/stm32g4xx_hal_fmac.c:1791:9
	bne	.LBB6_23
.Ltmp90:
@ %bb.18:
	@DEBUG_VALUE: FMAC_FilterConfig:PreloadAccess <- $r9
	@DEBUG_VALUE: FMAC_FilterConfig:tickstart <- $r8
	@DEBUG_VALUE: FMAC_FilterConfig:pConfig <- $r6
	@DEBUG_VALUE: FMAC_FilterConfig:hfmac <- $r4
	@DEBUG_VALUE: FMAC_WritePreloadDataIncrementPtr:index <- $r3
	.loc	6 2017 5                        @ ../src/driver/stm32g4-v120/src/stm32g4xx_hal_fmac.c:2017:5
	ldrh	r7, [r1], #2
	str	r7, [r2, #24]
.Ltmp91:
	.loc	6 2015 39                       @ ../src/driver/stm32g4-v120/src/stm32g4xx_hal_fmac.c:2015:39
	subs	r2, r3, #1
.Ltmp92:
	@DEBUG_VALUE: FMAC_WritePreloadDataIncrementPtr:index <- $r2
	.p2align	2
.LBB6_19:                               @ =>This Inner Loop Header: Depth=1
	@DEBUG_VALUE: FMAC_FilterConfig:PreloadAccess <- $r9
	@DEBUG_VALUE: FMAC_FilterConfig:tickstart <- $r8
	@DEBUG_VALUE: FMAC_FilterConfig:pConfig <- $r6
	@DEBUG_VALUE: FMAC_FilterConfig:hfmac <- $r4
	@DEBUG_VALUE: FMAC_WritePreloadDataIncrementPtr:index <- $r2
	.loc	6 2015 3 is_stmt 0              @ ../src/driver/stm32g4-v120/src/stm32g4xx_hal_fmac.c:2015:3
	lsls	r3, r2, #24
.Ltmp93:
	.loc	6 2018 14 is_stmt 1             @ ../src/driver/stm32g4-v120/src/stm32g4xx_hal_fmac.c:2018:14
	str	r1, [r6, #24]
.Ltmp94:
	.loc	6 2015 3                        @ ../src/driver/stm32g4-v120/src/stm32g4xx_hal_fmac.c:2015:3
	beq	.LBB6_24
.Ltmp95:
@ %bb.20:                               @   in Loop: Header=BB6_19 Depth=1
	@DEBUG_VALUE: FMAC_FilterConfig:PreloadAccess <- $r9
	@DEBUG_VALUE: FMAC_FilterConfig:tickstart <- $r8
	@DEBUG_VALUE: FMAC_FilterConfig:pConfig <- $r6
	@DEBUG_VALUE: FMAC_FilterConfig:hfmac <- $r4
	@DEBUG_VALUE: FMAC_WritePreloadDataIncrementPtr:index <- $r2
	.loc	6 2017 5                        @ ../src/driver/stm32g4-v120/src/stm32g4xx_hal_fmac.c:2017:5
	ldr	r3, [r4]
	@DEBUG_VALUE: FMAC_WritePreloadDataIncrementPtr:index <- $r2
	ldrh	r7, [r1], #2
.Ltmp96:
	.loc	6 2015 39                       @ ../src/driver/stm32g4-v120/src/stm32g4xx_hal_fmac.c:2015:39
	subs	r2, #1
.Ltmp97:
	@DEBUG_VALUE: FMAC_WritePreloadDataIncrementPtr:index <- $r2
	.loc	6 2017 5                        @ ../src/driver/stm32g4-v120/src/stm32g4xx_hal_fmac.c:2017:5
	str	r7, [r3, #24]
	b	.LBB6_19
.Ltmp98:
.LBB6_21:
	@DEBUG_VALUE: FMAC_FilterConfig:hfmac <- $r4
	@DEBUG_VALUE: FMAC_FilterConfig:PreloadAccess <- $r2
	@DEBUG_VALUE: FMAC_FilterConfig:pConfig <- $r1
	.loc	6 0 5 is_stmt 0                 @ ../src/driver/stm32g4-v120/src/stm32g4xx_hal_fmac.c:0:5
	movs	r0, #1
	b	.LBB6_31
.Ltmp99:
.LBB6_22:
	@DEBUG_VALUE: FMAC_FilterConfig:hfmac <- $r4
	@DEBUG_VALUE: FMAC_FilterConfig:PreloadAccess <- $r2
	@DEBUG_VALUE: FMAC_FilterConfig:pConfig <- $r1
	movs	r0, #2
	b	.LBB6_31
.Ltmp100:
.LBB6_23:
	@DEBUG_VALUE: FMAC_FilterConfig:PreloadAccess <- $r9
	@DEBUG_VALUE: FMAC_FilterConfig:tickstart <- $r8
	@DEBUG_VALUE: FMAC_FilterConfig:pConfig <- $r6
	@DEBUG_VALUE: FMAC_FilterConfig:hfmac <- $r4
	.loc	6 1816 32 is_stmt 1             @ ../src/driver/stm32g4-v120/src/stm32g4xx_hal_fmac.c:1816:32
	ldr	r7, [r6, #16]
	.loc	6 1817 31                       @ ../src/driver/stm32g4-v120/src/stm32g4xx_hal_fmac.c:1817:31
	strh	r0, [r4, #16]
	.loc	6 1820 14                       @ ../src/driver/stm32g4-v120/src/stm32g4xx_hal_fmac.c:1820:14
	ldr	r0, [r4, #44]
	.loc	6 1821 44                       @ ../src/driver/stm32g4-v120/src/stm32g4xx_hal_fmac.c:1821:44
	movw	r6, :lower16:FMAC_DMAFilterConfig
.Ltmp101:
	@DEBUG_VALUE: FMAC_FilterConfig:pConfig <- [DW_OP_LLVM_entry_value 1] $r1
	.loc	6 1823 45                       @ ../src/driver/stm32g4-v120/src/stm32g4xx_hal_fmac.c:1823:45
	movw	r5, :lower16:FMAC_DMAError
	.loc	6 1816 21                       @ ../src/driver/stm32g4-v120/src/stm32g4xx_hal_fmac.c:1816:21
	str	r7, [r4, #12]
	movs	r7, #0
	.loc	6 1821 44                       @ ../src/driver/stm32g4-v120/src/stm32g4xx_hal_fmac.c:1821:44
	movt	r6, :upper16:FMAC_DMAFilterConfig
	.loc	6 1823 45                       @ ../src/driver/stm32g4-v120/src/stm32g4xx_hal_fmac.c:1823:45
	movt	r5, :upper16:FMAC_DMAError
	.loc	6 1821 44                       @ ../src/driver/stm32g4-v120/src/stm32g4xx_hal_fmac.c:1821:44
	strd	r6, r7, [r0, #44]
	.loc	6 1826 108                      @ ../src/driver/stm32g4-v120/src/stm32g4xx_hal_fmac.c:1826:108
	adds	r2, #24
	.loc	6 1823 45                       @ ../src/driver/stm32g4-v120/src/stm32g4xx_hal_fmac.c:1823:45
	str	r5, [r0, #52]
	.loc	6 1826 15                       @ ../src/driver/stm32g4-v120/src/stm32g4xx_hal_fmac.c:1826:15
	add	sp, #4
	pop.w	{r4, r5, r6, r7, r8, r9, lr}
.Ltmp102:
	b	HAL_DMA_Start_IT
.Ltmp103:
.LBB6_24:
	@DEBUG_VALUE: FMAC_FilterConfig:PreloadAccess <- $r9
	@DEBUG_VALUE: FMAC_FilterConfig:tickstart <- $r8
	@DEBUG_VALUE: FMAC_FilterConfig:pConfig <- $r6
	@DEBUG_VALUE: FMAC_FilterConfig:hfmac <- $r4
	.loc	6 1797 38                       @ ../src/driver/stm32g4-v120/src/stm32g4xx_hal_fmac.c:1797:38
	cbz	r0, .LBB6_29
.Ltmp104:
@ %bb.25:
	@DEBUG_VALUE: FMAC_FilterConfig:PreloadAccess <- $r9
	@DEBUG_VALUE: FMAC_FilterConfig:tickstart <- $r8
	@DEBUG_VALUE: FMAC_FilterConfig:pConfig <- $r6
	@DEBUG_VALUE: FMAC_FilterConfig:hfmac <- $r4
	.loc	6 0 0 is_stmt 0                 @ ../src/driver/stm32g4-v120/src/stm32g4xx_hal_fmac.c:0:0
	ldr	r1, [r6, #16]
	.loc	6 1797 38                       @ ../src/driver/stm32g4-v120/src/stm32g4xx_hal_fmac.c:1797:38
	cbz	r1, .LBB6_29
.Ltmp105:
@ %bb.26:
	@DEBUG_VALUE: FMAC_FilterConfig:PreloadAccess <- $r9
	@DEBUG_VALUE: FMAC_FilterConfig:tickstart <- $r8
	@DEBUG_VALUE: FMAC_FilterConfig:pConfig <- $r6
	@DEBUG_VALUE: FMAC_FilterConfig:hfmac <- $r4
	.loc	6 2015 3 is_stmt 1              @ ../src/driver/stm32g4-v120/src/stm32g4xx_hal_fmac.c:2015:3
	adds	r1, #2
.Ltmp106:
	.p2align	2
.LBB6_27:                               @ =>This Inner Loop Header: Depth=1
	@DEBUG_VALUE: FMAC_FilterConfig:PreloadAccess <- $r9
	@DEBUG_VALUE: FMAC_FilterConfig:tickstart <- $r8
	@DEBUG_VALUE: FMAC_FilterConfig:pConfig <- $r6
	@DEBUG_VALUE: FMAC_FilterConfig:hfmac <- $r4
	@DEBUG_VALUE: FMAC_WritePreloadDataIncrementPtr:index <- $r0
	.loc	6 2017 5                        @ ../src/driver/stm32g4-v120/src/stm32g4xx_hal_fmac.c:2017:5
	ldrh	r2, [r1, #-2]
	ldr	r3, [r4]
.Ltmp107:
	.loc	6 2015 39                       @ ../src/driver/stm32g4-v120/src/stm32g4xx_hal_fmac.c:2015:39
	subs	r0, #1
.Ltmp108:
	@DEBUG_VALUE: FMAC_WritePreloadDataIncrementPtr:index <- $r0
	.loc	6 2017 5                        @ ../src/driver/stm32g4-v120/src/stm32g4xx_hal_fmac.c:2017:5
	str	r2, [r3, #24]
	.loc	6 2018 14                       @ ../src/driver/stm32g4-v120/src/stm32g4xx_hal_fmac.c:2018:14
	str	r1, [r6, #16]
.Ltmp109:
	.loc	6 2015 3                        @ ../src/driver/stm32g4-v120/src/stm32g4xx_hal_fmac.c:2015:3
	lsls	r2, r0, #24
	add.w	r1, r1, #2
	bne	.LBB6_27
	b	.LBB6_29
.Ltmp110:
	.p2align	2
.LBB6_28:                               @   in Loop: Header=BB6_29 Depth=1
	@DEBUG_VALUE: FMAC_FilterConfig:PreloadAccess <- $r9
	@DEBUG_VALUE: FMAC_FilterConfig:tickstart <- $r8
	@DEBUG_VALUE: FMAC_FilterConfig:pConfig <- $r6
	@DEBUG_VALUE: FMAC_FilterConfig:hfmac <- $r4
	.loc	6 2034 10                       @ ../src/driver/stm32g4-v120/src/stm32g4xx_hal_fmac.c:2034:10
	bl	HAL_GetTick
.Ltmp111:
	.loc	6 2034 24 is_stmt 0             @ ../src/driver/stm32g4-v120/src/stm32g4xx_hal_fmac.c:2034:24
	sub.w	r0, r0, r8
.Ltmp112:
	.loc	6 2034 9                        @ ../src/driver/stm32g4-v120/src/stm32g4xx_hal_fmac.c:2034:9
	cmp.w	r0, #1000
	bhi	.LBB6_32
.Ltmp113:
.LBB6_29:                               @ =>This Inner Loop Header: Depth=1
	@DEBUG_VALUE: FMAC_FilterConfig:PreloadAccess <- $r9
	@DEBUG_VALUE: FMAC_FilterConfig:tickstart <- $r8
	@DEBUG_VALUE: FMAC_FilterConfig:pConfig <- $r6
	@DEBUG_VALUE: FMAC_FilterConfig:hfmac <- $r4
	.loc	6 2032 10 is_stmt 1             @ ../src/driver/stm32g4-v120/src/stm32g4xx_hal_fmac.c:2032:10
	ldr	r0, [r4]
	ldr	r0, [r0, #12]
	.loc	6 2032 3 is_stmt 0              @ ../src/driver/stm32g4-v120/src/stm32g4xx_hal_fmac.c:2032:3
	cmp.w	r0, #-1
	ble	.LBB6_28
.Ltmp114:
.LBB6_30:
	@DEBUG_VALUE: FMAC_FilterConfig:PreloadAccess <- $r9
	@DEBUG_VALUE: FMAC_FilterConfig:tickstart <- $r8
	@DEBUG_VALUE: FMAC_FilterConfig:pConfig <- $r6
	@DEBUG_VALUE: FMAC_FilterConfig:hfmac <- $r4
	.loc	6 0 3                           @ ../src/driver/stm32g4-v120/src/stm32g4xx_hal_fmac.c:0:3
	movs	r0, #32
	strb.w	r0, [r4, #49]
	movs	r0, #0
.Ltmp115:
.LBB6_31:
	@DEBUG_VALUE: FMAC_FilterConfig:hfmac <- $r4
	.loc	6 1837 1 is_stmt 1              @ ../src/driver/stm32g4-v120/src/stm32g4xx_hal_fmac.c:1837:1
	add	sp, #4
	pop.w	{r4, r5, r6, r7, r8, r9, pc}
.Ltmp116:
.LBB6_32:
	@DEBUG_VALUE: FMAC_FilterConfig:PreloadAccess <- $r9
	@DEBUG_VALUE: FMAC_FilterConfig:tickstart <- $r8
	@DEBUG_VALUE: FMAC_FilterConfig:pConfig <- $r6
	@DEBUG_VALUE: FMAC_FilterConfig:hfmac <- $r4
	.loc	6 2036 24                       @ ../src/driver/stm32g4-v120/src/stm32g4xx_hal_fmac.c:2036:24
	ldr	r0, [r4, #52]
	orr	r0, r0, #128
	str	r0, [r4, #52]
.Ltmp117:
	.loc	6 1806 26                       @ ../src/driver/stm32g4-v120/src/stm32g4xx_hal_fmac.c:1806:26
	ldr	r0, [r4, #52]
	orr	r0, r0, #128
	str	r0, [r4, #52]
	movs	r0, #160
	.loc	6 1807 22                       @ ../src/driver/stm32g4-v120/src/stm32g4xx_hal_fmac.c:1807:22
	strb.w	r0, [r4, #49]
	movs	r0, #3
	b	.LBB6_31
.Ltmp118:
.Lfunc_end6:
	.size	FMAC_FilterConfig, .Lfunc_end6-FMAC_FilterConfig
	.cfi_endproc
	.cantunwind
	.fnend
                                        @ -- End function
	.section	.text.HAL_FMAC_FilterConfig_DMA,"ax",%progbits
	.hidden	HAL_FMAC_FilterConfig_DMA       @ -- Begin function HAL_FMAC_FilterConfig_DMA
	.globl	HAL_FMAC_FilterConfig_DMA
	.p2align	1
	.type	HAL_FMAC_FilterConfig_DMA,%function
	.code	16                              @ @HAL_FMAC_FilterConfig_DMA
	.thumb_func
HAL_FMAC_FilterConfig_DMA:
.Lfunc_begin7:
	.loc	6 822 0                         @ ../src/driver/stm32g4-v120/src/stm32g4xx_hal_fmac.c:822:0
	.fnstart
	.cfi_startproc
@ %bb.0:
	@DEBUG_VALUE: HAL_FMAC_FilterConfig_DMA:hfmac <- $r0
	@DEBUG_VALUE: HAL_FMAC_FilterConfig_DMA:hfmac <- $r0
	@DEBUG_VALUE: HAL_FMAC_FilterConfig_DMA:hfmac <- $r0
	@DEBUG_VALUE: HAL_FMAC_FilterConfig_DMA:pConfig <- $r1
	@DEBUG_VALUE: HAL_FMAC_FilterConfig_DMA:pConfig <- $r1
	@DEBUG_VALUE: HAL_FMAC_FilterConfig_DMA:pConfig <- $r1
	.loc	6 823 11 prologue_end           @ ../src/driver/stm32g4-v120/src/stm32g4xx_hal_fmac.c:823:11
	movs	r2, #0
.Ltmp119:
	b	FMAC_FilterConfig
.Ltmp120:
.Lfunc_end7:
	.size	HAL_FMAC_FilterConfig_DMA, .Lfunc_end7-HAL_FMAC_FilterConfig_DMA
	.cfi_endproc
	.cantunwind
	.fnend
                                        @ -- End function
	.section	.text.HAL_FMAC_FilterPreload,"ax",%progbits
	.hidden	HAL_FMAC_FilterPreload          @ -- Begin function HAL_FMAC_FilterPreload
	.globl	HAL_FMAC_FilterPreload
	.p2align	1
	.type	HAL_FMAC_FilterPreload,%function
	.code	16                              @ @HAL_FMAC_FilterPreload
	.thumb_func
HAL_FMAC_FilterPreload:
.Lfunc_begin8:
	.loc	6 847 0                         @ ../src/driver/stm32g4-v120/src/stm32g4xx_hal_fmac.c:847:0
	.fnstart
	.cfi_startproc
@ %bb.0:
	@DEBUG_VALUE: HAL_FMAC_FilterPreload:hfmac <- $r0
	@DEBUG_VALUE: HAL_FMAC_FilterPreload:pInput <- $r1
	@DEBUG_VALUE: HAL_FMAC_FilterPreload:InputSize <- $r2
	@DEBUG_VALUE: HAL_FMAC_FilterPreload:pOutput <- $r3
	.save	{r7, lr}
	push	{r7, lr}
	.cfi_def_cfa_offset 8
	.cfi_offset lr, -4
	.cfi_offset r7, -8
	.pad	#8
	sub	sp, #8
	.cfi_def_cfa_offset 16
	ldr.w	r12, [sp, #16]
	@DEBUG_VALUE: HAL_FMAC_FilterPreload:OutputSize <- undef
	@DEBUG_VALUE: HAL_FMAC_FilterPreload:pOutput <- $r3
	@DEBUG_VALUE: HAL_FMAC_FilterPreload:InputSize <- $r2
	@DEBUG_VALUE: HAL_FMAC_FilterPreload:pInput <- $r1
	@DEBUG_VALUE: HAL_FMAC_FilterPreload:hfmac <- $r0
	mov.w	lr, #1
	@DEBUG_VALUE: HAL_FMAC_FilterPreload:pOutput <- $r3
	@DEBUG_VALUE: HAL_FMAC_FilterPreload:InputSize <- $r2
	@DEBUG_VALUE: HAL_FMAC_FilterPreload:pInput <- $r1
	@DEBUG_VALUE: HAL_FMAC_FilterPreload:hfmac <- $r0
.Ltmp121:
	.loc	6 848 11 prologue_end           @ ../src/driver/stm32g4-v120/src/stm32g4xx_hal_fmac.c:848:11
	strd	r12, lr, [sp]
	bl	FMAC_FilterPreload
.Ltmp122:
	@DEBUG_VALUE: HAL_FMAC_FilterPreload:pOutput <- [DW_OP_LLVM_entry_value 1] $r3
	@DEBUG_VALUE: HAL_FMAC_FilterPreload:InputSize <- [DW_OP_LLVM_entry_value 1] $r2
	@DEBUG_VALUE: HAL_FMAC_FilterPreload:pInput <- [DW_OP_LLVM_entry_value 1] $r1
	@DEBUG_VALUE: HAL_FMAC_FilterPreload:hfmac <- [DW_OP_LLVM_entry_value 1] $r0
	.loc	6 848 3 is_stmt 0               @ ../src/driver/stm32g4-v120/src/stm32g4xx_hal_fmac.c:848:3
	add	sp, #8
	pop	{r7, pc}
.Ltmp123:
.Lfunc_end8:
	.size	HAL_FMAC_FilterPreload, .Lfunc_end8-HAL_FMAC_FilterPreload
	.cfi_endproc
	.cantunwind
	.fnend
                                        @ -- End function
	.section	.text.FMAC_FilterPreload,"ax",%progbits
	.p2align	1                               @ -- Begin function FMAC_FilterPreload
	.type	FMAC_FilterPreload,%function
	.code	16                              @ @FMAC_FilterPreload
	.thumb_func
FMAC_FilterPreload:
.Lfunc_begin9:
	.loc	6 1860 0 is_stmt 1              @ ../src/driver/stm32g4-v120/src/stm32g4xx_hal_fmac.c:1860:0
	.fnstart
	.cfi_startproc
@ %bb.0:
	@DEBUG_VALUE: FMAC_FilterPreload:hfmac <- $r0
	@DEBUG_VALUE: FMAC_FilterPreload:pInput <- $r1
	@DEBUG_VALUE: FMAC_FilterPreload:InputSize <- $r2
	@DEBUG_VALUE: FMAC_FilterPreload:pOutput <- $r3
	.save	{r4, r5, r6, r7, r8, r9, r10, lr}
	push.w	{r4, r5, r6, r7, r8, r9, r10, lr}
	.cfi_def_cfa_offset 32
	.cfi_offset lr, -4
	.cfi_offset r10, -8
	.cfi_offset r9, -12
	.cfi_offset r8, -16
	.cfi_offset r7, -20
	.cfi_offset r6, -24
	.cfi_offset r5, -28
	.cfi_offset r4, -32
	mov	r9, r0
.Ltmp124:
	.loc	6 1865 7 prologue_end           @ ../src/driver/stm32g4-v120/src/stm32g4xx_hal_fmac.c:1865:7
	ldr	r0, [r0]
.Ltmp125:
	@DEBUG_VALUE: FMAC_FilterPreload:hfmac <- [DW_OP_LLVM_entry_value 1] $r0
	.loc	6 0 7 is_stmt 0                 @ ../src/driver/stm32g4-v120/src/stm32g4xx_hal_fmac.c:0:7
	mov	r5, r3
.Ltmp126:
	@DEBUG_VALUE: FMAC_FilterPreload:pOutput <- $r5
	ldr.w	r10, [sp, #36]
.Ltmp127:
	@DEBUG_VALUE: FMAC_FilterPreload:PreloadAccess <- $r10
	@DEBUG_VALUE: FMAC_FilterPreload:pOutput <- $r5
	@DEBUG_VALUE: FMAC_FilterPreload:hfmac <- $r9
	ldr	r6, [sp, #32]
.Ltmp128:
	@DEBUG_VALUE: FMAC_FilterPreload:OutputSize <- $r6
	@DEBUG_VALUE: FMAC_FilterPreload:InputSize <- undef
	.loc	6 1865 7                        @ ../src/driver/stm32g4-v120/src/stm32g4xx_hal_fmac.c:1865:7
	ldr	r3, [r0, #12]
.Ltmp129:
	@DEBUG_VALUE: FMAC_FilterPreload:InputSize <- $r2
	.loc	6 1865 7                        @ ../src/driver/stm32g4-v120/src/stm32g4xx_hal_fmac.c:1865:7
	cmp	r3, #0
	@DEBUG_VALUE: FMAC_FilterPreload:pInput <- $r1
	bmi	.LBB9_6
.Ltmp130:
@ %bb.1:
	@DEBUG_VALUE: FMAC_FilterPreload:PreloadAccess <- $r10
	@DEBUG_VALUE: FMAC_FilterPreload:hfmac <- $r9
	@DEBUG_VALUE: FMAC_FilterPreload:OutputSize <- $r6
	@DEBUG_VALUE: FMAC_FilterPreload:pOutput <- $r5
	@DEBUG_VALUE: FMAC_FilterPreload:InputSize <- $r2
	@DEBUG_VALUE: FMAC_FilterPreload:pInput <- $r1
	@DEBUG_VALUE: FMAC_FilterPreload:InputSize <- $r2
	.loc	6 0 7                           @ ../src/driver/stm32g4-v120/src/stm32g4xx_hal_fmac.c:0:7
	mov	r4, r1
.Ltmp131:
	@DEBUG_VALUE: FMAC_FilterPreload:pInput <- $r4
	@DEBUG_VALUE: FMAC_FilterPreload:pInput <- $r4
	@DEBUG_VALUE: FMAC_FilterPreload:InputSize <- $r2
	.loc	6 1871 14 is_stmt 1             @ ../src/driver/stm32g4-v120/src/stm32g4xx_hal_fmac.c:1871:14
	ldr.w	r1, [r9, #4]
.Ltmp132:
	.loc	6 1871 7 is_stmt 0              @ ../src/driver/stm32g4-v120/src/stm32g4xx_hal_fmac.c:1871:7
	cbz	r1, .LBB9_6
.Ltmp133:
@ %bb.2:
	@DEBUG_VALUE: FMAC_FilterPreload:PreloadAccess <- $r10
	@DEBUG_VALUE: FMAC_FilterPreload:hfmac <- $r9
	@DEBUG_VALUE: FMAC_FilterPreload:OutputSize <- $r6
	@DEBUG_VALUE: FMAC_FilterPreload:pOutput <- $r5
	@DEBUG_VALUE: FMAC_FilterPreload:pInput <- $r4
	@DEBUG_VALUE: FMAC_FilterPreload:InputSize <- $r2
	.loc	6 1877 20 is_stmt 1             @ ../src/driver/stm32g4-v120/src/stm32g4xx_hal_fmac.c:1877:20
	ldr	r1, [r0]
	@DEBUG_VALUE: FMAC_FilterPreload:pInput <- $r4
	mov	r7, r2
.Ltmp134:
	@DEBUG_VALUE: FMAC_FilterPreload:InputSize <- $r7
	@DEBUG_VALUE: FMAC_FilterPreload:InputSize <- $r7
	@DEBUG_VALUE: FMAC_FilterPreload:InputSize <- $r7
	@DEBUG_VALUE: FMAC_FilterPreload:InputSize <- $r7
	.loc	6 1877 45 is_stmt 0             @ ../src/driver/stm32g4-v120/src/stm32g4xx_hal_fmac.c:1877:45
	cbz	r4, .LBB9_4
.Ltmp135:
@ %bb.3:
	@DEBUG_VALUE: FMAC_FilterPreload:PreloadAccess <- $r10
	@DEBUG_VALUE: FMAC_FilterPreload:hfmac <- $r9
	@DEBUG_VALUE: FMAC_FilterPreload:InputSize <- $r7
	@DEBUG_VALUE: FMAC_FilterPreload:OutputSize <- $r6
	@DEBUG_VALUE: FMAC_FilterPreload:pOutput <- $r5
	@DEBUG_VALUE: FMAC_FilterPreload:pInput <- $r4
	.loc	6 0 45                          @ ../src/driver/stm32g4-v120/src/stm32g4xx_hal_fmac.c:0:45
	ubfx	r1, r1, #8, #8
	.loc	6 1877 45                       @ ../src/driver/stm32g4-v120/src/stm32g4xx_hal_fmac.c:1877:45
	cmp	r1, r7
	blo	.LBB9_6
.Ltmp136:
.LBB9_4:
	@DEBUG_VALUE: FMAC_FilterPreload:PreloadAccess <- $r10
	@DEBUG_VALUE: FMAC_FilterPreload:hfmac <- $r9
	@DEBUG_VALUE: FMAC_FilterPreload:InputSize <- $r7
	@DEBUG_VALUE: FMAC_FilterPreload:OutputSize <- $r6
	@DEBUG_VALUE: FMAC_FilterPreload:pOutput <- $r5
	@DEBUG_VALUE: FMAC_FilterPreload:pInput <- $r4
	.loc	6 1883 21 is_stmt 1             @ ../src/driver/stm32g4-v120/src/stm32g4xx_hal_fmac.c:1883:21
	ldr	r0, [r0, #8]
	@DEBUG_VALUE: FMAC_FilterPreload:pOutput <- $r5
	.loc	6 1883 45 is_stmt 0             @ ../src/driver/stm32g4-v120/src/stm32g4xx_hal_fmac.c:1883:45
	cbz	r5, .LBB9_7
.Ltmp137:
@ %bb.5:
	@DEBUG_VALUE: FMAC_FilterPreload:PreloadAccess <- $r10
	@DEBUG_VALUE: FMAC_FilterPreload:hfmac <- $r9
	@DEBUG_VALUE: FMAC_FilterPreload:InputSize <- $r7
	@DEBUG_VALUE: FMAC_FilterPreload:OutputSize <- $r6
	@DEBUG_VALUE: FMAC_FilterPreload:pOutput <- $r5
	@DEBUG_VALUE: FMAC_FilterPreload:pInput <- $r4
	.loc	6 0 45                          @ ../src/driver/stm32g4-v120/src/stm32g4xx_hal_fmac.c:0:45
	ubfx	r0, r0, #8, #8
	.loc	6 1883 45                       @ ../src/driver/stm32g4-v120/src/stm32g4xx_hal_fmac.c:1883:45
	cmp	r0, r6
	bhs	.LBB9_7
.Ltmp138:
.LBB9_6:
	@DEBUG_VALUE: FMAC_FilterPreload:PreloadAccess <- $r10
	@DEBUG_VALUE: FMAC_FilterPreload:hfmac <- $r9
	@DEBUG_VALUE: FMAC_FilterPreload:OutputSize <- $r6
	@DEBUG_VALUE: FMAC_FilterPreload:pOutput <- $r5
	.loc	6 0 45                          @ ../src/driver/stm32g4-v120/src/stm32g4xx_hal_fmac.c:0:45
	movs	r0, #1
	.loc	6 1999 1 is_stmt 1              @ ../src/driver/stm32g4-v120/src/stm32g4xx_hal_fmac.c:1999:1
	pop.w	{r4, r5, r6, r7, r8, r9, r10, pc}
.Ltmp139:
.LBB9_7:
	@DEBUG_VALUE: FMAC_FilterPreload:PreloadAccess <- $r10
	@DEBUG_VALUE: FMAC_FilterPreload:hfmac <- $r9
	@DEBUG_VALUE: FMAC_FilterPreload:InputSize <- $r7
	@DEBUG_VALUE: FMAC_FilterPreload:OutputSize <- $r6
	@DEBUG_VALUE: FMAC_FilterPreload:pOutput <- $r5
	@DEBUG_VALUE: FMAC_FilterPreload:pInput <- $r4
	.loc	6 1889 14                       @ ../src/driver/stm32g4-v120/src/stm32g4xx_hal_fmac.c:1889:14
	ldrb.w	r0, [r9, #49]
.Ltmp140:
	.loc	6 1889 7 is_stmt 0              @ ../src/driver/stm32g4-v120/src/stm32g4xx_hal_fmac.c:1889:7
	cmp	r0, #32
	itt	ne
	movne	r0, #2
	.loc	6 1999 1 is_stmt 1              @ ../src/driver/stm32g4-v120/src/stm32g4xx_hal_fmac.c:1999:1
	popne.w	{r4, r5, r6, r7, r8, r9, r10, pc}
.Ltmp141:
.LBB9_8:
	.loc	6 0 1 is_stmt 0                 @ ../src/driver/stm32g4-v120/src/stm32g4xx_hal_fmac.c:0:1
	movs	r0, #36
	.loc	6 1895 16 is_stmt 1             @ ../src/driver/stm32g4-v120/src/stm32g4xx_hal_fmac.c:1895:16
	strb.w	r0, [r9, #49]
	.loc	6 1898 15                       @ ../src/driver/stm32g4-v120/src/stm32g4xx_hal_fmac.c:1898:15
	bl	HAL_GetTick
.Ltmp142:
	mov	r8, r0
.Ltmp143:
	@DEBUG_VALUE: FMAC_FilterPreload:tickstart <- $r8
	@DEBUG_VALUE: FMAC_FilterPreload:pInput <- $r4
	.loc	6 1901 24                       @ ../src/driver/stm32g4-v120/src/stm32g4xx_hal_fmac.c:1901:24
	cbz	r4, .LBB9_16
.Ltmp144:
@ %bb.9:
	@DEBUG_VALUE: FMAC_FilterPreload:tickstart <- $r8
	@DEBUG_VALUE: FMAC_FilterPreload:pInput <- $r4
	cbz	r7, .LBB9_16
.Ltmp145:
@ %bb.10:
	@DEBUG_VALUE: FMAC_FilterPreload:tickstart <- $r8
	@DEBUG_VALUE: FMAC_FilterPreload:pInput <- $r4
	.loc	6 1904 5                        @ ../src/driver/stm32g4-v120/src/stm32g4xx_hal_fmac.c:1904:5
	ldr.w	r1, [r9]
	add.w	r0, r7, #-2130706432
	.loc	6 1907 9                        @ ../src/driver/stm32g4-v120/src/stm32g4xx_hal_fmac.c:1907:9
	cmp.w	r10, #1
	.loc	6 1904 5                        @ ../src/driver/stm32g4-v120/src/stm32g4xx_hal_fmac.c:1904:5
	str	r0, [r1, #12]
	.loc	6 1907 9                        @ ../src/driver/stm32g4-v120/src/stm32g4xx_hal_fmac.c:1907:9
	bne	.LBB9_31
.Ltmp146:
	.p2align	2
.LBB9_11:                               @ =>This Inner Loop Header: Depth=1
	@DEBUG_VALUE: FMAC_FilterPreload:tickstart <- $r8
	@DEBUG_VALUE: FMAC_WritePreloadDataIncrementPtr:index <- $r7
	.loc	6 2017 5                        @ ../src/driver/stm32g4-v120/src/stm32g4xx_hal_fmac.c:2017:5
	ldrh	r0, [r4], #2
.Ltmp147:
	.loc	6 2015 39                       @ ../src/driver/stm32g4-v120/src/stm32g4xx_hal_fmac.c:2015:39
	subs	r7, #1
.Ltmp148:
	@DEBUG_VALUE: FMAC_WritePreloadDataIncrementPtr:index <- $r7
	.loc	6 2015 3 is_stmt 0              @ ../src/driver/stm32g4-v120/src/stm32g4xx_hal_fmac.c:2015:3
	lsls	r2, r7, #24
.Ltmp149:
	.loc	6 2017 5 is_stmt 1              @ ../src/driver/stm32g4-v120/src/stm32g4xx_hal_fmac.c:2017:5
	str	r0, [r1, #24]
.Ltmp150:
	.loc	6 2015 3                        @ ../src/driver/stm32g4-v120/src/stm32g4xx_hal_fmac.c:2015:3
	bne	.LBB9_11
.Ltmp151:
@ %bb.12:
	@DEBUG_VALUE: FMAC_FilterPreload:tickstart <- $r8
	.loc	6 2032 10                       @ ../src/driver/stm32g4-v120/src/stm32g4xx_hal_fmac.c:2032:10
	ldr	r0, [r1, #12]
.Ltmp152:
.LBB9_13:                               @ =>This Inner Loop Header: Depth=1
	@DEBUG_VALUE: FMAC_FilterPreload:tickstart <- $r8
	.loc	6 2032 3 is_stmt 0              @ ../src/driver/stm32g4-v120/src/stm32g4xx_hal_fmac.c:2032:3
	cmp.w	r0, #-1
	bgt	.LBB9_16
.Ltmp153:
@ %bb.14:                               @   in Loop: Header=BB9_13 Depth=1
	@DEBUG_VALUE: FMAC_FilterPreload:tickstart <- $r8
	.loc	6 2034 10 is_stmt 1             @ ../src/driver/stm32g4-v120/src/stm32g4xx_hal_fmac.c:2034:10
	bl	HAL_GetTick
.Ltmp154:
	.loc	6 2034 24 is_stmt 0             @ ../src/driver/stm32g4-v120/src/stm32g4xx_hal_fmac.c:2034:24
	sub.w	r0, r0, r8
.Ltmp155:
	.loc	6 2034 9                        @ ../src/driver/stm32g4-v120/src/stm32g4xx_hal_fmac.c:2034:9
	cmp.w	r0, #1000
	bhi	.LBB9_34
.Ltmp156:
@ %bb.15:                               @   in Loop: Header=BB9_13 Depth=1
	@DEBUG_VALUE: FMAC_FilterPreload:tickstart <- $r8
	.loc	6 2032 10 is_stmt 1             @ ../src/driver/stm32g4-v120/src/stm32g4xx_hal_fmac.c:2032:10
	ldr.w	r0, [r9]
	ldr	r0, [r0, #12]
	b	.LBB9_13
.Ltmp157:
.LBB9_16:
	@DEBUG_VALUE: FMAC_FilterPreload:tickstart <- $r8
	@DEBUG_VALUE: FMAC_FilterPreload:pOutput <- $r5
	.loc	6 1937 25                       @ ../src/driver/stm32g4-v120/src/stm32g4xx_hal_fmac.c:1937:25
	cbz	r5, .LBB9_23
.Ltmp158:
@ %bb.17:
	@DEBUG_VALUE: FMAC_FilterPreload:tickstart <- $r8
	@DEBUG_VALUE: FMAC_FilterPreload:pOutput <- $r5
	cbz	r6, .LBB9_23
.Ltmp159:
@ %bb.18:
	@DEBUG_VALUE: FMAC_FilterPreload:tickstart <- $r8
	@DEBUG_VALUE: FMAC_FilterPreload:pOutput <- $r5
	.loc	6 1940 5                        @ ../src/driver/stm32g4-v120/src/stm32g4xx_hal_fmac.c:1940:5
	ldr.w	r1, [r9]
	add.w	r0, r6, #-2097152000
	.loc	6 1943 9                        @ ../src/driver/stm32g4-v120/src/stm32g4xx_hal_fmac.c:1943:9
	cmp.w	r10, #1
	.loc	6 1940 5                        @ ../src/driver/stm32g4-v120/src/stm32g4xx_hal_fmac.c:1940:5
	str	r0, [r1, #12]
	.loc	6 1943 9                        @ ../src/driver/stm32g4-v120/src/stm32g4xx_hal_fmac.c:1943:9
	bne	.LBB9_32
.Ltmp160:
	.p2align	2
.LBB9_19:                               @ =>This Inner Loop Header: Depth=1
	@DEBUG_VALUE: FMAC_FilterPreload:tickstart <- $r8
	@DEBUG_VALUE: FMAC_WritePreloadDataIncrementPtr:index <- $r6
	.loc	6 2017 5                        @ ../src/driver/stm32g4-v120/src/stm32g4xx_hal_fmac.c:2017:5
	ldrh	r0, [r5], #2
.Ltmp161:
	.loc	6 2015 39                       @ ../src/driver/stm32g4-v120/src/stm32g4xx_hal_fmac.c:2015:39
	subs	r6, #1
.Ltmp162:
	@DEBUG_VALUE: FMAC_WritePreloadDataIncrementPtr:index <- $r6
	.loc	6 2015 3 is_stmt 0              @ ../src/driver/stm32g4-v120/src/stm32g4xx_hal_fmac.c:2015:3
	lsls	r2, r6, #24
.Ltmp163:
	.loc	6 2017 5 is_stmt 1              @ ../src/driver/stm32g4-v120/src/stm32g4xx_hal_fmac.c:2017:5
	str	r0, [r1, #24]
.Ltmp164:
	.loc	6 2015 3                        @ ../src/driver/stm32g4-v120/src/stm32g4xx_hal_fmac.c:2015:3
	bne	.LBB9_19
	b	.LBB9_22
.Ltmp165:
.LBB9_20:                               @   in Loop: Header=BB9_22 Depth=1
	@DEBUG_VALUE: FMAC_FilterPreload:tickstart <- $r8
	.loc	6 2034 10                       @ ../src/driver/stm32g4-v120/src/stm32g4xx_hal_fmac.c:2034:10
	bl	HAL_GetTick
.Ltmp166:
	.loc	6 2034 24 is_stmt 0             @ ../src/driver/stm32g4-v120/src/stm32g4xx_hal_fmac.c:2034:24
	sub.w	r0, r0, r8
.Ltmp167:
	.loc	6 2034 9                        @ ../src/driver/stm32g4-v120/src/stm32g4xx_hal_fmac.c:2034:9
	cmp.w	r0, #1000
	bhi	.LBB9_34
.Ltmp168:
@ %bb.21:                               @   in Loop: Header=BB9_22 Depth=1
	@DEBUG_VALUE: FMAC_FilterPreload:tickstart <- $r8
	.loc	6 2032 10 is_stmt 1             @ ../src/driver/stm32g4-v120/src/stm32g4xx_hal_fmac.c:2032:10
	ldr.w	r1, [r9]
.Ltmp169:
.LBB9_22:                               @ =>This Inner Loop Header: Depth=1
	@DEBUG_VALUE: FMAC_FilterPreload:tickstart <- $r8
	ldr	r0, [r1, #12]
	.loc	6 2032 3 is_stmt 0              @ ../src/driver/stm32g4-v120/src/stm32g4xx_hal_fmac.c:2032:3
	cmp.w	r0, #-1
	ble	.LBB9_20
	b	.LBB9_24
.Ltmp170:
.LBB9_23:
	@DEBUG_VALUE: FMAC_FilterPreload:tickstart <- $r8
	@DEBUG_VALUE: FMAC_FilterPreload:pOutput <- $r5
	.loc	6 1973 7 is_stmt 1              @ ../src/driver/stm32g4-v120/src/stm32g4xx_hal_fmac.c:1973:7
	ldr.w	r1, [r9]
.Ltmp171:
.LBB9_24:
	@DEBUG_VALUE: FMAC_FilterPreload:tickstart <- $r8
	ldr	r0, [r1, #20]
.Ltmp172:
	.loc	6 1973 7 is_stmt 0              @ ../src/driver/stm32g4-v120/src/stm32g4xx_hal_fmac.c:1973:7
	lsls	r0, r0, #23
	bpl	.LBB9_26
.Ltmp173:
@ %bb.25:
	@DEBUG_VALUE: FMAC_FilterPreload:tickstart <- $r8
	.loc	6 1975 22 is_stmt 1             @ ../src/driver/stm32g4-v120/src/stm32g4xx_hal_fmac.c:1975:22
	ldr.w	r0, [r9, #52]
	orr	r0, r0, #4
	str.w	r0, [r9, #52]
.Ltmp174:
.LBB9_26:
	@DEBUG_VALUE: FMAC_FilterPreload:tickstart <- $r8
	.loc	6 1977 7                        @ ../src/driver/stm32g4-v120/src/stm32g4xx_hal_fmac.c:1977:7
	ldr	r0, [r1, #20]
.Ltmp175:
	.loc	6 1977 7 is_stmt 0              @ ../src/driver/stm32g4-v120/src/stm32g4xx_hal_fmac.c:1977:7
	lsls	r0, r0, #22
	bpl	.LBB9_28
.Ltmp176:
@ %bb.27:
	@DEBUG_VALUE: FMAC_FilterPreload:tickstart <- $r8
	.loc	6 1979 22 is_stmt 1             @ ../src/driver/stm32g4-v120/src/stm32g4xx_hal_fmac.c:1979:22
	ldr.w	r0, [r9, #52]
	orr	r0, r0, #2
	str.w	r0, [r9, #52]
.Ltmp177:
.LBB9_28:
	@DEBUG_VALUE: FMAC_FilterPreload:tickstart <- $r8
	.loc	6 1981 7                        @ ../src/driver/stm32g4-v120/src/stm32g4xx_hal_fmac.c:1981:7
	ldr	r0, [r1, #20]
.Ltmp178:
	.loc	6 1981 7 is_stmt 0              @ ../src/driver/stm32g4-v120/src/stm32g4xx_hal_fmac.c:1981:7
	lsls	r0, r0, #21
	bpl	.LBB9_30
.Ltmp179:
@ %bb.29:
	@DEBUG_VALUE: FMAC_FilterPreload:tickstart <- $r8
	.loc	6 1983 22 is_stmt 1             @ ../src/driver/stm32g4-v120/src/stm32g4xx_hal_fmac.c:1983:22
	ldr.w	r0, [r9, #52]
	orr	r0, r0, #1
	str.w	r0, [r9, #52]
.Ltmp180:
.LBB9_30:
	@DEBUG_VALUE: FMAC_FilterPreload:tickstart <- $r8
	.loc	6 0 22 is_stmt 0                @ ../src/driver/stm32g4-v120/src/stm32g4xx_hal_fmac.c:0:22
	movs	r0, #32
	.loc	6 1987 16 is_stmt 1             @ ../src/driver/stm32g4-v120/src/stm32g4xx_hal_fmac.c:1987:16
	strb.w	r0, [r9, #49]
.Ltmp181:
	.loc	6 1990 14                       @ ../src/driver/stm32g4-v120/src/stm32g4xx_hal_fmac.c:1990:14
	ldr.w	r0, [r9, #52]
	.loc	6 1990 24 is_stmt 0             @ ../src/driver/stm32g4-v120/src/stm32g4xx_hal_fmac.c:1990:24
	cmp	r0, #0
	it	ne
	movne	r0, #1
.Ltmp182:
	.loc	6 1999 1 is_stmt 1              @ ../src/driver/stm32g4-v120/src/stm32g4xx_hal_fmac.c:1999:1
	pop.w	{r4, r5, r6, r7, r8, r9, r10, pc}
.Ltmp183:
.LBB9_31:
	@DEBUG_VALUE: FMAC_FilterPreload:tickstart <- $r8
	@DEBUG_VALUE: FMAC_FilterPreload:pInput <- $r4
	@DEBUG_VALUE: FMAC_FilterPreload:pOutput <- $r5
	.loc	6 1923 31                       @ ../src/driver/stm32g4-v120/src/stm32g4xx_hal_fmac.c:1923:31
	strh.w	r6, [r9, #16]
	.loc	6 1926 14                       @ ../src/driver/stm32g4-v120/src/stm32g4xx_hal_fmac.c:1926:14
	ldr.w	r0, [r9, #44]
	.loc	6 1927 44                       @ ../src/driver/stm32g4-v120/src/stm32g4xx_hal_fmac.c:1927:44
	movw	r3, :lower16:FMAC_DMAFilterPreload
	.loc	6 1929 45                       @ ../src/driver/stm32g4-v120/src/stm32g4xx_hal_fmac.c:1929:45
	movw	r6, :lower16:FMAC_DMAError
	movs	r2, #0
	.loc	6 1927 44                       @ ../src/driver/stm32g4-v120/src/stm32g4xx_hal_fmac.c:1927:44
	movt	r3, :upper16:FMAC_DMAFilterPreload
	.loc	6 1929 45                       @ ../src/driver/stm32g4-v120/src/stm32g4xx_hal_fmac.c:1929:45
	movt	r6, :upper16:FMAC_DMAError
	@DEBUG_VALUE: FMAC_FilterPreload:pInput <- $r4
	.loc	6 1922 21                       @ ../src/driver/stm32g4-v120/src/stm32g4xx_hal_fmac.c:1922:21
	str.w	r5, [r9, #12]
	.loc	6 1927 44                       @ ../src/driver/stm32g4-v120/src/stm32g4xx_hal_fmac.c:1927:44
	strd	r3, r2, [r0, #44]
	.loc	6 1932 98                       @ ../src/driver/stm32g4-v120/src/stm32g4xx_hal_fmac.c:1932:98
	add.w	r2, r1, #24
	.loc	6 1932 15 is_stmt 0             @ ../src/driver/stm32g4-v120/src/stm32g4xx_hal_fmac.c:1932:15
	mov	r1, r4
	mov	r3, r7
	.loc	6 1929 45 is_stmt 1             @ ../src/driver/stm32g4-v120/src/stm32g4xx_hal_fmac.c:1929:45
	str	r6, [r0, #52]
	b	.LBB9_33
.Ltmp184:
.LBB9_32:
	@DEBUG_VALUE: FMAC_FilterPreload:tickstart <- $r8
	@DEBUG_VALUE: FMAC_FilterPreload:pOutput <- $r5
	.loc	6 1962 14                       @ ../src/driver/stm32g4-v120/src/stm32g4xx_hal_fmac.c:1962:14
	ldr.w	r0, [r9, #44]
	.loc	6 1963 44                       @ ../src/driver/stm32g4-v120/src/stm32g4xx_hal_fmac.c:1963:44
	movw	r3, :lower16:FMAC_DMAFilterPreload
	.loc	6 1965 45                       @ ../src/driver/stm32g4-v120/src/stm32g4xx_hal_fmac.c:1965:45
	movw	r7, :lower16:FMAC_DMAError
	movs	r2, #0
	.loc	6 1963 44                       @ ../src/driver/stm32g4-v120/src/stm32g4xx_hal_fmac.c:1963:44
	movt	r3, :upper16:FMAC_DMAFilterPreload
	.loc	6 1965 45                       @ ../src/driver/stm32g4-v120/src/stm32g4xx_hal_fmac.c:1965:45
	movt	r7, :upper16:FMAC_DMAError
	@DEBUG_VALUE: FMAC_FilterPreload:pOutput <- $r5
	.loc	6 1958 21                       @ ../src/driver/stm32g4-v120/src/stm32g4xx_hal_fmac.c:1958:21
	str.w	r2, [r9, #12]
	.loc	6 1959 31                       @ ../src/driver/stm32g4-v120/src/stm32g4xx_hal_fmac.c:1959:31
	strh.w	r2, [r9, #16]
	.loc	6 1963 44                       @ ../src/driver/stm32g4-v120/src/stm32g4xx_hal_fmac.c:1963:44
	strd	r3, r2, [r0, #44]
	.loc	6 1968 99                       @ ../src/driver/stm32g4-v120/src/stm32g4xx_hal_fmac.c:1968:99
	add.w	r2, r1, #24
	.loc	6 1968 15 is_stmt 0             @ ../src/driver/stm32g4-v120/src/stm32g4xx_hal_fmac.c:1968:15
	mov	r1, r5
	mov	r3, r6
	.loc	6 1965 45 is_stmt 1             @ ../src/driver/stm32g4-v120/src/stm32g4xx_hal_fmac.c:1965:45
	str	r7, [r0, #52]
.Ltmp185:
.LBB9_33:
	@DEBUG_VALUE: FMAC_FilterPreload:tickstart <- $r8
	@DEBUG_VALUE: FMAC_FilterPreload:pOutput <- $r5
	.loc	6 0 0 is_stmt 0                 @ ../src/driver/stm32g4-v120/src/stm32g4xx_hal_fmac.c:0:0
	pop.w	{r4, r5, r6, r7, r8, r9, r10, lr}
.Ltmp186:
	b	HAL_DMA_Start_IT
.Ltmp187:
.LBB9_34:
	@DEBUG_VALUE: FMAC_FilterPreload:tickstart <- $r8
	ldr.w	r0, [r9, #52]
	orr	r0, r0, #128
	str.w	r0, [r9, #52]
	ldr.w	r0, [r9, #52]
	orr	r0, r0, #128
	str.w	r0, [r9, #52]
	movs	r0, #160
	strb.w	r0, [r9, #49]
	movs	r0, #3
	.loc	6 1999 1 is_stmt 1              @ ../src/driver/stm32g4-v120/src/stm32g4xx_hal_fmac.c:1999:1
	pop.w	{r4, r5, r6, r7, r8, r9, r10, pc}
.Ltmp188:
.Lfunc_end9:
	.size	FMAC_FilterPreload, .Lfunc_end9-FMAC_FilterPreload
	.cfi_endproc
	.cantunwind
	.fnend
                                        @ -- End function
	.section	.text.HAL_FMAC_FilterPreload_DMA,"ax",%progbits
	.hidden	HAL_FMAC_FilterPreload_DMA      @ -- Begin function HAL_FMAC_FilterPreload_DMA
	.globl	HAL_FMAC_FilterPreload_DMA
	.p2align	1
	.type	HAL_FMAC_FilterPreload_DMA,%function
	.code	16                              @ @HAL_FMAC_FilterPreload_DMA
	.thumb_func
HAL_FMAC_FilterPreload_DMA:
.Lfunc_begin10:
	.loc	6 872 0                         @ ../src/driver/stm32g4-v120/src/stm32g4xx_hal_fmac.c:872:0
	.fnstart
	.cfi_startproc
@ %bb.0:
	@DEBUG_VALUE: HAL_FMAC_FilterPreload_DMA:hfmac <- $r0
	@DEBUG_VALUE: HAL_FMAC_FilterPreload_DMA:pInput <- $r1
	@DEBUG_VALUE: HAL_FMAC_FilterPreload_DMA:InputSize <- $r2
	@DEBUG_VALUE: HAL_FMAC_FilterPreload_DMA:pOutput <- $r3
	.save	{r7, lr}
	push	{r7, lr}
	.cfi_def_cfa_offset 8
	.cfi_offset lr, -4
	.cfi_offset r7, -8
	.pad	#8
	sub	sp, #8
	.cfi_def_cfa_offset 16
	ldr.w	r12, [sp, #16]
	@DEBUG_VALUE: HAL_FMAC_FilterPreload_DMA:OutputSize <- undef
	@DEBUG_VALUE: HAL_FMAC_FilterPreload_DMA:pOutput <- $r3
	@DEBUG_VALUE: HAL_FMAC_FilterPreload_DMA:InputSize <- $r2
	@DEBUG_VALUE: HAL_FMAC_FilterPreload_DMA:pInput <- $r1
	@DEBUG_VALUE: HAL_FMAC_FilterPreload_DMA:hfmac <- $r0
	mov.w	lr, #0
	@DEBUG_VALUE: HAL_FMAC_FilterPreload_DMA:pOutput <- $r3
	@DEBUG_VALUE: HAL_FMAC_FilterPreload_DMA:InputSize <- $r2
	@DEBUG_VALUE: HAL_FMAC_FilterPreload_DMA:pInput <- $r1
	@DEBUG_VALUE: HAL_FMAC_FilterPreload_DMA:hfmac <- $r0
.Ltmp189:
	.loc	6 873 11 prologue_end           @ ../src/driver/stm32g4-v120/src/stm32g4xx_hal_fmac.c:873:11
	strd	r12, lr, [sp]
	bl	FMAC_FilterPreload
.Ltmp190:
	@DEBUG_VALUE: HAL_FMAC_FilterPreload_DMA:pOutput <- [DW_OP_LLVM_entry_value 1] $r3
	@DEBUG_VALUE: HAL_FMAC_FilterPreload_DMA:InputSize <- [DW_OP_LLVM_entry_value 1] $r2
	@DEBUG_VALUE: HAL_FMAC_FilterPreload_DMA:pInput <- [DW_OP_LLVM_entry_value 1] $r1
	@DEBUG_VALUE: HAL_FMAC_FilterPreload_DMA:hfmac <- [DW_OP_LLVM_entry_value 1] $r0
	.loc	6 873 3 is_stmt 0               @ ../src/driver/stm32g4-v120/src/stm32g4xx_hal_fmac.c:873:3
	add	sp, #8
	pop	{r7, pc}
.Ltmp191:
.Lfunc_end10:
	.size	HAL_FMAC_FilterPreload_DMA, .Lfunc_end10-HAL_FMAC_FilterPreload_DMA
	.cfi_endproc
	.cantunwind
	.fnend
                                        @ -- End function
	.section	.text.HAL_FMAC_FilterStart,"ax",%progbits
	.hidden	HAL_FMAC_FilterStart            @ -- Begin function HAL_FMAC_FilterStart
	.globl	HAL_FMAC_FilterStart
	.p2align	1
	.type	HAL_FMAC_FilterStart,%function
	.code	16                              @ @HAL_FMAC_FilterStart
	.thumb_func
HAL_FMAC_FilterStart:
.Lfunc_begin11:
	.loc	6 889 0 is_stmt 1               @ ../src/driver/stm32g4-v120/src/stm32g4xx_hal_fmac.c:889:0
	.fnstart
	.cfi_startproc
@ %bb.0:
	@DEBUG_VALUE: HAL_FMAC_FilterStart:hfmac <- $r0
	@DEBUG_VALUE: HAL_FMAC_FilterStart:pOutput <- $r1
	@DEBUG_VALUE: HAL_FMAC_FilterStart:pOutputSize <- $r2
	.save	{r4, r5, r7, lr}
	push	{r4, r5, r7, lr}
	.cfi_def_cfa_offset 16
	.cfi_offset lr, -4
	.cfi_offset r7, -8
	.cfi_offset r5, -12
	.cfi_offset r4, -16
	mov	r4, r0
.Ltmp192:
	@DEBUG_VALUE: HAL_FMAC_FilterStart:tmpcr <- 0
	@DEBUG_VALUE: HAL_FMAC_FilterStart:hfmac <- $r4
	.loc	6 894 7 prologue_end            @ ../src/driver/stm32g4-v120/src/stm32g4xx_hal_fmac.c:894:7
	ldr	r0, [r0]
	ldr	r3, [r0, #12]
.Ltmp193:
	@DEBUG_VALUE: HAL_FMAC_FilterStart:pOutputSize <- $r2
	.loc	6 894 7 is_stmt 0               @ ../src/driver/stm32g4-v120/src/stm32g4xx_hal_fmac.c:894:7
	cmp	r3, #0
	@DEBUG_VALUE: HAL_FMAC_FilterStart:pOutput <- $r1
	bmi	.LBB11_5
.Ltmp194:
@ %bb.1:
	@DEBUG_VALUE: HAL_FMAC_FilterStart:hfmac <- $r4
	@DEBUG_VALUE: HAL_FMAC_FilterStart:pOutputSize <- $r2
	@DEBUG_VALUE: HAL_FMAC_FilterStart:pOutput <- $r1
	@DEBUG_VALUE: HAL_FMAC_FilterStart:tmpcr <- 0
	.loc	6 900 14 is_stmt 1              @ ../src/driver/stm32g4-v120/src/stm32g4xx_hal_fmac.c:900:14
	ldr	r3, [r4, #4]
.Ltmp195:
	.loc	6 900 7 is_stmt 0               @ ../src/driver/stm32g4-v120/src/stm32g4xx_hal_fmac.c:900:7
	cbz	r3, .LBB11_5
.Ltmp196:
@ %bb.2:
	@DEBUG_VALUE: HAL_FMAC_FilterStart:hfmac <- $r4
	@DEBUG_VALUE: HAL_FMAC_FilterStart:pOutputSize <- $r2
	@DEBUG_VALUE: HAL_FMAC_FilterStart:pOutput <- $r1
	@DEBUG_VALUE: HAL_FMAC_FilterStart:tmpcr <- 0
	.loc	6 906 14 is_stmt 1              @ ../src/driver/stm32g4-v120/src/stm32g4xx_hal_fmac.c:906:14
	ldrb.w	r3, [r4, #49]
.Ltmp197:
	.loc	6 906 7 is_stmt 0               @ ../src/driver/stm32g4-v120/src/stm32g4xx_hal_fmac.c:906:7
	cmp	r3, #32
	itt	ne
	movne	r0, #2
	.loc	6 962 1 is_stmt 1               @ ../src/driver/stm32g4-v120/src/stm32g4xx_hal_fmac.c:962:1
	popne	{r4, r5, r7, pc}
.Ltmp198:
.LBB11_3:
	@DEBUG_VALUE: HAL_FMAC_FilterStart:pOutputSize <- $r2
	@DEBUG_VALUE: HAL_FMAC_FilterStart:pOutput <- $r1
	@DEBUG_VALUE: HAL_FMAC_FilterStart:tmpcr <- 0
	.loc	6 0 1 is_stmt 0                 @ ../src/driver/stm32g4-v120/src/stm32g4xx_hal_fmac.c:0:1
	movs	r3, #36
.Ltmp199:
	.loc	6 909 18 is_stmt 1              @ ../src/driver/stm32g4-v120/src/stm32g4xx_hal_fmac.c:909:18
	strb.w	r3, [r4, #49]
.Ltmp200:
	.loc	6 912 16                        @ ../src/driver/stm32g4-v120/src/stm32g4xx_hal_fmac.c:912:16
	ldrb.w	lr, [r4, #8]
.Ltmp201:
	.loc	6 926 16                        @ ../src/driver/stm32g4-v120/src/stm32g4xx_hal_fmac.c:926:16
	ldrb.w	r12, [r4, #9]
.Ltmp202:
	.loc	6 912 16                        @ ../src/driver/stm32g4-v120/src/stm32g4xx_hal_fmac.c:912:16
	sub.w	r3, lr, #3
	clz	r3, r3
	lsrs	r3, r3, #5
.Ltmp203:
	.loc	6 912 9 is_stmt 0               @ ../src/driver/stm32g4-v120/src/stm32g4xx_hal_fmac.c:912:9
	lsls	r5, r3, #1
	cmp.w	lr, #1
	it	eq
	moveq.w	r5, #512
.Ltmp204:
	@DEBUG_VALUE: HAL_FMAC_FilterStart:tmpcr <- $r5
	.loc	6 926 9 is_stmt 1               @ ../src/driver/stm32g4-v120/src/stm32g4xx_hal_fmac.c:926:9
	cmp.w	r12, #3
	beq	.LBB11_6
.Ltmp205:
@ %bb.4:
	@DEBUG_VALUE: HAL_FMAC_FilterStart:tmpcr <- $r5
	@DEBUG_VALUE: HAL_FMAC_FilterStart:pOutputSize <- $r2
	@DEBUG_VALUE: HAL_FMAC_FilterStart:pOutput <- $r1
	cmp.w	r12, #1
.Ltmp206:
	.loc	6 928 13                        @ ../src/driver/stm32g4-v120/src/stm32g4xx_hal_fmac.c:928:13
	it	eq
	orreq	r5, r5, #256
.Ltmp207:
	@DEBUG_VALUE: HAL_FMAC_FilterStart:tmpcr <- $r5
	.loc	6 0 13 is_stmt 0                @ ../src/driver/stm32g4-v120/src/stm32g4xx_hal_fmac.c:0:13
	b	.LBB11_7
.Ltmp208:
.LBB11_5:
	@DEBUG_VALUE: HAL_FMAC_FilterStart:hfmac <- $r4
	@DEBUG_VALUE: HAL_FMAC_FilterStart:pOutputSize <- $r2
	@DEBUG_VALUE: HAL_FMAC_FilterStart:pOutput <- $r1
	@DEBUG_VALUE: HAL_FMAC_FilterStart:tmpcr <- 0
	movs	r0, #1
	.loc	6 962 1 is_stmt 1               @ ../src/driver/stm32g4-v120/src/stm32g4xx_hal_fmac.c:962:1
	pop	{r4, r5, r7, pc}
.Ltmp209:
.LBB11_6:
	@DEBUG_VALUE: HAL_FMAC_FilterStart:tmpcr <- $r5
	@DEBUG_VALUE: HAL_FMAC_FilterStart:pOutputSize <- $r2
	@DEBUG_VALUE: HAL_FMAC_FilterStart:pOutput <- $r1
	.loc	6 932 13                        @ ../src/driver/stm32g4-v120/src/stm32g4xx_hal_fmac.c:932:13
	orr	r5, r5, #1
.Ltmp210:
	@DEBUG_VALUE: HAL_FMAC_FilterStart:tmpcr <- $r5
.LBB11_7:
	@DEBUG_VALUE: HAL_FMAC_FilterStart:tmpcr <- $r5
	@DEBUG_VALUE: HAL_FMAC_FilterStart:pOutputSize <- $r2
	@DEBUG_VALUE: HAL_FMAC_FilterStart:pOutput <- $r1
	@DEBUG_VALUE: HAL_FMAC_FilterStart:tmpcr <- $r5
	.loc	6 940 5                         @ ../src/driver/stm32g4-v120/src/stm32g4xx_hal_fmac.c:940:5
	ldr.w	r12, [r0, #16]
	movw	r3, #771
	bic.w	r3, r12, r3
	orrs	r3, r5
	str	r3, [r0, #16]
	.loc	6 945 14                        @ ../src/driver/stm32g4-v120/src/stm32g4xx_hal_fmac.c:945:14
	mov	r0, r4
	bl	FMAC_ConfigFilterOutputBufferUpdateState
.Ltmp211:
	@DEBUG_VALUE: HAL_FMAC_FilterStart:pOutputSize <- [DW_OP_LLVM_entry_value 1] $r2
	@DEBUG_VALUE: HAL_FMAC_FilterStart:pOutput <- [DW_OP_LLVM_entry_value 1] $r1
	@DEBUG_VALUE: HAL_FMAC_FilterStart:status <- $r0
	.loc	6 947 9                         @ ../src/driver/stm32g4-v120/src/stm32g4xx_hal_fmac.c:947:9
	cbnz	r0, .LBB11_9
.Ltmp212:
@ %bb.8:
	@DEBUG_VALUE: HAL_FMAC_FilterStart:tmpcr <- $r5
	@DEBUG_VALUE: HAL_FMAC_FilterStart:status <- $r0
	@DEBUG_VALUE: HAL_FMAC_FilterStart:pOutputSize <- [DW_OP_LLVM_entry_value 1] $r2
	@DEBUG_VALUE: HAL_FMAC_FilterStart:pOutput <- [DW_OP_LLVM_entry_value 1] $r1
	.loc	6 950 7                         @ ../src/driver/stm32g4-v120/src/stm32g4xx_hal_fmac.c:950:7
	ldrd	r1, r2, [r4]
	str	r2, [r1, #12]
.Ltmp213:
.LBB11_9:
	@DEBUG_VALUE: HAL_FMAC_FilterStart:tmpcr <- $r5
	@DEBUG_VALUE: HAL_FMAC_FilterStart:status <- $r0
	@DEBUG_VALUE: HAL_FMAC_FilterStart:pOutputSize <- [DW_OP_LLVM_entry_value 1] $r2
	@DEBUG_VALUE: HAL_FMAC_FilterStart:pOutput <- [DW_OP_LLVM_entry_value 1] $r1
	.loc	6 0 7 is_stmt 0                 @ ../src/driver/stm32g4-v120/src/stm32g4xx_hal_fmac.c:0:7
	movs	r1, #32
	.loc	6 954 18 is_stmt 1              @ ../src/driver/stm32g4-v120/src/stm32g4xx_hal_fmac.c:954:18
	strb.w	r1, [r4, #49]
.Ltmp214:
	.loc	6 962 1                         @ ../src/driver/stm32g4-v120/src/stm32g4xx_hal_fmac.c:962:1
	pop	{r4, r5, r7, pc}
.Ltmp215:
.Lfunc_end11:
	.size	HAL_FMAC_FilterStart, .Lfunc_end11-HAL_FMAC_FilterStart
	.cfi_endproc
	.cantunwind
	.fnend
                                        @ -- End function
	.section	.text.FMAC_ConfigFilterOutputBufferUpdateState,"ax",%progbits
	.p2align	1                               @ -- Begin function FMAC_ConfigFilterOutputBufferUpdateState
	.type	FMAC_ConfigFilterOutputBufferUpdateState,%function
	.code	16                              @ @FMAC_ConfigFilterOutputBufferUpdateState
	.thumb_func
FMAC_ConfigFilterOutputBufferUpdateState:
.Lfunc_begin12:
	.loc	6 2099 0                        @ ../src/driver/stm32g4-v120/src/stm32g4xx_hal_fmac.c:2099:0
	.fnstart
	.cfi_startproc
@ %bb.0:
	@DEBUG_VALUE: FMAC_ConfigFilterOutputBufferUpdateState:hfmac <- $r0
	@DEBUG_VALUE: FMAC_ConfigFilterOutputBufferUpdateState:pOutput <- $r1
	@DEBUG_VALUE: FMAC_ConfigFilterOutputBufferUpdateState:pOutputSize <- $r2
	.save	{r4, lr}
	push	{r4, lr}
	.cfi_def_cfa_offset 8
	.cfi_offset lr, -4
	.cfi_offset r4, -8
	mov	r12, r1
	movs	r1, #0
.Ltmp216:
	@DEBUG_VALUE: FMAC_ConfigFilterOutputBufferUpdateState:pOutput <- [DW_OP_LLVM_entry_value 1] $r1
	@DEBUG_VALUE: FMAC_ConfigFilterOutputBufferUpdateState:pOutputSize <- $r2
	@DEBUG_VALUE: FMAC_ConfigFilterOutputBufferUpdateState:pOutput <- $r12
	@DEBUG_VALUE: FMAC_ConfigFilterOutputBufferUpdateState:hfmac <- $r0
	.loc	6 2104 25 prologue_end          @ ../src/driver/stm32g4-v120/src/stm32g4xx_hal_fmac.c:2104:25
	cmp.w	r12, #0
.Ltmp217:
	.loc	6 2101 28                       @ ../src/driver/stm32g4-v120/src/stm32g4xx_hal_fmac.c:2101:28
	strh	r1, [r0, #28]
.Ltmp218:
	.loc	6 2104 25                       @ ../src/driver/stm32g4-v120/src/stm32g4xx_hal_fmac.c:2104:25
	it	ne
	cmpne	r2, #0
	bne	.LBB12_3
.Ltmp219:
.LBB12_1:
	@DEBUG_VALUE: FMAC_ConfigFilterOutputBufferUpdateState:pOutput <- $r12
	@DEBUG_VALUE: FMAC_ConfigFilterOutputBufferUpdateState:pOutputSize <- $r2
	@DEBUG_VALUE: FMAC_ConfigFilterOutputBufferUpdateState:hfmac <- $r0
	.loc	6 0 0 is_stmt 0                 @ ../src/driver/stm32g4-v120/src/stm32g4xx_hal_fmac.c:0:0
	str	r1, [r0, #24]
	str	r1, [r0, #32]
	movs	r1, #32
.Ltmp220:
.LBB12_2:
	@DEBUG_VALUE: FMAC_ConfigFilterOutputBufferUpdateState:pOutput <- $r12
	@DEBUG_VALUE: FMAC_ConfigFilterOutputBufferUpdateState:pOutputSize <- $r2
	@DEBUG_VALUE: FMAC_ConfigFilterOutputBufferUpdateState:hfmac <- $r0
	strb.w	r1, [r0, #50]
.Ltmp221:
	.loc	6 2142 1 is_stmt 1              @ ../src/driver/stm32g4-v120/src/stm32g4xx_hal_fmac.c:2142:1
	movs	r0, #0
.Ltmp222:
	@DEBUG_VALUE: FMAC_ConfigFilterOutputBufferUpdateState:hfmac <- [DW_OP_LLVM_entry_value 1] $r0
	pop	{r4, pc}
.Ltmp223:
.LBB12_3:
	@DEBUG_VALUE: FMAC_ConfigFilterOutputBufferUpdateState:pOutput <- $r12
	@DEBUG_VALUE: FMAC_ConfigFilterOutputBufferUpdateState:pOutputSize <- $r2
	@DEBUG_VALUE: FMAC_ConfigFilterOutputBufferUpdateState:hfmac <- $r0
	.loc	6 2104 54                       @ ../src/driver/stm32g4-v120/src/stm32g4xx_hal_fmac.c:2104:54
	ldrh	r3, [r2]
.Ltmp224:
	.loc	6 2104 7 is_stmt 0              @ ../src/driver/stm32g4-v120/src/stm32g4xx_hal_fmac.c:2104:7
	cmp	r3, #0
	beq	.LBB12_1
.Ltmp225:
@ %bb.4:
	@DEBUG_VALUE: FMAC_ConfigFilterOutputBufferUpdateState:pOutput <- $r12
	@DEBUG_VALUE: FMAC_ConfigFilterOutputBufferUpdateState:pOutputSize <- $r2
	@DEBUG_VALUE: FMAC_ConfigFilterOutputBufferUpdateState:hfmac <- $r0
	.loc	6 2112 19 is_stmt 1             @ ../src/driver/stm32g4-v120/src/stm32g4xx_hal_fmac.c:2112:19
	ldrb	r1, [r0, #9]
.Ltmp226:
	.loc	6 2112 12 is_stmt 0             @ ../src/driver/stm32g4-v120/src/stm32g4xx_hal_fmac.c:2112:12
	cbz	r1, .LBB12_7
.Ltmp227:
@ %bb.5:
	@DEBUG_VALUE: FMAC_ConfigFilterOutputBufferUpdateState:pOutput <- $r12
	@DEBUG_VALUE: FMAC_ConfigFilterOutputBufferUpdateState:pOutputSize <- $r2
	@DEBUG_VALUE: FMAC_ConfigFilterOutputBufferUpdateState:hfmac <- $r0
	cmp	r1, #1
	bne	.LBB12_8
.Ltmp228:
@ %bb.6:
	@DEBUG_VALUE: FMAC_ConfigFilterOutputBufferUpdateState:pOutput <- $r12
	@DEBUG_VALUE: FMAC_ConfigFilterOutputBufferUpdateState:pOutputSize <- $r2
	@DEBUG_VALUE: FMAC_ConfigFilterOutputBufferUpdateState:hfmac <- $r0
	.loc	6 0 12                          @ ../src/driver/stm32g4-v120/src/stm32g4xx_hal_fmac.c:0:12
	movs	r1, #0
.Ltmp229:
	.loc	6 2114 20 is_stmt 1             @ ../src/driver/stm32g4-v120/src/stm32g4xx_hal_fmac.c:2114:20
	str	r1, [r0, #24]
	.loc	6 2115 24                       @ ../src/driver/stm32g4-v120/src/stm32g4xx_hal_fmac.c:2115:24
	str	r1, [r0, #32]
	movs	r1, #37
	.loc	6 2116 20                       @ ../src/driver/stm32g4-v120/src/stm32g4xx_hal_fmac.c:2116:20
	strb.w	r1, [r0, #50]
	.loc	6 2125 64                       @ ../src/driver/stm32g4-v120/src/stm32g4xx_hal_fmac.c:2125:64
	ldr	r1, [r0]
	.loc	6 2119 12                       @ ../src/driver/stm32g4-v120/src/stm32g4xx_hal_fmac.c:2119:12
	ldr	r0, [r0, #40]
.Ltmp230:
	@DEBUG_VALUE: FMAC_ConfigFilterOutputBufferUpdateState:hfmac <- [DW_OP_LLVM_entry_value 1] $r0
	.loc	6 2119 42 is_stmt 0             @ ../src/driver/stm32g4-v120/src/stm32g4xx_hal_fmac.c:2119:42
	movw	lr, :lower16:FMAC_DMAHalfOutputDataReady
	.loc	6 2120 38 is_stmt 1             @ ../src/driver/stm32g4-v120/src/stm32g4xx_hal_fmac.c:2120:38
	movw	r2, :lower16:FMAC_DMAOutputDataReady
.Ltmp231:
	@DEBUG_VALUE: FMAC_ConfigFilterOutputBufferUpdateState:pOutputSize <- [DW_OP_LLVM_entry_value 1] $r2
	.loc	6 2122 39                       @ ../src/driver/stm32g4-v120/src/stm32g4xx_hal_fmac.c:2122:39
	movw	r4, :lower16:FMAC_DMAError
	.loc	6 2119 42                       @ ../src/driver/stm32g4-v120/src/stm32g4xx_hal_fmac.c:2119:42
	movt	lr, :upper16:FMAC_DMAHalfOutputDataReady
	.loc	6 2120 38                       @ ../src/driver/stm32g4-v120/src/stm32g4xx_hal_fmac.c:2120:38
	movt	r2, :upper16:FMAC_DMAOutputDataReady
	.loc	6 2122 39                       @ ../src/driver/stm32g4-v120/src/stm32g4xx_hal_fmac.c:2122:39
	movt	r4, :upper16:FMAC_DMAError
	.loc	6 2120 38                       @ ../src/driver/stm32g4-v120/src/stm32g4xx_hal_fmac.c:2120:38
	strd	r2, lr, [r0, #44]
	.loc	6 2125 74                       @ ../src/driver/stm32g4-v120/src/stm32g4xx_hal_fmac.c:2125:74
	adds	r1, #28
	.loc	6 2125 13 is_stmt 0             @ ../src/driver/stm32g4-v120/src/stm32g4xx_hal_fmac.c:2125:13
	mov	r2, r12
	.loc	6 2122 39 is_stmt 1             @ ../src/driver/stm32g4-v120/src/stm32g4xx_hal_fmac.c:2122:39
	str	r4, [r0, #52]
	.loc	6 2125 13                       @ ../src/driver/stm32g4-v120/src/stm32g4xx_hal_fmac.c:2125:13
	pop.w	{r4, lr}
.Ltmp232:
	b	HAL_DMA_Start_IT
.Ltmp233:
.LBB12_7:
	@DEBUG_VALUE: FMAC_ConfigFilterOutputBufferUpdateState:pOutput <- $r12
	@DEBUG_VALUE: FMAC_ConfigFilterOutputBufferUpdateState:pOutputSize <- $r2
	@DEBUG_VALUE: FMAC_ConfigFilterOutputBufferUpdateState:hfmac <- $r0
	.loc	6 0 13 is_stmt 0                @ ../src/driver/stm32g4-v120/src/stm32g4xx_hal_fmac.c:0:13
	movs	r1, #0
	b	.LBB12_1
.Ltmp234:
.LBB12_8:
	@DEBUG_VALUE: FMAC_ConfigFilterOutputBufferUpdateState:pOutput <- $r12
	@DEBUG_VALUE: FMAC_ConfigFilterOutputBufferUpdateState:pOutputSize <- $r2
	@DEBUG_VALUE: FMAC_ConfigFilterOutputBufferUpdateState:hfmac <- $r0
	movs	r1, #37
.Ltmp235:
	.loc	6 2136 20 is_stmt 1             @ ../src/driver/stm32g4-v120/src/stm32g4xx_hal_fmac.c:2136:20
	str.w	r12, [r0, #24]
	.loc	6 2137 24                       @ ../src/driver/stm32g4-v120/src/stm32g4xx_hal_fmac.c:2137:24
	str	r2, [r0, #32]
	b	.LBB12_2
.Ltmp236:
.Lfunc_end12:
	.size	FMAC_ConfigFilterOutputBufferUpdateState, .Lfunc_end12-FMAC_ConfigFilterOutputBufferUpdateState
	.cfi_endproc
	.cantunwind
	.fnend
                                        @ -- End function
	.section	.text.HAL_FMAC_AppendFilterData,"ax",%progbits
	.hidden	HAL_FMAC_AppendFilterData       @ -- Begin function HAL_FMAC_AppendFilterData
	.globl	HAL_FMAC_AppendFilterData
	.p2align	1
	.type	HAL_FMAC_AppendFilterData,%function
	.code	16                              @ @HAL_FMAC_AppendFilterData
	.thumb_func
HAL_FMAC_AppendFilterData:
.Lfunc_begin13:
	.loc	6 974 0                         @ ../src/driver/stm32g4-v120/src/stm32g4xx_hal_fmac.c:974:0
	.fnstart
	.cfi_startproc
@ %bb.0:
	@DEBUG_VALUE: HAL_FMAC_AppendFilterData:hfmac <- $r0
	@DEBUG_VALUE: HAL_FMAC_AppendFilterData:hfmac <- $r0
	@DEBUG_VALUE: HAL_FMAC_AppendFilterData:pInput <- $r1
	@DEBUG_VALUE: HAL_FMAC_AppendFilterData:pInput <- $r1
	@DEBUG_VALUE: HAL_FMAC_AppendFilterData:pInputSize <- $r2
	@DEBUG_VALUE: HAL_FMAC_AppendFilterData:pInputSize <- $r2
	.save	{r4, r5, r7, lr}
	push	{r4, r5, r7, lr}
	.cfi_def_cfa_offset 16
	.cfi_offset lr, -4
	.cfi_offset r7, -8
	.cfi_offset r5, -12
	.cfi_offset r4, -16
	mov.w	r3, #1
.Ltmp237:
	.loc	6 978 24 prologue_end           @ ../src/driver/stm32g4-v120/src/stm32g4xx_hal_fmac.c:978:24
	cbz	r1, .LBB13_5
.Ltmp238:
@ %bb.1:
	@DEBUG_VALUE: HAL_FMAC_AppendFilterData:pInputSize <- $r2
	@DEBUG_VALUE: HAL_FMAC_AppendFilterData:pInput <- $r1
	@DEBUG_VALUE: HAL_FMAC_AppendFilterData:hfmac <- $r0
	cbz	r2, .LBB13_5
.Ltmp239:
@ %bb.2:
	@DEBUG_VALUE: HAL_FMAC_AppendFilterData:pInputSize <- $r2
	@DEBUG_VALUE: HAL_FMAC_AppendFilterData:pInput <- $r1
	@DEBUG_VALUE: HAL_FMAC_AppendFilterData:hfmac <- $r0
	.loc	6 982 7                         @ ../src/driver/stm32g4-v120/src/stm32g4xx_hal_fmac.c:982:7
	ldrh	r3, [r2]
.Ltmp240:
	.loc	6 982 7 is_stmt 0               @ ../src/driver/stm32g4-v120/src/stm32g4xx_hal_fmac.c:982:7
	cbz	r3, .LBB13_4
.Ltmp241:
@ %bb.3:
	@DEBUG_VALUE: HAL_FMAC_AppendFilterData:pInputSize <- $r2
	@DEBUG_VALUE: HAL_FMAC_AppendFilterData:pInput <- $r1
	@DEBUG_VALUE: HAL_FMAC_AppendFilterData:hfmac <- $r0
	.loc	6 988 7 is_stmt 1               @ ../src/driver/stm32g4-v120/src/stm32g4xx_hal_fmac.c:988:7
	ldr	r4, [r0]
	ldr	r3, [r4, #12]
.Ltmp242:
	.loc	6 988 7 is_stmt 0               @ ../src/driver/stm32g4-v120/src/stm32g4xx_hal_fmac.c:988:7
	cmp.w	r3, #-1
	ble	.LBB13_6
.Ltmp243:
.LBB13_4:
	@DEBUG_VALUE: HAL_FMAC_AppendFilterData:pInputSize <- $r2
	@DEBUG_VALUE: HAL_FMAC_AppendFilterData:pInput <- $r1
	@DEBUG_VALUE: HAL_FMAC_AppendFilterData:hfmac <- $r0
	.loc	6 0 7                           @ ../src/driver/stm32g4-v120/src/stm32g4xx_hal_fmac.c:0:7
	movs	r3, #1
.Ltmp244:
.LBB13_5:
	@DEBUG_VALUE: HAL_FMAC_AppendFilterData:pInputSize <- $r2
	@DEBUG_VALUE: HAL_FMAC_AppendFilterData:pInput <- $r1
	@DEBUG_VALUE: HAL_FMAC_AppendFilterData:hfmac <- $r0
	.loc	6 1017 1 is_stmt 1              @ ../src/driver/stm32g4-v120/src/stm32g4xx_hal_fmac.c:1017:1
	mov	r0, r3
.Ltmp245:
	@DEBUG_VALUE: HAL_FMAC_AppendFilterData:hfmac <- [DW_OP_LLVM_entry_value 1] $r0
	pop	{r4, r5, r7, pc}
.Ltmp246:
.LBB13_6:
	@DEBUG_VALUE: HAL_FMAC_AppendFilterData:pInputSize <- $r2
	@DEBUG_VALUE: HAL_FMAC_AppendFilterData:pInput <- $r1
	@DEBUG_VALUE: HAL_FMAC_AppendFilterData:hfmac <- $r0
	.loc	6 994 14                        @ ../src/driver/stm32g4-v120/src/stm32g4xx_hal_fmac.c:994:14
	ldrb.w	r12, [r0, #8]
.Ltmp247:
	.loc	6 994 7 is_stmt 0               @ ../src/driver/stm32g4-v120/src/stm32g4xx_hal_fmac.c:994:7
	cmp.w	r12, #0
	beq	.LBB13_4
.Ltmp248:
@ %bb.7:
	@DEBUG_VALUE: HAL_FMAC_AppendFilterData:pInputSize <- $r2
	@DEBUG_VALUE: HAL_FMAC_AppendFilterData:pInput <- $r1
	@DEBUG_VALUE: HAL_FMAC_AppendFilterData:hfmac <- $r0
	.loc	6 1000 15 is_stmt 1             @ ../src/driver/stm32g4-v120/src/stm32g4xx_hal_fmac.c:1000:15
	ldr.w	lr, [r0, #20]
	.loc	6 1000 35 is_stmt 0             @ ../src/driver/stm32g4-v120/src/stm32g4xx_hal_fmac.c:1000:35
	cmp.w	lr, #0
	beq	.LBB13_9
.Ltmp249:
@ %bb.8:
	@DEBUG_VALUE: HAL_FMAC_AppendFilterData:pInputSize <- $r2
	@DEBUG_VALUE: HAL_FMAC_AppendFilterData:pInput <- $r1
	@DEBUG_VALUE: HAL_FMAC_AppendFilterData:hfmac <- $r0
	.loc	6 1000 46                       @ ../src/driver/stm32g4-v120/src/stm32g4xx_hal_fmac.c:1000:46
	ldrh	r5, [r0, #16]
	.loc	6 1000 65                       @ ../src/driver/stm32g4-v120/src/stm32g4xx_hal_fmac.c:1000:65
	ldrh.w	r3, [lr]
.Ltmp250:
	.loc	6 1000 7                        @ ../src/driver/stm32g4-v120/src/stm32g4xx_hal_fmac.c:1000:7
	cmp	r5, r3
	blo	.LBB13_12
.Ltmp251:
.LBB13_9:
	@DEBUG_VALUE: HAL_FMAC_AppendFilterData:pInputSize <- $r2
	@DEBUG_VALUE: HAL_FMAC_AppendFilterData:pInput <- $r1
	@DEBUG_VALUE: HAL_FMAC_AppendFilterData:hfmac <- $r0
	.loc	6 1006 14 is_stmt 1             @ ../src/driver/stm32g4-v120/src/stm32g4xx_hal_fmac.c:1006:14
	ldrb.w	r3, [r0, #51]
.Ltmp252:
	.loc	6 1006 7 is_stmt 0              @ ../src/driver/stm32g4-v120/src/stm32g4xx_hal_fmac.c:1006:7
	cmp	r3, #32
	bne	.LBB13_12
.Ltmp253:
@ %bb.10:
	@DEBUG_VALUE: HAL_FMAC_AppendFilterData:pInputSize <- $r2
	@DEBUG_VALUE: HAL_FMAC_AppendFilterData:pInput <- $r1
	@DEBUG_VALUE: HAL_FMAC_AppendFilterData:hfmac <- $r0
	.loc	6 0 7                           @ ../src/driver/stm32g4-v120/src/stm32g4xx_hal_fmac.c:0:7
	movs	r3, #38
.Ltmp254:
	@DEBUG_VALUE: FMAC_AppendFilterDataUpdateState:pInputSize <- $r2
	@DEBUG_VALUE: FMAC_AppendFilterDataUpdateState:pInput <- $r1
	@DEBUG_VALUE: FMAC_AppendFilterDataUpdateState:hfmac <- $r0
	mov.w	lr, #0
.Ltmp255:
	.loc	6 2063 7 is_stmt 1              @ ../src/driver/stm32g4-v120/src/stm32g4xx_hal_fmac.c:2063:7
	cmp.w	r12, #1
	.loc	6 2057 18                       @ ../src/driver/stm32g4-v120/src/stm32g4xx_hal_fmac.c:2057:18
	strb.w	r3, [r0, #51]
	.loc	6 2060 27                       @ ../src/driver/stm32g4-v120/src/stm32g4xx_hal_fmac.c:2060:27
	strh.w	lr, [r0, #16]
	.loc	6 2063 7                        @ ../src/driver/stm32g4-v120/src/stm32g4xx_hal_fmac.c:2063:7
	bne	.LBB13_13
.Ltmp256:
@ %bb.11:
	@DEBUG_VALUE: FMAC_AppendFilterDataUpdateState:pInputSize <- $r2
	@DEBUG_VALUE: HAL_FMAC_AppendFilterData:pInputSize <- $r2
	@DEBUG_VALUE: FMAC_AppendFilterDataUpdateState:pInput <- $r1
	@DEBUG_VALUE: HAL_FMAC_AppendFilterData:pInput <- $r1
	@DEBUG_VALUE: FMAC_AppendFilterDataUpdateState:hfmac <- $r0
	@DEBUG_VALUE: HAL_FMAC_AppendFilterData:hfmac <- $r0
	.loc	6 2065 19                       @ ../src/driver/stm32g4-v120/src/stm32g4xx_hal_fmac.c:2065:19
	str.w	lr, [r0, #12]
	.loc	6 2066 23                       @ ../src/driver/stm32g4-v120/src/stm32g4xx_hal_fmac.c:2066:23
	str.w	lr, [r0, #20]
	.loc	6 2069 12                       @ ../src/driver/stm32g4-v120/src/stm32g4xx_hal_fmac.c:2069:12
	ldr	r0, [r0, #36]
.Ltmp257:
	@DEBUG_VALUE: HAL_FMAC_AppendFilterData:hfmac <- [DW_OP_LLVM_entry_value 1] $r0
	.loc	6 2069 41 is_stmt 0             @ ../src/driver/stm32g4-v120/src/stm32g4xx_hal_fmac.c:2069:41
	movw	r3, :lower16:FMAC_DMAHalfGetData
	.loc	6 2070 37 is_stmt 1             @ ../src/driver/stm32g4-v120/src/stm32g4xx_hal_fmac.c:2070:37
	movw	r5, :lower16:FMAC_DMAGetData
	.loc	6 2069 41                       @ ../src/driver/stm32g4-v120/src/stm32g4xx_hal_fmac.c:2069:41
	movt	r3, :upper16:FMAC_DMAHalfGetData
	.loc	6 2070 37                       @ ../src/driver/stm32g4-v120/src/stm32g4xx_hal_fmac.c:2070:37
	movt	r5, :upper16:FMAC_DMAGetData
	.loc	6 2072 38                       @ ../src/driver/stm32g4-v120/src/stm32g4xx_hal_fmac.c:2072:38
	movw	lr, :lower16:FMAC_DMAError
	movt	lr, :upper16:FMAC_DMAError
	.loc	6 2070 37                       @ ../src/driver/stm32g4-v120/src/stm32g4xx_hal_fmac.c:2070:37
	strd	r5, r3, [r0, #44]
	.loc	6 2075 91                       @ ../src/driver/stm32g4-v120/src/stm32g4xx_hal_fmac.c:2075:91
	add.w	r12, r4, #24
	.loc	6 2075 98 is_stmt 0             @ ../src/driver/stm32g4-v120/src/stm32g4xx_hal_fmac.c:2075:98
	ldrh	r3, [r2]
	.loc	6 2075 13                       @ ../src/driver/stm32g4-v120/src/stm32g4xx_hal_fmac.c:2075:13
	mov	r2, r12
.Ltmp258:
	@DEBUG_VALUE: HAL_FMAC_AppendFilterData:pInputSize <- [DW_OP_LLVM_entry_value 1] $r2
	.loc	6 2072 38 is_stmt 1             @ ../src/driver/stm32g4-v120/src/stm32g4xx_hal_fmac.c:2072:38
	str.w	lr, [r0, #52]
	.loc	6 2075 13                       @ ../src/driver/stm32g4-v120/src/stm32g4xx_hal_fmac.c:2075:13
	pop.w	{r4, r5, r7, lr}
.Ltmp259:
	b	HAL_DMA_Start_IT
.Ltmp260:
.LBB13_12:
	@DEBUG_VALUE: HAL_FMAC_AppendFilterData:pInputSize <- $r2
	@DEBUG_VALUE: HAL_FMAC_AppendFilterData:pInput <- $r1
	@DEBUG_VALUE: HAL_FMAC_AppendFilterData:hfmac <- $r0
	.loc	6 0 13 is_stmt 0                @ ../src/driver/stm32g4-v120/src/stm32g4xx_hal_fmac.c:0:13
	movs	r3, #2
	b	.LBB13_5
.Ltmp261:
.LBB13_13:
	@DEBUG_VALUE: FMAC_AppendFilterDataUpdateState:pInputSize <- $r2
	@DEBUG_VALUE: HAL_FMAC_AppendFilterData:pInputSize <- $r2
	@DEBUG_VALUE: FMAC_AppendFilterDataUpdateState:pInput <- $r1
	@DEBUG_VALUE: HAL_FMAC_AppendFilterData:pInput <- $r1
	@DEBUG_VALUE: FMAC_AppendFilterDataUpdateState:hfmac <- $r0
	@DEBUG_VALUE: HAL_FMAC_AppendFilterData:hfmac <- $r0
	movs	r3, #0
.Ltmp262:
	.loc	6 2080 19 is_stmt 1             @ ../src/driver/stm32g4-v120/src/stm32g4xx_hal_fmac.c:2080:19
	str	r1, [r0, #12]
	.loc	6 2081 23                       @ ../src/driver/stm32g4-v120/src/stm32g4xx_hal_fmac.c:2081:23
	str	r2, [r0, #20]
	b	.LBB13_5
.Ltmp263:
.Lfunc_end13:
	.size	HAL_FMAC_AppendFilterData, .Lfunc_end13-HAL_FMAC_AppendFilterData
	.cfi_endproc
	.cantunwind
	.fnend
                                        @ -- End function
	.section	.text.HAL_FMAC_ConfigFilterOutputBuffer,"ax",%progbits
	.hidden	HAL_FMAC_ConfigFilterOutputBuffer @ -- Begin function HAL_FMAC_ConfigFilterOutputBuffer
	.globl	HAL_FMAC_ConfigFilterOutputBuffer
	.p2align	1
	.type	HAL_FMAC_ConfigFilterOutputBuffer,%function
	.code	16                              @ @HAL_FMAC_ConfigFilterOutputBuffer
	.thumb_func
HAL_FMAC_ConfigFilterOutputBuffer:
.Lfunc_begin14:
	.loc	6 1030 0                        @ ../src/driver/stm32g4-v120/src/stm32g4xx_hal_fmac.c:1030:0
	.fnstart
	.cfi_startproc
@ %bb.0:
	@DEBUG_VALUE: HAL_FMAC_ConfigFilterOutputBuffer:hfmac <- $r0
	@DEBUG_VALUE: HAL_FMAC_ConfigFilterOutputBuffer:hfmac <- $r0
	@DEBUG_VALUE: HAL_FMAC_ConfigFilterOutputBuffer:pOutput <- $r1
	@DEBUG_VALUE: HAL_FMAC_ConfigFilterOutputBuffer:pOutput <- $r1
	@DEBUG_VALUE: HAL_FMAC_ConfigFilterOutputBuffer:pOutputSize <- $r2
	@DEBUG_VALUE: HAL_FMAC_ConfigFilterOutputBuffer:pOutputSize <- $r2
	mov.w	r3, #1
.Ltmp264:
	.loc	6 1034 25 prologue_end          @ ../src/driver/stm32g4-v120/src/stm32g4xx_hal_fmac.c:1034:25
	cbz	r1, .LBB14_5
.Ltmp265:
@ %bb.1:
	@DEBUG_VALUE: HAL_FMAC_ConfigFilterOutputBuffer:pOutputSize <- $r2
	@DEBUG_VALUE: HAL_FMAC_ConfigFilterOutputBuffer:pOutput <- $r1
	@DEBUG_VALUE: HAL_FMAC_ConfigFilterOutputBuffer:hfmac <- $r0
	cbz	r2, .LBB14_5
.Ltmp266:
@ %bb.2:
	@DEBUG_VALUE: HAL_FMAC_ConfigFilterOutputBuffer:pOutputSize <- $r2
	@DEBUG_VALUE: HAL_FMAC_ConfigFilterOutputBuffer:pOutput <- $r1
	@DEBUG_VALUE: HAL_FMAC_ConfigFilterOutputBuffer:hfmac <- $r0
	.loc	6 1038 7                        @ ../src/driver/stm32g4-v120/src/stm32g4xx_hal_fmac.c:1038:7
	ldrh	r3, [r2]
.Ltmp267:
	.loc	6 1038 7 is_stmt 0              @ ../src/driver/stm32g4-v120/src/stm32g4xx_hal_fmac.c:1038:7
	cbz	r3, .LBB14_4
.Ltmp268:
@ %bb.3:
	@DEBUG_VALUE: HAL_FMAC_ConfigFilterOutputBuffer:pOutputSize <- $r2
	@DEBUG_VALUE: HAL_FMAC_ConfigFilterOutputBuffer:pOutput <- $r1
	@DEBUG_VALUE: HAL_FMAC_ConfigFilterOutputBuffer:hfmac <- $r0
	.loc	6 1044 7 is_stmt 1              @ ../src/driver/stm32g4-v120/src/stm32g4xx_hal_fmac.c:1044:7
	ldr	r3, [r0]
	ldr	r3, [r3, #12]
.Ltmp269:
	.loc	6 1044 7 is_stmt 0              @ ../src/driver/stm32g4-v120/src/stm32g4xx_hal_fmac.c:1044:7
	cmp.w	r3, #-1
	ble	.LBB14_6
.Ltmp270:
.LBB14_4:
	@DEBUG_VALUE: HAL_FMAC_ConfigFilterOutputBuffer:pOutputSize <- $r2
	@DEBUG_VALUE: HAL_FMAC_ConfigFilterOutputBuffer:pOutput <- $r1
	@DEBUG_VALUE: HAL_FMAC_ConfigFilterOutputBuffer:hfmac <- $r0
	.loc	6 0 7                           @ ../src/driver/stm32g4-v120/src/stm32g4xx_hal_fmac.c:0:7
	movs	r3, #1
.Ltmp271:
.LBB14_5:
	@DEBUG_VALUE: HAL_FMAC_ConfigFilterOutputBuffer:pOutputSize <- $r2
	@DEBUG_VALUE: HAL_FMAC_ConfigFilterOutputBuffer:pOutput <- $r1
	@DEBUG_VALUE: HAL_FMAC_ConfigFilterOutputBuffer:hfmac <- $r0
	.loc	6 1073 1 is_stmt 1              @ ../src/driver/stm32g4-v120/src/stm32g4xx_hal_fmac.c:1073:1
	mov	r0, r3
.Ltmp272:
	@DEBUG_VALUE: HAL_FMAC_ConfigFilterOutputBuffer:hfmac <- [DW_OP_LLVM_entry_value 1] $r0
	bx	lr
.Ltmp273:
.LBB14_6:
	@DEBUG_VALUE: HAL_FMAC_ConfigFilterOutputBuffer:pOutputSize <- $r2
	@DEBUG_VALUE: HAL_FMAC_ConfigFilterOutputBuffer:pOutput <- $r1
	@DEBUG_VALUE: HAL_FMAC_ConfigFilterOutputBuffer:hfmac <- $r0
	.loc	6 1050 14                       @ ../src/driver/stm32g4-v120/src/stm32g4xx_hal_fmac.c:1050:14
	ldrb	r3, [r0, #9]
.Ltmp274:
	.loc	6 1050 7 is_stmt 0              @ ../src/driver/stm32g4-v120/src/stm32g4xx_hal_fmac.c:1050:7
	cmp	r3, #0
	beq	.LBB14_4
.Ltmp275:
@ %bb.7:
	@DEBUG_VALUE: HAL_FMAC_ConfigFilterOutputBuffer:pOutputSize <- $r2
	@DEBUG_VALUE: HAL_FMAC_ConfigFilterOutputBuffer:pOutput <- $r1
	@DEBUG_VALUE: HAL_FMAC_ConfigFilterOutputBuffer:hfmac <- $r0
	.loc	6 1056 15 is_stmt 1             @ ../src/driver/stm32g4-v120/src/stm32g4xx_hal_fmac.c:1056:15
	ldr	r3, [r0, #32]
	.loc	6 1056 36 is_stmt 0             @ ../src/driver/stm32g4-v120/src/stm32g4xx_hal_fmac.c:1056:36
	cbz	r3, .LBB14_9
.Ltmp276:
@ %bb.8:
	@DEBUG_VALUE: HAL_FMAC_ConfigFilterOutputBuffer:pOutputSize <- $r2
	@DEBUG_VALUE: HAL_FMAC_ConfigFilterOutputBuffer:pOutput <- $r1
	@DEBUG_VALUE: HAL_FMAC_ConfigFilterOutputBuffer:hfmac <- $r0
	.loc	6 1056 47                       @ ../src/driver/stm32g4-v120/src/stm32g4xx_hal_fmac.c:1056:47
	ldrh.w	r12, [r0, #28]
	.loc	6 1056 67                       @ ../src/driver/stm32g4-v120/src/stm32g4xx_hal_fmac.c:1056:67
	ldrh	r3, [r3]
.Ltmp277:
	.loc	6 1056 7                        @ ../src/driver/stm32g4-v120/src/stm32g4xx_hal_fmac.c:1056:7
	cmp	r12, r3
	blo	.LBB14_10
.Ltmp278:
.LBB14_9:
	@DEBUG_VALUE: HAL_FMAC_ConfigFilterOutputBuffer:pOutputSize <- $r2
	@DEBUG_VALUE: HAL_FMAC_ConfigFilterOutputBuffer:pOutput <- $r1
	@DEBUG_VALUE: HAL_FMAC_ConfigFilterOutputBuffer:hfmac <- $r0
	.loc	6 1062 14 is_stmt 1             @ ../src/driver/stm32g4-v120/src/stm32g4xx_hal_fmac.c:1062:14
	ldrb.w	r3, [r0, #50]
.Ltmp279:
	.loc	6 1062 7 is_stmt 0              @ ../src/driver/stm32g4-v120/src/stm32g4xx_hal_fmac.c:1062:7
	cmp	r3, #32
.Ltmp280:
	.loc	6 1065 14 is_stmt 1             @ ../src/driver/stm32g4-v120/src/stm32g4xx_hal_fmac.c:1065:14
	it	eq
.Ltmp281:
	beq	FMAC_ConfigFilterOutputBufferUpdateState
.Ltmp282:
.LBB14_10:
	@DEBUG_VALUE: HAL_FMAC_ConfigFilterOutputBuffer:pOutputSize <- $r2
	@DEBUG_VALUE: HAL_FMAC_ConfigFilterOutputBuffer:pOutput <- $r1
	@DEBUG_VALUE: HAL_FMAC_ConfigFilterOutputBuffer:hfmac <- $r0
	.loc	6 0 14 is_stmt 0                @ ../src/driver/stm32g4-v120/src/stm32g4xx_hal_fmac.c:0:14
	movs	r3, #2
	b	.LBB14_5
.Lfunc_end14:
	.size	HAL_FMAC_ConfigFilterOutputBuffer, .Lfunc_end14-HAL_FMAC_ConfigFilterOutputBuffer
	.cfi_endproc
	.cantunwind
	.fnend
                                        @ -- End function
	.section	.text.HAL_FMAC_PollFilterData,"ax",%progbits
	.hidden	HAL_FMAC_PollFilterData         @ -- Begin function HAL_FMAC_PollFilterData
	.globl	HAL_FMAC_PollFilterData
	.p2align	1
	.type	HAL_FMAC_PollFilterData,%function
	.code	16                              @ @HAL_FMAC_PollFilterData
	.thumb_func
HAL_FMAC_PollFilterData:
.Lfunc_begin15:
	.loc	6 1091 0 is_stmt 1              @ ../src/driver/stm32g4-v120/src/stm32g4xx_hal_fmac.c:1091:0
	.fnstart
	.cfi_startproc
@ %bb.0:
	@DEBUG_VALUE: HAL_FMAC_PollFilterData:hfmac <- $r0
	@DEBUG_VALUE: HAL_FMAC_PollFilterData:Timeout <- $r1
	.save	{r4, r5, r6, r7, r8, r9, lr}
	push.w	{r4, r5, r6, r7, r8, r9, lr}
	.cfi_def_cfa_offset 28
	.cfi_offset lr, -4
	.cfi_offset r9, -8
	.cfi_offset r8, -12
	.cfi_offset r7, -16
	.cfi_offset r6, -20
	.cfi_offset r5, -24
	.cfi_offset r4, -28
	.pad	#4
	sub	sp, #4
	.cfi_def_cfa_offset 32
	mov	r4, r0
.Ltmp283:
	@DEBUG_VALUE: HAL_FMAC_PollFilterData:outpollingover <- 0
	@DEBUG_VALUE: HAL_FMAC_PollFilterData:inpollingover <- 0
	@DEBUG_VALUE: HAL_FMAC_PollFilterData:hfmac <- $r4
	.loc	6 1100 7 prologue_end           @ ../src/driver/stm32g4-v120/src/stm32g4xx_hal_fmac.c:1100:7
	ldr	r0, [r0]
	ldr	r0, [r0, #12]
.Ltmp284:
	.loc	6 1100 7 is_stmt 0              @ ../src/driver/stm32g4-v120/src/stm32g4xx_hal_fmac.c:1100:7
	cmp.w	r0, #-1
	@DEBUG_VALUE: HAL_FMAC_PollFilterData:Timeout <- $r1
	ble	.LBB15_3
.Ltmp285:
.LBB15_1:
	@DEBUG_VALUE: HAL_FMAC_PollFilterData:hfmac <- $r4
	@DEBUG_VALUE: HAL_FMAC_PollFilterData:inpollingover <- 0
	@DEBUG_VALUE: HAL_FMAC_PollFilterData:outpollingover <- 0
	.loc	6 0 7                           @ ../src/driver/stm32g4-v120/src/stm32g4xx_hal_fmac.c:0:7
	movs	r6, #1
.Ltmp286:
.LBB15_2:
	@DEBUG_VALUE: HAL_FMAC_PollFilterData:hfmac <- $r4
	.loc	6 1201 1 is_stmt 1              @ ../src/driver/stm32g4-v120/src/stm32g4xx_hal_fmac.c:1201:1
	mov	r0, r6
	add	sp, #4
	pop.w	{r4, r5, r6, r7, r8, r9, pc}
.Ltmp287:
.LBB15_3:
	@DEBUG_VALUE: HAL_FMAC_PollFilterData:hfmac <- $r4
	@DEBUG_VALUE: HAL_FMAC_PollFilterData:Timeout <- $r1
	@DEBUG_VALUE: HAL_FMAC_PollFilterData:inpollingover <- 0
	@DEBUG_VALUE: HAL_FMAC_PollFilterData:outpollingover <- 0
	.loc	6 1108 15                       @ ../src/driver/stm32g4-v120/src/stm32g4xx_hal_fmac.c:1108:15
	ldrb	r0, [r4, #8]
	mov	r9, r1
.Ltmp288:
	@DEBUG_VALUE: HAL_FMAC_PollFilterData:Timeout <- $r9
	@DEBUG_VALUE: HAL_FMAC_PollFilterData:Timeout <- $r9
	.loc	6 1108 59 is_stmt 0             @ ../src/driver/stm32g4-v120/src/stm32g4xx_hal_fmac.c:1108:59
	cmp	r0, #2
	bne	.LBB15_7
.Ltmp289:
@ %bb.4:
	@DEBUG_VALUE: HAL_FMAC_PollFilterData:Timeout <- $r9
	@DEBUG_VALUE: HAL_FMAC_PollFilterData:hfmac <- $r4
	@DEBUG_VALUE: HAL_FMAC_PollFilterData:inpollingover <- 0
	@DEBUG_VALUE: HAL_FMAC_PollFilterData:outpollingover <- 0
	.loc	6 1108 70                       @ ../src/driver/stm32g4-v120/src/stm32g4xx_hal_fmac.c:1108:70
	ldr	r0, [r4, #12]
.Ltmp290:
	.loc	6 1108 7                        @ ../src/driver/stm32g4-v120/src/stm32g4xx_hal_fmac.c:1108:7
	cbz	r0, .LBB15_7
.Ltmp291:
@ %bb.5:
	@DEBUG_VALUE: HAL_FMAC_PollFilterData:Timeout <- $r9
	@DEBUG_VALUE: HAL_FMAC_PollFilterData:hfmac <- $r4
	@DEBUG_VALUE: HAL_FMAC_PollFilterData:inpollingover <- 0
	@DEBUG_VALUE: HAL_FMAC_PollFilterData:outpollingover <- 0
	@DEBUG_VALUE: HAL_FMAC_PollFilterData:inpolling <- undef
	.loc	6 1116 15 is_stmt 1             @ ../src/driver/stm32g4-v120/src/stm32g4xx_hal_fmac.c:1116:15
	ldrb	r0, [r4, #9]
	.loc	6 1116 59 is_stmt 0             @ ../src/driver/stm32g4-v120/src/stm32g4xx_hal_fmac.c:1116:59
	cmp	r0, #2
	bne	.LBB15_10
.Ltmp292:
@ %bb.6:
	@DEBUG_VALUE: HAL_FMAC_PollFilterData:Timeout <- $r9
	@DEBUG_VALUE: HAL_FMAC_PollFilterData:hfmac <- $r4
	@DEBUG_VALUE: HAL_FMAC_PollFilterData:inpollingover <- 0
	@DEBUG_VALUE: HAL_FMAC_PollFilterData:outpollingover <- 0
	.loc	6 1116 70                       @ ../src/driver/stm32g4-v120/src/stm32g4xx_hal_fmac.c:1116:70
	ldr	r0, [r4, #24]
	.loc	6 1116 78                       @ ../src/driver/stm32g4-v120/src/stm32g4xx_hal_fmac.c:1116:78
	clz	r0, r0
	lsr.w	r8, r0, #5
	b	.LBB15_11
.Ltmp293:
.LBB15_7:
	@DEBUG_VALUE: HAL_FMAC_PollFilterData:Timeout <- $r9
	@DEBUG_VALUE: HAL_FMAC_PollFilterData:hfmac <- $r4
	@DEBUG_VALUE: HAL_FMAC_PollFilterData:inpollingover <- 0
	@DEBUG_VALUE: HAL_FMAC_PollFilterData:outpollingover <- 0
	@DEBUG_VALUE: HAL_FMAC_PollFilterData:inpolling <- undef
	.loc	6 1116 15                       @ ../src/driver/stm32g4-v120/src/stm32g4xx_hal_fmac.c:1116:15
	ldrb	r0, [r4, #9]
	.loc	6 1116 59                       @ ../src/driver/stm32g4-v120/src/stm32g4xx_hal_fmac.c:1116:59
	cmp	r0, #2
	bne	.LBB15_1
.Ltmp294:
@ %bb.8:
	@DEBUG_VALUE: HAL_FMAC_PollFilterData:Timeout <- $r9
	@DEBUG_VALUE: HAL_FMAC_PollFilterData:hfmac <- $r4
	@DEBUG_VALUE: HAL_FMAC_PollFilterData:inpollingover <- 0
	@DEBUG_VALUE: HAL_FMAC_PollFilterData:outpollingover <- 0
	.loc	6 1116 70                       @ ../src/driver/stm32g4-v120/src/stm32g4xx_hal_fmac.c:1116:70
	ldr	r0, [r4, #24]
	movs	r6, #1
.Ltmp295:
	.loc	6 1116 7                        @ ../src/driver/stm32g4-v120/src/stm32g4xx_hal_fmac.c:1116:7
	cmp	r0, #0
	beq	.LBB15_2
.Ltmp296:
@ %bb.9:
	@DEBUG_VALUE: HAL_FMAC_PollFilterData:Timeout <- $r9
	@DEBUG_VALUE: HAL_FMAC_PollFilterData:hfmac <- $r4
	@DEBUG_VALUE: HAL_FMAC_PollFilterData:inpollingover <- 0
	@DEBUG_VALUE: HAL_FMAC_PollFilterData:outpollingover <- 0
	.loc	6 0 7                           @ ../src/driver/stm32g4-v120/src/stm32g4xx_hal_fmac.c:0:7
	clz	r0, r0
	lsr.w	r8, r0, #5
	b	.LBB15_12
.Ltmp297:
.LBB15_10:
	@DEBUG_VALUE: HAL_FMAC_PollFilterData:Timeout <- $r9
	@DEBUG_VALUE: HAL_FMAC_PollFilterData:hfmac <- $r4
	@DEBUG_VALUE: HAL_FMAC_PollFilterData:inpollingover <- 0
	@DEBUG_VALUE: HAL_FMAC_PollFilterData:outpollingover <- 0
	mov.w	r8, #1
.Ltmp298:
.LBB15_11:
	@DEBUG_VALUE: HAL_FMAC_PollFilterData:Timeout <- $r9
	@DEBUG_VALUE: HAL_FMAC_PollFilterData:hfmac <- $r4
	@DEBUG_VALUE: HAL_FMAC_PollFilterData:inpollingover <- 0
	@DEBUG_VALUE: HAL_FMAC_PollFilterData:outpollingover <- 0
	movs	r6, #0
.Ltmp299:
.LBB15_12:
	@DEBUG_VALUE: HAL_FMAC_PollFilterData:Timeout <- $r9
	@DEBUG_VALUE: HAL_FMAC_PollFilterData:hfmac <- $r4
	@DEBUG_VALUE: HAL_FMAC_PollFilterData:inpollingover <- 0
	@DEBUG_VALUE: HAL_FMAC_PollFilterData:outpollingover <- 0
	.loc	6 1132 14 is_stmt 1             @ ../src/driver/stm32g4-v120/src/stm32g4xx_hal_fmac.c:1132:14
	ldrb.w	r0, [r4, #49]
.Ltmp300:
	.loc	6 1132 7 is_stmt 0              @ ../src/driver/stm32g4-v120/src/stm32g4xx_hal_fmac.c:1132:7
	cmp	r0, #32
	bne	.LBB15_28
.Ltmp301:
@ %bb.13:
	@DEBUG_VALUE: HAL_FMAC_PollFilterData:Timeout <- $r9
	@DEBUG_VALUE: HAL_FMAC_PollFilterData:hfmac <- $r4
	@DEBUG_VALUE: HAL_FMAC_PollFilterData:inpollingover <- 0
	@DEBUG_VALUE: HAL_FMAC_PollFilterData:outpollingover <- 0
	.loc	6 0 7                           @ ../src/driver/stm32g4-v120/src/stm32g4xx_hal_fmac.c:0:7
	movs	r0, #36
.Ltmp302:
	.loc	6 1135 18 is_stmt 1             @ ../src/driver/stm32g4-v120/src/stm32g4xx_hal_fmac.c:1135:18
	strb.w	r0, [r4, #49]
	.loc	6 1138 17                       @ ../src/driver/stm32g4-v120/src/stm32g4xx_hal_fmac.c:1138:17
	bl	HAL_GetTick
.Ltmp303:
	mov	r7, r0
.Ltmp304:
	@DEBUG_VALUE: HAL_FMAC_PollFilterData:tickstart <- $r7
	.p2align	2
.LBB15_14:                              @ =>This Inner Loop Header: Depth=1
	@DEBUG_VALUE: HAL_FMAC_PollFilterData:Timeout <- $r9
	@DEBUG_VALUE: HAL_FMAC_PollFilterData:tickstart <- $r7
	@DEBUG_VALUE: HAL_FMAC_PollFilterData:hfmac <- $r4
	@DEBUG_VALUE: HAL_FMAC_PollFilterData:inpollingover <- 0
	@DEBUG_VALUE: HAL_FMAC_PollFilterData:outpollingover <- 0
	.loc	6 1141 13                       @ ../src/driver/stm32g4-v120/src/stm32g4xx_hal_fmac.c:1141:13
	bl	HAL_GetTick
.Ltmp305:
	.loc	6 1141 27 is_stmt 0             @ ../src/driver/stm32g4-v120/src/stm32g4xx_hal_fmac.c:1141:27
	subs	r0, r0, r7
	.loc	6 1141 5                        @ ../src/driver/stm32g4-v120/src/stm32g4xx_hal_fmac.c:1141:5
	cmp	r0, r9
	bhs	.LBB15_22
.Ltmp306:
@ %bb.15:                               @   in Loop: Header=BB15_14 Depth=1
	@DEBUG_VALUE: HAL_FMAC_PollFilterData:Timeout <- $r9
	@DEBUG_VALUE: HAL_FMAC_PollFilterData:tickstart <- $r7
	@DEBUG_VALUE: HAL_FMAC_PollFilterData:hfmac <- $r4
	@DEBUG_VALUE: HAL_FMAC_PollFilterData:inpollingover <- 0
	@DEBUG_VALUE: HAL_FMAC_PollFilterData:outpollingover <- 0
	.loc	6 1144 11 is_stmt 1             @ ../src/driver/stm32g4-v120/src/stm32g4xx_hal_fmac.c:1144:11
	cbz	r6, .LBB15_17
.Ltmp307:
@ %bb.16:                               @   in Loop: Header=BB15_14 Depth=1
	@DEBUG_VALUE: HAL_FMAC_PollFilterData:Timeout <- $r9
	@DEBUG_VALUE: HAL_FMAC_PollFilterData:tickstart <- $r7
	@DEBUG_VALUE: HAL_FMAC_PollFilterData:hfmac <- $r4
	@DEBUG_VALUE: HAL_FMAC_PollFilterData:inpollingover <- 0
	@DEBUG_VALUE: HAL_FMAC_PollFilterData:outpollingover <- 0
	.loc	6 0 11 is_stmt 0                @ ../src/driver/stm32g4-v120/src/stm32g4xx_hal_fmac.c:0:11
	movs	r5, #0
	b	.LBB15_18
.Ltmp308:
	.p2align	2
.LBB15_17:                              @   in Loop: Header=BB15_14 Depth=1
	@DEBUG_VALUE: HAL_FMAC_PollFilterData:Timeout <- $r9
	@DEBUG_VALUE: HAL_FMAC_PollFilterData:tickstart <- $r7
	@DEBUG_VALUE: HAL_FMAC_PollFilterData:hfmac <- $r4
	@DEBUG_VALUE: HAL_FMAC_PollFilterData:inpollingover <- 0
	@DEBUG_VALUE: HAL_FMAC_PollFilterData:outpollingover <- 0
	.loc	6 1146 9 is_stmt 1              @ ../src/driver/stm32g4-v120/src/stm32g4xx_hal_fmac.c:1146:9
	mov	r0, r4
	movs	r1, #255
	bl	FMAC_WriteDataIncrementPtr
.Ltmp309:
	.loc	6 1147 49                       @ ../src/driver/stm32g4-v120/src/stm32g4xx_hal_fmac.c:1147:49
	ldr	r0, [r4, #20]
	.loc	6 1147 20 is_stmt 0             @ ../src/driver/stm32g4-v120/src/stm32g4xx_hal_fmac.c:1147:20
	ldrh	r1, [r4, #16]
	.loc	6 1147 40                       @ ../src/driver/stm32g4-v120/src/stm32g4xx_hal_fmac.c:1147:40
	ldrh	r0, [r0]
	.loc	6 1147 37                       @ ../src/driver/stm32g4-v120/src/stm32g4xx_hal_fmac.c:1147:37
	subs	r0, r1, r0
	clz	r0, r0
	lsrs	r5, r0, #5
.Ltmp310:
.LBB15_18:                              @   in Loop: Header=BB15_14 Depth=1
	@DEBUG_VALUE: HAL_FMAC_PollFilterData:Timeout <- $r9
	@DEBUG_VALUE: HAL_FMAC_PollFilterData:tickstart <- $r7
	@DEBUG_VALUE: HAL_FMAC_PollFilterData:hfmac <- $r4
	@DEBUG_VALUE: HAL_FMAC_PollFilterData:inpollingover <- 0
	@DEBUG_VALUE: HAL_FMAC_PollFilterData:outpollingover <- 0
	@DEBUG_VALUE: HAL_FMAC_PollFilterData:inpollingover <- $r5
	.loc	6 1154 11 is_stmt 1             @ ../src/driver/stm32g4-v120/src/stm32g4xx_hal_fmac.c:1154:11
	cmp.w	r8, #0
	beq	.LBB15_20
.Ltmp311:
@ %bb.19:                               @   in Loop: Header=BB15_14 Depth=1
	@DEBUG_VALUE: HAL_FMAC_PollFilterData:Timeout <- $r9
	@DEBUG_VALUE: HAL_FMAC_PollFilterData:tickstart <- $r7
	@DEBUG_VALUE: HAL_FMAC_PollFilterData:inpollingover <- $r5
	@DEBUG_VALUE: HAL_FMAC_PollFilterData:hfmac <- $r4
	@DEBUG_VALUE: HAL_FMAC_PollFilterData:outpollingover <- 0
	.loc	6 0 11 is_stmt 0                @ ../src/driver/stm32g4-v120/src/stm32g4xx_hal_fmac.c:0:11
	movs	r0, #0
	b	.LBB15_21
.Ltmp312:
	.p2align	2
.LBB15_20:                              @   in Loop: Header=BB15_14 Depth=1
	@DEBUG_VALUE: HAL_FMAC_PollFilterData:Timeout <- $r9
	@DEBUG_VALUE: HAL_FMAC_PollFilterData:tickstart <- $r7
	@DEBUG_VALUE: HAL_FMAC_PollFilterData:inpollingover <- $r5
	@DEBUG_VALUE: HAL_FMAC_PollFilterData:hfmac <- $r4
	@DEBUG_VALUE: HAL_FMAC_PollFilterData:outpollingover <- 0
	.loc	6 1156 9 is_stmt 1              @ ../src/driver/stm32g4-v120/src/stm32g4xx_hal_fmac.c:1156:9
	mov	r0, r4
	movs	r1, #255
	bl	FMAC_ReadDataIncrementPtr
.Ltmp313:
	.loc	6 1157 50                       @ ../src/driver/stm32g4-v120/src/stm32g4xx_hal_fmac.c:1157:50
	ldr	r0, [r4, #32]
	.loc	6 1157 20 is_stmt 0             @ ../src/driver/stm32g4-v120/src/stm32g4xx_hal_fmac.c:1157:20
	ldrh	r1, [r4, #28]
	.loc	6 1157 41                       @ ../src/driver/stm32g4-v120/src/stm32g4xx_hal_fmac.c:1157:41
	ldrh	r0, [r0]
	.loc	6 1157 38                       @ ../src/driver/stm32g4-v120/src/stm32g4xx_hal_fmac.c:1157:38
	subs	r0, r1, r0
	clz	r0, r0
	lsrs	r0, r0, #5
.Ltmp314:
.LBB15_21:                              @   in Loop: Header=BB15_14 Depth=1
	@DEBUG_VALUE: HAL_FMAC_PollFilterData:Timeout <- $r9
	@DEBUG_VALUE: HAL_FMAC_PollFilterData:tickstart <- $r7
	@DEBUG_VALUE: HAL_FMAC_PollFilterData:inpollingover <- $r5
	@DEBUG_VALUE: HAL_FMAC_PollFilterData:hfmac <- $r4
	@DEBUG_VALUE: HAL_FMAC_PollFilterData:outpollingover <- 0
	@DEBUG_VALUE: HAL_FMAC_PollFilterData:outpollingover <- $r0
	.loc	6 1164 50 is_stmt 1             @ ../src/driver/stm32g4-v120/src/stm32g4xx_hal_fmac.c:1164:50
	orrs	r0, r5
.Ltmp315:
	beq	.LBB15_14
.Ltmp316:
.LBB15_22:
	@DEBUG_VALUE: HAL_FMAC_PollFilterData:Timeout <- $r9
	@DEBUG_VALUE: HAL_FMAC_PollFilterData:tickstart <- $r7
	@DEBUG_VALUE: HAL_FMAC_PollFilterData:hfmac <- $r4
	.loc	6 1171 9                        @ ../src/driver/stm32g4-v120/src/stm32g4xx_hal_fmac.c:1171:9
	cbnz	r6, .LBB15_24
.Ltmp317:
@ %bb.23:
	@DEBUG_VALUE: HAL_FMAC_PollFilterData:Timeout <- $r9
	@DEBUG_VALUE: HAL_FMAC_PollFilterData:tickstart <- $r7
	@DEBUG_VALUE: HAL_FMAC_PollFilterData:hfmac <- $r4
	.loc	6 1173 40                       @ ../src/driver/stm32g4-v120/src/stm32g4xx_hal_fmac.c:1173:40
	ldrh	r0, [r4, #16]
	.loc	6 1173 17 is_stmt 0             @ ../src/driver/stm32g4-v120/src/stm32g4xx_hal_fmac.c:1173:17
	ldr	r1, [r4, #20]
	.loc	6 1173 31                       @ ../src/driver/stm32g4-v120/src/stm32g4xx_hal_fmac.c:1173:31
	strh	r0, [r1]
	movs	r0, #0
.Ltmp318:
	@DEBUG_VALUE: FMAC_ResetInputStateAndDataPointers:hfmac <- $r4
	.loc	6 1618 17 is_stmt 1             @ ../src/driver/stm32g4-v120/src/stm32g4xx_hal_fmac.c:1618:17
	str	r0, [r4, #12]
	.loc	6 1619 21                       @ ../src/driver/stm32g4-v120/src/stm32g4xx_hal_fmac.c:1619:21
	str	r0, [r4, #20]
	.loc	6 1620 27                       @ ../src/driver/stm32g4-v120/src/stm32g4xx_hal_fmac.c:1620:27
	strh	r0, [r4, #16]
	movs	r0, #32
	.loc	6 1621 18                       @ ../src/driver/stm32g4-v120/src/stm32g4xx_hal_fmac.c:1621:18
	strb.w	r0, [r4, #51]
.Ltmp319:
.LBB15_24:
	@DEBUG_VALUE: HAL_FMAC_PollFilterData:Timeout <- $r9
	@DEBUG_VALUE: HAL_FMAC_PollFilterData:tickstart <- $r7
	@DEBUG_VALUE: HAL_FMAC_PollFilterData:hfmac <- $r4
	.loc	6 1176 9                        @ ../src/driver/stm32g4-v120/src/stm32g4xx_hal_fmac.c:1176:9
	cmp.w	r8, #0
	bne	.LBB15_26
.Ltmp320:
@ %bb.25:
	@DEBUG_VALUE: HAL_FMAC_PollFilterData:Timeout <- $r9
	@DEBUG_VALUE: HAL_FMAC_PollFilterData:tickstart <- $r7
	@DEBUG_VALUE: HAL_FMAC_PollFilterData:hfmac <- $r4
	.loc	6 1178 40                       @ ../src/driver/stm32g4-v120/src/stm32g4xx_hal_fmac.c:1178:40
	ldrh	r0, [r4, #28]
	.loc	6 1178 17 is_stmt 0             @ ../src/driver/stm32g4-v120/src/stm32g4xx_hal_fmac.c:1178:17
	ldr	r1, [r4, #32]
	.loc	6 1178 31                       @ ../src/driver/stm32g4-v120/src/stm32g4xx_hal_fmac.c:1178:31
	strh	r0, [r1]
	movs	r0, #0
.Ltmp321:
	@DEBUG_VALUE: FMAC_ResetOutputStateAndDataPointers:hfmac <- $r4
	.loc	6 1631 18 is_stmt 1             @ ../src/driver/stm32g4-v120/src/stm32g4xx_hal_fmac.c:1631:18
	str	r0, [r4, #24]
	.loc	6 1632 22                       @ ../src/driver/stm32g4-v120/src/stm32g4xx_hal_fmac.c:1632:22
	str	r0, [r4, #32]
	.loc	6 1633 28                       @ ../src/driver/stm32g4-v120/src/stm32g4xx_hal_fmac.c:1633:28
	strh	r0, [r4, #28]
	movs	r0, #32
	.loc	6 1634 18                       @ ../src/driver/stm32g4-v120/src/stm32g4xx_hal_fmac.c:1634:18
	strb.w	r0, [r4, #50]
.Ltmp322:
.LBB15_26:
	@DEBUG_VALUE: HAL_FMAC_PollFilterData:Timeout <- $r9
	@DEBUG_VALUE: HAL_FMAC_PollFilterData:tickstart <- $r7
	@DEBUG_VALUE: HAL_FMAC_PollFilterData:hfmac <- $r4
	.loc	6 0 18 is_stmt 0                @ ../src/driver/stm32g4-v120/src/stm32g4xx_hal_fmac.c:0:18
	movs	r0, #32
	.loc	6 1183 18 is_stmt 1             @ ../src/driver/stm32g4-v120/src/stm32g4xx_hal_fmac.c:1183:18
	strb.w	r0, [r4, #49]
.Ltmp323:
	.loc	6 1185 10                       @ ../src/driver/stm32g4-v120/src/stm32g4xx_hal_fmac.c:1185:10
	bl	HAL_GetTick
.Ltmp324:
	.loc	6 1185 24 is_stmt 0             @ ../src/driver/stm32g4-v120/src/stm32g4xx_hal_fmac.c:1185:24
	subs	r0, r0, r7
.Ltmp325:
	.loc	6 1185 9                        @ ../src/driver/stm32g4-v120/src/stm32g4xx_hal_fmac.c:1185:9
	cmp	r0, r9
	bhs	.LBB15_29
.Ltmp326:
@ %bb.27:
	@DEBUG_VALUE: HAL_FMAC_PollFilterData:Timeout <- $r9
	@DEBUG_VALUE: HAL_FMAC_PollFilterData:tickstart <- $r7
	@DEBUG_VALUE: HAL_FMAC_PollFilterData:hfmac <- $r4
	.loc	6 0 9                           @ ../src/driver/stm32g4-v120/src/stm32g4xx_hal_fmac.c:0:9
	movs	r6, #0
	b	.LBB15_2
.Ltmp327:
.LBB15_28:
	@DEBUG_VALUE: HAL_FMAC_PollFilterData:Timeout <- $r9
	@DEBUG_VALUE: HAL_FMAC_PollFilterData:hfmac <- $r4
	@DEBUG_VALUE: HAL_FMAC_PollFilterData:inpollingover <- 0
	@DEBUG_VALUE: HAL_FMAC_PollFilterData:outpollingover <- 0
	movs	r6, #2
	b	.LBB15_2
.Ltmp328:
.LBB15_29:
	@DEBUG_VALUE: HAL_FMAC_PollFilterData:Timeout <- $r9
	@DEBUG_VALUE: HAL_FMAC_PollFilterData:tickstart <- $r7
	@DEBUG_VALUE: HAL_FMAC_PollFilterData:hfmac <- $r4
	.loc	6 1187 24 is_stmt 1             @ ../src/driver/stm32g4-v120/src/stm32g4xx_hal_fmac.c:1187:24
	ldr	r0, [r4, #52]
	movs	r6, #3
.Ltmp329:
	@DEBUG_VALUE: HAL_FMAC_PollFilterData:status <- 3
	orr	r0, r0, #128
	str	r0, [r4, #52]
	b	.LBB15_2
.Ltmp330:
.Lfunc_end15:
	.size	HAL_FMAC_PollFilterData, .Lfunc_end15-HAL_FMAC_PollFilterData
	.cfi_endproc
	.cantunwind
	.fnend
                                        @ -- End function
	.section	.text.FMAC_WriteDataIncrementPtr,"ax",%progbits
	.p2align	1                               @ -- Begin function FMAC_WriteDataIncrementPtr
	.type	FMAC_WriteDataIncrementPtr,%function
	.code	16                              @ @FMAC_WriteDataIncrementPtr
	.thumb_func
FMAC_WriteDataIncrementPtr:
.Lfunc_begin16:
	.loc	6 2216 0                        @ ../src/driver/stm32g4-v120/src/stm32g4xx_hal_fmac.c:2216:0
	.fnstart
	.cfi_startproc
@ %bb.0:
	@DEBUG_VALUE: FMAC_WriteDataIncrementPtr:hfmac <- $r0
	@DEBUG_VALUE: FMAC_WriteDataIncrementPtr:hfmac <- $r0
	@DEBUG_VALUE: FMAC_WriteDataIncrementPtr:MaxSizeToWrite <- $r1
	@DEBUG_VALUE: FMAC_WriteDataIncrementPtr:MaxSizeToWrite <- undef
	.save	{r4, r5, r7, lr}
	push	{r4, r5, r7, lr}
	.cfi_def_cfa_offset 16
	.cfi_offset lr, -4
	.cfi_offset r7, -8
	.cfi_offset r5, -12
	.cfi_offset r4, -16
.Ltmp331:
	.loc	6 2221 7 prologue_end           @ ../src/driver/stm32g4-v120/src/stm32g4xx_hal_fmac.c:2221:7
	ldr	r2, [r0]
	ldr	r3, [r2, #20]
.Ltmp332:
	.loc	6 2221 7 is_stmt 0              @ ../src/driver/stm32g4-v120/src/stm32g4xx_hal_fmac.c:2221:7
	lsls	r3, r3, #30
.Ltmp333:
	@DEBUG_VALUE: FMAC_WriteDataIncrementPtr:MaxSizeToWrite <- $r1
	bmi	.LBB16_13
.Ltmp334:
@ %bb.1:
	@DEBUG_VALUE: FMAC_WriteDataIncrementPtr:MaxSizeToWrite <- $r1
	@DEBUG_VALUE: FMAC_WriteDataIncrementPtr:hfmac <- $r0
	.loc	6 2227 61 is_stmt 1             @ ../src/driver/stm32g4-v120/src/stm32g4xx_hal_fmac.c:2227:61
	ldr	r4, [r0, #20]
	.loc	6 2227 15 is_stmt 0             @ ../src/driver/stm32g4-v120/src/stm32g4xx_hal_fmac.c:2227:15
	ldrh	r3, [r0, #16]
	.loc	6 2227 52                       @ ../src/driver/stm32g4-v120/src/stm32g4xx_hal_fmac.c:2227:52
	ldrh	r4, [r4]
	.loc	6 2227 32                       @ ../src/driver/stm32g4-v120/src/stm32g4xx_hal_fmac.c:2227:32
	add.w	r12, r3, r1
.Ltmp335:
	.loc	6 2227 7                        @ ../src/driver/stm32g4-v120/src/stm32g4xx_hal_fmac.c:2227:7
	cmp	r12, r4
	it	hi
	movhi	r12, r4
.Ltmp336:
	@DEBUG_VALUE: FMAC_WriteDataIncrementPtr:maxsize <- $r12
	.loc	6 0 7                           @ ../src/driver/stm32g4-v120/src/stm32g4xx_hal_fmac.c:0:7
	uxth.w	lr, r12
.Ltmp337:
	.p2align	2
.LBB16_2:                               @ =>This Inner Loop Header: Depth=1
	@DEBUG_VALUE: FMAC_WriteDataIncrementPtr:maxsize <- $r12
	@DEBUG_VALUE: FMAC_WriteDataIncrementPtr:hfmac <- $r0
	.loc	6 2240 35 is_stmt 1             @ ../src/driver/stm32g4-v120/src/stm32g4xx_hal_fmac.c:2240:35
	uxth	r1, r3
.Ltmp338:
	.loc	6 2240 9 is_stmt 0              @ ../src/driver/stm32g4-v120/src/stm32g4xx_hal_fmac.c:2240:9
	cmp	r1, lr
	bhs	.LBB16_13
.Ltmp339:
@ %bb.3:                                @   in Loop: Header=BB16_2 Depth=1
	@DEBUG_VALUE: FMAC_WriteDataIncrementPtr:maxsize <- $r12
	@DEBUG_VALUE: FMAC_WriteDataIncrementPtr:hfmac <- $r0
	.loc	6 2246 5 is_stmt 1              @ ../src/driver/stm32g4-v120/src/stm32g4xx_hal_fmac.c:2246:5
	ldr	r1, [r0, #12]
	.loc	6 2248 28                       @ ../src/driver/stm32g4-v120/src/stm32g4xx_hal_fmac.c:2248:28
	adds	r3, #1
	.loc	6 2246 5                        @ ../src/driver/stm32g4-v120/src/stm32g4xx_hal_fmac.c:2246:5
	mov	r4, r1
	ldrh	r5, [r4], #2
	str	r5, [r2, #24]
	.loc	6 2247 18                       @ ../src/driver/stm32g4-v120/src/stm32g4xx_hal_fmac.c:2247:18
	str	r4, [r0, #12]
	.loc	6 2248 28                       @ ../src/driver/stm32g4-v120/src/stm32g4xx_hal_fmac.c:2248:28
	strh	r3, [r0, #16]
.Ltmp340:
	.loc	6 2249 12                       @ ../src/driver/stm32g4-v120/src/stm32g4xx_hal_fmac.c:2249:12
	ldr	r4, [r2, #20]
.Ltmp341:
	.loc	6 2249 3 is_stmt 0              @ ../src/driver/stm32g4-v120/src/stm32g4xx_hal_fmac.c:2249:3
	lsls	r4, r4, #30
	bpl	.LBB16_2
.Ltmp342:
@ %bb.4:
	@DEBUG_VALUE: FMAC_WriteDataIncrementPtr:maxsize <- $r12
	@DEBUG_VALUE: FMAC_WriteDataIncrementPtr:hfmac <- $r0
	.loc	6 2252 25 is_stmt 1             @ ../src/driver/stm32g4-v120/src/stm32g4xx_hal_fmac.c:2252:25
	ldr	r4, [r2]
	tst.w	r4, #50331648
	beq	.LBB16_7
.Ltmp343:
@ %bb.5:
	@DEBUG_VALUE: FMAC_WriteDataIncrementPtr:maxsize <- $r12
	@DEBUG_VALUE: FMAC_WriteDataIncrementPtr:hfmac <- $r0
	ldr	r4, [r2]
	and	r4, r4, #50331648
	cmp.w	r4, #16777216
	bne	.LBB16_8
.Ltmp344:
@ %bb.6:
	@DEBUG_VALUE: FMAC_WriteDataIncrementPtr:maxsize <- $r12
	@DEBUG_VALUE: FMAC_WriteDataIncrementPtr:hfmac <- $r0
	.loc	6 0 25 is_stmt 0                @ ../src/driver/stm32g4-v120/src/stm32g4xx_hal_fmac.c:0:25
	movs	r4, #1
	b	.LBB16_9
.Ltmp345:
.LBB16_7:
	@DEBUG_VALUE: FMAC_WriteDataIncrementPtr:maxsize <- $r12
	@DEBUG_VALUE: FMAC_WriteDataIncrementPtr:hfmac <- $r0
	movs	r4, #0
	b	.LBB16_9
.Ltmp346:
.LBB16_8:
	@DEBUG_VALUE: FMAC_WriteDataIncrementPtr:maxsize <- $r12
	@DEBUG_VALUE: FMAC_WriteDataIncrementPtr:hfmac <- $r0
	.loc	6 2252 25                       @ ../src/driver/stm32g4-v120/src/stm32g4xx_hal_fmac.c:2252:25
	ldr	r4, [r2]
	and	r5, r4, #50331648
	movs	r4, #7
	cmp.w	r5, #33554432
	it	eq
	moveq	r4, #3
.Ltmp347:
.LBB16_9:
	@DEBUG_VALUE: FMAC_WriteDataIncrementPtr:maxsize <- $r12
	@DEBUG_VALUE: FMAC_WriteDataIncrementPtr:hfmac <- $r0
	@DEBUG_VALUE: FMAC_WriteDataIncrementPtr:threshold <- undef
	.loc	6 2255 32 is_stmt 1             @ ../src/driver/stm32g4-v120/src/stm32g4xx_hal_fmac.c:2255:32
	uxtah	r4, r4, r3
.Ltmp348:
	.loc	6 2255 7 is_stmt 0              @ ../src/driver/stm32g4-v120/src/stm32g4xx_hal_fmac.c:2255:7
	cmp	r4, lr
	it	lo
	movlo	r12, r4
.Ltmp349:
	@DEBUG_VALUE: FMAC_WriteDataIncrementPtr:maxsize <- $r12
	.loc	6 2255 8                        @ ../src/driver/stm32g4-v120/src/stm32g4xx_hal_fmac.c:2255:8
	uxth	r5, r3
.Ltmp350:
	.loc	6 2255 7                        @ ../src/driver/stm32g4-v120/src/stm32g4xx_hal_fmac.c:2255:7
	uxth.w	r12, r12
.Ltmp351:
	.loc	6 2261 3 is_stmt 1              @ ../src/driver/stm32g4-v120/src/stm32g4xx_hal_fmac.c:2261:3
	cmp	r5, r12
	.loc	6 2267 1                        @ ../src/driver/stm32g4-v120/src/stm32g4xx_hal_fmac.c:2267:1
	it	hs
	pophs	{r4, r5, r7, pc}
.Ltmp352:
.LBB16_10:
	@DEBUG_VALUE: FMAC_WriteDataIncrementPtr:hfmac <- $r0
	.loc	6 0 1 is_stmt 0                 @ ../src/driver/stm32g4-v120/src/stm32g4xx_hal_fmac.c:0:1
	adds	r1, #2
.Ltmp353:
	.p2align	2
.LBB16_11:                              @ =>This Inner Loop Header: Depth=1
	@DEBUG_VALUE: FMAC_WriteDataIncrementPtr:hfmac <- $r0
	.loc	6 2263 5 is_stmt 1              @ ../src/driver/stm32g4-v120/src/stm32g4xx_hal_fmac.c:2263:5
	ldrh	r5, [r1], #2
	.loc	6 2265 28                       @ ../src/driver/stm32g4-v120/src/stm32g4xx_hal_fmac.c:2265:28
	adds	r3, #1
	.loc	6 2263 5                        @ ../src/driver/stm32g4-v120/src/stm32g4xx_hal_fmac.c:2263:5
	str	r5, [r2, #24]
	.loc	6 2265 28                       @ ../src/driver/stm32g4-v120/src/stm32g4xx_hal_fmac.c:2265:28
	uxth	r5, r3
.Ltmp354:
	.loc	6 2261 3                        @ ../src/driver/stm32g4-v120/src/stm32g4xx_hal_fmac.c:2261:3
	cmp	r5, r12
.Ltmp355:
	.loc	6 2265 28                       @ ../src/driver/stm32g4-v120/src/stm32g4xx_hal_fmac.c:2265:28
	strh	r3, [r0, #16]
.Ltmp356:
	.loc	6 2261 3                        @ ../src/driver/stm32g4-v120/src/stm32g4xx_hal_fmac.c:2261:3
	blo	.LBB16_11
.Ltmp357:
@ %bb.12:
	@DEBUG_VALUE: FMAC_WriteDataIncrementPtr:hfmac <- $r0
	.loc	6 0 0 is_stmt 0                 @ ../src/driver/stm32g4-v120/src/stm32g4xx_hal_fmac.c:0:0
	str	r1, [r0, #12]
.Ltmp358:
.LBB16_13:
	@DEBUG_VALUE: FMAC_WriteDataIncrementPtr:hfmac <- $r0
	.loc	6 2267 1 is_stmt 1              @ ../src/driver/stm32g4-v120/src/stm32g4xx_hal_fmac.c:2267:1
	pop	{r4, r5, r7, pc}
.Ltmp359:
.Lfunc_end16:
	.size	FMAC_WriteDataIncrementPtr, .Lfunc_end16-FMAC_WriteDataIncrementPtr
	.cfi_endproc
	.cantunwind
	.fnend
                                        @ -- End function
	.section	.text.FMAC_ReadDataIncrementPtr,"ax",%progbits
	.p2align	1                               @ -- Begin function FMAC_ReadDataIncrementPtr
	.type	FMAC_ReadDataIncrementPtr,%function
	.code	16                              @ @FMAC_ReadDataIncrementPtr
	.thumb_func
FMAC_ReadDataIncrementPtr:
.Lfunc_begin17:
	.loc	6 2152 0                        @ ../src/driver/stm32g4-v120/src/stm32g4xx_hal_fmac.c:2152:0
	.fnstart
	.cfi_startproc
@ %bb.0:
	@DEBUG_VALUE: FMAC_ReadDataIncrementPtr:hfmac <- $r0
	@DEBUG_VALUE: FMAC_ReadDataIncrementPtr:hfmac <- $r0
	@DEBUG_VALUE: FMAC_ReadDataIncrementPtr:MaxSizeToRead <- $r1
	@DEBUG_VALUE: FMAC_ReadDataIncrementPtr:MaxSizeToRead <- undef
	.save	{r4, r5, r7, lr}
	push	{r4, r5, r7, lr}
	.cfi_def_cfa_offset 16
	.cfi_offset lr, -4
	.cfi_offset r7, -8
	.cfi_offset r5, -12
	.cfi_offset r4, -16
.Ltmp360:
	.loc	6 2158 7 prologue_end           @ ../src/driver/stm32g4-v120/src/stm32g4xx_hal_fmac.c:2158:7
	ldr	r2, [r0]
	ldr	r3, [r2, #20]
.Ltmp361:
	.loc	6 2158 7 is_stmt 0              @ ../src/driver/stm32g4-v120/src/stm32g4xx_hal_fmac.c:2158:7
	lsls	r3, r3, #31
.Ltmp362:
	@DEBUG_VALUE: FMAC_ReadDataIncrementPtr:MaxSizeToRead <- $r1
	bne	.LBB17_13
.Ltmp363:
@ %bb.1:
	@DEBUG_VALUE: FMAC_ReadDataIncrementPtr:MaxSizeToRead <- $r1
	@DEBUG_VALUE: FMAC_ReadDataIncrementPtr:hfmac <- $r0
	.loc	6 2164 61 is_stmt 1             @ ../src/driver/stm32g4-v120/src/stm32g4xx_hal_fmac.c:2164:61
	ldr	r4, [r0, #32]
	.loc	6 2164 15 is_stmt 0             @ ../src/driver/stm32g4-v120/src/stm32g4xx_hal_fmac.c:2164:15
	ldrh	r3, [r0, #28]
	.loc	6 2164 52                       @ ../src/driver/stm32g4-v120/src/stm32g4xx_hal_fmac.c:2164:52
	ldrh	r4, [r4]
	.loc	6 2164 33                       @ ../src/driver/stm32g4-v120/src/stm32g4xx_hal_fmac.c:2164:33
	add.w	r12, r3, r1
.Ltmp364:
	.loc	6 2164 7                        @ ../src/driver/stm32g4-v120/src/stm32g4xx_hal_fmac.c:2164:7
	cmp	r12, r4
	it	hi
	movhi	r12, r4
.Ltmp365:
	@DEBUG_VALUE: FMAC_ReadDataIncrementPtr:maxsize <- $r12
	.loc	6 0 7                           @ ../src/driver/stm32g4-v120/src/stm32g4xx_hal_fmac.c:0:7
	uxth.w	lr, r12
.Ltmp366:
	.p2align	2
.LBB17_2:                               @ =>This Inner Loop Header: Depth=1
	@DEBUG_VALUE: FMAC_ReadDataIncrementPtr:maxsize <- $r12
	@DEBUG_VALUE: FMAC_ReadDataIncrementPtr:hfmac <- $r0
	.loc	6 2177 36 is_stmt 1             @ ../src/driver/stm32g4-v120/src/stm32g4xx_hal_fmac.c:2177:36
	uxth	r1, r3
.Ltmp367:
	.loc	6 2177 9 is_stmt 0              @ ../src/driver/stm32g4-v120/src/stm32g4xx_hal_fmac.c:2177:9
	cmp	r1, lr
	bhs	.LBB17_13
.Ltmp368:
@ %bb.3:                                @   in Loop: Header=BB17_2 Depth=1
	@DEBUG_VALUE: FMAC_ReadDataIncrementPtr:maxsize <- $r12
	@DEBUG_VALUE: FMAC_ReadDataIncrementPtr:hfmac <- $r0
	.loc	6 2183 18 is_stmt 1             @ ../src/driver/stm32g4-v120/src/stm32g4xx_hal_fmac.c:2183:18
	ldr	r3, [r2, #28]
.Ltmp369:
	@DEBUG_VALUE: FMAC_ReadDataIncrementPtr:tmpvalue <- [DW_OP_constu 65535, DW_OP_and, DW_OP_stack_value] $r3
	.loc	6 2184 14                       @ ../src/driver/stm32g4-v120/src/stm32g4xx_hal_fmac.c:2184:14
	ldr	r1, [r0, #24]
	.loc	6 2184 23 is_stmt 0             @ ../src/driver/stm32g4-v120/src/stm32g4xx_hal_fmac.c:2184:23
	mov	r4, r1
	strh	r3, [r4], #2
	.loc	6 2186 29 is_stmt 1             @ ../src/driver/stm32g4-v120/src/stm32g4xx_hal_fmac.c:2186:29
	ldrh	r3, [r0, #28]
.Ltmp370:
	.loc	6 2185 19                       @ ../src/driver/stm32g4-v120/src/stm32g4xx_hal_fmac.c:2185:19
	str	r4, [r0, #24]
	.loc	6 2186 29                       @ ../src/driver/stm32g4-v120/src/stm32g4xx_hal_fmac.c:2186:29
	adds	r3, #1
	strh	r3, [r0, #28]
.Ltmp371:
	.loc	6 2187 12                       @ ../src/driver/stm32g4-v120/src/stm32g4xx_hal_fmac.c:2187:12
	ldr	r4, [r2, #20]
.Ltmp372:
	.loc	6 2187 3 is_stmt 0              @ ../src/driver/stm32g4-v120/src/stm32g4xx_hal_fmac.c:2187:3
	lsls	r4, r4, #31
	beq	.LBB17_2
.Ltmp373:
@ %bb.4:
	@DEBUG_VALUE: FMAC_ReadDataIncrementPtr:maxsize <- $r12
	@DEBUG_VALUE: FMAC_ReadDataIncrementPtr:hfmac <- $r0
	.loc	6 2190 25 is_stmt 1             @ ../src/driver/stm32g4-v120/src/stm32g4xx_hal_fmac.c:2190:25
	ldr	r4, [r2, #8]
	tst.w	r4, #50331648
	beq	.LBB17_7
.Ltmp374:
@ %bb.5:
	@DEBUG_VALUE: FMAC_ReadDataIncrementPtr:maxsize <- $r12
	@DEBUG_VALUE: FMAC_ReadDataIncrementPtr:hfmac <- $r0
	ldr	r4, [r2, #8]
	and	r4, r4, #50331648
	cmp.w	r4, #16777216
	bne	.LBB17_8
.Ltmp375:
@ %bb.6:
	@DEBUG_VALUE: FMAC_ReadDataIncrementPtr:maxsize <- $r12
	@DEBUG_VALUE: FMAC_ReadDataIncrementPtr:hfmac <- $r0
	.loc	6 0 25 is_stmt 0                @ ../src/driver/stm32g4-v120/src/stm32g4xx_hal_fmac.c:0:25
	movs	r4, #1
	b	.LBB17_9
.Ltmp376:
.LBB17_7:
	@DEBUG_VALUE: FMAC_ReadDataIncrementPtr:maxsize <- $r12
	@DEBUG_VALUE: FMAC_ReadDataIncrementPtr:hfmac <- $r0
	movs	r4, #0
	b	.LBB17_9
.Ltmp377:
.LBB17_8:
	@DEBUG_VALUE: FMAC_ReadDataIncrementPtr:maxsize <- $r12
	@DEBUG_VALUE: FMAC_ReadDataIncrementPtr:hfmac <- $r0
	.loc	6 2190 25                       @ ../src/driver/stm32g4-v120/src/stm32g4xx_hal_fmac.c:2190:25
	ldr	r4, [r2, #8]
	and	r5, r4, #50331648
	movs	r4, #7
	cmp.w	r5, #33554432
	it	eq
	moveq	r4, #3
.Ltmp378:
.LBB17_9:
	@DEBUG_VALUE: FMAC_ReadDataIncrementPtr:maxsize <- $r12
	@DEBUG_VALUE: FMAC_ReadDataIncrementPtr:hfmac <- $r0
	@DEBUG_VALUE: FMAC_ReadDataIncrementPtr:threshold <- undef
	.loc	6 2193 8 is_stmt 1              @ ../src/driver/stm32g4-v120/src/stm32g4xx_hal_fmac.c:2193:8
	uxth	r5, r3
	.loc	6 2193 33 is_stmt 0             @ ../src/driver/stm32g4-v120/src/stm32g4xx_hal_fmac.c:2193:33
	uxtah	r3, r4, r3
.Ltmp379:
	.loc	6 2193 7                        @ ../src/driver/stm32g4-v120/src/stm32g4xx_hal_fmac.c:2193:7
	cmp	r3, lr
	it	lo
	movlo	r12, r3
.Ltmp380:
	@DEBUG_VALUE: FMAC_ReadDataIncrementPtr:maxsize <- $r12
	uxth.w	r3, r12
	.loc	6 2199 3 is_stmt 1              @ ../src/driver/stm32g4-v120/src/stm32g4xx_hal_fmac.c:2199:3
	cmp	r5, r3
	.loc	6 2206 1                        @ ../src/driver/stm32g4-v120/src/stm32g4xx_hal_fmac.c:2206:1
	it	hs
	pophs	{r4, r5, r7, pc}
.Ltmp381:
.LBB17_10:
	@DEBUG_VALUE: FMAC_ReadDataIncrementPtr:maxsize <- $r12
	@DEBUG_VALUE: FMAC_ReadDataIncrementPtr:hfmac <- $r0
	.loc	6 0 1 is_stmt 0                 @ ../src/driver/stm32g4-v120/src/stm32g4xx_hal_fmac.c:0:1
	adds	r1, #2
.Ltmp382:
	.p2align	2
.LBB17_11:                              @ =>This Inner Loop Header: Depth=1
	@DEBUG_VALUE: FMAC_ReadDataIncrementPtr:maxsize <- $r12
	@DEBUG_VALUE: FMAC_ReadDataIncrementPtr:hfmac <- $r0
	.loc	6 2201 18 is_stmt 1             @ ../src/driver/stm32g4-v120/src/stm32g4xx_hal_fmac.c:2201:18
	ldr	r5, [r2, #28]
.Ltmp383:
	@DEBUG_VALUE: FMAC_ReadDataIncrementPtr:tmpvalue <- [DW_OP_constu 65535, DW_OP_and, DW_OP_stack_value] $r5
	.loc	6 2202 23                       @ ../src/driver/stm32g4-v120/src/stm32g4xx_hal_fmac.c:2202:23
	strh	r5, [r1], #2
	.loc	6 2204 29                       @ ../src/driver/stm32g4-v120/src/stm32g4xx_hal_fmac.c:2204:29
	ldrh	r5, [r0, #28]
.Ltmp384:
	adds	r5, #1
	uxth	r4, r5
.Ltmp385:
	.loc	6 2199 3                        @ ../src/driver/stm32g4-v120/src/stm32g4xx_hal_fmac.c:2199:3
	cmp	r4, r3
.Ltmp386:
	.loc	6 2204 29                       @ ../src/driver/stm32g4-v120/src/stm32g4xx_hal_fmac.c:2204:29
	strh	r5, [r0, #28]
.Ltmp387:
	.loc	6 2199 3                        @ ../src/driver/stm32g4-v120/src/stm32g4xx_hal_fmac.c:2199:3
	blo	.LBB17_11
.Ltmp388:
@ %bb.12:
	@DEBUG_VALUE: FMAC_ReadDataIncrementPtr:maxsize <- $r12
	@DEBUG_VALUE: FMAC_ReadDataIncrementPtr:hfmac <- $r0
	.loc	6 0 0 is_stmt 0                 @ ../src/driver/stm32g4-v120/src/stm32g4xx_hal_fmac.c:0:0
	str	r1, [r0, #24]
.Ltmp389:
.LBB17_13:
	@DEBUG_VALUE: FMAC_ReadDataIncrementPtr:hfmac <- $r0
	.loc	6 2206 1 is_stmt 1              @ ../src/driver/stm32g4-v120/src/stm32g4xx_hal_fmac.c:2206:1
	pop	{r4, r5, r7, pc}
.Ltmp390:
.Lfunc_end17:
	.size	FMAC_ReadDataIncrementPtr, .Lfunc_end17-FMAC_ReadDataIncrementPtr
	.cfi_endproc
	.cantunwind
	.fnend
                                        @ -- End function
	.section	.text.HAL_FMAC_FilterStop,"ax",%progbits
	.hidden	HAL_FMAC_FilterStop             @ -- Begin function HAL_FMAC_FilterStop
	.globl	HAL_FMAC_FilterStop
	.p2align	1
	.type	HAL_FMAC_FilterStop,%function
	.code	16                              @ @HAL_FMAC_FilterStop
	.thumb_func
HAL_FMAC_FilterStop:
.Lfunc_begin18:
	.loc	6 1210 0                        @ ../src/driver/stm32g4-v120/src/stm32g4xx_hal_fmac.c:1210:0
	.fnstart
	.cfi_startproc
@ %bb.0:
	@DEBUG_VALUE: HAL_FMAC_FilterStop:hfmac <- $r0
	.save	{r4, lr}
	push	{r4, lr}
	.cfi_def_cfa_offset 8
	.cfi_offset lr, -4
	.cfi_offset r4, -8
	mov	r4, r0
.Ltmp391:
	@DEBUG_VALUE: HAL_FMAC_FilterStop:hfmac <- $r4
	.loc	6 1214 14 prologue_end          @ ../src/driver/stm32g4-v120/src/stm32g4xx_hal_fmac.c:1214:14
	ldrb.w	r0, [r0, #49]
.Ltmp392:
	.loc	6 1214 7 is_stmt 0              @ ../src/driver/stm32g4-v120/src/stm32g4xx_hal_fmac.c:1214:7
	cmp	r0, #32
	itt	ne
	movne	r0, #2
.Ltmp393:
	@DEBUG_VALUE: HAL_FMAC_FilterStop:status <- $r0
	.loc	6 1259 3 is_stmt 1              @ ../src/driver/stm32g4-v120/src/stm32g4xx_hal_fmac.c:1259:3
	popne	{r4, pc}
.Ltmp394:
.LBB18_1:
	@DEBUG_VALUE: HAL_FMAC_FilterStop:status <- $r0
	.loc	6 0 3 is_stmt 0                 @ ../src/driver/stm32g4-v120/src/stm32g4xx_hal_fmac.c:0:3
	movs	r0, #36
.Ltmp395:
	.loc	6 1217 18 is_stmt 1             @ ../src/driver/stm32g4-v120/src/stm32g4xx_hal_fmac.c:1217:18
	strb.w	r0, [r4, #49]
	.loc	6 1220 5                        @ ../src/driver/stm32g4-v120/src/stm32g4xx_hal_fmac.c:1220:5
	ldr	r0, [r4]
	movw	r2, #771
	ldr	r1, [r0, #12]
	bic	r1, r1, #-2147483648
	str	r1, [r0, #12]
	.loc	6 1223 5                        @ ../src/driver/stm32g4-v120/src/stm32g4xx_hal_fmac.c:1223:5
	ldr	r1, [r0, #16]
	bics	r1, r2
	str	r1, [r0, #16]
.Ltmp396:
	.loc	6 1226 17                       @ ../src/driver/stm32g4-v120/src/stm32g4xx_hal_fmac.c:1226:17
	ldrb	r0, [r4, #8]
	.loc	6 1226 55 is_stmt 0             @ ../src/driver/stm32g4-v120/src/stm32g4xx_hal_fmac.c:1226:55
	cmp	r0, #3
	bne	.LBB18_4
@ %bb.2:
	.loc	6 1226 66                       @ ../src/driver/stm32g4-v120/src/stm32g4xx_hal_fmac.c:1226:66
	ldr	r0, [r4, #12]
.Ltmp397:
	.loc	6 1226 9                        @ ../src/driver/stm32g4-v120/src/stm32g4xx_hal_fmac.c:1226:9
	cbz	r0, .LBB18_4
@ %bb.3:
.Ltmp398:
	.loc	6 1228 40 is_stmt 1             @ ../src/driver/stm32g4-v120/src/stm32g4xx_hal_fmac.c:1228:40
	ldrh	r0, [r4, #16]
	.loc	6 1228 17 is_stmt 0             @ ../src/driver/stm32g4-v120/src/stm32g4xx_hal_fmac.c:1228:17
	ldr	r1, [r4, #20]
	.loc	6 1228 31                       @ ../src/driver/stm32g4-v120/src/stm32g4xx_hal_fmac.c:1228:31
	strh	r0, [r1]
.Ltmp399:
.LBB18_4:
	.loc	6 1230 17 is_stmt 1             @ ../src/driver/stm32g4-v120/src/stm32g4xx_hal_fmac.c:1230:17
	ldrb	r0, [r4, #9]
	.loc	6 1230 56 is_stmt 0             @ ../src/driver/stm32g4-v120/src/stm32g4xx_hal_fmac.c:1230:56
	cmp	r0, #3
	bne	.LBB18_7
@ %bb.5:
	.loc	6 1230 67                       @ ../src/driver/stm32g4-v120/src/stm32g4xx_hal_fmac.c:1230:67
	ldr	r0, [r4, #24]
.Ltmp400:
	.loc	6 1230 9                        @ ../src/driver/stm32g4-v120/src/stm32g4xx_hal_fmac.c:1230:9
	cbz	r0, .LBB18_7
@ %bb.6:
.Ltmp401:
	.loc	6 1232 40 is_stmt 1             @ ../src/driver/stm32g4-v120/src/stm32g4xx_hal_fmac.c:1232:40
	ldrh	r0, [r4, #28]
	.loc	6 1232 17 is_stmt 0             @ ../src/driver/stm32g4-v120/src/stm32g4xx_hal_fmac.c:1232:17
	ldr	r1, [r4, #32]
	.loc	6 1232 31                       @ ../src/driver/stm32g4-v120/src/stm32g4xx_hal_fmac.c:1232:31
	strh	r0, [r1]
.Ltmp402:
.LBB18_7:
	.loc	6 1236 9 is_stmt 1              @ ../src/driver/stm32g4-v120/src/stm32g4xx_hal_fmac.c:1236:9
	mov	r0, r4
	bl	FMAC_Reset
.Ltmp403:
	.loc	6 1236 9 is_stmt 0              @ ../src/driver/stm32g4-v120/src/stm32g4xx_hal_fmac.c:1236:9
	cmp	r0, #3
	bne	.LBB18_9
@ %bb.8:
	.loc	6 0 9                           @ ../src/driver/stm32g4-v120/src/stm32g4xx_hal_fmac.c:0:9
	movs	r0, #16
.Ltmp404:
	.loc	6 1239 24 is_stmt 1             @ ../src/driver/stm32g4-v120/src/stm32g4xx_hal_fmac.c:1239:24
	str	r0, [r4, #52]
	movs	r0, #160
	.loc	6 1240 20                       @ ../src/driver/stm32g4-v120/src/stm32g4xx_hal_fmac.c:1240:20
	strb.w	r0, [r4, #49]
	movs	r0, #3
.Ltmp405:
	@DEBUG_VALUE: HAL_FMAC_FilterStop:status <- 3
	.loc	6 0 20 is_stmt 0                @ ../src/driver/stm32g4-v120/src/stm32g4xx_hal_fmac.c:0:20
	b	.LBB18_10
.Ltmp406:
.LBB18_9:
	movs	r0, #0
.Ltmp407:
	@DEBUG_VALUE: FMAC_ResetInputStateAndDataPointers:hfmac <- $r4
	@DEBUG_VALUE: FMAC_ResetDataPointers:hfmac <- $r4
	movs	r1, #32
.Ltmp408:
	.loc	6 1618 17 is_stmt 1             @ ../src/driver/stm32g4-v120/src/stm32g4xx_hal_fmac.c:1618:17
	str	r0, [r4, #12]
	.loc	6 1620 27                       @ ../src/driver/stm32g4-v120/src/stm32g4xx_hal_fmac.c:1620:27
	strh	r0, [r4, #16]
	.loc	6 1621 18                       @ ../src/driver/stm32g4-v120/src/stm32g4xx_hal_fmac.c:1621:18
	strb.w	r1, [r4, #51]
.Ltmp409:
	@DEBUG_VALUE: FMAC_ResetOutputStateAndDataPointers:hfmac <- $r4
	.loc	6 1619 21                       @ ../src/driver/stm32g4-v120/src/stm32g4xx_hal_fmac.c:1619:21
	strd	r0, r0, [r4, #20]
.Ltmp410:
	.loc	6 1632 22                       @ ../src/driver/stm32g4-v120/src/stm32g4xx_hal_fmac.c:1632:22
	str	r0, [r4, #32]
	.loc	6 1633 28                       @ ../src/driver/stm32g4-v120/src/stm32g4xx_hal_fmac.c:1633:28
	strh	r0, [r4, #28]
	.loc	6 1634 18                       @ ../src/driver/stm32g4-v120/src/stm32g4xx_hal_fmac.c:1634:18
	strb.w	r1, [r4, #50]
.Ltmp411:
	@DEBUG_VALUE: HAL_FMAC_FilterStop:status <- 0
.LBB18_10:
	@DEBUG_VALUE: HAL_FMAC_FilterStop:status <- $r0
	.loc	6 0 18 is_stmt 0                @ ../src/driver/stm32g4-v120/src/stm32g4xx_hal_fmac.c:0:18
	movs	r1, #32
	.loc	6 1252 18 is_stmt 1             @ ../src/driver/stm32g4-v120/src/stm32g4xx_hal_fmac.c:1252:18
	strb.w	r1, [r4, #49]
.Ltmp412:
	@DEBUG_VALUE: HAL_FMAC_FilterStop:status <- $r0
	.loc	6 1259 3                        @ ../src/driver/stm32g4-v120/src/stm32g4xx_hal_fmac.c:1259:3
	pop	{r4, pc}
.Ltmp413:
.Lfunc_end18:
	.size	HAL_FMAC_FilterStop, .Lfunc_end18-HAL_FMAC_FilterStop
	.cfi_endproc
	.cantunwind
	.fnend
                                        @ -- End function
	.section	.text.HAL_FMAC_ErrorCallback,"ax",%progbits
	.hidden	HAL_FMAC_ErrorCallback          @ -- Begin function HAL_FMAC_ErrorCallback
	.weak	HAL_FMAC_ErrorCallback
	.p2align	1
	.type	HAL_FMAC_ErrorCallback,%function
	.code	16                              @ @HAL_FMAC_ErrorCallback
	.thumb_func
HAL_FMAC_ErrorCallback:
.Lfunc_begin19:
	.loc	6 1291 0                        @ ../src/driver/stm32g4-v120/src/stm32g4xx_hal_fmac.c:1291:0
	.fnstart
	.cfi_startproc
@ %bb.0:
	@DEBUG_VALUE: HAL_FMAC_ErrorCallback:hfmac <- $r0
	.loc	6 1298 1 prologue_end           @ ../src/driver/stm32g4-v120/src/stm32g4xx_hal_fmac.c:1298:1
	bx	lr
.Ltmp414:
.Lfunc_end19:
	.size	HAL_FMAC_ErrorCallback, .Lfunc_end19-HAL_FMAC_ErrorCallback
	.cfi_endproc
	.cantunwind
	.fnend
                                        @ -- End function
	.section	.text.HAL_FMAC_HalfGetDataCallback,"ax",%progbits
	.hidden	HAL_FMAC_HalfGetDataCallback    @ -- Begin function HAL_FMAC_HalfGetDataCallback
	.weak	HAL_FMAC_HalfGetDataCallback
	.p2align	1
	.type	HAL_FMAC_HalfGetDataCallback,%function
	.code	16                              @ @HAL_FMAC_HalfGetDataCallback
	.thumb_func
HAL_FMAC_HalfGetDataCallback:
.Lfunc_begin20:
	.loc	6 1307 0                        @ ../src/driver/stm32g4-v120/src/stm32g4xx_hal_fmac.c:1307:0
	.fnstart
	.cfi_startproc
@ %bb.0:
	@DEBUG_VALUE: HAL_FMAC_HalfGetDataCallback:hfmac <- $r0
	.loc	6 1314 1 prologue_end           @ ../src/driver/stm32g4-v120/src/stm32g4xx_hal_fmac.c:1314:1
	bx	lr
.Ltmp415:
.Lfunc_end20:
	.size	HAL_FMAC_HalfGetDataCallback, .Lfunc_end20-HAL_FMAC_HalfGetDataCallback
	.cfi_endproc
	.cantunwind
	.fnend
                                        @ -- End function
	.section	.text.HAL_FMAC_GetDataCallback,"ax",%progbits
	.hidden	HAL_FMAC_GetDataCallback        @ -- Begin function HAL_FMAC_GetDataCallback
	.weak	HAL_FMAC_GetDataCallback
	.p2align	1
	.type	HAL_FMAC_GetDataCallback,%function
	.code	16                              @ @HAL_FMAC_GetDataCallback
	.thumb_func
HAL_FMAC_GetDataCallback:
.Lfunc_begin21:
	.loc	6 1323 0                        @ ../src/driver/stm32g4-v120/src/stm32g4xx_hal_fmac.c:1323:0
	.fnstart
	.cfi_startproc
@ %bb.0:
	@DEBUG_VALUE: HAL_FMAC_GetDataCallback:hfmac <- $r0
	.loc	6 1330 1 prologue_end           @ ../src/driver/stm32g4-v120/src/stm32g4xx_hal_fmac.c:1330:1
	bx	lr
.Ltmp416:
.Lfunc_end21:
	.size	HAL_FMAC_GetDataCallback, .Lfunc_end21-HAL_FMAC_GetDataCallback
	.cfi_endproc
	.cantunwind
	.fnend
                                        @ -- End function
	.section	.text.HAL_FMAC_HalfOutputDataReadyCallback,"ax",%progbits
	.hidden	HAL_FMAC_HalfOutputDataReadyCallback @ -- Begin function HAL_FMAC_HalfOutputDataReadyCallback
	.weak	HAL_FMAC_HalfOutputDataReadyCallback
	.p2align	1
	.type	HAL_FMAC_HalfOutputDataReadyCallback,%function
	.code	16                              @ @HAL_FMAC_HalfOutputDataReadyCallback
	.thumb_func
HAL_FMAC_HalfOutputDataReadyCallback:
.Lfunc_begin22:
	.loc	6 1339 0                        @ ../src/driver/stm32g4-v120/src/stm32g4xx_hal_fmac.c:1339:0
	.fnstart
	.cfi_startproc
@ %bb.0:
	@DEBUG_VALUE: HAL_FMAC_HalfOutputDataReadyCallback:hfmac <- $r0
	.loc	6 1346 1 prologue_end           @ ../src/driver/stm32g4-v120/src/stm32g4xx_hal_fmac.c:1346:1
	bx	lr
.Ltmp417:
.Lfunc_end22:
	.size	HAL_FMAC_HalfOutputDataReadyCallback, .Lfunc_end22-HAL_FMAC_HalfOutputDataReadyCallback
	.cfi_endproc
	.cantunwind
	.fnend
                                        @ -- End function
	.section	.text.HAL_FMAC_OutputDataReadyCallback,"ax",%progbits
	.hidden	HAL_FMAC_OutputDataReadyCallback @ -- Begin function HAL_FMAC_OutputDataReadyCallback
	.weak	HAL_FMAC_OutputDataReadyCallback
	.p2align	1
	.type	HAL_FMAC_OutputDataReadyCallback,%function
	.code	16                              @ @HAL_FMAC_OutputDataReadyCallback
	.thumb_func
HAL_FMAC_OutputDataReadyCallback:
.Lfunc_begin23:
	.loc	6 1355 0                        @ ../src/driver/stm32g4-v120/src/stm32g4xx_hal_fmac.c:1355:0
	.fnstart
	.cfi_startproc
@ %bb.0:
	@DEBUG_VALUE: HAL_FMAC_OutputDataReadyCallback:hfmac <- $r0
	.loc	6 1362 1 prologue_end           @ ../src/driver/stm32g4-v120/src/stm32g4xx_hal_fmac.c:1362:1
	bx	lr
.Ltmp418:
.Lfunc_end23:
	.size	HAL_FMAC_OutputDataReadyCallback, .Lfunc_end23-HAL_FMAC_OutputDataReadyCallback
	.cfi_endproc
	.cantunwind
	.fnend
                                        @ -- End function
	.section	.text.HAL_FMAC_FilterConfigCallback,"ax",%progbits
	.hidden	HAL_FMAC_FilterConfigCallback   @ -- Begin function HAL_FMAC_FilterConfigCallback
	.weak	HAL_FMAC_FilterConfigCallback
	.p2align	1
	.type	HAL_FMAC_FilterConfigCallback,%function
	.code	16                              @ @HAL_FMAC_FilterConfigCallback
	.thumb_func
HAL_FMAC_FilterConfigCallback:
.Lfunc_begin24:
	.loc	6 1371 0                        @ ../src/driver/stm32g4-v120/src/stm32g4xx_hal_fmac.c:1371:0
	.fnstart
	.cfi_startproc
@ %bb.0:
	@DEBUG_VALUE: HAL_FMAC_FilterConfigCallback:hfmac <- $r0
	.loc	6 1378 1 prologue_end           @ ../src/driver/stm32g4-v120/src/stm32g4xx_hal_fmac.c:1378:1
	bx	lr
.Ltmp419:
.Lfunc_end24:
	.size	HAL_FMAC_FilterConfigCallback, .Lfunc_end24-HAL_FMAC_FilterConfigCallback
	.cfi_endproc
	.cantunwind
	.fnend
                                        @ -- End function
	.section	.text.HAL_FMAC_FilterPreloadCallback,"ax",%progbits
	.hidden	HAL_FMAC_FilterPreloadCallback  @ -- Begin function HAL_FMAC_FilterPreloadCallback
	.weak	HAL_FMAC_FilterPreloadCallback
	.p2align	1
	.type	HAL_FMAC_FilterPreloadCallback,%function
	.code	16                              @ @HAL_FMAC_FilterPreloadCallback
	.thumb_func
HAL_FMAC_FilterPreloadCallback:
.Lfunc_begin25:
	.loc	6 1387 0                        @ ../src/driver/stm32g4-v120/src/stm32g4xx_hal_fmac.c:1387:0
	.fnstart
	.cfi_startproc
@ %bb.0:
	@DEBUG_VALUE: HAL_FMAC_FilterPreloadCallback:hfmac <- $r0
	.loc	6 1394 1 prologue_end           @ ../src/driver/stm32g4-v120/src/stm32g4xx_hal_fmac.c:1394:1
	bx	lr
.Ltmp420:
.Lfunc_end25:
	.size	HAL_FMAC_FilterPreloadCallback, .Lfunc_end25-HAL_FMAC_FilterPreloadCallback
	.cfi_endproc
	.cantunwind
	.fnend
                                        @ -- End function
	.section	.text.HAL_FMAC_IRQHandler,"ax",%progbits
	.hidden	HAL_FMAC_IRQHandler             @ -- Begin function HAL_FMAC_IRQHandler
	.globl	HAL_FMAC_IRQHandler
	.p2align	1
	.type	HAL_FMAC_IRQHandler,%function
	.code	16                              @ @HAL_FMAC_IRQHandler
	.thumb_func
HAL_FMAC_IRQHandler:
.Lfunc_begin26:
	.loc	6 1420 0                        @ ../src/driver/stm32g4-v120/src/stm32g4xx_hal_fmac.c:1420:0
	.fnstart
	.cfi_startproc
@ %bb.0:
	@DEBUG_VALUE: HAL_FMAC_IRQHandler:hfmac <- $r0
	.save	{r4, lr}
	push	{r4, lr}
	.cfi_def_cfa_offset 8
	.cfi_offset lr, -4
	.cfi_offset r4, -8
	mov	r4, r0
.Ltmp421:
	@DEBUG_VALUE: HAL_FMAC_IRQHandler:hfmac <- $r4
	.loc	6 1424 14 prologue_end          @ ../src/driver/stm32g4-v120/src/stm32g4xx_hal_fmac.c:1424:14
	ldr	r0, [r0]
	ldr	r2, [r0, #16]
.Ltmp422:
	.loc	6 1425 8                        @ ../src/driver/stm32g4-v120/src/stm32g4xx_hal_fmac.c:1425:8
	ldr	r1, [r0, #20]
	.loc	6 1425 60 is_stmt 0             @ ../src/driver/stm32g4-v120/src/stm32g4xx_hal_fmac.c:1425:60
	lsls	r2, r2, #31
.Ltmp423:
	@DEBUG_VALUE: HAL_FMAC_IRQHandler:itsource <- $r2
	beq	.LBB26_6
.Ltmp424:
@ %bb.1:
	@DEBUG_VALUE: HAL_FMAC_IRQHandler:hfmac <- $r4
	@DEBUG_VALUE: HAL_FMAC_IRQHandler:itsource <- $r2
	.loc	6 0 0                           @ ../src/driver/stm32g4-v120/src/stm32g4xx_hal_fmac.c:0:0
	ands	r1, r1, #1
	.loc	6 1425 60                       @ ../src/driver/stm32g4-v120/src/stm32g4xx_hal_fmac.c:1425:60
	bne	.LBB26_6
.Ltmp425:
@ %bb.2:
	@DEBUG_VALUE: HAL_FMAC_IRQHandler:hfmac <- $r4
	@DEBUG_VALUE: HAL_FMAC_IRQHandler:itsource <- $r2
	.loc	6 1430 16 is_stmt 1             @ ../src/driver/stm32g4-v120/src/stm32g4xx_hal_fmac.c:1430:16
	ldr	r1, [r4, #24]
.Ltmp426:
	.loc	6 1430 9 is_stmt 0              @ ../src/driver/stm32g4-v120/src/stm32g4xx_hal_fmac.c:1430:9
	cbz	r1, .LBB26_5
.Ltmp427:
@ %bb.3:
	@DEBUG_VALUE: HAL_FMAC_IRQHandler:hfmac <- $r4
	@DEBUG_VALUE: HAL_FMAC_IRQHandler:itsource <- $r2
	.loc	6 1432 50 is_stmt 1             @ ../src/driver/stm32g4-v120/src/stm32g4xx_hal_fmac.c:1432:50
	ldr	r0, [r0, #8]
	.loc	6 1432 7 is_stmt 0              @ ../src/driver/stm32g4-v120/src/stm32g4xx_hal_fmac.c:1432:7
	ubfx	r1, r0, #8, #8
	mov	r0, r4
	bl	FMAC_ReadDataIncrementPtr
.Ltmp428:
	.loc	6 1436 17 is_stmt 1             @ ../src/driver/stm32g4-v120/src/stm32g4xx_hal_fmac.c:1436:17
	ldr	r0, [r4, #24]
	.loc	6 1436 34 is_stmt 0             @ ../src/driver/stm32g4-v120/src/stm32g4xx_hal_fmac.c:1436:34
	cbz	r0, .LBB26_5
.Ltmp429:
@ %bb.4:
	@DEBUG_VALUE: HAL_FMAC_IRQHandler:hfmac <- $r4
	.loc	6 1436 75                       @ ../src/driver/stm32g4-v120/src/stm32g4xx_hal_fmac.c:1436:75
	ldr	r0, [r4, #32]
	.loc	6 1436 45                       @ ../src/driver/stm32g4-v120/src/stm32g4xx_hal_fmac.c:1436:45
	ldrh	r1, [r4, #28]
	.loc	6 1436 66                       @ ../src/driver/stm32g4-v120/src/stm32g4xx_hal_fmac.c:1436:66
	ldrh	r0, [r0]
.Ltmp430:
	.loc	6 1436 9                        @ ../src/driver/stm32g4-v120/src/stm32g4xx_hal_fmac.c:1436:9
	cmp	r1, r0
	bne	.LBB26_6
.Ltmp431:
.LBB26_5:
	@DEBUG_VALUE: HAL_FMAC_IRQHandler:hfmac <- $r4
	.loc	6 0 9                           @ ../src/driver/stm32g4-v120/src/stm32g4xx_hal_fmac.c:0:9
	movs	r0, #0
.Ltmp432:
	@DEBUG_VALUE: FMAC_ResetOutputStateAndDataPointers:hfmac <- $r4
	.loc	6 1631 18 is_stmt 1             @ ../src/driver/stm32g4-v120/src/stm32g4xx_hal_fmac.c:1631:18
	str	r0, [r4, #24]
	.loc	6 1632 22                       @ ../src/driver/stm32g4-v120/src/stm32g4xx_hal_fmac.c:1632:22
	str	r0, [r4, #32]
	.loc	6 1633 28                       @ ../src/driver/stm32g4-v120/src/stm32g4xx_hal_fmac.c:1633:28
	strh	r0, [r4, #28]
	movs	r0, #32
	.loc	6 1634 18                       @ ../src/driver/stm32g4-v120/src/stm32g4xx_hal_fmac.c:1634:18
	strb.w	r0, [r4, #50]
.Ltmp433:
	.loc	6 1445 7                        @ ../src/driver/stm32g4-v120/src/stm32g4xx_hal_fmac.c:1445:7
	mov	r0, r4
	bl	HAL_FMAC_OutputDataReadyCallback
.Ltmp434:
.LBB26_6:
	@DEBUG_VALUE: HAL_FMAC_IRQHandler:hfmac <- $r4
	.loc	6 1451 14                       @ ../src/driver/stm32g4-v120/src/stm32g4xx_hal_fmac.c:1451:14
	ldr	r0, [r4]
	ldr	r2, [r0, #16]
.Ltmp435:
	.loc	6 1452 8                        @ ../src/driver/stm32g4-v120/src/stm32g4xx_hal_fmac.c:1452:8
	ldr	r1, [r0, #20]
	.loc	6 1452 60 is_stmt 0             @ ../src/driver/stm32g4-v120/src/stm32g4xx_hal_fmac.c:1452:60
	lsls	r2, r2, #30
.Ltmp436:
	@DEBUG_VALUE: HAL_FMAC_IRQHandler:itsource <- $r2
	bpl	.LBB26_12
.Ltmp437:
@ %bb.7:
	@DEBUG_VALUE: HAL_FMAC_IRQHandler:hfmac <- $r4
	@DEBUG_VALUE: HAL_FMAC_IRQHandler:itsource <- $r2
	.loc	6 0 0                           @ ../src/driver/stm32g4-v120/src/stm32g4xx_hal_fmac.c:0:0
	ands	r1, r1, #2
	.loc	6 1452 60                       @ ../src/driver/stm32g4-v120/src/stm32g4xx_hal_fmac.c:1452:60
	bne	.LBB26_12
.Ltmp438:
@ %bb.8:
	@DEBUG_VALUE: HAL_FMAC_IRQHandler:hfmac <- $r4
	@DEBUG_VALUE: HAL_FMAC_IRQHandler:itsource <- $r2
	.loc	6 1457 16 is_stmt 1             @ ../src/driver/stm32g4-v120/src/stm32g4xx_hal_fmac.c:1457:16
	ldr	r1, [r4, #12]
.Ltmp439:
	.loc	6 1457 9 is_stmt 0              @ ../src/driver/stm32g4-v120/src/stm32g4xx_hal_fmac.c:1457:9
	cbz	r1, .LBB26_11
.Ltmp440:
@ %bb.9:
	@DEBUG_VALUE: HAL_FMAC_IRQHandler:hfmac <- $r4
	@DEBUG_VALUE: HAL_FMAC_IRQHandler:itsource <- $r2
	.loc	6 1459 51 is_stmt 1             @ ../src/driver/stm32g4-v120/src/stm32g4xx_hal_fmac.c:1459:51
	ldr	r0, [r0]
	.loc	6 1459 7 is_stmt 0              @ ../src/driver/stm32g4-v120/src/stm32g4xx_hal_fmac.c:1459:7
	ubfx	r1, r0, #8, #8
	mov	r0, r4
	bl	FMAC_WriteDataIncrementPtr
.Ltmp441:
	.loc	6 1463 17 is_stmt 1             @ ../src/driver/stm32g4-v120/src/stm32g4xx_hal_fmac.c:1463:17
	ldr	r0, [r4, #12]
	.loc	6 1463 33 is_stmt 0             @ ../src/driver/stm32g4-v120/src/stm32g4xx_hal_fmac.c:1463:33
	cbz	r0, .LBB26_11
.Ltmp442:
@ %bb.10:
	@DEBUG_VALUE: HAL_FMAC_IRQHandler:hfmac <- $r4
	.loc	6 1463 73                       @ ../src/driver/stm32g4-v120/src/stm32g4xx_hal_fmac.c:1463:73
	ldr	r0, [r4, #20]
	.loc	6 1463 44                       @ ../src/driver/stm32g4-v120/src/stm32g4xx_hal_fmac.c:1463:44
	ldrh	r1, [r4, #16]
	.loc	6 1463 64                       @ ../src/driver/stm32g4-v120/src/stm32g4xx_hal_fmac.c:1463:64
	ldrh	r0, [r0]
.Ltmp443:
	.loc	6 1463 9                        @ ../src/driver/stm32g4-v120/src/stm32g4xx_hal_fmac.c:1463:9
	cmp	r1, r0
	bne	.LBB26_12
.Ltmp444:
.LBB26_11:
	@DEBUG_VALUE: HAL_FMAC_IRQHandler:hfmac <- $r4
	.loc	6 0 9                           @ ../src/driver/stm32g4-v120/src/stm32g4xx_hal_fmac.c:0:9
	movs	r0, #0
.Ltmp445:
	@DEBUG_VALUE: FMAC_ResetInputStateAndDataPointers:hfmac <- $r4
	.loc	6 1618 17 is_stmt 1             @ ../src/driver/stm32g4-v120/src/stm32g4xx_hal_fmac.c:1618:17
	str	r0, [r4, #12]
	.loc	6 1619 21                       @ ../src/driver/stm32g4-v120/src/stm32g4xx_hal_fmac.c:1619:21
	str	r0, [r4, #20]
	.loc	6 1620 27                       @ ../src/driver/stm32g4-v120/src/stm32g4xx_hal_fmac.c:1620:27
	strh	r0, [r4, #16]
	movs	r0, #32
	.loc	6 1621 18                       @ ../src/driver/stm32g4-v120/src/stm32g4xx_hal_fmac.c:1621:18
	strb.w	r0, [r4, #51]
.Ltmp446:
	.loc	6 1472 7                        @ ../src/driver/stm32g4-v120/src/stm32g4xx_hal_fmac.c:1472:7
	mov	r0, r4
	bl	HAL_FMAC_GetDataCallback
.Ltmp447:
.LBB26_12:
	@DEBUG_VALUE: HAL_FMAC_IRQHandler:hfmac <- $r4
	.loc	6 1478 14                       @ ../src/driver/stm32g4-v120/src/stm32g4xx_hal_fmac.c:1478:14
	ldr	r0, [r4]
	ldr	r2, [r0, #16]
.Ltmp448:
	.loc	6 1479 8                        @ ../src/driver/stm32g4-v120/src/stm32g4xx_hal_fmac.c:1479:8
	ldr	r1, [r0, #20]
	.loc	6 1479 58 is_stmt 0             @ ../src/driver/stm32g4-v120/src/stm32g4xx_hal_fmac.c:1479:58
	lsls	r2, r2, #29
.Ltmp449:
	@DEBUG_VALUE: HAL_FMAC_IRQHandler:itsource <- $r2
	bpl	.LBB26_15
.Ltmp450:
@ %bb.13:
	@DEBUG_VALUE: HAL_FMAC_IRQHandler:hfmac <- $r4
	@DEBUG_VALUE: HAL_FMAC_IRQHandler:itsource <- $r2
	.loc	6 0 0                           @ ../src/driver/stm32g4-v120/src/stm32g4xx_hal_fmac.c:0:0
	ands	r1, r1, #256
	.loc	6 1479 58                       @ ../src/driver/stm32g4-v120/src/stm32g4xx_hal_fmac.c:1479:58
	beq	.LBB26_15
.Ltmp451:
@ %bb.14:
	@DEBUG_VALUE: HAL_FMAC_IRQHandler:hfmac <- $r4
	@DEBUG_VALUE: HAL_FMAC_IRQHandler:itsource <- $r2
	.loc	6 1481 22 is_stmt 1             @ ../src/driver/stm32g4-v120/src/stm32g4xx_hal_fmac.c:1481:22
	ldr	r1, [r4, #52]
	orr	r1, r1, #4
	str	r1, [r4, #52]
.Ltmp452:
.LBB26_15:
	@DEBUG_VALUE: HAL_FMAC_IRQHandler:hfmac <- $r4
	@DEBUG_VALUE: HAL_FMAC_IRQHandler:itsource <- $r2
	.loc	6 1485 14                       @ ../src/driver/stm32g4-v120/src/stm32g4xx_hal_fmac.c:1485:14
	ldr	r2, [r0, #16]
.Ltmp453:
	.loc	6 1486 8                        @ ../src/driver/stm32g4-v120/src/stm32g4xx_hal_fmac.c:1486:8
	ldr	r1, [r0, #20]
	.loc	6 1486 58 is_stmt 0             @ ../src/driver/stm32g4-v120/src/stm32g4xx_hal_fmac.c:1486:58
	lsls	r2, r2, #28
.Ltmp454:
	@DEBUG_VALUE: HAL_FMAC_IRQHandler:itsource <- $r2
	bpl	.LBB26_18
.Ltmp455:
@ %bb.16:
	@DEBUG_VALUE: HAL_FMAC_IRQHandler:hfmac <- $r4
	@DEBUG_VALUE: HAL_FMAC_IRQHandler:itsource <- $r2
	.loc	6 0 0                           @ ../src/driver/stm32g4-v120/src/stm32g4xx_hal_fmac.c:0:0
	ands	r1, r1, #512
	.loc	6 1486 58                       @ ../src/driver/stm32g4-v120/src/stm32g4xx_hal_fmac.c:1486:58
	beq	.LBB26_18
.Ltmp456:
@ %bb.17:
	@DEBUG_VALUE: HAL_FMAC_IRQHandler:hfmac <- $r4
	@DEBUG_VALUE: HAL_FMAC_IRQHandler:itsource <- $r2
	.loc	6 1488 22 is_stmt 1             @ ../src/driver/stm32g4-v120/src/stm32g4xx_hal_fmac.c:1488:22
	ldr	r1, [r4, #52]
	orr	r1, r1, #2
	str	r1, [r4, #52]
.Ltmp457:
.LBB26_18:
	@DEBUG_VALUE: HAL_FMAC_IRQHandler:hfmac <- $r4
	@DEBUG_VALUE: HAL_FMAC_IRQHandler:itsource <- $r2
	.loc	6 1492 14                       @ ../src/driver/stm32g4-v120/src/stm32g4xx_hal_fmac.c:1492:14
	ldr	r1, [r0, #16]
.Ltmp458:
	.loc	6 1493 8                        @ ../src/driver/stm32g4-v120/src/stm32g4xx_hal_fmac.c:1493:8
	ldr	r0, [r0, #20]
	.loc	6 1493 57 is_stmt 0             @ ../src/driver/stm32g4-v120/src/stm32g4xx_hal_fmac.c:1493:57
	lsls	r1, r1, #27
.Ltmp459:
	@DEBUG_VALUE: HAL_FMAC_IRQHandler:itsource <- $r1
	bpl	.LBB26_21
.Ltmp460:
@ %bb.19:
	@DEBUG_VALUE: HAL_FMAC_IRQHandler:hfmac <- $r4
	@DEBUG_VALUE: HAL_FMAC_IRQHandler:itsource <- $r1
	.loc	6 0 0                           @ ../src/driver/stm32g4-v120/src/stm32g4xx_hal_fmac.c:0:0
	ands	r0, r0, #1024
	.loc	6 1493 57                       @ ../src/driver/stm32g4-v120/src/stm32g4xx_hal_fmac.c:1493:57
	beq	.LBB26_21
.Ltmp461:
@ %bb.20:
	@DEBUG_VALUE: HAL_FMAC_IRQHandler:hfmac <- $r4
	@DEBUG_VALUE: HAL_FMAC_IRQHandler:itsource <- $r1
	.loc	6 1495 22 is_stmt 1             @ ../src/driver/stm32g4-v120/src/stm32g4xx_hal_fmac.c:1495:22
	ldr	r0, [r4, #52]
	orr	r0, r0, #1
	str	r0, [r4, #52]
.Ltmp462:
.LBB26_21:
	@DEBUG_VALUE: HAL_FMAC_IRQHandler:hfmac <- $r4
	@DEBUG_VALUE: HAL_FMAC_IRQHandler:itsource <- $r1
	.loc	6 1499 14                       @ ../src/driver/stm32g4-v120/src/stm32g4xx_hal_fmac.c:1499:14
	ldr	r0, [r4, #52]
.Ltmp463:
	.loc	6 1499 7 is_stmt 0              @ ../src/driver/stm32g4-v120/src/stm32g4xx_hal_fmac.c:1499:7
	cbz	r0, .LBB26_23
.Ltmp464:
@ %bb.22:
	@DEBUG_VALUE: HAL_FMAC_IRQHandler:hfmac <- $r4
	@DEBUG_VALUE: HAL_FMAC_IRQHandler:itsource <- $r1
	.loc	6 1505 5 is_stmt 1              @ ../src/driver/stm32g4-v120/src/stm32g4xx_hal_fmac.c:1505:5
	mov	r0, r4
	pop.w	{r4, lr}
.Ltmp465:
	@DEBUG_VALUE: HAL_FMAC_IRQHandler:hfmac <- [DW_OP_LLVM_entry_value 1] $r0
	b	HAL_FMAC_ErrorCallback
.Ltmp466:
.LBB26_23:
	@DEBUG_VALUE: HAL_FMAC_IRQHandler:hfmac <- $r4
	@DEBUG_VALUE: HAL_FMAC_IRQHandler:itsource <- $r1
	.loc	6 1508 1                        @ ../src/driver/stm32g4-v120/src/stm32g4xx_hal_fmac.c:1508:1
	pop	{r4, pc}
.Ltmp467:
.Lfunc_end26:
	.size	HAL_FMAC_IRQHandler, .Lfunc_end26-HAL_FMAC_IRQHandler
	.cfi_endproc
	.cantunwind
	.fnend
                                        @ -- End function
	.section	.text.HAL_FMAC_GetState,"ax",%progbits
	.hidden	HAL_FMAC_GetState               @ -- Begin function HAL_FMAC_GetState
	.globl	HAL_FMAC_GetState
	.p2align	1
	.type	HAL_FMAC_GetState,%function
	.code	16                              @ @HAL_FMAC_GetState
	.thumb_func
HAL_FMAC_GetState:
.Lfunc_begin27:
	.loc	6 1536 0                        @ ../src/driver/stm32g4-v120/src/stm32g4xx_hal_fmac.c:1536:0
	.fnstart
	.cfi_startproc
@ %bb.0:
	@DEBUG_VALUE: HAL_FMAC_GetState:hfmac <- $r0
	@DEBUG_VALUE: HAL_FMAC_GetState:hfmac <- $r0
	.loc	6 1538 17 prologue_end          @ ../src/driver/stm32g4-v120/src/stm32g4xx_hal_fmac.c:1538:17
	ldrb.w	r0, [r0, #49]
.Ltmp468:
	@DEBUG_VALUE: HAL_FMAC_GetState:hfmac <- [DW_OP_LLVM_entry_value 1] $r0
	.loc	6 1538 3 is_stmt 0              @ ../src/driver/stm32g4-v120/src/stm32g4xx_hal_fmac.c:1538:3
	bx	lr
.Ltmp469:
.Lfunc_end27:
	.size	HAL_FMAC_GetState, .Lfunc_end27-HAL_FMAC_GetState
	.cfi_endproc
	.cantunwind
	.fnend
                                        @ -- End function
	.section	.text.HAL_FMAC_GetError,"ax",%progbits
	.hidden	HAL_FMAC_GetError               @ -- Begin function HAL_FMAC_GetError
	.globl	HAL_FMAC_GetError
	.p2align	1
	.type	HAL_FMAC_GetError,%function
	.code	16                              @ @HAL_FMAC_GetError
	.thumb_func
HAL_FMAC_GetError:
.Lfunc_begin28:
	.loc	6 1549 0 is_stmt 1              @ ../src/driver/stm32g4-v120/src/stm32g4xx_hal_fmac.c:1549:0
	.fnstart
	.cfi_startproc
@ %bb.0:
	@DEBUG_VALUE: HAL_FMAC_GetError:hfmac <- $r0
	@DEBUG_VALUE: HAL_FMAC_GetError:hfmac <- $r0
	.loc	6 1551 17 prologue_end          @ ../src/driver/stm32g4-v120/src/stm32g4xx_hal_fmac.c:1551:17
	ldr	r0, [r0, #52]
.Ltmp470:
	@DEBUG_VALUE: HAL_FMAC_GetError:hfmac <- [DW_OP_LLVM_entry_value 1] $r0
	.loc	6 1551 3 is_stmt 0              @ ../src/driver/stm32g4-v120/src/stm32g4xx_hal_fmac.c:1551:3
	bx	lr
.Ltmp471:
.Lfunc_end28:
	.size	HAL_FMAC_GetError, .Lfunc_end28-HAL_FMAC_GetError
	.cfi_endproc
	.cantunwind
	.fnend
                                        @ -- End function
	.section	.text.FMAC_DMAFilterConfig,"ax",%progbits
	.p2align	1                               @ -- Begin function FMAC_DMAFilterConfig
	.type	FMAC_DMAFilterConfig,%function
	.code	16                              @ @FMAC_DMAFilterConfig
	.thumb_func
FMAC_DMAFilterConfig:
.Lfunc_begin29:
	.loc	6 2349 0 is_stmt 1              @ ../src/driver/stm32g4-v120/src/stm32g4xx_hal_fmac.c:2349:0
	.fnstart
	.cfi_startproc
@ %bb.0:
	@DEBUG_VALUE: FMAC_DMAFilterConfig:hdma <- $r0
	@DEBUG_VALUE: FMAC_DMAFilterConfig:hdma <- $r0
	.save	{r4, r5, r6, lr}
	push	{r4, r5, r6, lr}
	.cfi_def_cfa_offset 16
	.cfi_offset lr, -4
	.cfi_offset r6, -8
	.cfi_offset r5, -12
	.cfi_offset r4, -16
.Ltmp472:
	.loc	6 2352 82 prologue_end          @ ../src/driver/stm32g4-v120/src/stm32g4xx_hal_fmac.c:2352:82
	ldr	r4, [r0, #40]
.Ltmp473:
	@DEBUG_VALUE: FMAC_DMAFilterConfig:hfmac <- $r4
	.loc	6 2355 14                       @ ../src/driver/stm32g4-v120/src/stm32g4xx_hal_fmac.c:2355:14
	ldr	r1, [r4, #12]
.Ltmp474:
	.loc	6 2355 7 is_stmt 0              @ ../src/driver/stm32g4-v120/src/stm32g4xx_hal_fmac.c:2355:7
	cbz	r1, .LBB29_3
.Ltmp475:
@ %bb.1:
	@DEBUG_VALUE: FMAC_DMAFilterConfig:hfmac <- $r4
	@DEBUG_VALUE: FMAC_DMAFilterConfig:hdma <- $r0
	.loc	6 2358 12 is_stmt 1             @ ../src/driver/stm32g4-v120/src/stm32g4xx_hal_fmac.c:2358:12
	ldr	r0, [r4, #44]
.Ltmp476:
	@DEBUG_VALUE: FMAC_DMAFilterConfig:hdma <- [DW_OP_LLVM_entry_value 1] $r0
	.loc	6 2359 42                       @ ../src/driver/stm32g4-v120/src/stm32g4xx_hal_fmac.c:2359:42
	movw	r3, :lower16:FMAC_DMAFilterConfig
.Ltmp477:
	.loc	6 2364 89                       @ ../src/driver/stm32g4-v120/src/stm32g4xx_hal_fmac.c:2364:89
	ldr	r2, [r4]
	movs	r6, #0
.Ltmp478:
	.loc	6 2359 42                       @ ../src/driver/stm32g4-v120/src/stm32g4xx_hal_fmac.c:2359:42
	movt	r3, :upper16:FMAC_DMAFilterConfig
	.loc	6 2361 43                       @ ../src/driver/stm32g4-v120/src/stm32g4xx_hal_fmac.c:2361:43
	movw	r5, :lower16:FMAC_DMAError
	.loc	6 2359 42                       @ ../src/driver/stm32g4-v120/src/stm32g4xx_hal_fmac.c:2359:42
	strd	r3, r6, [r0, #44]
.Ltmp479:
	.loc	6 2365 33                       @ ../src/driver/stm32g4-v120/src/stm32g4xx_hal_fmac.c:2365:33
	ldrh	r3, [r4, #16]
.Ltmp480:
	.loc	6 2361 43                       @ ../src/driver/stm32g4-v120/src/stm32g4xx_hal_fmac.c:2361:43
	movt	r5, :upper16:FMAC_DMAError
.Ltmp481:
	.loc	6 2364 99                       @ ../src/driver/stm32g4-v120/src/stm32g4xx_hal_fmac.c:2364:99
	adds	r2, #24
.Ltmp482:
	.loc	6 2361 43                       @ ../src/driver/stm32g4-v120/src/stm32g4xx_hal_fmac.c:2361:43
	str	r5, [r0, #52]
.Ltmp483:
	.loc	6 2364 9                        @ ../src/driver/stm32g4-v120/src/stm32g4xx_hal_fmac.c:2364:9
	bl	HAL_DMA_Start_IT
.Ltmp484:
	.loc	6 2364 9 is_stmt 0              @ ../src/driver/stm32g4-v120/src/stm32g4xx_hal_fmac.c:2364:9
	cbz	r0, .LBB29_8
.Ltmp485:
@ %bb.2:
	@DEBUG_VALUE: FMAC_DMAFilterConfig:hfmac <- $r4
	@DEBUG_VALUE: FMAC_DMAFilterConfig:hdma <- [DW_OP_LLVM_entry_value 1] $r0
	.loc	6 0 9                           @ ../src/driver/stm32g4-v120/src/stm32g4xx_hal_fmac.c:0:9
	movs	r0, #224
	b	.LBB29_10
.Ltmp486:
.LBB29_3:
	@DEBUG_VALUE: FMAC_DMAFilterConfig:hfmac <- $r4
	@DEBUG_VALUE: FMAC_DMAFilterConfig:hdma <- $r0
	@DEBUG_VALUE: FMAC_DMAFilterConfig:index <- 0
	ldr	r0, [r4]
.Ltmp487:
	@DEBUG_VALUE: FMAC_DMAFilterConfig:hdma <- [DW_OP_LLVM_entry_value 1] $r0
	movs	r1, #0
.Ltmp488:
	.p2align	2
.LBB29_4:                               @ =>This Inner Loop Header: Depth=1
	@DEBUG_VALUE: FMAC_DMAFilterConfig:hfmac <- $r4
	@DEBUG_VALUE: FMAC_DMAFilterConfig:hdma <- [DW_OP_LLVM_entry_value 1] $r0
	@DEBUG_VALUE: FMAC_DMAFilterConfig:index <- $r1
	.loc	6 2380 11 is_stmt 1             @ ../src/driver/stm32g4-v120/src/stm32g4xx_hal_fmac.c:2380:11
	ldr	r2, [r0, #12]
.Ltmp489:
	@DEBUG_VALUE: FMAC_DMAFilterConfig:index <- undef
	.loc	6 2380 11 is_stmt 0             @ ../src/driver/stm32g4-v120/src/stm32g4xx_hal_fmac.c:2380:11
	cmp.w	r2, #-1
	bgt	.LBB29_6
.Ltmp490:
@ %bb.5:                                @   in Loop: Header=BB29_4 Depth=1
	@DEBUG_VALUE: FMAC_DMAFilterConfig:hfmac <- $r4
	@DEBUG_VALUE: FMAC_DMAFilterConfig:hdma <- [DW_OP_LLVM_entry_value 1] $r0
	.loc	6 0 0                           @ ../src/driver/stm32g4-v120/src/stm32g4xx_hal_fmac.c:0:0
	adds	r1, #1
.Ltmp491:
	@DEBUG_VALUE: FMAC_DMAFilterConfig:index <- $r1
	.loc	6 2380 11                       @ ../src/driver/stm32g4-v120/src/stm32g4xx_hal_fmac.c:2380:11
	cmp	r1, #255
	bne	.LBB29_4
.Ltmp492:
.LBB29_6:
	@DEBUG_VALUE: FMAC_DMAFilterConfig:hfmac <- $r4
	@DEBUG_VALUE: FMAC_DMAFilterConfig:hdma <- [DW_OP_LLVM_entry_value 1] $r0
	.loc	6 2387 9 is_stmt 1              @ ../src/driver/stm32g4-v120/src/stm32g4xx_hal_fmac.c:2387:9
	ldr	r0, [r0, #12]
.Ltmp493:
	.loc	6 2387 9 is_stmt 0              @ ../src/driver/stm32g4-v120/src/stm32g4xx_hal_fmac.c:2387:9
	cmp.w	r0, #-1
	ble	.LBB29_9
.Ltmp494:
@ %bb.7:
	@DEBUG_VALUE: FMAC_DMAFilterConfig:hfmac <- $r4
	@DEBUG_VALUE: FMAC_DMAFilterConfig:hdma <- [DW_OP_LLVM_entry_value 1] $r0
	.loc	6 0 9                           @ ../src/driver/stm32g4-v120/src/stm32g4xx_hal_fmac.c:0:9
	movs	r1, #32
.Ltmp495:
	.loc	6 2400 7 is_stmt 1              @ ../src/driver/stm32g4-v120/src/stm32g4xx_hal_fmac.c:2400:7
	mov	r0, r4
	.loc	6 2394 20                       @ ../src/driver/stm32g4-v120/src/stm32g4xx_hal_fmac.c:2394:20
	strb.w	r1, [r4, #49]
	.loc	6 2400 7                        @ ../src/driver/stm32g4-v120/src/stm32g4xx_hal_fmac.c:2400:7
	pop.w	{r4, r5, r6, lr}
.Ltmp496:
	b	HAL_FMAC_FilterConfigCallback
.Ltmp497:
.LBB29_8:
	@DEBUG_VALUE: FMAC_DMAFilterConfig:hfmac <- $r4
	@DEBUG_VALUE: FMAC_DMAFilterConfig:hdma <- [DW_OP_LLVM_entry_value 1] $r0
	.loc	6 2367 21                       @ ../src/driver/stm32g4-v120/src/stm32g4xx_hal_fmac.c:2367:21
	str	r6, [r4, #12]
	.loc	6 2368 31                       @ ../src/driver/stm32g4-v120/src/stm32g4xx_hal_fmac.c:2368:31
	strh	r6, [r4, #16]
.Ltmp498:
	.loc	6 2416 1                        @ ../src/driver/stm32g4-v120/src/stm32g4xx_hal_fmac.c:2416:1
	pop	{r4, r5, r6, pc}
.Ltmp499:
.LBB29_9:
	@DEBUG_VALUE: FMAC_DMAFilterConfig:hfmac <- $r4
	@DEBUG_VALUE: FMAC_DMAFilterConfig:hdma <- [DW_OP_LLVM_entry_value 1] $r0
	.loc	6 0 1 is_stmt 0                 @ ../src/driver/stm32g4-v120/src/stm32g4xx_hal_fmac.c:0:1
	movs	r0, #160
.Ltmp500:
.LBB29_10:
	@DEBUG_VALUE: FMAC_DMAFilterConfig:hfmac <- $r4
	@DEBUG_VALUE: FMAC_DMAFilterConfig:hdma <- [DW_OP_LLVM_entry_value 1] $r0
	strb.w	r0, [r4, #49]
.Ltmp501:
	.loc	6 2407 20 is_stmt 1             @ ../src/driver/stm32g4-v120/src/stm32g4xx_hal_fmac.c:2407:20
	ldr	r0, [r4, #52]
	orr	r1, r0, #8
	.loc	6 2413 3                        @ ../src/driver/stm32g4-v120/src/stm32g4xx_hal_fmac.c:2413:3
	mov	r0, r4
	.loc	6 2407 20                       @ ../src/driver/stm32g4-v120/src/stm32g4xx_hal_fmac.c:2407:20
	str	r1, [r4, #52]
	.loc	6 2413 3                        @ ../src/driver/stm32g4-v120/src/stm32g4xx_hal_fmac.c:2413:3
	pop.w	{r4, r5, r6, lr}
.Ltmp502:
	b	HAL_FMAC_ErrorCallback
.Ltmp503:
.Lfunc_end29:
	.size	FMAC_DMAFilterConfig, .Lfunc_end29-FMAC_DMAFilterConfig
	.cfi_endproc
	.cantunwind
	.fnend
                                        @ -- End function
	.section	.text.FMAC_DMAError,"ax",%progbits
	.p2align	1                               @ -- Begin function FMAC_DMAError
	.type	FMAC_DMAError,%function
	.code	16                              @ @FMAC_DMAError
	.thumb_func
FMAC_DMAError:
.Lfunc_begin30:
	.loc	6 2505 0                        @ ../src/driver/stm32g4-v120/src/stm32g4xx_hal_fmac.c:2505:0
	.fnstart
	.cfi_startproc
@ %bb.0:
	@DEBUG_VALUE: FMAC_DMAError:hdma <- $r0
	@DEBUG_VALUE: FMAC_DMAError:hdma <- $r0
	.loc	6 2506 82 prologue_end          @ ../src/driver/stm32g4-v120/src/stm32g4xx_hal_fmac.c:2506:82
	ldr	r0, [r0, #40]
.Ltmp504:
	@DEBUG_VALUE: FMAC_DMAError:hdma <- [DW_OP_LLVM_entry_value 1] $r0
	@DEBUG_VALUE: FMAC_DMAError:hfmac <- $r0
	.loc	6 0 82 is_stmt 0                @ ../src/driver/stm32g4-v120/src/stm32g4xx_hal_fmac.c:0:82
	movs	r1, #224
	.loc	6 2509 16 is_stmt 1             @ ../src/driver/stm32g4-v120/src/stm32g4xx_hal_fmac.c:2509:16
	strb.w	r1, [r0, #49]
	.loc	6 2512 20                       @ ../src/driver/stm32g4-v120/src/stm32g4xx_hal_fmac.c:2512:20
	ldr	r1, [r0, #52]
	orr	r1, r1, #8
	str	r1, [r0, #52]
.Ltmp505:
	.loc	6 2518 3                        @ ../src/driver/stm32g4-v120/src/stm32g4xx_hal_fmac.c:2518:3
	b	HAL_FMAC_ErrorCallback
.Ltmp506:
.Lfunc_end30:
	.size	FMAC_DMAError, .Lfunc_end30-FMAC_DMAError
	.cfi_endproc
	.cantunwind
	.fnend
                                        @ -- End function
	.section	.text.FMAC_DMAFilterPreload,"ax",%progbits
	.p2align	1                               @ -- Begin function FMAC_DMAFilterPreload
	.type	FMAC_DMAFilterPreload,%function
	.code	16                              @ @FMAC_DMAFilterPreload
	.thumb_func
FMAC_DMAFilterPreload:
.Lfunc_begin31:
	.loc	6 2424 0                        @ ../src/driver/stm32g4-v120/src/stm32g4xx_hal_fmac.c:2424:0
	.fnstart
	.cfi_startproc
@ %bb.0:
	@DEBUG_VALUE: FMAC_DMAFilterPreload:hdma <- $r0
	@DEBUG_VALUE: FMAC_DMAFilterPreload:hdma <- $r0
	.save	{r4, r5, r6, r7, lr}
	push	{r4, r5, r6, r7, lr}
	.cfi_def_cfa_offset 20
	.cfi_offset lr, -4
	.cfi_offset r7, -8
	.cfi_offset r6, -12
	.cfi_offset r5, -16
	.cfi_offset r4, -20
	.pad	#4
	sub	sp, #4
	.cfi_def_cfa_offset 24
.Ltmp507:
	.loc	6 2427 82 prologue_end          @ ../src/driver/stm32g4-v120/src/stm32g4xx_hal_fmac.c:2427:82
	ldr	r4, [r0, #40]
.Ltmp508:
	@DEBUG_VALUE: FMAC_DMAFilterPreload:index <- 0
	@DEBUG_VALUE: FMAC_DMAFilterPreload:hfmac <- $r4
	.loc	6 0 82 is_stmt 0                @ ../src/driver/stm32g4-v120/src/stm32g4xx_hal_fmac.c:0:82
	movs	r0, #0
.Ltmp509:
	@DEBUG_VALUE: FMAC_DMAFilterPreload:hdma <- [DW_OP_LLVM_entry_value 1] $r0
	ldr	r2, [r4]
.Ltmp510:
	.p2align	2
.LBB31_1:                               @ =>This Inner Loop Header: Depth=1
	@DEBUG_VALUE: FMAC_DMAFilterPreload:hfmac <- $r4
	@DEBUG_VALUE: FMAC_DMAFilterPreload:hdma <- [DW_OP_LLVM_entry_value 1] $r0
	@DEBUG_VALUE: FMAC_DMAFilterPreload:index <- $r0
	.loc	6 2432 9 is_stmt 1              @ ../src/driver/stm32g4-v120/src/stm32g4xx_hal_fmac.c:2432:9
	ldr	r1, [r2, #12]
.Ltmp511:
	@DEBUG_VALUE: FMAC_DMAFilterPreload:index <- undef
	.loc	6 2432 9 is_stmt 0              @ ../src/driver/stm32g4-v120/src/stm32g4xx_hal_fmac.c:2432:9
	cmp.w	r1, #-1
	bgt	.LBB31_3
.Ltmp512:
@ %bb.2:                                @   in Loop: Header=BB31_1 Depth=1
	@DEBUG_VALUE: FMAC_DMAFilterPreload:hfmac <- $r4
	@DEBUG_VALUE: FMAC_DMAFilterPreload:hdma <- [DW_OP_LLVM_entry_value 1] $r0
	.loc	6 0 0                           @ ../src/driver/stm32g4-v120/src/stm32g4xx_hal_fmac.c:0:0
	adds	r0, #1
.Ltmp513:
	@DEBUG_VALUE: FMAC_DMAFilterPreload:index <- $r0
	.loc	6 2432 9                        @ ../src/driver/stm32g4-v120/src/stm32g4xx_hal_fmac.c:2432:9
	cmp	r0, #255
	bne	.LBB31_1
.Ltmp514:
.LBB31_3:
	@DEBUG_VALUE: FMAC_DMAFilterPreload:hfmac <- $r4
	@DEBUG_VALUE: FMAC_DMAFilterPreload:hdma <- [DW_OP_LLVM_entry_value 1] $r0
	.loc	6 2439 7 is_stmt 1              @ ../src/driver/stm32g4-v120/src/stm32g4xx_hal_fmac.c:2439:7
	ldr	r0, [r2, #12]
.Ltmp515:
	.loc	6 2439 7 is_stmt 0              @ ../src/driver/stm32g4-v120/src/stm32g4xx_hal_fmac.c:2439:7
	cmp.w	r0, #-1
	ble	.LBB31_8
.Ltmp516:
@ %bb.4:
	@DEBUG_VALUE: FMAC_DMAFilterPreload:hfmac <- $r4
	@DEBUG_VALUE: FMAC_DMAFilterPreload:hdma <- [DW_OP_LLVM_entry_value 1] $r0
	.loc	6 2445 20 is_stmt 1             @ ../src/driver/stm32g4-v120/src/stm32g4xx_hal_fmac.c:2445:20
	ldr	r1, [r4, #12]
	.loc	6 2445 36 is_stmt 0             @ ../src/driver/stm32g4-v120/src/stm32g4xx_hal_fmac.c:2445:36
	cbz	r1, .LBB31_9
.Ltmp517:
@ %bb.5:
	@DEBUG_VALUE: FMAC_DMAFilterPreload:hfmac <- $r4
	@DEBUG_VALUE: FMAC_DMAFilterPreload:hdma <- [DW_OP_LLVM_entry_value 1] $r0
	.loc	6 2445 47                       @ ../src/driver/stm32g4-v120/src/stm32g4xx_hal_fmac.c:2445:47
	ldrh	r3, [r4, #16]
.Ltmp518:
	.loc	6 2445 12                       @ ../src/driver/stm32g4-v120/src/stm32g4xx_hal_fmac.c:2445:12
	cbz	r3, .LBB31_9
.Ltmp519:
@ %bb.6:
	@DEBUG_VALUE: FMAC_DMAFilterPreload:hfmac <- $r4
	@DEBUG_VALUE: FMAC_DMAFilterPreload:hdma <- [DW_OP_LLVM_entry_value 1] $r0
	.loc	6 2448 5 is_stmt 1              @ ../src/driver/stm32g4-v120/src/stm32g4xx_hal_fmac.c:2448:5
	add.w	r0, r3, #-2097152000
	str	r0, [r2, #12]
	.loc	6 2452 12                       @ ../src/driver/stm32g4-v120/src/stm32g4xx_hal_fmac.c:2452:12
	ldr	r0, [r4, #44]
	.loc	6 2453 42                       @ ../src/driver/stm32g4-v120/src/stm32g4xx_hal_fmac.c:2453:42
	movw	r5, :lower16:FMAC_DMAFilterPreload
	.loc	6 2455 43                       @ ../src/driver/stm32g4-v120/src/stm32g4xx_hal_fmac.c:2455:43
	movw	r6, :lower16:FMAC_DMAError
	movs	r7, #0
	.loc	6 2453 42                       @ ../src/driver/stm32g4-v120/src/stm32g4xx_hal_fmac.c:2453:42
	movt	r5, :upper16:FMAC_DMAFilterPreload
	.loc	6 2455 43                       @ ../src/driver/stm32g4-v120/src/stm32g4xx_hal_fmac.c:2455:43
	movt	r6, :upper16:FMAC_DMAError
.Ltmp520:
	.loc	6 2458 99                       @ ../src/driver/stm32g4-v120/src/stm32g4xx_hal_fmac.c:2458:99
	adds	r2, #24
.Ltmp521:
	.loc	6 2453 42                       @ ../src/driver/stm32g4-v120/src/stm32g4xx_hal_fmac.c:2453:42
	strd	r5, r7, [r0, #44]
	.loc	6 2455 43                       @ ../src/driver/stm32g4-v120/src/stm32g4xx_hal_fmac.c:2455:43
	str	r6, [r0, #52]
.Ltmp522:
	.loc	6 2458 9                        @ ../src/driver/stm32g4-v120/src/stm32g4xx_hal_fmac.c:2458:9
	bl	HAL_DMA_Start_IT
.Ltmp523:
	.loc	6 2458 9 is_stmt 0              @ ../src/driver/stm32g4-v120/src/stm32g4xx_hal_fmac.c:2458:9
	cbz	r0, .LBB31_12
.Ltmp524:
@ %bb.7:
	@DEBUG_VALUE: FMAC_DMAFilterPreload:hfmac <- $r4
	@DEBUG_VALUE: FMAC_DMAFilterPreload:hdma <- [DW_OP_LLVM_entry_value 1] $r0
	.loc	6 0 9                           @ ../src/driver/stm32g4-v120/src/stm32g4xx_hal_fmac.c:0:9
	movs	r0, #8
	.loc	6 2467 22 is_stmt 1             @ ../src/driver/stm32g4-v120/src/stm32g4xx_hal_fmac.c:2467:22
	str	r0, [r4, #52]
	movs	r0, #224
	.loc	6 2468 18                       @ ../src/driver/stm32g4-v120/src/stm32g4xx_hal_fmac.c:2468:18
	strb.w	r0, [r4, #49]
	b	.LBB31_9
.Ltmp525:
.LBB31_8:
	@DEBUG_VALUE: FMAC_DMAFilterPreload:hfmac <- $r4
	@DEBUG_VALUE: FMAC_DMAFilterPreload:hdma <- [DW_OP_LLVM_entry_value 1] $r0
	.loc	6 0 18 is_stmt 0                @ ../src/driver/stm32g4-v120/src/stm32g4xx_hal_fmac.c:0:18
	movs	r0, #160
.Ltmp526:
	.loc	6 2441 18 is_stmt 1             @ ../src/driver/stm32g4-v120/src/stm32g4xx_hal_fmac.c:2441:18
	strb.w	r0, [r4, #49]
	.loc	6 2442 22                       @ ../src/driver/stm32g4-v120/src/stm32g4xx_hal_fmac.c:2442:22
	ldr	r0, [r4, #52]
	orr	r0, r0, #128
	str	r0, [r4, #52]
.Ltmp527:
.LBB31_9:
	@DEBUG_VALUE: FMAC_DMAFilterPreload:hfmac <- $r4
	@DEBUG_VALUE: FMAC_DMAFilterPreload:hdma <- [DW_OP_LLVM_entry_value 1] $r0
	.loc	6 2475 14                       @ ../src/driver/stm32g4-v120/src/stm32g4xx_hal_fmac.c:2475:14
	ldr	r0, [r4, #52]
.Ltmp528:
	.loc	6 2475 7 is_stmt 0              @ ../src/driver/stm32g4-v120/src/stm32g4xx_hal_fmac.c:2475:7
	cbz	r0, .LBB31_11
.Ltmp529:
@ %bb.10:
	@DEBUG_VALUE: FMAC_DMAFilterPreload:hfmac <- $r4
	@DEBUG_VALUE: FMAC_DMAFilterPreload:hdma <- [DW_OP_LLVM_entry_value 1] $r0
	.loc	6 2493 5 is_stmt 1              @ ../src/driver/stm32g4-v120/src/stm32g4xx_hal_fmac.c:2493:5
	mov	r0, r4
	add	sp, #4
	pop.w	{r4, r5, r6, r7, lr}
.Ltmp530:
	b	HAL_FMAC_ErrorCallback
.Ltmp531:
.LBB31_11:
	@DEBUG_VALUE: FMAC_DMAFilterPreload:hfmac <- $r4
	@DEBUG_VALUE: FMAC_DMAFilterPreload:hdma <- [DW_OP_LLVM_entry_value 1] $r0
	.loc	6 0 5 is_stmt 0                 @ ../src/driver/stm32g4-v120/src/stm32g4xx_hal_fmac.c:0:5
	movs	r1, #32
.Ltmp532:
	.loc	6 2484 5 is_stmt 1              @ ../src/driver/stm32g4-v120/src/stm32g4xx_hal_fmac.c:2484:5
	mov	r0, r4
	.loc	6 2478 18                       @ ../src/driver/stm32g4-v120/src/stm32g4xx_hal_fmac.c:2478:18
	strb.w	r1, [r4, #49]
	.loc	6 2484 5                        @ ../src/driver/stm32g4-v120/src/stm32g4xx_hal_fmac.c:2484:5
	add	sp, #4
	pop.w	{r4, r5, r6, r7, lr}
.Ltmp533:
	b	HAL_FMAC_FilterPreloadCallback
.Ltmp534:
.LBB31_12:
	@DEBUG_VALUE: FMAC_DMAFilterPreload:hfmac <- $r4
	@DEBUG_VALUE: FMAC_DMAFilterPreload:hdma <- [DW_OP_LLVM_entry_value 1] $r0
	.loc	6 2461 21                       @ ../src/driver/stm32g4-v120/src/stm32g4xx_hal_fmac.c:2461:21
	str	r7, [r4, #12]
	.loc	6 2462 31                       @ ../src/driver/stm32g4-v120/src/stm32g4xx_hal_fmac.c:2462:31
	strh	r7, [r4, #16]
.Ltmp535:
	.loc	6 2496 1                        @ ../src/driver/stm32g4-v120/src/stm32g4xx_hal_fmac.c:2496:1
	add	sp, #4
	pop	{r4, r5, r6, r7, pc}
.Ltmp536:
.Lfunc_end31:
	.size	FMAC_DMAFilterPreload, .Lfunc_end31-FMAC_DMAFilterPreload
	.cfi_endproc
	.cantunwind
	.fnend
                                        @ -- End function
	.section	.text.FMAC_DMAHalfGetData,"ax",%progbits
	.p2align	1                               @ -- Begin function FMAC_DMAHalfGetData
	.type	FMAC_DMAHalfGetData,%function
	.code	16                              @ @FMAC_DMAHalfGetData
	.thumb_func
FMAC_DMAHalfGetData:
.Lfunc_begin32:
	.loc	6 2275 0                        @ ../src/driver/stm32g4-v120/src/stm32g4xx_hal_fmac.c:2275:0
	.fnstart
	.cfi_startproc
@ %bb.0:
	@DEBUG_VALUE: FMAC_DMAHalfGetData:hdma <- $r0
	@DEBUG_VALUE: FMAC_DMAHalfGetData:hdma <- $r0
	.loc	6 2276 82 prologue_end          @ ../src/driver/stm32g4-v120/src/stm32g4xx_hal_fmac.c:2276:82
	ldr	r0, [r0, #40]
.Ltmp537:
	@DEBUG_VALUE: FMAC_DMAHalfGetData:hdma <- [DW_OP_LLVM_entry_value 1] $r0
	@DEBUG_VALUE: FMAC_DMAHalfGetData:hfmac <- $r0
	.loc	6 2282 3                        @ ../src/driver/stm32g4-v120/src/stm32g4xx_hal_fmac.c:2282:3
	b	HAL_FMAC_HalfGetDataCallback
.Ltmp538:
.Lfunc_end32:
	.size	FMAC_DMAHalfGetData, .Lfunc_end32-FMAC_DMAHalfGetData
	.cfi_endproc
	.cantunwind
	.fnend
                                        @ -- End function
	.section	.text.FMAC_DMAGetData,"ax",%progbits
	.p2align	1                               @ -- Begin function FMAC_DMAGetData
	.type	FMAC_DMAGetData,%function
	.code	16                              @ @FMAC_DMAGetData
	.thumb_func
FMAC_DMAGetData:
.Lfunc_begin33:
	.loc	6 2292 0                        @ ../src/driver/stm32g4-v120/src/stm32g4xx_hal_fmac.c:2292:0
	.fnstart
	.cfi_startproc
@ %bb.0:
	@DEBUG_VALUE: FMAC_DMAGetData:hdma <- $r0
	@DEBUG_VALUE: FMAC_DMAGetData:hdma <- $r0
	.loc	6 2293 82 prologue_end          @ ../src/driver/stm32g4-v120/src/stm32g4xx_hal_fmac.c:2293:82
	ldr	r0, [r0, #40]
.Ltmp539:
	@DEBUG_VALUE: FMAC_DMAGetData:hdma <- [DW_OP_LLVM_entry_value 1] $r0
	@DEBUG_VALUE: FMAC_DMAGetData:hfmac <- $r0
	.loc	6 0 82 is_stmt 0                @ ../src/driver/stm32g4-v120/src/stm32g4xx_hal_fmac.c:0:82
	movs	r1, #0
.Ltmp540:
	@DEBUG_VALUE: FMAC_ResetInputStateAndDataPointers:hfmac <- $r0
	.loc	6 1618 17 is_stmt 1             @ ../src/driver/stm32g4-v120/src/stm32g4xx_hal_fmac.c:1618:17
	str	r1, [r0, #12]
	.loc	6 1619 21                       @ ../src/driver/stm32g4-v120/src/stm32g4xx_hal_fmac.c:1619:21
	str	r1, [r0, #20]
	.loc	6 1620 27                       @ ../src/driver/stm32g4-v120/src/stm32g4xx_hal_fmac.c:1620:27
	strh	r1, [r0, #16]
	movs	r1, #32
	.loc	6 1621 18                       @ ../src/driver/stm32g4-v120/src/stm32g4xx_hal_fmac.c:1621:18
	strb.w	r1, [r0, #51]
.Ltmp541:
	@DEBUG_VALUE: FMAC_ResetInputStateAndDataPointers:hfmac <- $r0
	.loc	6 2302 3                        @ ../src/driver/stm32g4-v120/src/stm32g4xx_hal_fmac.c:2302:3
	b	HAL_FMAC_GetDataCallback
.Ltmp542:
.Lfunc_end33:
	.size	FMAC_DMAGetData, .Lfunc_end33-FMAC_DMAGetData
	.cfi_endproc
	.cantunwind
	.fnend
                                        @ -- End function
	.section	.text.FMAC_DMAHalfOutputDataReady,"ax",%progbits
	.p2align	1                               @ -- Begin function FMAC_DMAHalfOutputDataReady
	.type	FMAC_DMAHalfOutputDataReady,%function
	.code	16                              @ @FMAC_DMAHalfOutputDataReady
	.thumb_func
FMAC_DMAHalfOutputDataReady:
.Lfunc_begin34:
	.loc	6 2312 0                        @ ../src/driver/stm32g4-v120/src/stm32g4xx_hal_fmac.c:2312:0
	.fnstart
	.cfi_startproc
@ %bb.0:
	@DEBUG_VALUE: FMAC_DMAHalfOutputDataReady:hdma <- $r0
	@DEBUG_VALUE: FMAC_DMAHalfOutputDataReady:hdma <- $r0
	.loc	6 2313 82 prologue_end          @ ../src/driver/stm32g4-v120/src/stm32g4xx_hal_fmac.c:2313:82
	ldr	r0, [r0, #40]
.Ltmp543:
	@DEBUG_VALUE: FMAC_DMAHalfOutputDataReady:hdma <- [DW_OP_LLVM_entry_value 1] $r0
	@DEBUG_VALUE: FMAC_DMAHalfOutputDataReady:hfmac <- $r0
	.loc	6 2319 3                        @ ../src/driver/stm32g4-v120/src/stm32g4xx_hal_fmac.c:2319:3
	b	HAL_FMAC_HalfOutputDataReadyCallback
.Ltmp544:
.Lfunc_end34:
	.size	FMAC_DMAHalfOutputDataReady, .Lfunc_end34-FMAC_DMAHalfOutputDataReady
	.cfi_endproc
	.cantunwind
	.fnend
                                        @ -- End function
	.section	.text.FMAC_DMAOutputDataReady,"ax",%progbits
	.p2align	1                               @ -- Begin function FMAC_DMAOutputDataReady
	.type	FMAC_DMAOutputDataReady,%function
	.code	16                              @ @FMAC_DMAOutputDataReady
	.thumb_func
FMAC_DMAOutputDataReady:
.Lfunc_begin35:
	.loc	6 2329 0                        @ ../src/driver/stm32g4-v120/src/stm32g4xx_hal_fmac.c:2329:0
	.fnstart
	.cfi_startproc
@ %bb.0:
	@DEBUG_VALUE: FMAC_DMAOutputDataReady:hdma <- $r0
	@DEBUG_VALUE: FMAC_DMAOutputDataReady:hdma <- $r0
	.loc	6 2330 82 prologue_end          @ ../src/driver/stm32g4-v120/src/stm32g4xx_hal_fmac.c:2330:82
	ldr	r0, [r0, #40]
.Ltmp545:
	@DEBUG_VALUE: FMAC_DMAOutputDataReady:hdma <- [DW_OP_LLVM_entry_value 1] $r0
	@DEBUG_VALUE: FMAC_DMAOutputDataReady:hfmac <- $r0
	.loc	6 0 82 is_stmt 0                @ ../src/driver/stm32g4-v120/src/stm32g4xx_hal_fmac.c:0:82
	movs	r1, #0
.Ltmp546:
	@DEBUG_VALUE: FMAC_ResetOutputStateAndDataPointers:hfmac <- $r0
	.loc	6 1631 18 is_stmt 1             @ ../src/driver/stm32g4-v120/src/stm32g4xx_hal_fmac.c:1631:18
	str	r1, [r0, #24]
	.loc	6 1632 22                       @ ../src/driver/stm32g4-v120/src/stm32g4xx_hal_fmac.c:1632:22
	str	r1, [r0, #32]
	.loc	6 1633 28                       @ ../src/driver/stm32g4-v120/src/stm32g4xx_hal_fmac.c:1633:28
	strh	r1, [r0, #28]
	movs	r1, #32
	.loc	6 1634 18                       @ ../src/driver/stm32g4-v120/src/stm32g4xx_hal_fmac.c:1634:18
	strb.w	r1, [r0, #50]
.Ltmp547:
	@DEBUG_VALUE: FMAC_ResetOutputStateAndDataPointers:hfmac <- $r0
	.loc	6 2339 3                        @ ../src/driver/stm32g4-v120/src/stm32g4xx_hal_fmac.c:2339:3
	b	HAL_FMAC_OutputDataReadyCallback
.Ltmp548:
.Lfunc_end35:
	.size	FMAC_DMAOutputDataReady, .Lfunc_end35-FMAC_DMAOutputDataReady
	.cfi_endproc
	.cantunwind
	.fnend
                                        @ -- End function
	.section	".note.GNU-stack","",%progbits
	.eabi_attribute	30, 3	@ Tag_ABI_optimization_goals
	.ARM_attribute	16, 1	@ Tag_AV_eba