	.text
	.syntax unified
	.eabi_attribute	67, "2.09"	@ Tag_conformance
	.cpu	cortex-m4
	.eabi_attribute	6, 13	@ Tag_CPU_arch
	.eabi_attribute	7, 77	@ Tag_CPU_arch_profile
	.eabi_attribute	8, 0	@ Tag_ARM_ISA_use
	.eabi_attribute	9, 2	@ Tag_THUMB_ISA_use
	.fpu	fpv4-sp-d16
	.eabi_attribute	27, 1	@ Tag_ABI_HardFP_use
	.eabi_attribute	36, 1	@ Tag_FP_HP_extension
	.eabi_attribute	34, 1	@ Tag_CPU_unaligned_access
	.eabi_attribute	17, 1	@ Tag_ABI_PCS_GOT_use
	.eabi_attribute	20, 2	@ Tag_ABI_FP_denormal
	.eabi_attribute	21, 0	@ Tag_ABI_FP_exceptions
	.eabi_attribute	23, 1	@ Tag_ABI_FP_number_model
	.eabi_attribute	24, 1	@ Tag_ABI_align_needed
	.eabi_attribute	25, 1	@ Tag_ABI_align_preserved
	.eabi_attribute	28, 1	@ Tag_ABI_VFP_args
	.eabi_attribute	38, 1	@ Tag_ABI_FP_16bit_format
	.eabi_attribute	18, 2	@ Tag_ABI_PCS_wchar_t
	.eabi_attribute	26, 1	@ Tag_ABI_enum_size
	.eabi_attribute	14, 0	@ Tag_ABI_PCS_R9_use
	.file	"stm32g4xx_hal_fdcan.c"
	.file	1 "C:\\" "Keil_v5\\ARM\\ARMCLANG\\Bin\\..\\include\\stdint.h"
	.file	2 "C:\\Users\\grodriguez\\Documents\\iit\\icub-firmware\\emBODY\\eBcode\\arch-arm\\libs\\lowlevel\\stm32hal\\proj" "../src/driver/stm32g4-v120/src/stm32g4xx_hal_fdcan.c"
	.file	3 "C:\\Users\\grodriguez\\Documents\\iit\\icub-firmware\\emBODY\\eBcode\\arch-arm\\libs\\lowlevel\\stm32hal\\proj" "../src/driver/stm32g4-v120/inc/stm32g4xx_hal_def.h"
	.file	4 "C:\\Users\\grodriguez\\Documents\\iit\\icub-firmware\\emBODY\\eBcode\\arch-arm\\libs\\lowlevel\\stm32hal\\proj" "../src/driver/stm32g4-v120/inc/stm32g4xx.h"
	.file	5 "C:\\Users\\grodriguez\\Documents\\iit\\icub-firmware\\emBODY\\eBcode\\arch-arm\\libs\\lowlevel\\stm32hal\\proj" "../api\\../src/driver/stm32g4-v120/inc/stm32g4xx_hal_fdcan.h"
	.file	6 "C:\\Users\\grodriguez\\Documents\\iit\\icub-firmware\\emBODY\\eBcode\\arch-arm\\libs\\lowlevel\\stm32hal\\proj" "../src/driver/stm32g4-v120/inc/stm32g474xx.h"
	.section	.text.HAL_FDCAN_Init,"ax",%progbits
	.hidden	HAL_FDCAN_Init                  @ -- Begin function HAL_FDCAN_Init
	.globl	HAL_FDCAN_Init
	.p2align	1
	.type	HAL_FDCAN_Init,%function
	.code	16                              @ @HAL_FDCAN_Init
	.thumb_func
HAL_FDCAN_Init:
.Lfunc_begin0:
	.loc	2 289 0                         @ ../src/driver/stm32g4-v120/src/stm32g4xx_hal_fdcan.c:289:0
	.fnstart
	.cfi_sections .debug_frame
	.cfi_startproc
@ %bb.0:
	@DEBUG_VALUE: HAL_FDCAN_Init:hfdcan <- $r0
	@DEBUG_VALUE: HAL_FDCAN_Init:hfdcan <- $r0
	.save	{r4, r5, r6, lr}
	push	{r4, r5, r6, lr}
	.cfi_def_cfa_offset 16
	.cfi_offset lr, -4
	.cfi_offset r6, -8
	.cfi_offset r5, -12
	.cfi_offset r4, -16
.Ltmp0:
	.loc	2 293 7 prologue_end            @ ../src/driver/stm32g4-v120/src/stm32g4xx_hal_fdcan.c:293:7
	cmp	r0, #0
	beq	.LBB0_8
.Ltmp1:
@ %bb.1:
	@DEBUG_VALUE: HAL_FDCAN_Init:hfdcan <- $r0
	.loc	2 0 7 is_stmt 0                 @ ../src/driver/stm32g4-v120/src/stm32g4xx_hal_fdcan.c:0:7
	mov	r4, r0
.Ltmp2:
	@DEBUG_VALUE: HAL_FDCAN_Init:hfdcan <- $r4
	.loc	2 325 15 is_stmt 1              @ ../src/driver/stm32g4-v120/src/stm32g4xx_hal_fdcan.c:325:15
	ldrb.w	r0, [r0, #92]
.Ltmp3:
	.loc	2 325 7 is_stmt 0               @ ../src/driver/stm32g4-v120/src/stm32g4xx_hal_fdcan.c:325:7
	cmp	r0, #0
	bne	.LBB0_5
.Ltmp4:
@ %bb.2:
	@DEBUG_VALUE: HAL_FDCAN_Init:hfdcan <- $r4
	.loc	2 0 7                           @ ../src/driver/stm32g4-v120/src/stm32g4xx_hal_fdcan.c:0:7
	movs	r0, #0
.Ltmp5:
	.loc	2 332 41 is_stmt 1              @ ../src/driver/stm32g4-v120/src/stm32g4xx_hal_fdcan.c:332:41
	movw	r1, :lower16:HAL_FDCAN_RxFifo0Callback
	.loc	2 328 18                        @ ../src/driver/stm32g4-v120/src/stm32g4xx_hal_fdcan.c:328:18
	strb.w	r0, [r4, #93]
	.loc	2 331 41                        @ ../src/driver/stm32g4-v120/src/stm32g4xx_hal_fdcan.c:331:41
	movw	r0, :lower16:HAL_FDCAN_TxEventFifoCallback
	.loc	2 332 41                        @ ../src/driver/stm32g4-v120/src/stm32g4xx_hal_fdcan.c:332:41
	movt	r1, :upper16:HAL_FDCAN_RxFifo0Callback
	.loc	2 333 41                        @ ../src/driver/stm32g4-v120/src/stm32g4xx_hal_fdcan.c:333:41
	movw	r2, :lower16:HAL_FDCAN_RxFifo1Callback
	.loc	2 334 41                        @ ../src/driver/stm32g4-v120/src/stm32g4xx_hal_fdcan.c:334:41
	movw	r3, :lower16:HAL_FDCAN_TxFifoEmptyCallback
	.loc	2 331 41                        @ ../src/driver/stm32g4-v120/src/stm32g4xx_hal_fdcan.c:331:41
	movt	r0, :upper16:HAL_FDCAN_TxEventFifoCallback
	.loc	2 333 41                        @ ../src/driver/stm32g4-v120/src/stm32g4xx_hal_fdcan.c:333:41
	movt	r2, :upper16:HAL_FDCAN_RxFifo1Callback
	.loc	2 334 41                        @ ../src/driver/stm32g4-v120/src/stm32g4xx_hal_fdcan.c:334:41
	movt	r3, :upper16:HAL_FDCAN_TxFifoEmptyCallback
	.loc	2 332 41                        @ ../src/driver/stm32g4-v120/src/stm32g4xx_hal_fdcan.c:332:41
	str	r1, [r4, #104]
.Ltmp6:
	.loc	2 348 17                        @ ../src/driver/stm32g4-v120/src/stm32g4xx_hal_fdcan.c:348:17
	ldr.w	r1, [r4, #144]
.Ltmp7:
	.loc	2 335 41                        @ ../src/driver/stm32g4-v120/src/stm32g4xx_hal_fdcan.c:335:41
	movw	r5, :lower16:HAL_FDCAN_TxBufferCompleteCallback
	.loc	2 337 41                        @ ../src/driver/stm32g4-v120/src/stm32g4xx_hal_fdcan.c:337:41
	movw	r12, :lower16:HAL_FDCAN_TxBufferAbortCallback
	.loc	2 339 41                        @ ../src/driver/stm32g4-v120/src/stm32g4xx_hal_fdcan.c:339:41
	movw	lr, :lower16:HAL_FDCAN_HighPriorityMessageCallback
	.loc	2 341 41                        @ ../src/driver/stm32g4-v120/src/stm32g4xx_hal_fdcan.c:341:41
	movw	r6, :lower16:HAL_FDCAN_TimestampWraparoundCallback
	.loc	2 331 41                        @ ../src/driver/stm32g4-v120/src/stm32g4xx_hal_fdcan.c:331:41
	str	r0, [r4, #100]
	.loc	2 333 41                        @ ../src/driver/stm32g4-v120/src/stm32g4xx_hal_fdcan.c:333:41
	str	r2, [r4, #108]
	.loc	2 334 41                        @ ../src/driver/stm32g4-v120/src/stm32g4xx_hal_fdcan.c:334:41
	str	r3, [r4, #112]
	.loc	2 343 41                        @ ../src/driver/stm32g4-v120/src/stm32g4xx_hal_fdcan.c:343:41
	movw	r0, :lower16:HAL_FDCAN_TimeoutOccurredCallback
	.loc	2 345 41                        @ ../src/driver/stm32g4-v120/src/stm32g4xx_hal_fdcan.c:345:41
	movw	r2, :lower16:HAL_FDCAN_ErrorCallback
	.loc	2 346 41                        @ ../src/driver/stm32g4-v120/src/stm32g4xx_hal_fdcan.c:346:41
	movw	r3, :lower16:HAL_FDCAN_ErrorStatusCallback
	.loc	2 335 41                        @ ../src/driver/stm32g4-v120/src/stm32g4xx_hal_fdcan.c:335:41
	movt	r5, :upper16:HAL_FDCAN_TxBufferCompleteCallback
	.loc	2 337 41                        @ ../src/driver/stm32g4-v120/src/stm32g4xx_hal_fdcan.c:337:41
	movt	r12, :upper16:HAL_FDCAN_TxBufferAbortCallback
	.loc	2 339 41                        @ ../src/driver/stm32g4-v120/src/stm32g4xx_hal_fdcan.c:339:41
	movt	lr, :upper16:HAL_FDCAN_HighPriorityMessageCallback
	.loc	2 341 41                        @ ../src/driver/stm32g4-v120/src/stm32g4xx_hal_fdcan.c:341:41
	movt	r6, :upper16:HAL_FDCAN_TimestampWraparoundCallback
	.loc	2 343 41                        @ ../src/driver/stm32g4-v120/src/stm32g4xx_hal_fdcan.c:343:41
	movt	r0, :upper16:HAL_FDCAN_TimeoutOccurredCallback
	.loc	2 345 41                        @ ../src/driver/stm32g4-v120/src/stm32g4xx_hal_fdcan.c:345:41
	movt	r2, :upper16:HAL_FDCAN_ErrorCallback
	.loc	2 346 41                        @ ../src/driver/stm32g4-v120/src/stm32g4xx_hal_fdcan.c:346:41
	movt	r3, :upper16:HAL_FDCAN_ErrorStatusCallback
	.loc	2 335 41                        @ ../src/driver/stm32g4-v120/src/stm32g4xx_hal_fdcan.c:335:41
	str	r5, [r4, #116]
	.loc	2 337 41                        @ ../src/driver/stm32g4-v120/src/stm32g4xx_hal_fdcan.c:337:41
	str.w	r12, [r4, #120]
	.loc	2 339 41                        @ ../src/driver/stm32g4-v120/src/stm32g4xx_hal_fdcan.c:339:41
	str.w	lr, [r4, #124]
	.loc	2 341 41                        @ ../src/driver/stm32g4-v120/src/stm32g4xx_hal_fdcan.c:341:41
	str.w	r6, [r4, #128]
	.loc	2 343 41                        @ ../src/driver/stm32g4-v120/src/stm32g4xx_hal_fdcan.c:343:41
	str.w	r0, [r4, #132]
	.loc	2 345 41                        @ ../src/driver/stm32g4-v120/src/stm32g4xx_hal_fdcan.c:345:41
	str.w	r2, [r4, #136]
	.loc	2 346 41                        @ ../src/driver/stm32g4-v120/src/stm32g4xx_hal_fdcan.c:346:41
	str.w	r3, [r4, #140]
	.loc	2 348 9                         @ ../src/driver/stm32g4-v120/src/stm32g4xx_hal_fdcan.c:348:9
	cbnz	r1, .LBB0_4
.Ltmp8:
@ %bb.3:
	@DEBUG_VALUE: HAL_FDCAN_Init:hfdcan <- $r4
	.loc	2 350 31                        @ ../src/driver/stm32g4-v120/src/stm32g4xx_hal_fdcan.c:350:31
	movw	r1, :lower16:HAL_FDCAN_MspInit
	movt	r1, :upper16:HAL_FDCAN_MspInit
	str.w	r1, [r4, #144]
.Ltmp9:
.LBB0_4:
	@DEBUG_VALUE: HAL_FDCAN_Init:hfdcan <- $r4
	.loc	2 354 5                         @ ../src/driver/stm32g4-v120/src/stm32g4xx_hal_fdcan.c:354:5
	mov	r0, r4
	blx	r1
.Ltmp10:
.LBB0_5:
	@DEBUG_VALUE: HAL_FDCAN_Init:hfdcan <- $r4
	.loc	2 368 3                         @ ../src/driver/stm32g4-v120/src/stm32g4xx_hal_fdcan.c:368:3
	ldr	r0, [r4]
	ldr	r1, [r0, #24]
	bic	r1, r1, #16
	str	r1, [r0, #24]
	.loc	2 371 15                        @ ../src/driver/stm32g4-v120/src/stm32g4xx_hal_fdcan.c:371:15
	bl	HAL_GetTick
.Ltmp11:
	mov	r5, r0
.Ltmp12:
	@DEBUG_VALUE: HAL_FDCAN_Init:tickstart <- $r5
	.p2align	2
.LBB0_6:                                @ =>This Inner Loop Header: Depth=1
	@DEBUG_VALUE: HAL_FDCAN_Init:tickstart <- $r5
	@DEBUG_VALUE: HAL_FDCAN_Init:hfdcan <- $r4
	.loc	2 374 19                        @ ../src/driver/stm32g4-v120/src/stm32g4xx_hal_fdcan.c:374:19
	ldr	r0, [r4]
	.loc	2 374 29 is_stmt 0              @ ../src/driver/stm32g4-v120/src/stm32g4xx_hal_fdcan.c:374:29
	ldr	r1, [r0, #24]
	.loc	2 374 3                         @ ../src/driver/stm32g4-v120/src/stm32g4xx_hal_fdcan.c:374:3
	lsls	r1, r1, #28
	bpl	.LBB0_9
.Ltmp13:
@ %bb.7:                                @   in Loop: Header=BB0_6 Depth=1
	@DEBUG_VALUE: HAL_FDCAN_Init:tickstart <- $r5
	@DEBUG_VALUE: HAL_FDCAN_Init:hfdcan <- $r4
	.loc	2 376 10 is_stmt 1              @ ../src/driver/stm32g4-v120/src/stm32g4xx_hal_fdcan.c:376:10
	bl	HAL_GetTick
.Ltmp14:
	.loc	2 376 24 is_stmt 0              @ ../src/driver/stm32g4-v120/src/stm32g4xx_hal_fdcan.c:376:24
	subs	r0, r0, r5
.Ltmp15:
	.loc	2 376 9                         @ ../src/driver/stm32g4-v120/src/stm32g4xx_hal_fdcan.c:376:9
	cmp	r0, #11
	blo	.LBB0_6
	b	.LBB0_12
.Ltmp16:
.LBB0_8:
	@DEBUG_VALUE: HAL_FDCAN_Init:hfdcan <- $r0
	.loc	2 0 9                           @ ../src/driver/stm32g4-v120/src/stm32g4xx_hal_fdcan.c:0:9
	movs	r0, #1
.Ltmp17:
	@DEBUG_VALUE: HAL_FDCAN_Init:hfdcan <- [DW_OP_LLVM_entry_value 1] $r0
	.loc	2 528 1 is_stmt 1               @ ../src/driver/stm32g4-v120/src/stm32g4xx_hal_fdcan.c:528:1
	pop	{r4, r5, r6, pc}
.Ltmp18:
.LBB0_9:
	@DEBUG_VALUE: HAL_FDCAN_Init:tickstart <- $r5
	@DEBUG_VALUE: HAL_FDCAN_Init:hfdcan <- $r4
	.loc	2 389 3                         @ ../src/driver/stm32g4-v120/src/stm32g4xx_hal_fdcan.c:389:3
	ldr	r1, [r0, #24]
	orr	r1, r1, #1
	str	r1, [r0, #24]
	.loc	2 392 15                        @ ../src/driver/stm32g4-v120/src/stm32g4xx_hal_fdcan.c:392:15
	bl	HAL_GetTick
.Ltmp19:
	mov	r5, r0
.Ltmp20:
	@DEBUG_VALUE: HAL_FDCAN_Init:tickstart <- $r5
	.p2align	2
.LBB0_10:                               @ =>This Inner Loop Header: Depth=1
	@DEBUG_VALUE: HAL_FDCAN_Init:tickstart <- $r5
	@DEBUG_VALUE: HAL_FDCAN_Init:hfdcan <- $r4
	.loc	2 395 19                        @ ../src/driver/stm32g4-v120/src/stm32g4xx_hal_fdcan.c:395:19
	ldr	r0, [r4]
	.loc	2 395 29 is_stmt 0              @ ../src/driver/stm32g4-v120/src/stm32g4xx_hal_fdcan.c:395:29
	ldr	r1, [r0, #24]
	.loc	2 395 3                         @ ../src/driver/stm32g4-v120/src/stm32g4xx_hal_fdcan.c:395:3
	lsls	r1, r1, #31
	bne	.LBB0_13
.Ltmp21:
@ %bb.11:                               @   in Loop: Header=BB0_10 Depth=1
	@DEBUG_VALUE: HAL_FDCAN_Init:tickstart <- $r5
	@DEBUG_VALUE: HAL_FDCAN_Init:hfdcan <- $r4
	.loc	2 398 10 is_stmt 1              @ ../src/driver/stm32g4-v120/src/stm32g4xx_hal_fdcan.c:398:10
	bl	HAL_GetTick
.Ltmp22:
	.loc	2 398 24 is_stmt 0              @ ../src/driver/stm32g4-v120/src/stm32g4xx_hal_fdcan.c:398:24
	subs	r0, r0, r5
.Ltmp23:
	.loc	2 398 9                         @ ../src/driver/stm32g4-v120/src/stm32g4xx_hal_fdcan.c:398:9
	cmp	r0, #11
	blo	.LBB0_10
.Ltmp24:
.LBB0_12:
	@DEBUG_VALUE: HAL_FDCAN_Init:tickstart <- $r5
	@DEBUG_VALUE: HAL_FDCAN_Init:hfdcan <- $r4
	.loc	2 0 0                           @ ../src/driver/stm32g4-v120/src/stm32g4xx_hal_fdcan.c:0:0
	ldr	r0, [r4, #96]
	movs	r1, #3
	orr	r0, r0, #1
	str	r0, [r4, #96]
	movs	r0, #1
	b	.LBB0_27
.Ltmp25:
.LBB0_13:
	@DEBUG_VALUE: HAL_FDCAN_Init:tickstart <- $r5
	@DEBUG_VALUE: HAL_FDCAN_Init:hfdcan <- $r4
	.loc	2 411 3 is_stmt 1               @ ../src/driver/stm32g4-v120/src/stm32g4xx_hal_fdcan.c:411:3
	ldr	r2, [r0, #24]
	movw	r12, #25600
	movt	r12, #16384
	orr	r2, r2, #2
	.loc	2 414 7                         @ ../src/driver/stm32g4-v120/src/stm32g4xx_hal_fdcan.c:414:7
	cmp	r0, r12
	.loc	2 411 3                         @ ../src/driver/stm32g4-v120/src/stm32g4xx_hal_fdcan.c:411:3
	str	r2, [r0, #24]
	.loc	2 414 7                         @ ../src/driver/stm32g4-v120/src/stm32g4xx_hal_fdcan.c:414:7
	bne	.LBB0_15
.Ltmp26:
@ %bb.14:
	@DEBUG_VALUE: HAL_FDCAN_Init:tickstart <- $r5
	@DEBUG_VALUE: HAL_FDCAN_Init:hfdcan <- $r4
	.loc	2 417 40                        @ ../src/driver/stm32g4-v120/src/stm32g4xx_hal_fdcan.c:417:40
	ldr	r2, [r4, #4]
	.loc	2 417 25 is_stmt 0              @ ../src/driver/stm32g4-v120/src/stm32g4xx_hal_fdcan.c:417:25
	str.w	r2, [r12, #256]
.Ltmp27:
.LBB0_15:
	@DEBUG_VALUE: HAL_FDCAN_Init:tickstart <- $r5
	@DEBUG_VALUE: HAL_FDCAN_Init:hfdcan <- $r4
	.loc	2 421 20 is_stmt 1              @ ../src/driver/stm32g4-v120/src/stm32g4xx_hal_fdcan.c:421:20
	ldrb	r2, [r4, #16]
	.loc	2 0 0 is_stmt 0                 @ ../src/driver/stm32g4-v120/src/stm32g4xx_hal_fdcan.c:0:0
	ldr	r3, [r0, #24]
.Ltmp28:
	.loc	2 421 7                         @ ../src/driver/stm32g4-v120/src/stm32g4xx_hal_fdcan.c:421:7
	cmp	r2, #1
	bic	r3, r3, #64
	it	ne
	addne	r3, #64
.Ltmp29:
	.loc	2 0 0                           @ ../src/driver/stm32g4-v120/src/stm32g4xx_hal_fdcan.c:0:0
	str	r3, [r0, #24]
.Ltmp30:
	.loc	2 431 20 is_stmt 1              @ ../src/driver/stm32g4-v120/src/stm32g4xx_hal_fdcan.c:431:20
	ldrb	r2, [r4, #17]
	.loc	2 0 0 is_stmt 0                 @ ../src/driver/stm32g4-v120/src/stm32g4xx_hal_fdcan.c:0:0
	ldr	r3, [r0, #24]
.Ltmp31:
	.loc	2 431 7                         @ ../src/driver/stm32g4-v120/src/stm32g4xx_hal_fdcan.c:431:7
	cmp	r2, #1
	bic	r3, r3, #16384
	it	eq
	addeq.w	r3, r3, #16384
.Ltmp32:
	.loc	2 0 0                           @ ../src/driver/stm32g4-v120/src/stm32g4xx_hal_fdcan.c:0:0
	str	r3, [r0, #24]
.Ltmp33:
	.loc	2 441 20 is_stmt 1              @ ../src/driver/stm32g4-v120/src/stm32g4xx_hal_fdcan.c:441:20
	ldrb	r2, [r4, #18]
	.loc	2 0 0 is_stmt 0                 @ ../src/driver/stm32g4-v120/src/stm32g4xx_hal_fdcan.c:0:0
	ldr	r3, [r0, #24]
.Ltmp34:
	.loc	2 441 7                         @ ../src/driver/stm32g4-v120/src/stm32g4xx_hal_fdcan.c:441:7
	cmp	r2, #1
	bic	r3, r3, #4096
	it	ne
	addne.w	r3, r3, #4096
.Ltmp35:
	.loc	2 0 0                           @ ../src/driver/stm32g4-v120/src/stm32g4xx_hal_fdcan.c:0:0
	str	r3, [r0, #24]
.Ltmp36:
	.loc	2 451 3 is_stmt 1               @ ../src/driver/stm32g4-v120/src/stm32g4xx_hal_fdcan.c:451:3
	ldr	r2, [r0, #24]
	bic	r6, r2, #768
	ldrd	r2, r3, [r4, #8]
	orrs	r6, r2
	str	r6, [r0, #24]
	.loc	2 454 3                         @ ../src/driver/stm32g4-v120/src/stm32g4xx_hal_fdcan.c:454:3
	ldr	r6, [r0, #24]
	bic	r6, r6, #164
	str	r6, [r0, #24]
	.loc	2 455 3                         @ ../src/driver/stm32g4-v120/src/stm32g4xx_hal_fdcan.c:455:3
	ldr	r6, [r0, #16]
	bic	r6, r6, #16
	str	r6, [r0, #16]
	.loc	2 465 7                         @ ../src/driver/stm32g4-v120/src/stm32g4xx_hal_fdcan.c:465:7
	cbz	r3, .LBB0_22
.Ltmp37:
@ %bb.16:
	@DEBUG_VALUE: HAL_FDCAN_Init:tickstart <- $r5
	@DEBUG_VALUE: HAL_FDCAN_Init:hfdcan <- $r4
	cmp	r3, #2
	beq	.LBB0_20
.Ltmp38:
@ %bb.17:
	@DEBUG_VALUE: HAL_FDCAN_Init:tickstart <- $r5
	@DEBUG_VALUE: HAL_FDCAN_Init:hfdcan <- $r4
	cmp	r3, #1
	bne	.LBB0_19
.Ltmp39:
@ %bb.18:
	@DEBUG_VALUE: HAL_FDCAN_Init:tickstart <- $r5
	@DEBUG_VALUE: HAL_FDCAN_Init:hfdcan <- $r4
	.loc	2 468 5                         @ ../src/driver/stm32g4-v120/src/stm32g4xx_hal_fdcan.c:468:5
	ldr	r3, [r0, #24]
	orr	r3, r3, #4
	b	.LBB0_21
.Ltmp40:
.LBB0_19:
	@DEBUG_VALUE: HAL_FDCAN_Init:tickstart <- $r5
	@DEBUG_VALUE: HAL_FDCAN_Init:hfdcan <- $r4
	.loc	2 475 7                         @ ../src/driver/stm32g4-v120/src/stm32g4xx_hal_fdcan.c:475:7
	ldr	r6, [r0, #24]
	.loc	2 480 11                        @ ../src/driver/stm32g4-v120/src/stm32g4xx_hal_fdcan.c:480:11
	cmp	r3, #3
	.loc	2 475 7                         @ ../src/driver/stm32g4-v120/src/stm32g4xx_hal_fdcan.c:475:7
	orr	r6, r6, #128
	str	r6, [r0, #24]
	.loc	2 478 7                         @ ../src/driver/stm32g4-v120/src/stm32g4xx_hal_fdcan.c:478:7
	ldr	r6, [r0, #16]
	orr	r6, r6, #16
	str	r6, [r0, #16]
	.loc	2 480 11                        @ ../src/driver/stm32g4-v120/src/stm32g4xx_hal_fdcan.c:480:11
	bne	.LBB0_22
.Ltmp41:
.LBB0_20:
	@DEBUG_VALUE: HAL_FDCAN_Init:tickstart <- $r5
	@DEBUG_VALUE: HAL_FDCAN_Init:hfdcan <- $r4
	.loc	2 0 0 is_stmt 0                 @ ../src/driver/stm32g4-v120/src/stm32g4xx_hal_fdcan.c:0:0
	ldr	r3, [r0, #24]
	orr	r3, r3, #32
.Ltmp42:
.LBB0_21:
	@DEBUG_VALUE: HAL_FDCAN_Init:tickstart <- $r5
	@DEBUG_VALUE: HAL_FDCAN_Init:hfdcan <- $r4
	str	r3, [r0, #24]
.Ltmp43:
.LBB0_22:
	@DEBUG_VALUE: HAL_FDCAN_Init:tickstart <- $r5
	@DEBUG_VALUE: HAL_FDCAN_Init:hfdcan <- $r4
	.loc	2 500 54 is_stmt 1              @ ../src/driver/stm32g4-v120/src/stm32g4xx_hal_fdcan.c:500:54
	ldrd	r6, r3, [r4, #20]
	.loc	2 498 54                        @ ../src/driver/stm32g4-v120/src/stm32g4xx_hal_fdcan.c:498:54
	ldrd	r5, r1, [r4, #28]
.Ltmp44:
	.loc	2 0 54 is_stmt 0                @ ../src/driver/stm32g4-v120/src/stm32g4xx_hal_fdcan.c:0:54
	mvn	lr, #255
	.loc	2 497 81 is_stmt 1              @ ../src/driver/stm32g4-v120/src/stm32g4xx_hal_fdcan.c:497:81
	subs	r3, #1
	.loc	2 498 76                        @ ../src/driver/stm32g4-v120/src/stm32g4xx_hal_fdcan.c:498:76
	add.w	r5, lr, r5, lsl #8
	.loc	2 497 105                       @ ../src/driver/stm32g4-v120/src/stm32g4xx_hal_fdcan.c:497:105
	orr.w	r3, r5, r3, lsl #25
	movs	r5, #0
	.loc	2 499 70                        @ ../src/driver/stm32g4-v120/src/stm32g4xx_hal_fdcan.c:499:70
	subs	r1, #1
	movt	r5, #65535
	.loc	2 498 105                       @ ../src/driver/stm32g4-v120/src/stm32g4xx_hal_fdcan.c:498:105
	orrs	r1, r3
	.loc	2 500 77                        @ ../src/driver/stm32g4-v120/src/stm32g4xx_hal_fdcan.c:500:77
	add.w	r3, r5, r6, lsl #16
	.loc	2 499 105                       @ ../src/driver/stm32g4-v120/src/stm32g4xx_hal_fdcan.c:499:105
	orrs	r1, r3
	.loc	2 503 7                         @ ../src/driver/stm32g4-v120/src/stm32g4xx_hal_fdcan.c:503:7
	cmp.w	r2, #768
	.loc	2 497 26                        @ ../src/driver/stm32g4-v120/src/stm32g4xx_hal_fdcan.c:497:26
	str	r1, [r0, #28]
	.loc	2 503 7                         @ ../src/driver/stm32g4-v120/src/stm32g4xx_hal_fdcan.c:503:7
	bne	.LBB0_24
.Ltmp45:
@ %bb.23:
	@DEBUG_VALUE: HAL_FDCAN_Init:hfdcan <- $r4
	.loc	2 508 56                        @ ../src/driver/stm32g4-v120/src/stm32g4xx_hal_fdcan.c:508:56
	add.w	r6, r4, #36
	ldm	r6, {r1, r2, r3, r6}
	.loc	2 505 74                        @ ../src/driver/stm32g4-v120/src/stm32g4xx_hal_fdcan.c:505:74
	subs	r2, #1
	.loc	2 506 75                        @ ../src/driver/stm32g4-v120/src/stm32g4xx_hal_fdcan.c:506:75
	add.w	r3, lr, r3, lsl #8
	.loc	2 505 105                       @ ../src/driver/stm32g4-v120/src/stm32g4xx_hal_fdcan.c:505:105
	orrs	r2, r3
	mvn	r3, #15
	.loc	2 507 75                        @ ../src/driver/stm32g4-v120/src/stm32g4xx_hal_fdcan.c:507:75
	add.w	r3, r3, r6, lsl #4
	.loc	2 506 105                       @ ../src/driver/stm32g4-v120/src/stm32g4xx_hal_fdcan.c:506:105
	orrs	r2, r3
	.loc	2 508 76                        @ ../src/driver/stm32g4-v120/src/stm32g4xx_hal_fdcan.c:508:76
	add.w	r1, r5, r1, lsl #16
	.loc	2 507 105                       @ ../src/driver/stm32g4-v120/src/stm32g4xx_hal_fdcan.c:507:105
	orrs	r1, r2
	.loc	2 505 28                        @ ../src/driver/stm32g4-v120/src/stm32g4xx_hal_fdcan.c:505:28
	str	r1, [r0, #12]
.Ltmp46:
.LBB0_24:
	@DEBUG_VALUE: HAL_FDCAN_Init:hfdcan <- $r4
	.loc	2 3418 3                        @ ../src/driver/stm32g4-v120/src/stm32g4xx_hal_fdcan.c:3418:3
	ldrd	r1, r3, [r4, #52]
.Ltmp47:
	.loc	2 512 3                         @ ../src/driver/stm32g4-v120/src/stm32g4xx_hal_fdcan.c:512:3
	ldr	r2, [r4, #60]
	ldr.w	r6, [r0, #192]
	orrs	r2, r6
	str.w	r2, [r0, #192]
.Ltmp48:
	@DEBUG_VALUE: FDCAN_CalcultateRamBlockAddresses:SramCanInstanceBase <- 1073783808
	@DEBUG_VALUE: FDCAN_CalcultateRamBlockAddresses:hfdcan <- $r4
	.loc	2 3402 24                       @ ../src/driver/stm32g4-v120/src/stm32g4xx_hal_fdcan.c:3402:24
	add.w	r6, r12, #1024
.Ltmp49:
	.loc	2 3402 7 is_stmt 0              @ ../src/driver/stm32g4-v120/src/stm32g4xx_hal_fdcan.c:3402:7
	add.w	r2, r12, #16384
	cmp	r0, r6
	itt	eq
	movweq	r2, #42832
	movteq	r2, #16384
.Ltmp50:
	@DEBUG_VALUE: FDCAN_CalcultateRamBlockAddresses:SramCanInstanceBase <- $r2
	.loc	2 3408 24 is_stmt 1             @ ../src/driver/stm32g4-v120/src/stm32g4xx_hal_fdcan.c:3408:24
	add.w	r6, r12, #2048
.Ltmp51:
	.loc	2 3408 7 is_stmt 0              @ ../src/driver/stm32g4-v120/src/stm32g4xx_hal_fdcan.c:3408:7
	cmp	r0, r6
	it	eq
	addeq.w	r2, r2, #1696
.Ltmp52:
	@DEBUG_VALUE: FDCAN_CalcultateRamBlockAddresses:RAMcounter <- $r2
	@DEBUG_VALUE: FDCAN_CalcultateRamBlockAddresses:SramCanInstanceBase <- $r2
	.loc	2 3415 35 is_stmt 1             @ ../src/driver/stm32g4-v120/src/stm32g4xx_hal_fdcan.c:3415:35
	str	r2, [r4, #64]
	.loc	2 3418 3                        @ ../src/driver/stm32g4-v120/src/stm32g4xx_hal_fdcan.c:3418:3
	ldr.w	r6, [r0, #128]
	bic	r6, r6, #2031616
	orr.w	r1, r6, r1, lsl #16
	str.w	r1, [r0, #128]
	.loc	2 3421 57                       @ ../src/driver/stm32g4-v120/src/stm32g4xx_hal_fdcan.c:3421:57
	add.w	r1, r2, #112
	.loc	2 3421 35 is_stmt 0             @ ../src/driver/stm32g4-v120/src/stm32g4xx_hal_fdcan.c:3421:35
	str	r1, [r4, #68]
	.loc	2 3424 3 is_stmt 1              @ ../src/driver/stm32g4-v120/src/stm32g4xx_hal_fdcan.c:3424:3
	ldr.w	r1, [r0, #128]
	bic	r1, r1, #251658240
	orr.w	r1, r1, r3, lsl #24
	str.w	r1, [r0, #128]
	.loc	2 3427 50                       @ ../src/driver/stm32g4-v120/src/stm32g4xx_hal_fdcan.c:3427:50
	add.w	r0, r2, #176
	.loc	2 3427 28 is_stmt 0             @ ../src/driver/stm32g4-v120/src/stm32g4xx_hal_fdcan.c:3427:28
	str	r0, [r4, #72]
	.loc	2 3430 50 is_stmt 1             @ ../src/driver/stm32g4-v120/src/stm32g4xx_hal_fdcan.c:3430:50
	add.w	r0, r2, #392
	.loc	2 3430 28 is_stmt 0             @ ../src/driver/stm32g4-v120/src/stm32g4xx_hal_fdcan.c:3430:28
	str	r0, [r4, #76]
	.loc	2 3433 54 is_stmt 1             @ ../src/driver/stm32g4-v120/src/stm32g4xx_hal_fdcan.c:3433:54
	add.w	r0, r2, #608
	.loc	2 3433 32 is_stmt 0             @ ../src/driver/stm32g4-v120/src/stm32g4xx_hal_fdcan.c:3433:32
	str	r0, [r4, #80]
	.loc	2 3436 50 is_stmt 1             @ ../src/driver/stm32g4-v120/src/stm32g4xx_hal_fdcan.c:3436:50
	add.w	r0, r2, #632
	.loc	2 3436 28 is_stmt 0             @ ../src/driver/stm32g4-v120/src/stm32g4xx_hal_fdcan.c:3436:28
	str	r0, [r4, #84]
.Ltmp53:
	.loc	2 3439 76 is_stmt 1             @ ../src/driver/stm32g4-v120/src/stm32g4xx_hal_fdcan.c:3439:76
	add.w	r0, r2, #848
	movs	r1, #0
.Ltmp54:
	.p2align	2
.LBB0_25:                               @ =>This Inner Loop Header: Depth=1
	@DEBUG_VALUE: FDCAN_CalcultateRamBlockAddresses:hfdcan <- $r4
	@DEBUG_VALUE: HAL_FDCAN_Init:hfdcan <- $r4
	@DEBUG_VALUE: FDCAN_CalcultateRamBlockAddresses:RAMcounter <- $r2
	@DEBUG_VALUE: FDCAN_CalcultateRamBlockAddresses:RAMcounter <- $r2
	.loc	2 3441 31                       @ ../src/driver/stm32g4-v120/src/stm32g4xx_hal_fdcan.c:3441:31
	str	r1, [r2], #4
.Ltmp55:
	@DEBUG_VALUE: FDCAN_CalcultateRamBlockAddresses:RAMcounter <- $r2
	.loc	2 3439 3                        @ ../src/driver/stm32g4-v120/src/stm32g4xx_hal_fdcan.c:3439:3
	cmp	r2, r0
	blo	.LBB0_25
.Ltmp56:
@ %bb.26:
	@DEBUG_VALUE: HAL_FDCAN_Init:hfdcan <- $r4
	.loc	2 0 3 is_stmt 0                 @ ../src/driver/stm32g4-v120/src/stm32g4xx_hal_fdcan.c:0:3
	movs	r0, #0
	movs	r1, #1
	.loc	2 518 32 is_stmt 1              @ ../src/driver/stm32g4-v120/src/stm32g4xx_hal_fdcan.c:518:32
	str	r0, [r4, #88]
	.loc	2 521 21                        @ ../src/driver/stm32g4-v120/src/stm32g4xx_hal_fdcan.c:521:21
	str	r0, [r4, #96]
.Ltmp57:
.LBB0_27:
	@DEBUG_VALUE: HAL_FDCAN_Init:hfdcan <- $r4
	.loc	2 0 0 is_stmt 0                 @ ../src/driver/stm32g4-v120/src/stm32g4xx_hal_fdcan.c:0:0
	strb.w	r1, [r4, #92]
	.loc	2 528 1 is_stmt 1               @ ../src/driver/stm32g4-v120/src/stm32g4xx_hal_fdcan.c:528:1
	pop	{r4, r5, r6, pc}
.Ltmp58:
.Lfunc_end0:
	.size	HAL_FDCAN_Init, .Lfunc_end0-HAL_FDCAN_Init
	.cfi_endproc
	.cantunwind
	.fnend
                                        @ -- End function
	.section	.text.HAL_FDCAN_TxEventFifoCallback,"ax",%progbits
	.hidden	HAL_FDCAN_TxEventFifoCallback   @ -- Begin function HAL_FDCAN_TxEventFifoCallback
	.weak	HAL_FDCAN_TxEventFifoCallback
	.p2align	1
	.type	HAL_FDCAN_TxEventFifoCallback,%function
	.code	16                              @ @HAL_FDCAN_TxEventFifoCallback
	.thumb_func
HAL_FDCAN_TxEventFifoCallback:
.Lfunc_begin1:
	.loc	2 3150 0                        @ ../src/driver/stm32g4-v120/src/stm32g4xx_hal_fdcan.c:3150:0
	.fnstart
	.cfi_startproc
@ %bb.0:
	@DEBUG_VALUE: HAL_FDCAN_TxEventFifoCallback:hfdcan <- $r0
	@DEBUG_VALUE: HAL_FDCAN_TxEventFifoCallback:TxEventFifoITs <- $r1
	.loc	2 3158 1 prologue_end           @ ../src/driver/stm32g4-v120/src/stm32g4xx_hal_fdcan.c:3158:1
	bx	lr
.Ltmp59:
.Lfunc_end1:
	.size	HAL_FDCAN_TxEventFifoCallback, .Lfunc_end1-HAL_FDCAN_TxEventFifoCallback
	.cfi_endproc
	.cantunwind
	.fnend
                                        @ -- End function
	.section	.text.HAL_FDCAN_RxFifo0Callback,"ax",%progbits
	.hidden	HAL_FDCAN_RxFifo0Callback       @ -- Begin function HAL_FDCAN_RxFifo0Callback
	.weak	HAL_FDCAN_RxFifo0Callback
	.p2align	1
	.type	HAL_FDCAN_RxFifo0Callback,%function
	.code	16                              @ @HAL_FDCAN_RxFifo0Callback
	.thumb_func
HAL_FDCAN_RxFifo0Callback:
.Lfunc_begin2:
	.loc	2 3169 0                        @ ../src/driver/stm32g4-v120/src/stm32g4xx_hal_fdcan.c:3169:0
	.fnstart
	.cfi_startproc
@ %bb.0:
	@DEBUG_VALUE: HAL_FDCAN_RxFifo0Callback:hfdcan <- $r0
	@DEBUG_VALUE: HAL_FDCAN_RxFifo0Callback:RxFifo0ITs <- $r1
	.loc	2 3177 1 prologue_end           @ ../src/driver/stm32g4-v120/src/stm32g4xx_hal_fdcan.c:3177:1
	bx	lr
.Ltmp60:
.Lfunc_end2:
	.size	HAL_FDCAN_RxFifo0Callback, .Lfunc_end2-HAL_FDCAN_RxFifo0Callback
	.cfi_endproc
	.cantunwind
	.fnend
                                        @ -- End function
	.section	.text.HAL_FDCAN_RxFifo1Callback,"ax",%progbits
	.hidden	HAL_FDCAN_RxFifo1Callback       @ -- Begin function HAL_FDCAN_RxFifo1Callback
	.weak	HAL_FDCAN_RxFifo1Callback
	.p2align	1
	.type	HAL_FDCAN_RxFifo1Callback,%function
	.code	16                              @ @HAL_FDCAN_RxFifo1Callback
	.thumb_func
HAL_FDCAN_RxFifo1Callback:
.Lfunc_begin3:
	.loc	2 3188 0                        @ ../src/driver/stm32g4-v120/src/stm32g4xx_hal_fdcan.c:3188:0
	.fnstart
	.cfi_startproc
@ %bb.0:
	@DEBUG_VALUE: HAL_FDCAN_RxFifo1Callback:hfdcan <- $r0
	@DEBUG_VALUE: HAL_FDCAN_RxFifo1Callback:RxFifo1ITs <- $r1
	.loc	2 3196 1 prologue_end           @ ../src/driver/stm32g4-v120/src/stm32g4xx_hal_fdcan.c:3196:1
	bx	lr
.Ltmp61:
.Lfunc_end3:
	.size	HAL_FDCAN_RxFifo1Callback, .Lfunc_end3-HAL_FDCAN_RxFifo1Callback
	.cfi_endproc
	.cantunwind
	.fnend
                                        @ -- End function
	.section	.text.HAL_FDCAN_TxFifoEmptyCallback,"ax",%progbits
	.hidden	HAL_FDCAN_TxFifoEmptyCallback   @ -- Begin function HAL_FDCAN_TxFifoEmptyCallback
	.weak	HAL_FDCAN_TxFifoEmptyCallback
	.p2align	1
	.type	HAL_FDCAN_TxFifoEmptyCallback,%function
	.code	16                              @ @HAL_FDCAN_TxFifoEmptyCallback
	.thumb_func
HAL_FDCAN_TxFifoEmptyCallback:
.Lfunc_begin4:
	.loc	2 3205 0                        @ ../src/driver/stm32g4-v120/src/stm32g4xx_hal_fdcan.c:3205:0
	.fnstart
	.cfi_startproc
@ %bb.0:
	@DEBUG_VALUE: HAL_FDCAN_TxFifoEmptyCallback:hfdcan <- $r0
	.loc	2 3212 1 prologue_end           @ ../src/driver/stm32g4-v120/src/stm32g4xx_hal_fdcan.c:3212:1
	bx	lr
.Ltmp62:
.Lfunc_end4:
	.size	HAL_FDCAN_TxFifoEmptyCallback, .Lfunc_end4-HAL_FDCAN_TxFifoEmptyCallback
	.cfi_endproc
	.cantunwind
	.fnend
                                        @ -- End function
	.section	.text.HAL_FDCAN_TxBufferCompleteCallback,"ax",%progbits
	.hidden	HAL_FDCAN_TxBufferCompleteCallback @ -- Begin function HAL_FDCAN_TxBufferCompleteCallback
	.weak	HAL_FDCAN_TxBufferCompleteCallback
	.p2align	1
	.type	HAL_FDCAN_TxBufferCompleteCallback,%function
	.code	16                              @ @HAL_FDCAN_TxBufferCompleteCallback
	.thumb_func
HAL_FDCAN_TxBufferCompleteCallback:
.Lfunc_begin5:
	.loc	2 3223 0                        @ ../src/driver/stm32g4-v120/src/stm32g4xx_hal_fdcan.c:3223:0
	.fnstart
	.cfi_startproc
@ %bb.0:
	@DEBUG_VALUE: HAL_FDCAN_TxBufferCompleteCallback:hfdcan <- $r0
	@DEBUG_VALUE: HAL_FDCAN_TxBufferCompleteCallback:BufferIndexes <- $r1
	.loc	2 3231 1 prologue_end           @ ../src/driver/stm32g4-v120/src/stm32g4xx_hal_fdcan.c:3231:1
	bx	lr
.Ltmp63:
.Lfunc_end5:
	.size	HAL_FDCAN_TxBufferCompleteCallback, .Lfunc_end5-HAL_FDCAN_TxBufferCompleteCallback
	.cfi_endproc
	.cantunwind
	.fnend
                                        @ -- End function
	.section	.text.HAL_FDCAN_TxBufferAbortCallback,"ax",%progbits
	.hidden	HAL_FDCAN_TxBufferAbortCallback @ -- Begin function HAL_FDCAN_TxBufferAbortCallback
	.weak	HAL_FDCAN_TxBufferAbortCallback
	.p2align	1
	.type	HAL_FDCAN_TxBufferAbortCallback,%function
	.code	16                              @ @HAL_FDCAN_TxBufferAbortCallback
	.thumb_func
HAL_FDCAN_TxBufferAbortCallback:
.Lfunc_begin6:
	.loc	2 3242 0                        @ ../src/driver/stm32g4-v120/src/stm32g4xx_hal_fdcan.c:3242:0
	.fnstart
	.cfi_startproc
@ %bb.0:
	@DEBUG_VALUE: HAL_FDCAN_TxBufferAbortCallback:hfdcan <- $r0
	@DEBUG_VALUE: HAL_FDCAN_TxBufferAbortCallback:BufferIndexes <- $r1
	.loc	2 3250 1 prologue_end           @ ../src/driver/stm32g4-v120/src/stm32g4xx_hal_fdcan.c:3250:1
	bx	lr
.Ltmp64:
.Lfunc_end6:
	.size	HAL_FDCAN_TxBufferAbortCallback, .Lfunc_end6-HAL_FDCAN_TxBufferAbortCallback
	.cfi_endproc
	.cantunwind
	.fnend
                                        @ -- End function
	.section	.text.HAL_FDCAN_HighPriorityMessageCallback,"ax",%progbits
	.hidden	HAL_FDCAN_HighPriorityMessageCallback @ -- Begin function HAL_FDCAN_HighPriorityMessageCallback
	.weak	HAL_FDCAN_HighPriorityMessageCallback
	.p2align	1
	.type	HAL_FDCAN_HighPriorityMessageCallback,%function
	.code	16                              @ @HAL_FDCAN_HighPriorityMessageCallback
	.thumb_func
HAL_FDCAN_HighPriorityMessageCallback:
.Lfunc_begin7:
	.loc	2 3291 0                        @ ../src/driver/stm32g4-v120/src/stm32g4xx_hal_fdcan.c:3291:0
	.fnstart
	.cfi_startproc
@ %bb.0:
	@DEBUG_VALUE: HAL_FDCAN_HighPriorityMessageCallback:hfdcan <- $r0
	.loc	2 3298 1 prologue_end           @ ../src/driver/stm32g4-v120/src/stm32g4xx_hal_fdcan.c:3298:1
	bx	lr
.Ltmp65:
.Lfunc_end7:
	.size	HAL_FDCAN_HighPriorityMessageCallback, .Lfunc_end7-HAL_FDCAN_HighPriorityMessageCallback
	.cfi_endproc
	.cantunwind
	.fnend
                                        @ -- End function
	.section	.text.HAL_FDCAN_TimestampWraparoundCallback,"ax",%progbits
	.hidden	HAL_FDCAN_TimestampWraparoundCallback @ -- Begin function HAL_FDCAN_TimestampWraparoundCallback
	.weak	HAL_FDCAN_TimestampWraparoundCallback
	.p2align	1
	.type	HAL_FDCAN_TimestampWraparoundCallback,%function
	.code	16                              @ @HAL_FDCAN_TimestampWraparoundCallback
	.thumb_func
HAL_FDCAN_TimestampWraparoundCallback:
.Lfunc_begin8:
	.loc	2 3259 0                        @ ../src/driver/stm32g4-v120/src/stm32g4xx_hal_fdcan.c:3259:0
	.fnstart
	.cfi_startproc
@ %bb.0:
	@DEBUG_VALUE: HAL_FDCAN_TimestampWraparoundCallback:hfdcan <- $r0
	.loc	2 3266 1 prologue_end           @ ../src/driver/stm32g4-v120/src/stm32g4xx_hal_fdcan.c:3266:1
	bx	lr
.Ltmp66:
.Lfunc_end8:
	.size	HAL_FDCAN_TimestampWraparoundCallback, .Lfunc_end8-HAL_FDCAN_TimestampWraparoundCallback
	.cfi_endproc
	.cantunwind
	.fnend
                                        @ -- End function
	.section	.text.HAL_FDCAN_TimeoutOccurredCallback,"ax",%progbits
	.hidden	HAL_FDCAN_TimeoutOccurredCallback @ -- Begin function HAL_FDCAN_TimeoutOccurredCallback
	.weak	HAL_FDCAN_TimeoutOccurredCallback
	.p2align	1
	.type	HAL_FDCAN_TimeoutOccurredCallback,%function
	.code	16                              @ @HAL_FDCAN_TimeoutOccurredCallback
	.thumb_func
HAL_FDCAN_TimeoutOccurredCallback:
.Lfunc_begin9:
	.loc	2 3275 0                        @ ../src/driver/stm32g4-v120/src/stm32g4xx_hal_fdcan.c:3275:0
	.fnstart
	.cfi_startproc
@ %bb.0:
	@DEBUG_VALUE: HAL_FDCAN_TimeoutOccurredCallback:hfdcan <- $r0
	.loc	2 3282 1 prologue_end           @ ../src/driver/stm32g4-v120/src/stm32g4xx_hal_fdcan.c:3282:1
	bx	lr
.Ltmp67:
.Lfunc_end9:
	.size	HAL_FDCAN_TimeoutOccurredCallback, .Lfunc_end9-HAL_FDCAN_TimeoutOccurredCallback
	.cfi_endproc
	.cantunwind
	.fnend
                                        @ -- End function
	.section	.text.HAL_FDCAN_ErrorCallback,"ax",%progbits
	.hidden	HAL_FDCAN_ErrorCallback         @ -- Begin function HAL_FDCAN_ErrorCallback
	.weak	HAL_FDCAN_ErrorCallback
	.p2align	1
	.type	HAL_FDCAN_ErrorCallback,%function
	.code	16                              @ @HAL_FDCAN_ErrorCallback
	.thumb_func
HAL_FDCAN_ErrorCallback:
.Lfunc_begin10:
	.loc	2 3307 0                        @ ../src/driver/stm32g4-v120/src/stm32g4xx_hal_fdcan.c:3307:0
	.fnstart
	.cfi_startproc
@ %bb.0:
	@DEBUG_VALUE: HAL_FDCAN_ErrorCallback:hfdcan <- $r0
	.loc	2 3314 1 prologue_end           @ ../src/driver/stm32g4-v120/src/stm32g4xx_hal_fdcan.c:3314:1
	bx	lr
.Ltmp68:
.Lfunc_end10:
	.size	HAL_FDCAN_ErrorCallback, .Lfunc_end10-HAL_FDCAN_ErrorCallback
	.cfi_endproc
	.cantunwind
	.fnend
                                        @ -- End function
	.section	.text.HAL_FDCAN_ErrorStatusCallback,"ax",%progbits
	.hidden	HAL_FDCAN_ErrorStatusCallback   @ -- Begin function HAL_FDCAN_ErrorStatusCallback
	.weak	HAL_FDCAN_ErrorStatusCallback
	.p2align	1
	.type	HAL_FDCAN_ErrorStatusCallback,%function
	.code	16                              @ @HAL_FDCAN_ErrorStatusCallback
	.thumb_func
HAL_FDCAN_ErrorStatusCallback:
.Lfunc_begin11:
	.loc	2 3325 0                        @ ../src/driver/stm32g4-v120/src/stm32g4xx_hal_fdcan.c:3325:0
	.fnstart
	.cfi_startproc
@ %bb.0:
	@DEBUG_VALUE: HAL_FDCAN_ErrorStatusCallback:hfdcan <- $r0
	@DEBUG_VALUE: HAL_FDCAN_ErrorStatusCallback:ErrorStatusITs <- $r1
	.loc	2 3333 1 prologue_end           @ ../src/driver/stm32g4-v120/src/stm32g4xx_hal_fdcan.c:3333:1
	bx	lr
.Ltmp69:
.Lfunc_end11:
	.size	HAL_FDCAN_ErrorStatusCallback, .Lfunc_end11-HAL_FDCAN_ErrorStatusCallback
	.cfi_endproc
	.cantunwind
	.fnend
                                        @ -- End function
	.section	.text.HAL_FDCAN_MspInit,"ax",%progbits
	.hidden	HAL_FDCAN_MspInit               @ -- Begin function HAL_FDCAN_MspInit
	.weak	HAL_FDCAN_MspInit
	.p2align	1
	.type	HAL_FDCAN_MspInit,%function
	.code	16                              @ @HAL_FDCAN_MspInit
	.thumb_func
HAL_FDCAN_MspInit:
.Lfunc_begin12:
	.loc	2 583 0                         @ ../src/driver/stm32g4-v120/src/stm32g4xx_hal_fdcan.c:583:0
	.fnstart
	.cfi_startproc
@ %bb.0:
	@DEBUG_VALUE: HAL_FDCAN_MspInit:hfdcan <- $r0
	.loc	2 589 1 prologue_end            @ ../src/driver/stm32g4-v120/src/stm32g4xx_hal_fdcan.c:589:1
	bx	lr
.Ltmp70:
.Lfunc_end12:
	.size	HAL_FDCAN_MspInit, .Lfunc_end12-HAL_FDCAN_MspInit
	.cfi_endproc
	.cantunwind
	.fnend
                                        @ -- End function
	.section	.text.HAL_FDCAN_DeInit,"ax",%progbits
	.hidden	HAL_FDCAN_DeInit                @ -- Begin function HAL_FDCAN_DeInit
	.globl	HAL_FDCAN_DeInit
	.p2align	1
	.type	HAL_FDCAN_DeInit,%function
	.code	16                              @ @HAL_FDCAN_DeInit
	.thumb_func
HAL_FDCAN_DeInit:
.Lfunc_begin13:
	.loc	2 537 0                         @ ../src/driver/stm32g4-v120/src/stm32g4xx_hal_fdcan.c:537:0
	.fnstart
	.cfi_startproc
@ %bb.0:
	@DEBUG_VALUE: HAL_FDCAN_DeInit:hfdcan <- $r0
	@DEBUG_VALUE: HAL_FDCAN_DeInit:hfdcan <- $r0
	.loc	2 539 7 prologue_end            @ ../src/driver/stm32g4-v120/src/stm32g4xx_hal_fdcan.c:539:7
	cbz	r0, .LBB13_4
.Ltmp71:
@ %bb.1:
	@DEBUG_VALUE: HAL_FDCAN_DeInit:hfdcan <- $r0
	.save	{r4, lr}
	push	{r4, lr}
	.cfi_def_cfa_offset 8
	.cfi_offset lr, -4
	.cfi_offset r4, -8
	mov	r4, r0
.Ltmp72:
	@DEBUG_VALUE: HAL_FDCAN_DeInit:hfdcan <- $r4
	.loc	2 548 9                         @ ../src/driver/stm32g4-v120/src/stm32g4xx_hal_fdcan.c:548:9
	bl	HAL_FDCAN_Stop
.Ltmp73:
	.loc	2 551 3                         @ ../src/driver/stm32g4-v120/src/stm32g4xx_hal_fdcan.c:551:3
	ldr	r0, [r4]
.Ltmp74:
	.loc	2 554 15                        @ ../src/driver/stm32g4-v120/src/stm32g4xx_hal_fdcan.c:554:15
	ldr.w	r1, [r4, #148]
.Ltmp75:
	.loc	2 551 3                         @ ../src/driver/stm32g4-v120/src/stm32g4xx_hal_fdcan.c:551:3
	ldr	r2, [r0, #92]
	bic	r2, r2, #3
	str	r2, [r0, #92]
	.loc	2 554 7                         @ ../src/driver/stm32g4-v120/src/stm32g4xx_hal_fdcan.c:554:7
	cbnz	r1, .LBB13_3
.Ltmp76:
@ %bb.2:
	@DEBUG_VALUE: HAL_FDCAN_DeInit:hfdcan <- $r4
	.loc	2 556 31                        @ ../src/driver/stm32g4-v120/src/stm32g4xx_hal_fdcan.c:556:31
	movw	r1, :lower16:HAL_FDCAN_MspDeInit
	movt	r1, :upper16:HAL_FDCAN_MspDeInit
	str.w	r1, [r4, #148]
.Ltmp77:
.LBB13_3:
	@DEBUG_VALUE: HAL_FDCAN_DeInit:hfdcan <- $r4
	.loc	2 560 3                         @ ../src/driver/stm32g4-v120/src/stm32g4xx_hal_fdcan.c:560:3
	mov	r0, r4
	blx	r1
.Ltmp78:
	.loc	2 0 3 is_stmt 0                 @ ../src/driver/stm32g4-v120/src/stm32g4xx_hal_fdcan.c:0:3
	movs	r0, #0
	.loc	2 567 21 is_stmt 1              @ ../src/driver/stm32g4-v120/src/stm32g4xx_hal_fdcan.c:567:21
	str	r0, [r4, #96]
	.loc	2 570 17                        @ ../src/driver/stm32g4-v120/src/stm32g4xx_hal_fdcan.c:570:17
	strb.w	r0, [r4, #92]
	pop	{r4, pc}
.Ltmp79:
.LBB13_4:
	@DEBUG_VALUE: HAL_FDCAN_DeInit:hfdcan <- $r0
	.loc	2 0 17 is_stmt 0                @ ../src/driver/stm32g4-v120/src/stm32g4xx_hal_fdcan.c:0:17
	movs	r0, #1
.Ltmp80:
	@DEBUG_VALUE: HAL_FDCAN_DeInit:hfdcan <- [DW_OP_LLVM_entry_value 1] $r0
	.loc	2 574 1 is_stmt 1               @ ../src/driver/stm32g4-v120/src/stm32g4xx_hal_fdcan.c:574:1
	bx	lr
.Ltmp81:
.Lfunc_end13:
	.size	HAL_FDCAN_DeInit, .Lfunc_end13-HAL_FDCAN_DeInit
	.cfi_endproc
	.cantunwind
	.fnend
                                        @ -- End function
	.section	.text.HAL_FDCAN_Stop,"ax",%progbits
	.hidden	HAL_FDCAN_Stop                  @ -- Begin function HAL_FDCAN_Stop
	.globl	HAL_FDCAN_Stop
	.p2align	1
	.type	HAL_FDCAN_Stop,%function
	.code	16                              @ @HAL_FDCAN_Stop
	.thumb_func
HAL_FDCAN_Stop:
.Lfunc_begin14:
	.loc	2 2026 0                        @ ../src/driver/stm32g4-v120/src/stm32g4xx_hal_fdcan.c:2026:0
	.fnstart
	.cfi_startproc
@ %bb.0:
	@DEBUG_VALUE: HAL_FDCAN_Stop:hfdcan <- $r0
	@DEBUG_VALUE: HAL_FDCAN_Stop:hfdcan <- $r0
	@DEBUG_VALUE: HAL_FDCAN_Stop:Counter <- 0
	.loc	2 2029 15 prologue_end          @ ../src/driver/stm32g4-v120/src/stm32g4xx_hal_fdcan.c:2029:15
	ldrb.w	r1, [r0, #92]
.Ltmp82:
	.loc	2 2029 7 is_stmt 0              @ ../src/driver/stm32g4-v120/src/stm32g4xx_hal_fdcan.c:2029:7
	cmp	r1, #2
	bne	.LBB14_10
.Ltmp83:
@ %bb.1:
	@DEBUG_VALUE: HAL_FDCAN_Stop:hfdcan <- $r0
	@DEBUG_VALUE: HAL_FDCAN_Stop:Counter <- 0
	.loc	2 2032 5 is_stmt 1              @ ../src/driver/stm32g4-v120/src/stm32g4xx_hal_fdcan.c:2032:5
	ldr	r1, [r0]
	ldr	r2, [r1, #24]
	orr	r2, r2, #1
	str	r2, [r1, #24]
	@DEBUG_VALUE: HAL_FDCAN_Stop:Counter <- 0
	.loc	2 2035 31                       @ ../src/driver/stm32g4-v120/src/stm32g4xx_hal_fdcan.c:2035:31
	ldr	r2, [r1, #24]
	.loc	2 2035 5 is_stmt 0              @ ../src/driver/stm32g4-v120/src/stm32g4xx_hal_fdcan.c:2035:5
	lsls	r2, r2, #31
	bne	.LBB14_5
.Ltmp84:
@ %bb.2:
	@DEBUG_VALUE: HAL_FDCAN_Stop:hfdcan <- $r0
	@DEBUG_VALUE: HAL_FDCAN_Stop:Counter <- 0
	.loc	2 0 5                           @ ../src/driver/stm32g4-v120/src/stm32g4xx_hal_fdcan.c:0:5
	movs	r2, #12
.Ltmp85:
	.p2align	2
.LBB14_3:                               @ =>This Inner Loop Header: Depth=1
	@DEBUG_VALUE: HAL_FDCAN_Stop:hfdcan <- $r0
	@DEBUG_VALUE: HAL_FDCAN_Stop:Counter <- [DW_OP_plus_uconst 1, DW_OP_stack_value] undef
	.loc	2 2038 19 is_stmt 1             @ ../src/driver/stm32g4-v120/src/stm32g4xx_hal_fdcan.c:2038:19
	subs	r2, #1
.Ltmp86:
	.loc	2 2038 11 is_stmt 0             @ ../src/driver/stm32g4-v120/src/stm32g4xx_hal_fdcan.c:2038:11
	beq	.LBB14_11
.Ltmp87:
@ %bb.4:                                @   in Loop: Header=BB14_3 Depth=1
	@DEBUG_VALUE: HAL_FDCAN_Stop:hfdcan <- $r0
	@DEBUG_VALUE: HAL_FDCAN_Stop:Counter <- [DW_OP_plus_uconst 1, DW_OP_stack_value] undef
	.loc	2 2035 31 is_stmt 1             @ ../src/driver/stm32g4-v120/src/stm32g4xx_hal_fdcan.c:2035:31
	ldr	r3, [r1, #24]
	.loc	2 2035 5 is_stmt 0              @ ../src/driver/stm32g4-v120/src/stm32g4xx_hal_fdcan.c:2035:5
	lsls	r3, r3, #31
	beq	.LBB14_3
.Ltmp88:
.LBB14_5:
	@DEBUG_VALUE: HAL_FDCAN_Stop:hfdcan <- $r0
	@DEBUG_VALUE: HAL_FDCAN_Stop:Counter <- 0
	.loc	2 2057 5 is_stmt 1              @ ../src/driver/stm32g4-v120/src/stm32g4xx_hal_fdcan.c:2057:5
	ldr	r2, [r1, #24]
	bic	r2, r2, #16
	str	r2, [r1, #24]
	.loc	2 2060 31                       @ ../src/driver/stm32g4-v120/src/stm32g4xx_hal_fdcan.c:2060:31
	ldr	r2, [r1, #24]
	.loc	2 2060 5 is_stmt 0              @ ../src/driver/stm32g4-v120/src/stm32g4xx_hal_fdcan.c:2060:5
	lsls	r2, r2, #28
	bpl	.LBB14_9
.Ltmp89:
@ %bb.6:
	@DEBUG_VALUE: HAL_FDCAN_Stop:hfdcan <- $r0
	@DEBUG_VALUE: HAL_FDCAN_Stop:Counter <- 0
	.loc	2 0 5                           @ ../src/driver/stm32g4-v120/src/stm32g4xx_hal_fdcan.c:0:5
	movs	r2, #12
.Ltmp90:
	.p2align	2
.LBB14_7:                               @ =>This Inner Loop Header: Depth=1
	@DEBUG_VALUE: HAL_FDCAN_Stop:hfdcan <- $r0
	@DEBUG_VALUE: HAL_FDCAN_Stop:Counter <- [DW_OP_plus_uconst 1, DW_OP_stack_value] undef
	.loc	2 2063 19 is_stmt 1             @ ../src/driver/stm32g4-v120/src/stm32g4xx_hal_fdcan.c:2063:19
	subs	r2, #1
.Ltmp91:
	.loc	2 2063 11 is_stmt 0             @ ../src/driver/stm32g4-v120/src/stm32g4xx_hal_fdcan.c:2063:11
	beq	.LBB14_11
.Ltmp92:
@ %bb.8:                                @   in Loop: Header=BB14_7 Depth=1
	@DEBUG_VALUE: HAL_FDCAN_Stop:hfdcan <- $r0
	@DEBUG_VALUE: HAL_FDCAN_Stop:Counter <- [DW_OP_plus_uconst 1, DW_OP_stack_value] undef
	.loc	2 2060 31 is_stmt 1             @ ../src/driver/stm32g4-v120/src/stm32g4xx_hal_fdcan.c:2060:31
	ldr	r3, [r1, #24]
	.loc	2 2060 5 is_stmt 0              @ ../src/driver/stm32g4-v120/src/stm32g4xx_hal_fdcan.c:2060:5
	lsls	r3, r3, #28
	bmi	.LBB14_7
.Ltmp93:
.LBB14_9:
	@DEBUG_VALUE: HAL_FDCAN_Stop:hfdcan <- $r0
	.loc	2 2079 5 is_stmt 1              @ ../src/driver/stm32g4-v120/src/stm32g4xx_hal_fdcan.c:2079:5
	ldr	r2, [r1, #24]
	orr	r2, r2, #2
	str	r2, [r1, #24]
	movs	r1, #0
	movs	r2, #1
	.loc	2 2082 34                       @ ../src/driver/stm32g4-v120/src/stm32g4xx_hal_fdcan.c:2082:34
	str	r1, [r0, #88]
	.loc	2 2085 19                       @ ../src/driver/stm32g4-v120/src/stm32g4xx_hal_fdcan.c:2085:19
	strb.w	r2, [r0, #92]
	b	.LBB14_13
.Ltmp94:
.LBB14_10:
	@DEBUG_VALUE: HAL_FDCAN_Stop:hfdcan <- $r0
	@DEBUG_VALUE: HAL_FDCAN_Stop:Counter <- 0
	.loc	2 2093 23                       @ ../src/driver/stm32g4-v120/src/stm32g4xx_hal_fdcan.c:2093:23
	ldr	r1, [r0, #96]
	orr	r1, r1, #8
	str	r1, [r0, #96]
	b	.LBB14_12
.Ltmp95:
.LBB14_11:
	@DEBUG_VALUE: HAL_FDCAN_Stop:hfdcan <- $r0
	.loc	2 0 0 is_stmt 0                 @ ../src/driver/stm32g4-v120/src/stm32g4xx_hal_fdcan.c:0:0
	ldr	r1, [r0, #96]
	orr	r1, r1, #1
	str	r1, [r0, #96]
	movs	r1, #3
	strb.w	r1, [r0, #92]
.Ltmp96:
.LBB14_12:
	@DEBUG_VALUE: HAL_FDCAN_Stop:hfdcan <- $r0
	movs	r1, #1
.Ltmp97:
.LBB14_13:
	@DEBUG_VALUE: HAL_FDCAN_Stop:hfdcan <- $r0
	.loc	2 2097 1 is_stmt 1              @ ../src/driver/stm32g4-v120/src/stm32g4xx_hal_fdcan.c:2097:1
	mov	r0, r1
.Ltmp98:
	@DEBUG_VALUE: HAL_FDCAN_Stop:hfdcan <- [DW_OP_LLVM_entry_value 1] $r0
	bx	lr
.Ltmp99:
.Lfunc_end14:
	.size	HAL_FDCAN_Stop, .Lfunc_end14-HAL_FDCAN_Stop
	.cfi_endproc
	.cantunwind
	.fnend
                                        @ -- End function
	.section	.text.HAL_FDCAN_MspDeInit,"ax",%progbits
	.hidden	HAL_FDCAN_MspDeInit             @ -- Begin function HAL_FDCAN_MspDeInit
	.weak	HAL_FDCAN_MspDeInit
	.p2align	1
	.type	HAL_FDCAN_MspDeInit,%function
	.code	16                              @ @HAL_FDCAN_MspDeInit
	.thumb_func
HAL_FDCAN_MspDeInit:
.Lfunc_begin15:
	.loc	2 598 0                         @ ../src/driver/stm32g4-v120/src/stm32g4xx_hal_fdcan.c:598:0
	.fnstart
	.cfi_startproc
@ %bb.0:
	@DEBUG_VALUE: HAL_FDCAN_MspDeInit:hfdcan <- $r0
	.loc	2 604 1 prologue_end            @ ../src/driver/stm32g4-v120/src/stm32g4xx_hal_fdcan.c:604:1
	bx	lr
.Ltmp100:
.Lfunc_end15:
	.size	HAL_FDCAN_MspDeInit, .Lfunc_end15-HAL_FDCAN_MspDeInit
	.cfi_endproc
	.cantunwind
	.fnend
                                        @ -- End function
	.section	.text.HAL_FDCAN_EnterPowerDownMode,"ax",%progbits
	.hidden	HAL_FDCAN_EnterPowerDownMode    @ -- Begin function HAL_FDCAN_EnterPowerDownMode
	.globl	HAL_FDCAN_EnterPowerDownMode
	.p2align	1
	.type	HAL_FDCAN_EnterPowerDownMode,%function
	.code	16                              @ @HAL_FDCAN_EnterPowerDownMode
	.thumb_func
HAL_FDCAN_EnterPowerDownMode:
.Lfunc_begin16:
	.loc	2 613 0                         @ ../src/driver/stm32g4-v120/src/stm32g4xx_hal_fdcan.c:613:0
	.fnstart
	.cfi_startproc
@ %bb.0:
	@DEBUG_VALUE: HAL_FDCAN_EnterPowerDownMode:hfdcan <- $r0
	.save	{r4, r5, r7, lr}
	push	{r4, r5, r7, lr}
	.cfi_def_cfa_offset 16
	.cfi_offset lr, -4
	.cfi_offset r7, -8
	.cfi_offset r5, -12
	.cfi_offset r4, -16
	mov	r4, r0
.Ltmp101:
	@DEBUG_VALUE: HAL_FDCAN_EnterPowerDownMode:hfdcan <- $r4
	.loc	2 617 3 prologue_end            @ ../src/driver/stm32g4-v120/src/stm32g4xx_hal_fdcan.c:617:3
	ldr	r0, [r0]
	ldr	r1, [r0, #24]
	orr	r1, r1, #16
	str	r1, [r0, #24]
	.loc	2 620 15                        @ ../src/driver/stm32g4-v120/src/stm32g4xx_hal_fdcan.c:620:15
	bl	HAL_GetTick
.Ltmp102:
	mov	r5, r0
.Ltmp103:
	@DEBUG_VALUE: HAL_FDCAN_EnterPowerDownMode:tickstart <- $r5
	.p2align	2
.LBB16_1:                               @ =>This Inner Loop Header: Depth=1
	@DEBUG_VALUE: HAL_FDCAN_EnterPowerDownMode:tickstart <- $r5
	@DEBUG_VALUE: HAL_FDCAN_EnterPowerDownMode:hfdcan <- $r4
	.loc	2 623 19                        @ ../src/driver/stm32g4-v120/src/stm32g4xx_hal_fdcan.c:623:19
	ldr	r0, [r4]
	.loc	2 623 29 is_stmt 0              @ ../src/driver/stm32g4-v120/src/stm32g4xx_hal_fdcan.c:623:29
	ldr	r0, [r0, #24]
	.loc	2 623 3                         @ ../src/driver/stm32g4-v120/src/stm32g4xx_hal_fdcan.c:623:3
	lsls	r0, r0, #28
	bmi	.LBB16_4
.Ltmp104:
@ %bb.2:                                @   in Loop: Header=BB16_1 Depth=1
	@DEBUG_VALUE: HAL_FDCAN_EnterPowerDownMode:tickstart <- $r5
	@DEBUG_VALUE: HAL_FDCAN_EnterPowerDownMode:hfdcan <- $r4
	.loc	2 625 10 is_stmt 1              @ ../src/driver/stm32g4-v120/src/stm32g4xx_hal_fdcan.c:625:10
	bl	HAL_GetTick
.Ltmp105:
	.loc	2 625 24 is_stmt 0              @ ../src/driver/stm32g4-v120/src/stm32g4xx_hal_fdcan.c:625:24
	subs	r0, r0, r5
.Ltmp106:
	.loc	2 625 9                         @ ../src/driver/stm32g4-v120/src/stm32g4xx_hal_fdcan.c:625:9
	cmp	r0, #11
	blo	.LBB16_1
.Ltmp107:
@ %bb.3:
	@DEBUG_VALUE: HAL_FDCAN_EnterPowerDownMode:tickstart <- $r5
	@DEBUG_VALUE: HAL_FDCAN_EnterPowerDownMode:hfdcan <- $r4
	.loc	2 628 25 is_stmt 1              @ ../src/driver/stm32g4-v120/src/stm32g4xx_hal_fdcan.c:628:25
	ldr	r0, [r4, #96]
	orr	r0, r0, #1
	str	r0, [r4, #96]
	movs	r0, #3
	.loc	2 631 21                        @ ../src/driver/stm32g4-v120/src/stm32g4xx_hal_fdcan.c:631:21
	strb.w	r0, [r4, #92]
	movs	r0, #1
.Ltmp108:
	.loc	2 639 1                         @ ../src/driver/stm32g4-v120/src/stm32g4xx_hal_fdcan.c:639:1
	pop	{r4, r5, r7, pc}
.Ltmp109:
.LBB16_4:
	@DEBUG_VALUE: HAL_FDCAN_EnterPowerDownMode:tickstart <- $r5
	@DEBUG_VALUE: HAL_FDCAN_EnterPowerDownMode:hfdcan <- $r4
	.loc	2 0 1 is_stmt 0                 @ ../src/driver/stm32g4-v120/src/stm32g4xx_hal_fdcan.c:0:1
	movs	r0, #0
	.loc	2 639 1                         @ ../src/driver/stm32g4-v120/src/stm32g4xx_hal_fdcan.c:639:1
	pop	{r4, r5, r7, pc}
.Ltmp110:
.Lfunc_end16:
	.size	HAL_FDCAN_EnterPowerDownMode, .Lfunc_end16-HAL_FDCAN_EnterPowerDownMode
	.cfi_endproc
	.cantunwind
	.fnend
                                        @ -- End function
	.section	.text.HAL_FDCAN_ExitPowerDownMode,"ax",%progbits
	.hidden	HAL_FDCAN_ExitPowerDownMode     @ -- Begin function HAL_FDCAN_ExitPowerDownMode
	.globl	HAL_FDCAN_ExitPowerDownMode
	.p2align	1
	.type	HAL_FDCAN_ExitPowerDownMode,%function
	.code	16                              @ @HAL_FDCAN_ExitPowerDownMode
	.thumb_func
HAL_FDCAN_ExitPowerDownMode:
.Lfunc_begin17:
	.loc	2 648 0 is_stmt 1               @ ../src/driver/stm32g4-v120/src/stm32g4xx_hal_fdcan.c:648:0
	.fnstart
	.cfi_startproc
@ %bb.0:
	@DEBUG_VALUE: HAL_FDCAN_ExitPowerDownMode:hfdcan <- $r0
	.save	{r4, r5, r7, lr}
	push	{r4, r5, r7, lr}
	.cfi_def_cfa_offset 16
	.cfi_offset lr, -4
	.cfi_offset r7, -8
	.cfi_offset r5, -12
	.cfi_offset r4, -16
	mov	r4, r0
.Ltmp111:
	@DEBUG_VALUE: HAL_FDCAN_ExitPowerDownMode:hfdcan <- $r4
	.loc	2 652 3 prologue_end            @ ../src/driver/stm32g4-v120/src/stm32g4xx_hal_fdcan.c:652:3
	ldr	r0, [r0]
	ldr	r1, [r0, #24]
	bic	r1, r1, #16
	str	r1, [r0, #24]
	.loc	2 655 15                        @ ../src/driver/stm32g4-v120/src/stm32g4xx_hal_fdcan.c:655:15
	bl	HAL_GetTick
.Ltmp112:
	mov	r5, r0
.Ltmp113:
	@DEBUG_VALUE: HAL_FDCAN_ExitPowerDownMode:tickstart <- $r5
	.p2align	2
.LBB17_1:                               @ =>This Inner Loop Header: Depth=1
	@DEBUG_VALUE: HAL_FDCAN_ExitPowerDownMode:tickstart <- $r5
	@DEBUG_VALUE: HAL_FDCAN_ExitPowerDownMode:hfdcan <- $r4
	.loc	2 658 19                        @ ../src/driver/stm32g4-v120/src/stm32g4xx_hal_fdcan.c:658:19
	ldr	r0, [r4]
	.loc	2 658 29 is_stmt 0              @ ../src/driver/stm32g4-v120/src/stm32g4xx_hal_fdcan.c:658:29
	ldr	r1, [r0, #24]
	.loc	2 658 3                         @ ../src/driver/stm32g4-v120/src/stm32g4xx_hal_fdcan.c:658:3
	lsls	r1, r1, #28
	bpl	.LBB17_4
.Ltmp114:
@ %bb.2:                                @   in Loop: Header=BB17_1 Depth=1
	@DEBUG_VALUE: HAL_FDCAN_ExitPowerDownMode:tickstart <- $r5
	@DEBUG_VALUE: HAL_FDCAN_ExitPowerDownMode:hfdcan <- $r4
	.loc	2 660 10 is_stmt 1              @ ../src/driver/stm32g4-v120/src/stm32g4xx_hal_fdcan.c:660:10
	bl	HAL_GetTick
.Ltmp115:
	.loc	2 660 24 is_stmt 0              @ ../src/driver/stm32g4-v120/src/stm32g4xx_hal_fdcan.c:660:24
	subs	r0, r0, r5
.Ltmp116:
	.loc	2 660 9                         @ ../src/driver/stm32g4-v120/src/stm32g4xx_hal_fdcan.c:660:9
	cmp	r0, #11
	blo	.LBB17_1
.Ltmp117:
@ %bb.3:
	@DEBUG_VALUE: HAL_FDCAN_ExitPowerDownMode:tickstart <- $r5
	@DEBUG_VALUE: HAL_FDCAN_ExitPowerDownMode:hfdcan <- $r4
	.loc	2 663 25 is_stmt 1              @ ../src/driver/stm32g4-v120/src/stm32g4xx_hal_fdcan.c:663:25
	ldr	r0, [r4, #96]
	orr	r0, r0, #1
	str	r0, [r4, #96]
	movs	r0, #3
	.loc	2 666 21                        @ ../src/driver/stm32g4-v120/src/stm32g4xx_hal_fdcan.c:666:21
	strb.w	r0, [r4, #92]
	movs	r0, #1
.Ltmp118:
	.loc	2 677 1                         @ ../src/driver/stm32g4-v120/src/stm32g4xx_hal_fdcan.c:677:1
	pop	{r4, r5, r7, pc}
.Ltmp119:
.LBB17_4:
	@DEBUG_VALUE: HAL_FDCAN_ExitPowerDownMode:tickstart <- $r5
	@DEBUG_VALUE: HAL_FDCAN_ExitPowerDownMode:hfdcan <- $r4
	.loc	2 673 3                         @ ../src/driver/stm32g4-v120/src/stm32g4xx_hal_fdcan.c:673:3
	ldr	r1, [r0, #24]
	bic	r1, r1, #1
	str	r1, [r0, #24]
	movs	r0, #0
	.loc	2 677 1                         @ ../src/driver/stm32g4-v120/src/stm32g4xx_hal_fdcan.c:677:1
	pop	{r4, r5, r7, pc}
.Ltmp120:
.Lfunc_end17:
	.size	HAL_FDCAN_ExitPowerDownMode, .Lfunc_end17-HAL_FDCAN_ExitPowerDownMode
	.cfi_endproc
	.cantunwind
	.fnend
                                        @ -- End function
	.section	.text.HAL_FDCAN_RegisterCallback,"ax",%progbits
	.hidden	HAL_FDCAN_RegisterCallback      @ -- Begin function HAL_FDCAN_RegisterCallback
	.globl	HAL_FDCAN_RegisterCallback
	.p2align	2
	.type	HAL_FDCAN_RegisterCallback,%function
	.code	16                              @ @HAL_FDCAN_RegisterCallback
	.thumb_func
HAL_FDCAN_RegisterCallback:
.Lfunc_begin18:
	.loc	2 699 0                         @ ../src/driver/stm32g4-v120/src/stm32g4xx_hal_fdcan.c:699:0
	.fnstart
	.cfi_startproc
@ %bb.0:
	@DEBUG_VALUE: HAL_FDCAN_RegisterCallback:hfdcan <- $r0
	@DEBUG_VALUE: HAL_FDCAN_RegisterCallback:CallbackID <- $r1
	@DEBUG_VALUE: HAL_FDCAN_RegisterCallback:CallbackID <- $r1
	@DEBUG_VALUE: HAL_FDCAN_RegisterCallback:pCallback <- $r2
	@DEBUG_VALUE: HAL_FDCAN_RegisterCallback:pCallback <- $r2
	@DEBUG_VALUE: HAL_FDCAN_RegisterCallback:status <- 0
	@DEBUG_VALUE: HAL_FDCAN_RegisterCallback:hfdcan <- $r0
	.loc	2 702 7 prologue_end            @ ../src/driver/stm32g4-v120/src/stm32g4xx_hal_fdcan.c:702:7
	cbz	r2, .LBB18_7
.Ltmp121:
@ %bb.1:
	@DEBUG_VALUE: HAL_FDCAN_RegisterCallback:pCallback <- $r2
	@DEBUG_VALUE: HAL_FDCAN_RegisterCallback:CallbackID <- $r1
	@DEBUG_VALUE: HAL_FDCAN_RegisterCallback:hfdcan <- $r0
	@DEBUG_VALUE: HAL_FDCAN_RegisterCallback:status <- 0
	@DEBUG_VALUE: HAL_FDCAN_RegisterCallback:CallbackID <- $r1
	.loc	2 710 15                        @ ../src/driver/stm32g4-v120/src/stm32g4xx_hal_fdcan.c:710:15
	ldrb.w	r3, [r0, #92]
.Ltmp122:
	.loc	2 710 7 is_stmt 0               @ ../src/driver/stm32g4-v120/src/stm32g4xx_hal_fdcan.c:710:7
	cmp	r3, #1
	bne	.LBB18_6
.Ltmp123:
@ %bb.2:
	@DEBUG_VALUE: HAL_FDCAN_RegisterCallback:pCallback <- $r2
	@DEBUG_VALUE: HAL_FDCAN_RegisterCallback:CallbackID <- $r1
	@DEBUG_VALUE: HAL_FDCAN_RegisterCallback:hfdcan <- $r0
	@DEBUG_VALUE: HAL_FDCAN_RegisterCallback:status <- 0
	.loc	2 712 5 is_stmt 1               @ ../src/driver/stm32g4-v120/src/stm32g4xx_hal_fdcan.c:712:5
	cmp	r1, #6
	bhi	.LBB18_7
.Ltmp124:
@ %bb.3:
	@DEBUG_VALUE: HAL_FDCAN_RegisterCallback:pCallback <- $r2
	@DEBUG_VALUE: HAL_FDCAN_RegisterCallback:CallbackID <- $r1
	@DEBUG_VALUE: HAL_FDCAN_RegisterCallback:hfdcan <- $r0
	@DEBUG_VALUE: HAL_FDCAN_RegisterCallback:status <- 0
	.loc	2 0 5 is_stmt 0                 @ ../src/driver/stm32g4-v120/src/stm32g4xx_hal_fdcan.c:0:5
.LCPI18_0:
	tbb	[pc, r1]
.Ltmp125:
@ %bb.4:
.LJTI18_0:
	.byte	(.LBB18_5-(.LCPI18_0+4))/2
	.byte	(.LBB18_12-(.LCPI18_0+4))/2
	.byte	(.LBB18_13-(.LCPI18_0+4))/2
	.byte	(.LBB18_14-(.LCPI18_0+4))/2
	.byte	(.LBB18_15-(.LCPI18_0+4))/2
	.byte	(.LBB18_10-(.LCPI18_0+4))/2
	.byte	(.LBB18_11-(.LCPI18_0+4))/2
	.p2align	1
.LBB18_5:
.Ltmp126:
	@DEBUG_VALUE: HAL_FDCAN_RegisterCallback:pCallback <- $r2
	@DEBUG_VALUE: HAL_FDCAN_RegisterCallback:CallbackID <- $r1
	@DEBUG_VALUE: HAL_FDCAN_RegisterCallback:hfdcan <- $r0
	@DEBUG_VALUE: HAL_FDCAN_RegisterCallback:status <- 0
	.loc	2 715 37 is_stmt 1              @ ../src/driver/stm32g4-v120/src/stm32g4xx_hal_fdcan.c:715:37
	str	r2, [r0, #112]
	b	.LBB18_16
.Ltmp127:
.LBB18_6:
	@DEBUG_VALUE: HAL_FDCAN_RegisterCallback:pCallback <- $r2
	@DEBUG_VALUE: HAL_FDCAN_RegisterCallback:CallbackID <- $r1
	@DEBUG_VALUE: HAL_FDCAN_RegisterCallback:hfdcan <- $r0
	@DEBUG_VALUE: HAL_FDCAN_RegisterCallback:status <- 0
	.loc	2 751 20                        @ ../src/driver/stm32g4-v120/src/stm32g4xx_hal_fdcan.c:751:20
	ldrb.w	r3, [r0, #92]
.Ltmp128:
	.loc	2 751 12 is_stmt 0              @ ../src/driver/stm32g4-v120/src/stm32g4xx_hal_fdcan.c:751:12
	cbz	r3, .LBB18_8
.Ltmp129:
.LBB18_7:
	@DEBUG_VALUE: HAL_FDCAN_RegisterCallback:pCallback <- $r2
	@DEBUG_VALUE: HAL_FDCAN_RegisterCallback:CallbackID <- $r1
	@DEBUG_VALUE: HAL_FDCAN_RegisterCallback:hfdcan <- $r0
	@DEBUG_VALUE: HAL_FDCAN_RegisterCallback:status <- 0
	.loc	2 0 0                           @ ../src/driver/stm32g4-v120/src/stm32g4xx_hal_fdcan.c:0:0
	ldr	r1, [r0, #96]
.Ltmp130:
	@DEBUG_VALUE: HAL_FDCAN_RegisterCallback:CallbackID <- [DW_OP_LLVM_entry_value 1] $r1
	orr	r1, r1, #256
	str	r1, [r0, #96]
	movs	r0, #1
.Ltmp131:
	@DEBUG_VALUE: HAL_FDCAN_RegisterCallback:hfdcan <- [DW_OP_LLVM_entry_value 1] $r0
	@DEBUG_VALUE: HAL_FDCAN_RegisterCallback:status <- 1
	.loc	2 782 1 is_stmt 1               @ ../src/driver/stm32g4-v120/src/stm32g4xx_hal_fdcan.c:782:1
	bx	lr
.Ltmp132:
.LBB18_8:
	@DEBUG_VALUE: HAL_FDCAN_RegisterCallback:pCallback <- $r2
	@DEBUG_VALUE: HAL_FDCAN_RegisterCallback:CallbackID <- $r1
	@DEBUG_VALUE: HAL_FDCAN_RegisterCallback:hfdcan <- $r0
	@DEBUG_VALUE: HAL_FDCAN_RegisterCallback:status <- 0
	.loc	2 753 5                         @ ../src/driver/stm32g4-v120/src/stm32g4xx_hal_fdcan.c:753:5
	cmp	r1, #6
	beq	.LBB18_11
.Ltmp133:
@ %bb.9:
	@DEBUG_VALUE: HAL_FDCAN_RegisterCallback:pCallback <- $r2
	@DEBUG_VALUE: HAL_FDCAN_RegisterCallback:CallbackID <- $r1
	@DEBUG_VALUE: HAL_FDCAN_RegisterCallback:hfdcan <- $r0
	@DEBUG_VALUE: HAL_FDCAN_RegisterCallback:status <- 0
	cmp	r1, #5
	bne	.LBB18_7
.Ltmp134:
.LBB18_10:
	@DEBUG_VALUE: HAL_FDCAN_RegisterCallback:pCallback <- $r2
	@DEBUG_VALUE: HAL_FDCAN_RegisterCallback:CallbackID <- $r1
	@DEBUG_VALUE: HAL_FDCAN_RegisterCallback:hfdcan <- $r0
	@DEBUG_VALUE: HAL_FDCAN_RegisterCallback:status <- 0
	.loc	2 0 0 is_stmt 0                 @ ../src/driver/stm32g4-v120/src/stm32g4xx_hal_fdcan.c:0:0
	str.w	r2, [r0, #144]
	b	.LBB18_16
.Ltmp135:
.LBB18_11:
	@DEBUG_VALUE: HAL_FDCAN_RegisterCallback:pCallback <- $r2
	@DEBUG_VALUE: HAL_FDCAN_RegisterCallback:CallbackID <- $r1
	@DEBUG_VALUE: HAL_FDCAN_RegisterCallback:hfdcan <- $r0
	@DEBUG_VALUE: HAL_FDCAN_RegisterCallback:status <- 0
	str.w	r2, [r0, #148]
	b	.LBB18_16
.Ltmp136:
.LBB18_12:
	@DEBUG_VALUE: HAL_FDCAN_RegisterCallback:pCallback <- $r2
	@DEBUG_VALUE: HAL_FDCAN_RegisterCallback:CallbackID <- $r1
	@DEBUG_VALUE: HAL_FDCAN_RegisterCallback:hfdcan <- $r0
	@DEBUG_VALUE: HAL_FDCAN_RegisterCallback:status <- 0
	.loc	2 719 45 is_stmt 1              @ ../src/driver/stm32g4-v120/src/stm32g4xx_hal_fdcan.c:719:45
	str	r2, [r0, #124]
	b	.LBB18_16
.Ltmp137:
.LBB18_13:
	@DEBUG_VALUE: HAL_FDCAN_RegisterCallback:pCallback <- $r2
	@DEBUG_VALUE: HAL_FDCAN_RegisterCallback:CallbackID <- $r1
	@DEBUG_VALUE: HAL_FDCAN_RegisterCallback:hfdcan <- $r0
	@DEBUG_VALUE: HAL_FDCAN_RegisterCallback:status <- 0
	.loc	2 723 45                        @ ../src/driver/stm32g4-v120/src/stm32g4xx_hal_fdcan.c:723:45
	str.w	r2, [r0, #128]
	b	.LBB18_16
.Ltmp138:
.LBB18_14:
	@DEBUG_VALUE: HAL_FDCAN_RegisterCallback:pCallback <- $r2
	@DEBUG_VALUE: HAL_FDCAN_RegisterCallback:CallbackID <- $r1
	@DEBUG_VALUE: HAL_FDCAN_RegisterCallback:hfdcan <- $r0
	@DEBUG_VALUE: HAL_FDCAN_RegisterCallback:status <- 0
	.loc	2 727 41                        @ ../src/driver/stm32g4-v120/src/stm32g4xx_hal_fdcan.c:727:41
	str.w	r2, [r0, #132]
	b	.LBB18_16
.Ltmp139:
.LBB18_15:
	@DEBUG_VALUE: HAL_FDCAN_RegisterCallback:pCallback <- $r2
	@DEBUG_VALUE: HAL_FDCAN_RegisterCallback:CallbackID <- $r1
	@DEBUG_VALUE: HAL_FDCAN_RegisterCallback:hfdcan <- $r0
	@DEBUG_VALUE: HAL_FDCAN_RegisterCallback:status <- 0
	.loc	2 731 31                        @ ../src/driver/stm32g4-v120/src/stm32g4xx_hal_fdcan.c:731:31
	str.w	r2, [r0, #136]
.Ltmp140:
.LBB18_16:
	@DEBUG_VALUE: HAL_FDCAN_RegisterCallback:pCallback <- $r2
	@DEBUG_VALUE: HAL_FDCAN_RegisterCallback:CallbackID <- $r1
	@DEBUG_VALUE: HAL_FDCAN_RegisterCallback:hfdcan <- $r0
	@DEBUG_VALUE: HAL_FDCAN_RegisterCallback:status <- 0
	.loc	2 0 31 is_stmt 0                @ ../src/driver/stm32g4-v120/src/stm32g4xx_hal_fdcan.c:0:31
	movs	r0, #0
.Ltmp141:
	@DEBUG_VALUE: HAL_FDCAN_RegisterCallback:hfdcan <- [DW_OP_LLVM_entry_value 1] $r0
	.loc	2 782 1 is_stmt 1               @ ../src/driver/stm32g4-v120/src/stm32g4xx_hal_fdcan.c:782:1
	bx	lr
.Ltmp142:
.Lfunc_end18:
	.size	HAL_FDCAN_RegisterCallback, .Lfunc_end18-HAL_FDCAN_RegisterCallback
	.cfi_endproc
	.cantunwind
	.fnend
                                        @ -- End function
	.section	.text.HAL_FDCAN_UnRegisterCallback,"ax",%progbits
	.hidden	HAL_FDCAN_UnRegisterCallback    @ -- Begin function HAL_FDCAN_UnRegisterCallback
	.globl	HAL_FDCAN_UnRegisterCallback
	.p2align	2
	.type	HAL_FDCAN_UnRegisterCallback,%function
	.code	16                              @ @HAL_FDCAN_UnRegisterCallback
	.thumb_func
HAL_FDCAN_UnRegisterCallback:
.Lfunc_begin19:
	.loc	2 801 0                         @ ../src/driver/stm32g4-v120/src/stm32g4xx_hal_fdcan.c:801:0
	.fnstart
	.cfi_startproc
@ %bb.0:
	@DEBUG_VALUE: HAL_FDCAN_UnRegisterCallback:hfdcan <- $r0
	@DEBUG_VALUE: HAL_FDCAN_UnRegisterCallback:hfdcan <- $r0
	@DEBUG_VALUE: HAL_FDCAN_UnRegisterCallback:CallbackID <- $r1
	@DEBUG_VALUE: HAL_FDCAN_UnRegisterCallback:CallbackID <- undef
	@DEBUG_VALUE: HAL_FDCAN_UnRegisterCallback:status <- 0
	.loc	2 804 15 prologue_end           @ ../src/driver/stm32g4-v120/src/stm32g4xx_hal_fdcan.c:804:15
	ldrb.w	r2, [r0, #92]
.Ltmp143:
	.loc	2 804 7 is_stmt 0               @ ../src/driver/stm32g4-v120/src/stm32g4xx_hal_fdcan.c:804:7
	cmp	r2, #1
.Ltmp144:
	@DEBUG_VALUE: HAL_FDCAN_UnRegisterCallback:CallbackID <- $r1
	bne	.LBB19_5
.Ltmp145:
@ %bb.1:
	@DEBUG_VALUE: HAL_FDCAN_UnRegisterCallback:CallbackID <- $r1
	@DEBUG_VALUE: HAL_FDCAN_UnRegisterCallback:hfdcan <- $r0
	@DEBUG_VALUE: HAL_FDCAN_UnRegisterCallback:status <- 0
	.loc	2 806 5 is_stmt 1               @ ../src/driver/stm32g4-v120/src/stm32g4xx_hal_fdcan.c:806:5
	cmp	r1, #6
	bhi	.LBB19_6
.Ltmp146:
@ %bb.2:
	@DEBUG_VALUE: HAL_FDCAN_UnRegisterCallback:CallbackID <- $r1
	@DEBUG_VALUE: HAL_FDCAN_UnRegisterCallback:hfdcan <- $r0
	@DEBUG_VALUE: HAL_FDCAN_UnRegisterCallback:status <- 0
	.loc	2 0 5 is_stmt 0                 @ ../src/driver/stm32g4-v120/src/stm32g4xx_hal_fdcan.c:0:5
.LCPI19_0:
	tbb	[pc, r1]
.Ltmp147:
@ %bb.3:
.LJTI19_0:
	.byte	(.LBB19_4-(.LCPI19_0+4))/2
	.byte	(.LBB19_11-(.LCPI19_0+4))/2
	.byte	(.LBB19_12-(.LCPI19_0+4))/2
	.byte	(.LBB19_13-(.LCPI19_0+4))/2
	.byte	(.LBB19_14-(.LCPI19_0+4))/2
	.byte	(.LBB19_9-(.LCPI19_0+4))/2
	.byte	(.LBB19_10-(.LCPI19_0+4))/2
	.p2align	1
.LBB19_4:
.Ltmp148:
	@DEBUG_VALUE: HAL_FDCAN_UnRegisterCallback:CallbackID <- $r1
	@DEBUG_VALUE: HAL_FDCAN_UnRegisterCallback:hfdcan <- $r0
	@DEBUG_VALUE: HAL_FDCAN_UnRegisterCallback:status <- 0
	.loc	2 809 37 is_stmt 1              @ ../src/driver/stm32g4-v120/src/stm32g4xx_hal_fdcan.c:809:37
	movw	r1, :lower16:HAL_FDCAN_TxFifoEmptyCallback
.Ltmp149:
	movt	r1, :upper16:HAL_FDCAN_TxFifoEmptyCallback
	str	r1, [r0, #112]
	b	.LBB19_15
.Ltmp150:
.LBB19_5:
	@DEBUG_VALUE: HAL_FDCAN_UnRegisterCallback:CallbackID <- $r1
	@DEBUG_VALUE: HAL_FDCAN_UnRegisterCallback:hfdcan <- $r0
	@DEBUG_VALUE: HAL_FDCAN_UnRegisterCallback:status <- 0
	.loc	2 845 20                        @ ../src/driver/stm32g4-v120/src/stm32g4xx_hal_fdcan.c:845:20
	ldrb.w	r2, [r0, #92]
.Ltmp151:
	.loc	2 845 12 is_stmt 0              @ ../src/driver/stm32g4-v120/src/stm32g4xx_hal_fdcan.c:845:12
	cbz	r2, .LBB19_7
.Ltmp152:
.LBB19_6:
	@DEBUG_VALUE: HAL_FDCAN_UnRegisterCallback:CallbackID <- $r1
	@DEBUG_VALUE: HAL_FDCAN_UnRegisterCallback:hfdcan <- $r0
	@DEBUG_VALUE: HAL_FDCAN_UnRegisterCallback:status <- 0
	.loc	2 0 0                           @ ../src/driver/stm32g4-v120/src/stm32g4xx_hal_fdcan.c:0:0
	ldr	r1, [r0, #96]
.Ltmp153:
	orr	r1, r1, #256
	str	r1, [r0, #96]
	movs	r0, #1
.Ltmp154:
	@DEBUG_VALUE: HAL_FDCAN_UnRegisterCallback:hfdcan <- [DW_OP_LLVM_entry_value 1] $r0
	@DEBUG_VALUE: HAL_FDCAN_UnRegisterCallback:status <- 1
	@DEBUG_VALUE: HAL_FDCAN_UnRegisterCallback:status <- $r0
	.loc	2 875 3 is_stmt 1               @ ../src/driver/stm32g4-v120/src/stm32g4xx_hal_fdcan.c:875:3
	bx	lr
.Ltmp155:
.LBB19_7:
	@DEBUG_VALUE: HAL_FDCAN_UnRegisterCallback:CallbackID <- $r1
	@DEBUG_VALUE: HAL_FDCAN_UnRegisterCallback:hfdcan <- $r0
	@DEBUG_VALUE: HAL_FDCAN_UnRegisterCallback:status <- 0
	.loc	2 847 5                         @ ../src/driver/stm32g4-v120/src/stm32g4xx_hal_fdcan.c:847:5
	cmp	r1, #6
	beq	.LBB19_10
.Ltmp156:
@ %bb.8:
	@DEBUG_VALUE: HAL_FDCAN_UnRegisterCallback:CallbackID <- $r1
	@DEBUG_VALUE: HAL_FDCAN_UnRegisterCallback:hfdcan <- $r0
	@DEBUG_VALUE: HAL_FDCAN_UnRegisterCallback:status <- 0
	cmp	r1, #5
	bne	.LBB19_6
.Ltmp157:
.LBB19_9:
	@DEBUG_VALUE: HAL_FDCAN_UnRegisterCallback:CallbackID <- $r1
	@DEBUG_VALUE: HAL_FDCAN_UnRegisterCallback:hfdcan <- $r0
	@DEBUG_VALUE: HAL_FDCAN_UnRegisterCallback:status <- 0
	.loc	2 0 0 is_stmt 0                 @ ../src/driver/stm32g4-v120/src/stm32g4xx_hal_fdcan.c:0:0
	movw	r1, :lower16:HAL_FDCAN_MspInit
.Ltmp158:
	movt	r1, :upper16:HAL_FDCAN_MspInit
	str.w	r1, [r0, #144]
	b	.LBB19_15
.Ltmp159:
.LBB19_10:
	@DEBUG_VALUE: HAL_FDCAN_UnRegisterCallback:CallbackID <- $r1
	@DEBUG_VALUE: HAL_FDCAN_UnRegisterCallback:hfdcan <- $r0
	@DEBUG_VALUE: HAL_FDCAN_UnRegisterCallback:status <- 0
	movw	r1, :lower16:HAL_FDCAN_MspDeInit
.Ltmp160:
	movt	r1, :upper16:HAL_FDCAN_MspDeInit
	str.w	r1, [r0, #148]
	b	.LBB19_15
.Ltmp161:
.LBB19_11:
	@DEBUG_VALUE: HAL_FDCAN_UnRegisterCallback:CallbackID <- $r1
	@DEBUG_VALUE: HAL_FDCAN_UnRegisterCallback:hfdcan <- $r0
	@DEBUG_VALUE: HAL_FDCAN_UnRegisterCallback:status <- 0
	.loc	2 813 45 is_stmt 1              @ ../src/driver/stm32g4-v120/src/stm32g4xx_hal_fdcan.c:813:45
	movw	r1, :lower16:HAL_FDCAN_HighPriorityMessageCallback
.Ltmp162:
	movt	r1, :upper16:HAL_FDCAN_HighPriorityMessageCallback
	str	r1, [r0, #124]
	b	.LBB19_15
.Ltmp163:
.LBB19_12:
	@DEBUG_VALUE: HAL_FDCAN_UnRegisterCallback:CallbackID <- $r1
	@DEBUG_VALUE: HAL_FDCAN_UnRegisterCallback:hfdcan <- $r0
	@DEBUG_VALUE: HAL_FDCAN_UnRegisterCallback:status <- 0
	.loc	2 817 45                        @ ../src/driver/stm32g4-v120/src/stm32g4xx_hal_fdcan.c:817:45
	movw	r1, :lower16:HAL_FDCAN_TimestampWraparoundCallback
.Ltmp164:
	movt	r1, :upper16:HAL_FDCAN_TimestampWraparoundCallback
	str.w	r1, [r0, #128]
	b	.LBB19_15
.Ltmp165:
.LBB19_13:
	@DEBUG_VALUE: HAL_FDCAN_UnRegisterCallback:CallbackID <- $r1
	@DEBUG_VALUE: HAL_FDCAN_UnRegisterCallback:hfdcan <- $r0
	@DEBUG_VALUE: HAL_FDCAN_UnRegisterCallback:status <- 0
	.loc	2 821 41                        @ ../src/driver/stm32g4-v120/src/stm32g4xx_hal_fdcan.c:821:41
	movw	r1, :lower16:HAL_FDCAN_TimeoutOccurredCallback
.Ltmp166:
	movt	r1, :upper16:HAL_FDCAN_TimeoutOccurredCallback
	str.w	r1, [r0, #132]
	b	.LBB19_15
.Ltmp167:
.LBB19_14:
	@DEBUG_VALUE: HAL_FDCAN_UnRegisterCallback:CallbackID <- $r1
	@DEBUG_VALUE: HAL_FDCAN_UnRegisterCallback:hfdcan <- $r0
	@DEBUG_VALUE: HAL_FDCAN_UnRegisterCallback:status <- 0
	.loc	2 825 31                        @ ../src/driver/stm32g4-v120/src/stm32g4xx_hal_fdcan.c:825:31
	movw	r1, :lower16:HAL_FDCAN_ErrorCallback
.Ltmp168:
	movt	r1, :upper16:HAL_FDCAN_ErrorCallback
	str.w	r1, [r0, #136]
.Ltmp169:
.LBB19_15:
	@DEBUG_VALUE: HAL_FDCAN_UnRegisterCallback:hfdcan <- $r0
	@DEBUG_VALUE: HAL_FDCAN_UnRegisterCallback:status <- 0
	.loc	2 0 31 is_stmt 0                @ ../src/driver/stm32g4-v120/src/stm32g4xx_hal_fdcan.c:0:31
	movs	r0, #0
.Ltmp170:
	@DEBUG_VALUE: HAL_FDCAN_UnRegisterCallback:hfdcan <- [DW_OP_LLVM_entry_value 1] $r0
	@DEBUG_VALUE: HAL_FDCAN_UnRegisterCallback:status <- $r0
	.loc	2 875 3 is_stmt 1               @ ../src/driver/stm32g4-v120/src/stm32g4xx_hal_fdcan.c:875:3
	bx	lr
.Ltmp171:
.Lfunc_end19:
	.size	HAL_FDCAN_UnRegisterCallback, .Lfunc_end19-HAL_FDCAN_UnRegisterCallback
	.cfi_endproc
	.cantunwind
	.fnend
                                        @ -- End function
	.section	.text.HAL_FDCAN_RegisterTxEventFifoCallback,"ax",%progbits
	.hidden	HAL_FDCAN_RegisterTxEventFifoCallback @ -- Begin function HAL_FDCAN_RegisterTxEventFifoCallback
	.globl	HAL_FDCAN_RegisterTxEventFifoCallback
	.p2align	1
	.type	HAL_FDCAN_RegisterTxEventFifoCallback,%function
	.code	16                              @ @HAL_FDCAN_RegisterTxEventFifoCallback
	.thumb_func
HAL_FDCAN_RegisterTxEventFifoCallback:
.Lfunc_begin20:
	.loc	2 887 0                         @ ../src/driver/stm32g4-v120/src/stm32g4xx_hal_fdcan.c:887:0
	.fnstart
	.cfi_startproc
@ %bb.0:
	@DEBUG_VALUE: HAL_FDCAN_RegisterTxEventFifoCallback:hfdcan <- $r0
	@DEBUG_VALUE: HAL_FDCAN_RegisterTxEventFifoCallback:pCallback <- $r1
	@DEBUG_VALUE: HAL_FDCAN_RegisterTxEventFifoCallback:pCallback <- $r1
	@DEBUG_VALUE: HAL_FDCAN_RegisterTxEventFifoCallback:status <- 0
	@DEBUG_VALUE: HAL_FDCAN_RegisterTxEventFifoCallback:hfdcan <- $r0
	.loc	2 890 7 prologue_end            @ ../src/driver/stm32g4-v120/src/stm32g4xx_hal_fdcan.c:890:7
	cbz	r1, .LBB20_2
.Ltmp172:
@ %bb.1:
	@DEBUG_VALUE: HAL_FDCAN_RegisterTxEventFifoCallback:pCallback <- $r1
	@DEBUG_VALUE: HAL_FDCAN_RegisterTxEventFifoCallback:hfdcan <- $r0
	@DEBUG_VALUE: HAL_FDCAN_RegisterTxEventFifoCallback:status <- 0
	.loc	2 897 15                        @ ../src/driver/stm32g4-v120/src/stm32g4xx_hal_fdcan.c:897:15
	ldrb.w	r2, [r0, #92]
.Ltmp173:
	.loc	2 897 7 is_stmt 0               @ ../src/driver/stm32g4-v120/src/stm32g4xx_hal_fdcan.c:897:7
	cmp	r2, #1
.Ltmp174:
	.loc	2 899 33 is_stmt 1              @ ../src/driver/stm32g4-v120/src/stm32g4xx_hal_fdcan.c:899:33
	ittt	eq
	streq	r1, [r0, #100]
	moveq	r0, #0
.Ltmp175:
	@DEBUG_VALUE: HAL_FDCAN_RegisterTxEventFifoCallback:hfdcan <- [DW_OP_LLVM_entry_value 1] $r0
	.loc	2 911 1                         @ ../src/driver/stm32g4-v120/src/stm32g4xx_hal_fdcan.c:911:1
	bxeq	lr
.Ltmp176:
.LBB20_2:
	@DEBUG_VALUE: HAL_FDCAN_RegisterTxEventFifoCallback:pCallback <- $r1
	@DEBUG_VALUE: HAL_FDCAN_RegisterTxEventFifoCallback:status <- 0
	.loc	2 0 0 is_stmt 0                 @ ../src/driver/stm32g4-v120/src/stm32g4xx_hal_fdcan.c:0:0
	ldr	r1, [r0, #96]
.Ltmp177:
	@DEBUG_VALUE: HAL_FDCAN_RegisterTxEventFifoCallback:pCallback <- [DW_OP_LLVM_entry_value 1] $r1
	orr	r1, r1, #256
	str	r1, [r0, #96]
	movs	r0, #1
.Ltmp178:
	@DEBUG_VALUE: HAL_FDCAN_RegisterTxEventFifoCallback:status <- 1
	.loc	2 911 1                         @ ../src/driver/stm32g4-v120/src/stm32g4xx_hal_fdcan.c:911:1
	bx	lr
.Ltmp179:
.Lfunc_end20:
	.size	HAL_FDCAN_RegisterTxEventFifoCallback, .Lfunc_end20-HAL_FDCAN_RegisterTxEventFifoCallback
	.cfi_endproc
	.cantunwind
	.fnend
                                        @ -- End function
	.section	.text.HAL_FDCAN_UnRegisterTxEventFifoCallback,"ax",%progbits
	.hidden	HAL_FDCAN_UnRegisterTxEventFifoCallback @ -- Begin function HAL_FDCAN_UnRegisterTxEventFifoCallback
	.globl	HAL_FDCAN_UnRegisterTxEventFifoCallback
	.p2align	1
	.type	HAL_FDCAN_UnRegisterTxEventFifoCallback,%function
	.code	16                              @ @HAL_FDCAN_UnRegisterTxEventFifoCallback
	.thumb_func
HAL_FDCAN_UnRegisterTxEventFifoCallback:
.Lfunc_begin21:
	.loc	2 920 0 is_stmt 1               @ ../src/driver/stm32g4-v120/src/stm32g4xx_hal_fdcan.c:920:0
	.fnstart
	.cfi_startproc
@ %bb.0:
	@DEBUG_VALUE: HAL_FDCAN_UnRegisterTxEventFifoCallback:hfdcan <- $r0
	@DEBUG_VALUE: HAL_FDCAN_UnRegisterTxEventFifoCallback:hfdcan <- $r0
	@DEBUG_VALUE: HAL_FDCAN_UnRegisterTxEventFifoCallback:status <- 0
	.loc	2 923 15 prologue_end           @ ../src/driver/stm32g4-v120/src/stm32g4xx_hal_fdcan.c:923:15
	ldrb.w	r1, [r0, #92]
.Ltmp180:
	.loc	2 923 7 is_stmt 0               @ ../src/driver/stm32g4-v120/src/stm32g4xx_hal_fdcan.c:923:7
	cmp	r1, #1
	bne	.LBB21_2
.Ltmp181:
@ %bb.1:
	@DEBUG_VALUE: HAL_FDCAN_UnRegisterTxEventFifoCallback:hfdcan <- $r0
	@DEBUG_VALUE: HAL_FDCAN_UnRegisterTxEventFifoCallback:status <- 0
	.loc	2 925 33 is_stmt 1              @ ../src/driver/stm32g4-v120/src/stm32g4xx_hal_fdcan.c:925:33
	movw	r1, :lower16:HAL_FDCAN_TxEventFifoCallback
	movt	r1, :upper16:HAL_FDCAN_TxEventFifoCallback
	str	r1, [r0, #100]
	movs	r0, #0
.Ltmp182:
	@DEBUG_VALUE: HAL_FDCAN_UnRegisterTxEventFifoCallback:hfdcan <- [DW_OP_LLVM_entry_value 1] $r0
	@DEBUG_VALUE: HAL_FDCAN_UnRegisterTxEventFifoCallback:status <- $r0
	.loc	2 936 3                         @ ../src/driver/stm32g4-v120/src/stm32g4xx_hal_fdcan.c:936:3
	bx	lr
.Ltmp183:
.LBB21_2:
	@DEBUG_VALUE: HAL_FDCAN_UnRegisterTxEventFifoCallback:hfdcan <- $r0
	@DEBUG_VALUE: HAL_FDCAN_UnRegisterTxEventFifoCallback:status <- 0
	.loc	2 930 23                        @ ../src/driver/stm32g4-v120/src/stm32g4xx_hal_fdcan.c:930:23
	ldr	r1, [r0, #96]
	orr	r1, r1, #256
	str	r1, [r0, #96]
	movs	r0, #1
.Ltmp184:
	@DEBUG_VALUE: HAL_FDCAN_UnRegisterTxEventFifoCallback:hfdcan <- [DW_OP_LLVM_entry_value 1] $r0
	@DEBUG_VALUE: HAL_FDCAN_UnRegisterTxEventFifoCallback:status <- 1
	@DEBUG_VALUE: HAL_FDCAN_UnRegisterTxEventFifoCallback:status <- $r0
	.loc	2 936 3                         @ ../src/driver/stm32g4-v120/src/stm32g4xx_hal_fdcan.c:936:3
	bx	lr
.Ltmp185:
.Lfunc_end21:
	.size	HAL_FDCAN_UnRegisterTxEventFifoCallback, .Lfunc_end21-HAL_FDCAN_UnRegisterTxEventFifoCallback
	.cfi_endproc
	.cantunwind
	.fnend
                                        @ -- End function
	.section	.text.HAL_FDCAN_RegisterRxFifo0Callback,"ax",%progbits
	.hidden	HAL_FDCAN_RegisterRxFifo0Callback @ -- Begin function HAL_FDCAN_RegisterRxFifo0Callback
	.globl	HAL_FDCAN_RegisterRxFifo0Callback
	.p2align	1
	.type	HAL_FDCAN_RegisterRxFifo0Callback,%function
	.code	16                              @ @HAL_FDCAN_RegisterRxFifo0Callback
	.thumb_func
HAL_FDCAN_RegisterRxFifo0Callback:
.Lfunc_begin22:
	.loc	2 948 0                         @ ../src/driver/stm32g4-v120/src/stm32g4xx_hal_fdcan.c:948:0
	.fnstart
	.cfi_startproc
@ %bb.0:
	@DEBUG_VALUE: HAL_FDCAN_RegisterRxFifo0Callback:hfdcan <- $r0
	@DEBUG_VALUE: HAL_FDCAN_RegisterRxFifo0Callback:pCallback <- $r1
	@DEBUG_VALUE: HAL_FDCAN_RegisterRxFifo0Callback:pCallback <- $r1
	@DEBUG_VALUE: HAL_FDCAN_RegisterRxFifo0Callback:status <- 0
	@DEBUG_VALUE: HAL_FDCAN_RegisterRxFifo0Callback:hfdcan <- $r0
	.loc	2 951 7 prologue_end            @ ../src/driver/stm32g4-v120/src/stm32g4xx_hal_fdcan.c:951:7
	cbz	r1, .LBB22_2
.Ltmp186:
@ %bb.1:
	@DEBUG_VALUE: HAL_FDCAN_RegisterRxFifo0Callback:pCallback <- $r1
	@DEBUG_VALUE: HAL_FDCAN_RegisterRxFifo0Callback:hfdcan <- $r0
	@DEBUG_VALUE: HAL_FDCAN_RegisterRxFifo0Callback:status <- 0
	.loc	2 958 15                        @ ../src/driver/stm32g4-v120/src/stm32g4xx_hal_fdcan.c:958:15
	ldrb.w	r2, [r0, #92]
.Ltmp187:
	.loc	2 958 7 is_stmt 0               @ ../src/driver/stm32g4-v120/src/stm32g4xx_hal_fdcan.c:958:7
	cmp	r2, #1
.Ltmp188:
	.loc	2 960 29 is_stmt 1              @ ../src/driver/stm32g4-v120/src/stm32g4xx_hal_fdcan.c:960:29
	ittt	eq
	streq	r1, [r0, #104]
	moveq	r0, #0
.Ltmp189:
	@DEBUG_VALUE: HAL_FDCAN_RegisterRxFifo0Callback:hfdcan <- [DW_OP_LLVM_entry_value 1] $r0
	.loc	2 972 1                         @ ../src/driver/stm32g4-v120/src/stm32g4xx_hal_fdcan.c:972:1
	bxeq	lr
.Ltmp190:
.LBB22_2:
	@DEBUG_VALUE: HAL_FDCAN_RegisterRxFifo0Callback:pCallback <- $r1
	@DEBUG_VALUE: HAL_FDCAN_RegisterRxFifo0Callback:status <- 0
	.loc	2 0 0 is_stmt 0                 @ ../src/driver/stm32g4-v120/src/stm32g4xx_hal_fdcan.c:0:0
	ldr	r1, [r0, #96]
.Ltmp191:
	@DEBUG_VALUE: HAL_FDCAN_RegisterRxFifo0Callback:pCallback <- [DW_OP_LLVM_entry_value 1] $r1
	orr	r1, r1, #256
	str	r1, [r0, #96]
	movs	r0, #1
.Ltmp192:
	@DEBUG_VALUE: HAL_FDCAN_RegisterRxFifo0Callback:status <- 1
	.loc	2 972 1                         @ ../src/driver/stm32g4-v120/src/stm32g4xx_hal_fdcan.c:972:1
	bx	lr
.Ltmp193:
.Lfunc_end22:
	.size	HAL_FDCAN_RegisterRxFifo0Callback, .Lfunc_end22-HAL_FDCAN_RegisterRxFifo0Callback
	.cfi_endproc
	.cantunwind
	.fnend
                                        @ -- End function
	.section	.text.HAL_FDCAN_UnRegisterRxFifo0Callback,"ax",%progbits
	.hidden	HAL_FDCAN_UnRegisterRxFifo0Callback @ -- Begin function HAL_FDCAN_UnRegisterRxFifo0Callback
	.globl	HAL_FDCAN_UnRegisterRxFifo0Callback
	.p2align	1
	.type	HAL_FDCAN_UnRegisterRxFifo0Callback,%function
	.code	16                              @ @HAL_FDCAN_UnRegisterRxFifo0Callback
	.thumb_func
HAL_FDCAN_UnRegisterRxFifo0Callback:
.Lfunc_begin23:
	.loc	2 981 0 is_stmt 1               @ ../src/driver/stm32g4-v120/src/stm32g4xx_hal_fdcan.c:981:0
	.fnstart
	.cfi_startproc
@ %bb.0:
	@DEBUG_VALUE: HAL_FDCAN_UnRegisterRxFifo0Callback:hfdcan <- $r0
	@DEBUG_VALUE: HAL_FDCAN_UnRegisterRxFifo0Callback:hfdcan <- $r0
	@DEBUG_VALUE: HAL_FDCAN_UnRegisterRxFifo0Callback:status <- 0
	.loc	2 984 15 prologue_end           @ ../src/driver/stm32g4-v120/src/stm32g4xx_hal_fdcan.c:984:15
	ldrb.w	r1, [r0, #92]
.Ltmp194:
	.loc	2 984 7 is_stmt 0               @ ../src/driver/stm32g4-v120/src/stm32g4xx_hal_fdcan.c:984:7
	cmp	r1, #1
	bne	.LBB23_2
.Ltmp195:
@ %bb.1:
	@DEBUG_VALUE: HAL_FDCAN_UnRegisterRxFifo0Callback:hfdcan <- $r0
	@DEBUG_VALUE: HAL_FDCAN_UnRegisterRxFifo0Callback:status <- 0
	.loc	2 986 29 is_stmt 1              @ ../src/driver/stm32g4-v120/src/stm32g4xx_hal_fdcan.c:986:29
	movw	r1, :lower16:HAL_FDCAN_RxFifo0Callback
	movt	r1, :upper16:HAL_FDCAN_RxFifo0Callback
	str	r1, [r0, #104]
	movs	r0, #0
.Ltmp196:
	@DEBUG_VALUE: HAL_FDCAN_UnRegisterRxFifo0Callback:hfdcan <- [DW_OP_LLVM_entry_value 1] $r0
	@DEBUG_VALUE: HAL_FDCAN_UnRegisterRxFifo0Callback:status <- $r0
	.loc	2 997 3                         @ ../src/driver/stm32g4-v120/src/stm32g4xx_hal_fdcan.c:997:3
	bx	lr
.Ltmp197:
.LBB23_2:
	@DEBUG_VALUE: HAL_FDCAN_UnRegisterRxFifo0Callback:hfdcan <- $r0
	@DEBUG_VALUE: HAL_FDCAN_UnRegisterRxFifo0Callback:status <- 0
	.loc	2 991 23                        @ ../src/driver/stm32g4-v120/src/stm32g4xx_hal_fdcan.c:991:23
	ldr	r1, [r0, #96]
	orr	r1, r1, #256
	str	r1, [r0, #96]
	movs	r0, #1
.Ltmp198:
	@DEBUG_VALUE: HAL_FDCAN_UnRegisterRxFifo0Callback:hfdcan <- [DW_OP_LLVM_entry_value 1] $r0
	@DEBUG_VALUE: HAL_FDCAN_UnRegisterRxFifo0Callback:status <- 1
	@DEBUG_VALUE: HAL_FDCAN_UnRegisterRxFifo0Callback:status <- $r0
	.loc	2 997 3                         @ ../src/driver/stm32g4-v120/src/stm32g4xx_hal_fdcan.c:997:3
	bx	lr
.Ltmp199:
.Lfunc_end23:
	.size	HAL_FDCAN_UnRegisterRxFifo0Callback, .Lfunc_end23-HAL_FDCAN_UnRegisterRxFifo0Callback
	.cfi_endproc
	.cantunwind
	.fnend
                                        @ -- End function
	.section	.text.HAL_FDCAN_RegisterRxFifo1Callback,"ax",%progbits
	.hidden	HAL_FDCAN_RegisterRxFifo1Callback @ -- Begin function HAL_FDCAN_RegisterRxFifo1Callback
	.globl	HAL_FDCAN_RegisterRxFifo1Callback
	.p2align	1
	.type	HAL_FDCAN_RegisterRxFifo1Callback,%function
	.code	16                              @ @HAL_FDCAN_RegisterRxFifo1Callback
	.thumb_func
HAL_FDCAN_RegisterRxFifo1Callback:
.Lfunc_begin24:
	.loc	2 1009 0                        @ ../src/driver/stm32g4-v120/src/stm32g4xx_hal_fdcan.c:1009:0
	.fnstart
	.cfi_startproc
@ %bb.0:
	@DEBUG_VALUE: HAL_FDCAN_RegisterRxFifo1Callback:hfdcan <- $r0
	@DEBUG_VALUE: HAL_FDCAN_RegisterRxFifo1Callback:pCallback <- $r1
	@DEBUG_VALUE: HAL_FDCAN_RegisterRxFifo1Callback:pCallback <- $r1
	@DEBUG_VALUE: HAL_FDCAN_RegisterRxFifo1Callback:status <- 0
	@DEBUG_VALUE: HAL_FDCAN_RegisterRxFifo1Callback:hfdcan <- $r0
	.loc	2 1012 7 prologue_end           @ ../src/driver/stm32g4-v120/src/stm32g4xx_hal_fdcan.c:1012:7
	cbz	r1, .LBB24_2
.Ltmp200:
@ %bb.1:
	@DEBUG_VALUE: HAL_FDCAN_RegisterRxFifo1Callback:pCallback <- $r1
	@DEBUG_VALUE: HAL_FDCAN_RegisterRxFifo1Callback:hfdcan <- $r0
	@DEBUG_VALUE: HAL_FDCAN_RegisterRxFifo1Callback:status <- 0
	.loc	2 1019 15                       @ ../src/driver/stm32g4-v120/src/stm32g4xx_hal_fdcan.c:1019:15
	ldrb.w	r2, [r0, #92]
.Ltmp201:
	.loc	2 1019 7 is_stmt 0              @ ../src/driver/stm32g4-v120/src/stm32g4xx_hal_fdcan.c:1019:7
	cmp	r2, #1
.Ltmp202:
	.loc	2 1021 29 is_stmt 1             @ ../src/driver/stm32g4-v120/src/stm32g4xx_hal_fdcan.c:1021:29
	ittt	eq
	streq	r1, [r0, #108]
	moveq	r0, #0
.Ltmp203:
	@DEBUG_VALUE: HAL_FDCAN_RegisterRxFifo1Callback:hfdcan <- [DW_OP_LLVM_entry_value 1] $r0
	.loc	2 1033 1                        @ ../src/driver/stm32g4-v120/src/stm32g4xx_hal_fdcan.c:1033:1
	bxeq	lr
.Ltmp204:
.LBB24_2:
	@DEBUG_VALUE: HAL_FDCAN_RegisterRxFifo1Callback:pCallback <- $r1
	@DEBUG_VALUE: HAL_FDCAN_RegisterRxFifo1Callback:status <- 0
	.loc	2 0 0 is_stmt 0                 @ ../src/driver/stm32g4-v120/src/stm32g4xx_hal_fdcan.c:0:0
	ldr	r1, [r0, #96]
.Ltmp205:
	@DEBUG_VALUE: HAL_FDCAN_RegisterRxFifo1Callback:pCallback <- [DW_OP_LLVM_entry_value 1] $r1
	orr	r1, r1, #256
	str	r1, [r0, #96]
	movs	r0, #1
.Ltmp206:
	@DEBUG_VALUE: HAL_FDCAN_RegisterRxFifo1Callback:status <- 1
	.loc	2 1033 1                        @ ../src/driver/stm32g4-v120/src/stm32g4xx_hal_fdcan.c:1033:1
	bx	lr
.Ltmp207:
.Lfunc_end24:
	.size	HAL_FDCAN_RegisterRxFifo1Callback, .Lfunc_end24-HAL_FDCAN_RegisterRxFifo1Callback
	.cfi_endproc
	.cantunwind
	.fnend
                                        @ -- End function
	.section	.text.HAL_FDCAN_UnRegisterRxFifo1Callback,"ax",%progbits
	.hidden	HAL_FDCAN_UnRegisterRxFifo1Callback @ -- Begin function HAL_FDCAN_UnRegisterRxFifo1Callback
	.globl	HAL_FDCAN_UnRegisterRxFifo1Callback
	.p2align	1
	.type	HAL_FDCAN_UnRegisterRxFifo1Callback,%function
	.code	16                              @ @HAL_FDCAN_UnRegisterRxFifo1Callback
	.thumb_func
HAL_FDCAN_UnRegisterRxFifo1Callback:
.Lfunc_begin25:
	.loc	2 1042 0 is_stmt 1              @ ../src/driver/stm32g4-v120/src/stm32g4xx_hal_fdcan.c:1042:0
	.fnstart
	.cfi_startproc
@ %bb.0:
	@DEBUG_VALUE: HAL_FDCAN_UnRegisterRxFifo1Callback:hfdcan <- $r0
	@DEBUG_VALUE: HAL_FDCAN_UnRegisterRxFifo1Callback:hfdcan <- $r0
	@DEBUG_VALUE: HAL_FDCAN_UnRegisterRxFifo1Callback:status <- 0
	.loc	2 1045 15 prologue_end          @ ../src/driver/stm32g4-v120/src/stm32g4xx_hal_fdcan.c:1045:15
	ldrb.w	r1, [r0, #92]
.Ltmp208:
	.loc	2 1045 7 is_stmt 0              @ ../src/driver/stm32g4-v120/src/stm32g4xx_hal_fdcan.c:1045:7
	cmp	r1, #1
	bne	.LBB25_2
.Ltmp209:
@ %bb.1:
	@DEBUG_VALUE: HAL_FDCAN_UnRegisterRxFifo1Callback:hfdcan <- $r0
	@DEBUG_VALUE: HAL_FDCAN_UnRegisterRxFifo1Callback:status <- 0
	.loc	2 1047 29 is_stmt 1             @ ../src/driver/stm32g4-v120/src/stm32g4xx_hal_fdcan.c:1047:29
	movw	r1, :lower16:HAL_FDCAN_RxFifo1Callback
	movt	r1, :upper16:HAL_FDCAN_RxFifo1Callback
	str	r1, [r0, #108]
	movs	r0, #0
.Ltmp210:
	@DEBUG_VALUE: HAL_FDCAN_UnRegisterRxFifo1Callback:hfdcan <- [DW_OP_LLVM_entry_value 1] $r0
	@DEBUG_VALUE: HAL_FDCAN_UnRegisterRxFifo1Callback:status <- $r0
	.loc	2 1058 3                        @ ../src/driver/stm32g4-v120/src/stm32g4xx_hal_fdcan.c:1058:3
	bx	lr
.Ltmp211:
.LBB25_2:
	@DEBUG_VALUE: HAL_FDCAN_UnRegisterRxFifo1Callback:hfdcan <- $r0
	@DEBUG_VALUE: HAL_FDCAN_UnRegisterRxFifo1Callback:status <- 0
	.loc	2 1052 23                       @ ../src/driver/stm32g4-v120/src/stm32g4xx_hal_fdcan.c:1052:23
	ldr	r1, [r0, #96]
	orr	r1, r1, #256
	str	r1, [r0, #96]
	movs	r0, #1
.Ltmp212:
	@DEBUG_VALUE: HAL_FDCAN_UnRegisterRxFifo1Callback:hfdcan <- [DW_OP_LLVM_entry_value 1] $r0
	@DEBUG_VALUE: HAL_FDCAN_UnRegisterRxFifo1Callback:status <- 1
	@DEBUG_VALUE: HAL_FDCAN_UnRegisterRxFifo1Callback:status <- $r0
	.loc	2 1058 3                        @ ../src/driver/stm32g4-v120/src/stm32g4xx_hal_fdcan.c:1058:3
	bx	lr
.Ltmp213:
.Lfunc_end25:
	.size	HAL_FDCAN_UnRegisterRxFifo1Callback, .Lfunc_end25-HAL_FDCAN_UnRegisterRxFifo1Callback
	.cfi_endproc
	.cantunwind
	.fnend
                                        @ -- End function
	.section	.text.HAL_FDCAN_RegisterTxBufferCompleteCallback,"ax",%progbits
	.hidden	HAL_FDCAN_RegisterTxBufferCompleteCallback @ -- Begin function HAL_FDCAN_RegisterTxBufferCompleteCallback
	.globl	HAL_FDCAN_RegisterTxBufferCompleteCallback
	.p2align	1
	.type	HAL_FDCAN_RegisterTxBufferCompleteCallback,%function
	.code	16                              @ @HAL_FDCAN_RegisterTxBufferCompleteCallback
	.thumb_func
HAL_FDCAN_RegisterTxBufferCompleteCallback:
.Lfunc_begin26:
	.loc	2 1070 0                        @ ../src/driver/stm32g4-v120/src/stm32g4xx_hal_fdcan.c:1070:0
	.fnstart
	.cfi_startproc
@ %bb.0:
	@DEBUG_VALUE: HAL_FDCAN_RegisterTxBufferCompleteCallback:hfdcan <- $r0
	@DEBUG_VALUE: HAL_FDCAN_RegisterTxBufferCompleteCallback:pCallback <- $r1
	@DEBUG_VALUE: HAL_FDCAN_RegisterTxBufferCompleteCallback:pCallback <- $r1
	@DEBUG_VALUE: HAL_FDCAN_RegisterTxBufferCompleteCallback:status <- 0
	@DEBUG_VALUE: HAL_FDCAN_RegisterTxBufferCompleteCallback:hfdcan <- $r0
	.loc	2 1073 7 prologue_end           @ ../src/driver/stm32g4-v120/src/stm32g4xx_hal_fdcan.c:1073:7
	cbz	r1, .LBB26_2
.Ltmp214:
@ %bb.1:
	@DEBUG_VALUE: HAL_FDCAN_RegisterTxBufferCompleteCallback:pCallback <- $r1
	@DEBUG_VALUE: HAL_FDCAN_RegisterTxBufferCompleteCallback:hfdcan <- $r0
	@DEBUG_VALUE: HAL_FDCAN_RegisterTxBufferCompleteCallback:status <- 0
	.loc	2 1080 15                       @ ../src/driver/stm32g4-v120/src/stm32g4xx_hal_fdcan.c:1080:15
	ldrb.w	r2, [r0, #92]
.Ltmp215:
	.loc	2 1080 7 is_stmt 0              @ ../src/driver/stm32g4-v120/src/stm32g4xx_hal_fdcan.c:1080:7
	cmp	r2, #1
.Ltmp216:
	.loc	2 1082 38 is_stmt 1             @ ../src/driver/stm32g4-v120/src/stm32g4xx_hal_fdcan.c:1082:38
	ittt	eq
	streq	r1, [r0, #116]
	moveq	r0, #0
.Ltmp217:
	@DEBUG_VALUE: HAL_FDCAN_RegisterTxBufferCompleteCallback:hfdcan <- [DW_OP_LLVM_entry_value 1] $r0
	.loc	2 1094 1                        @ ../src/driver/stm32g4-v120/src/stm32g4xx_hal_fdcan.c:1094:1
	bxeq	lr
.Ltmp218:
.LBB26_2:
	@DEBUG_VALUE: HAL_FDCAN_RegisterTxBufferCompleteCallback:pCallback <- $r1
	@DEBUG_VALUE: HAL_FDCAN_RegisterTxBufferCompleteCallback:status <- 0
	.loc	2 0 0 is_stmt 0                 @ ../src/driver/stm32g4-v120/src/stm32g4xx_hal_fdcan.c:0:0
	ldr	r1, [r0, #96]
.Ltmp219:
	@DEBUG_VALUE: HAL_FDCAN_RegisterTxBufferCompleteCallback:pCallback <- [DW_OP_LLVM_entry_value 1] $r1
	orr	r1, r1, #256
	str	r1, [r0, #96]
	movs	r0, #1
.Ltmp220:
	@DEBUG_VALUE: HAL_FDCAN_RegisterTxBufferCompleteCallback:status <- 1
	.loc	2 1094 1                        @ ../src/driver/stm32g4-v120/src/stm32g4xx_hal_fdcan.c:1094:1
	bx	lr
.Ltmp221:
.Lfunc_end26:
	.size	HAL_FDCAN_RegisterTxBufferCompleteCallback, .Lfunc_end26-HAL_FDCAN_RegisterTxBufferCompleteCallback
	.cfi_endproc
	.cantunwind
	.fnend
                                        @ -- End function
	.section	.text.HAL_FDCAN_UnRegisterTxBufferCompleteCallback,"ax",%progbits
	.hidden	HAL_FDCAN_UnRegisterTxBufferCompleteCallback @ -- Begin function HAL_FDCAN_UnRegisterTxBufferCompleteCallback
	.globl	HAL_FDCAN_UnRegisterTxBufferCompleteCallback
	.p2align	1
	.type	HAL_FDCAN_UnRegisterTxBufferCompleteCallback,%function
	.code	16                              @ @HAL_FDCAN_UnRegisterTxBufferCompleteCallback
	.thumb_func
HAL_FDCAN_UnRegisterTxBufferCompleteCallback:
.Lfunc_begin27:
	.loc	2 1104 0 is_stmt 1              @ ../src/driver/stm32g4-v120/src/stm32g4xx_hal_fdcan.c:1104:0
	.fnstart
	.cfi_startproc
@ %bb.0:
	@DEBUG_VALUE: HAL_FDCAN_UnRegisterTxBufferCompleteCallback:hfdcan <- $r0
	@DEBUG_VALUE: HAL_FDCAN_UnRegisterTxBufferCompleteCallback:hfdcan <- $r0
	@DEBUG_VALUE: HAL_FDCAN_UnRegisterTxBufferCompleteCallback:status <- 0
	.loc	2 1107 15 prologue_end          @ ../src/driver/stm32g4-v120/src/stm32g4xx_hal_fdcan.c:1107:15
	ldrb.w	r1, [r0, #92]
.Ltmp222:
	.loc	2 1107 7 is_stmt 0              @ ../src/driver/stm32g4-v120/src/stm32g4xx_hal_fdcan.c:1107:7
	cmp	r1, #1
	bne	.LBB27_2
.Ltmp223:
@ %bb.1:
	@DEBUG_VALUE: HAL_FDCAN_UnRegisterTxBufferCompleteCallback:hfdcan <- $r0
	@DEBUG_VALUE: HAL_FDCAN_UnRegisterTxBufferCompleteCallback:status <- 0
	.loc	2 1109 38 is_stmt 1             @ ../src/driver/stm32g4-v120/src/stm32g4xx_hal_fdcan.c:1109:38
	movw	r1, :lower16:HAL_FDCAN_TxBufferCompleteCallback
	movt	r1, :upper16:HAL_FDCAN_TxBufferCompleteCallback
	str	r1, [r0, #116]
	movs	r0, #0
.Ltmp224:
	@DEBUG_VALUE: HAL_FDCAN_UnRegisterTxBufferCompleteCallback:hfdcan <- [DW_OP_LLVM_entry_value 1] $r0
	@DEBUG_VALUE: HAL_FDCAN_UnRegisterTxBufferCompleteCallback:status <- $r0
	.loc	2 1120 3                        @ ../src/driver/stm32g4-v120/src/stm32g4xx_hal_fdcan.c:1120:3
	bx	lr
.Ltmp225:
.LBB27_2:
	@DEBUG_VALUE: HAL_FDCAN_UnRegisterTxBufferCompleteCallback:hfdcan <- $r0
	@DEBUG_VALUE: HAL_FDCAN_UnRegisterTxBufferCompleteCallback:status <- 0
	.loc	2 1114 23                       @ ../src/driver/stm32g4-v120/src/stm32g4xx_hal_fdcan.c:1114:23
	ldr	r1, [r0, #96]
	orr	r1, r1, #256
	str	r1, [r0, #96]
	movs	r0, #1
.Ltmp226:
	@DEBUG_VALUE: HAL_FDCAN_UnRegisterTxBufferCompleteCallback:hfdcan <- [DW_OP_LLVM_entry_value 1] $r0
	@DEBUG_VALUE: HAL_FDCAN_UnRegisterTxBufferCompleteCallback:status <- 1
	@DEBUG_VALUE: HAL_FDCAN_UnRegisterTxBufferCompleteCallback:status <- $r0
	.loc	2 1120 3                        @ ../src/driver/stm32g4-v120/src/stm32g4xx_hal_fdcan.c:1120:3
	bx	lr
.Ltmp227:
.Lfunc_end27:
	.size	HAL_FDCAN_UnRegisterTxBufferCompleteCallback, .Lfunc_end27-HAL_FDCAN_UnRegisterTxBufferCompleteCallback
	.cfi_endproc
	.cantunwind
	.fnend
                                        @ -- End function
	.section	.text.HAL_FDCAN_RegisterTxBufferAbortCallback,"ax",%progbits
	.hidden	HAL_FDCAN_RegisterTxBufferAbortCallback @ -- Begin function HAL_FDCAN_RegisterTxBufferAbortCallback
	.globl	HAL_FDCAN_RegisterTxBufferAbortCallback
	.p2align	1
	.type	HAL_FDCAN_RegisterTxBufferAbortCallback,%function
	.code	16                              @ @HAL_FDCAN_RegisterTxBufferAbortCallback
	.thumb_func
HAL_FDCAN_RegisterTxBufferAbortCallback:
.Lfunc_begin28:
	.loc	2 1132 0                        @ ../src/driver/stm32g4-v120/src/stm32g4xx_hal_fdcan.c:1132:0
	.fnstart
	.cfi_startproc
@ %bb.0:
	@DEBUG_VALUE: HAL_FDCAN_RegisterTxBufferAbortCallback:hfdcan <- $r0
	@DEBUG_VALUE: HAL_FDCAN_RegisterTxBufferAbortCallback:pCallback <- $r1
	@DEBUG_VALUE: HAL_FDCAN_RegisterTxBufferAbortCallback:pCallback <- $r1
	@DEBUG_VALUE: HAL_FDCAN_RegisterTxBufferAbortCallback:status <- 0
	@DEBUG_VALUE: HAL_FDCAN_RegisterTxBufferAbortCallback:hfdcan <- $r0
	.loc	2 1135 7 prologue_end           @ ../src/driver/stm32g4-v120/src/stm32g4xx_hal_fdcan.c:1135:7
	cbz	r1, .LBB28_2
.Ltmp228:
@ %bb.1:
	@DEBUG_VALUE: HAL_FDCAN_RegisterTxBufferAbortCallback:pCallback <- $r1
	@DEBUG_VALUE: HAL_FDCAN_RegisterTxBufferAbortCallback:hfdcan <- $r0
	@DEBUG_VALUE: HAL_FDCAN_RegisterTxBufferAbortCallback:status <- 0
	.loc	2 1142 15                       @ ../src/driver/stm32g4-v120/src/stm32g4xx_hal_fdcan.c:1142:15
	ldrb.w	r2, [r0, #92]
.Ltmp229:
	.loc	2 1142 7 is_stmt 0              @ ../src/driver/stm32g4-v120/src/stm32g4xx_hal_fdcan.c:1142:7
	cmp	r2, #1
.Ltmp230:
	.loc	2 1144 35 is_stmt 1             @ ../src/driver/stm32g4-v120/src/stm32g4xx_hal_fdcan.c:1144:35
	ittt	eq
	streq	r1, [r0, #120]
	moveq	r0, #0
.Ltmp231:
	@DEBUG_VALUE: HAL_FDCAN_RegisterTxBufferAbortCallback:hfdcan <- [DW_OP_LLVM_entry_value 1] $r0
	.loc	2 1156 1                        @ ../src/driver/stm32g4-v120/src/stm32g4xx_hal_fdcan.c:1156:1
	bxeq	lr
.Ltmp232:
.LBB28_2:
	@DEBUG_VALUE: HAL_FDCAN_RegisterTxBufferAbortCallback:pCallback <- $r1
	@DEBUG_VALUE: HAL_FDCAN_RegisterTxBufferAbortCallback:status <- 0
	.loc	2 0 0 is_stmt 0                 @ ../src/driver/stm32g4-v120/src/stm32g4xx_hal_fdcan.c:0:0
	ldr	r1, [r0, #96]
.Ltmp233:
	@DEBUG_VALUE: HAL_FDCAN_RegisterTxBufferAbortCallback:pCallback <- [DW_OP_LLVM_entry_value 1] $r1
	orr	r1, r1, #256
	str	r1, [r0, #96]
	movs	r0, #1
.Ltmp234:
	@DEBUG_VALUE: HAL_FDCAN_RegisterTxBufferAbortCallback:status <- 1
	.loc	2 1156 1                        @ ../src/driver/stm32g4-v120/src/stm32g4xx_hal_fdcan.c:1156:1
	bx	lr
.Ltmp235:
.Lfunc_end28:
	.size	HAL_FDCAN_RegisterTxBufferAbortCallback, .Lfunc_end28-HAL_FDCAN_RegisterTxBufferAbortCallback
	.cfi_endproc
	.cantunwind
	.fnend
                                        @ -- End function
	.section	.text.HAL_FDCAN_UnRegisterTxBufferAbortCallback,"ax",%progbits
	.hidden	HAL_FDCAN_UnRegisterTxBufferAbortCallback @ -- Begin function HAL_FDCAN_UnRegisterTxBufferAbortCallback
	.globl	HAL_FDCAN_UnRegisterTxBufferAbortCallback
	.p2align	1
	.type	HAL_FDCAN_UnRegisterTxBufferAbortCallback,%function
	.code	16                              @ @HAL_FDCAN_UnRegisterTxBufferAbortCallback
	.thumb_func
HAL_FDCAN_UnRegisterTxBufferAbortCallback:
.Lfunc_begin29:
	.loc	2 1166 0 is_stmt 1              @ ../src/driver/stm32g4-v120/src/stm32g4xx_hal_fdcan.c:1166:0
	.fnstart
	.cfi_startproc
@ %bb.0:
	@DEBUG_VALUE: HAL_FDCAN_UnRegisterTxBufferAbortCallback:hfdcan <- $r0
	@DEBUG_VALUE: HAL_FDCAN_UnRegisterTxBufferAbortCallback:hfdcan <- $r0
	@DEBUG_VALUE: HAL_FDCAN_UnRegisterTxBufferAbortCallback:status <- 0
	.loc	2 1169 15 prologue_end          @ ../src/driver/stm32g4-v120/src/stm32g4xx_hal_fdcan.c:1169:15
	ldrb.w	r1, [r0, #92]
.Ltmp236:
	.loc	2 1169 7 is_stmt 0              @ ../src/driver/stm32g4-v120/src/stm32g4xx_hal_fdcan.c:1169:7
	cmp	r1, #1
	bne	.LBB29_2
.Ltmp237:
@ %bb.1:
	@DEBUG_VALUE: HAL_FDCAN_UnRegisterTxBufferAbortCallback:hfdcan <- $r0
	@DEBUG_VALUE: HAL_FDCAN_UnRegisterTxBufferAbortCallback:status <- 0
	.loc	2 1171 35 is_stmt 1             @ ../src/driver/stm32g4-v120/src/stm32g4xx_hal_fdcan.c:1171:35
	movw	r1, :lower16:HAL_FDCAN_TxBufferAbortCallback
	movt	r1, :upper16:HAL_FDCAN_TxBufferAbortCallback
	str	r1, [r0, #120]
	movs	r0, #0
.Ltmp238:
	@DEBUG_VALUE: HAL_FDCAN_UnRegisterTxBufferAbortCallback:hfdcan <- [DW_OP_LLVM_entry_value 1] $r0
	@DEBUG_VALUE: HAL_FDCAN_UnRegisterTxBufferAbortCallback:status <- $r0
	.loc	2 1182 3                        @ ../src/driver/stm32g4-v120/src/stm32g4xx_hal_fdcan.c:1182:3
	bx	lr
.Ltmp239:
.LBB29_2:
	@DEBUG_VALUE: HAL_FDCAN_UnRegisterTxBufferAbortCallback:hfdcan <- $r0
	@DEBUG_VALUE: HAL_FDCAN_UnRegisterTxBufferAbortCallback:status <- 0
	.loc	2 1176 23                       @ ../src/driver/stm32g4-v120/src/stm32g4xx_hal_fdcan.c:1176:23
	ldr	r1, [r0, #96]
	orr	r1, r1, #256
	str	r1, [r0, #96]
	movs	r0, #1
.Ltmp240:
	@DEBUG_VALUE: HAL_FDCAN_UnRegisterTxBufferAbortCallback:hfdcan <- [DW_OP_LLVM_entry_value 1] $r0
	@DEBUG_VALUE: HAL_FDCAN_UnRegisterTxBufferAbortCallback:status <- 1
	@DEBUG_VALUE: HAL_FDCAN_UnRegisterTxBufferAbortCallback:status <- $r0
	.loc	2 1182 3                        @ ../src/driver/stm32g4-v120/src/stm32g4xx_hal_fdcan.c:1182:3
	bx	lr
.Ltmp241:
.Lfunc_end29:
	.size	HAL_FDCAN_UnRegisterTxBufferAbortCallback, .Lfunc_end29-HAL_FDCAN_UnRegisterTxBufferAbortCallback
	.cfi_endproc
	.cantunwind
	.fnend
                                        @ -- End function
	.section	.text.HAL_FDCAN_RegisterErrorStatusCallback,"ax",%progbits
	.hidden	HAL_FDCAN_RegisterErrorStatusCallback @ -- Begin function HAL_FDCAN_RegisterErrorStatusCallback
	.globl	HAL_FDCAN_RegisterErrorStatusCallback
	.p2align	1
	.type	HAL_FDCAN_RegisterErrorStatusCallback,%function
	.code	16                              @ @HAL_FDCAN_RegisterErrorStatusCallback
	.thumb_func
HAL_FDCAN_RegisterErrorStatusCallback:
.Lfunc_begin30:
	.loc	2 1194 0                        @ ../src/driver/stm32g4-v120/src/stm32g4xx_hal_fdcan.c:1194:0
	.fnstart
	.cfi_startproc
@ %bb.0:
	@DEBUG_VALUE: HAL_FDCAN_RegisterErrorStatusCallback:hfdcan <- $r0
	@DEBUG_VALUE: HAL_FDCAN_RegisterErrorStatusCallback:pCallback <- $r1
	@DEBUG_VALUE: HAL_FDCAN_RegisterErrorStatusCallback:pCallback <- $r1
	@DEBUG_VALUE: HAL_FDCAN_RegisterErrorStatusCallback:status <- 0
	@DEBUG_VALUE: HAL_FDCAN_RegisterErrorStatusCallback:hfdcan <- $r0
	.loc	2 1197 7 prologue_end           @ ../src/driver/stm32g4-v120/src/stm32g4xx_hal_fdcan.c:1197:7
	cbz	r1, .LBB30_2
.Ltmp242:
@ %bb.1:
	@DEBUG_VALUE: HAL_FDCAN_RegisterErrorStatusCallback:pCallback <- $r1
	@DEBUG_VALUE: HAL_FDCAN_RegisterErrorStatusCallback:hfdcan <- $r0
	@DEBUG_VALUE: HAL_FDCAN_RegisterErrorStatusCallback:status <- 0
	.loc	2 1204 15                       @ ../src/driver/stm32g4-v120/src/stm32g4xx_hal_fdcan.c:1204:15
	ldrb.w	r2, [r0, #92]
.Ltmp243:
	.loc	2 1204 7 is_stmt 0              @ ../src/driver/stm32g4-v120/src/stm32g4xx_hal_fdcan.c:1204:7
	cmp	r2, #1
.Ltmp244:
	.loc	2 1206 33 is_stmt 1             @ ../src/driver/stm32g4-v120/src/stm32g4xx_hal_fdcan.c:1206:33
	ittt	eq
	streq.w	r1, [r0, #140]
	moveq	r0, #0
.Ltmp245:
	@DEBUG_VALUE: HAL_FDCAN_RegisterErrorStatusCallback:hfdcan <- [DW_OP_LLVM_entry_value 1] $r0
	.loc	2 1218 1                        @ ../src/driver/stm32g4-v120/src/stm32g4xx_hal_fdcan.c:1218:1
	bxeq	lr
.Ltmp246:
.LBB30_2:
	@DEBUG_VALUE: HAL_FDCAN_RegisterErrorStatusCallback:pCallback <- $r1
	@DEBUG_VALUE: HAL_FDCAN_RegisterErrorStatusCallback:status <- 0
	.loc	2 0 0 is_stmt 0                 @ ../src/driver/stm32g4-v120/src/stm32g4xx_hal_fdcan.c:0:0
	ldr	r1, [r0, #96]
.Ltmp247:
	@DEBUG_VALUE: HAL_FDCAN_RegisterErrorStatusCallback:pCallback <- [DW_OP_LLVM_entry_value 1] $r1
	orr	r1, r1, #256
	str	r1, [r0, #96]
	movs	r0, #1
.Ltmp248:
	@DEBUG_VALUE: HAL_FDCAN_RegisterErrorStatusCallback:status <- 1
	.loc	2 1218 1                        @ ../src/driver/stm32g4-v120/src/stm32g4xx_hal_fdcan.c:1218:1
	bx	lr
.Ltmp249:
.Lfunc_end30:
	.size	HAL_FDCAN_RegisterErrorStatusCallback, .Lfunc_end30-HAL_FDCAN_RegisterErrorStatusCallback
	.cfi_endproc
	.cantunwind
	.fnend
                                        @ -- End function
	.section	.text.HAL_FDCAN_UnRegisterErrorStatusCallback,"ax",%progbits
	.hidden	HAL_FDCAN_UnRegisterErrorStatusCallback @ -- Begin function HAL_FDCAN_UnRegisterErrorStatusCallback
	.globl	HAL_FDCAN_UnRegisterErrorStatusCallback
	.p2align	1
	.type	HAL_FDCAN_UnRegisterErrorStatusCallback,%function
	.code	16                              @ @HAL_FDCAN_UnRegisterErrorStatusCallback
	.thumb_func
HAL_FDCAN_UnRegisterErrorStatusCallback:
.Lfunc_begin31:
	.loc	2 1227 0 is_stmt 1              @ ../src/driver/stm32g4-v120/src/stm32g4xx_hal_fdcan.c:1227:0
	.fnstart
	.cfi_startproc
@ %bb.0:
	@DEBUG_VALUE: HAL_FDCAN_UnRegisterErrorStatusCallback:hfdcan <- $r0
	@DEBUG_VALUE: HAL_FDCAN_UnRegisterErrorStatusCallback:hfdcan <- $r0
	@DEBUG_VALUE: HAL_FDCAN_UnRegisterErrorStatusCallback:status <- 0
	.loc	2 1230 15 prologue_end          @ ../src/driver/stm32g4-v120/src/stm32g4xx_hal_fdcan.c:1230:15
	ldrb.w	r1, [r0, #92]
.Ltmp250:
	.loc	2 1230 7 is_stmt 0              @ ../src/driver/stm32g4-v120/src/stm32g4xx_hal_fdcan.c:1230:7
	cmp	r1, #1
	bne	.LBB31_2
.Ltmp251:
@ %bb.1:
	@DEBUG_VALUE: HAL_FDCAN_UnRegisterErrorStatusCallback:hfdcan <- $r0
	@DEBUG_VALUE: HAL_FDCAN_UnRegisterErrorStatusCallback:status <- 0
	.loc	2 1232 33 is_stmt 1             @ ../src/driver/stm32g4-v120/src/stm32g4xx_hal_fdcan.c:1232:33
	movw	r1, :lower16:HAL_FDCAN_ErrorStatusCallback
	movt	r1, :upper16:HAL_FDCAN_ErrorStatusCallback
	str.w	r1, [r0, #140]
	movs	r0, #0
.Ltmp252:
	@DEBUG_VALUE: HAL_FDCAN_UnRegisterErrorStatusCallback:hfdcan <- [DW_OP_LLVM_entry_value 1] $r0
	@DEBUG_VALUE: HAL_FDCAN_UnRegisterErrorStatusCallback:status <- $r0
	.loc	2 1243 3                        @ ../src/driver/stm32g4-v120/src/stm32g4xx_hal_fdcan.c:1243:3
	bx	lr
.Ltmp253:
.LBB31_2:
	@DEBUG_VALUE: HAL_FDCAN_UnRegisterErrorStatusCallback:hfdcan <- $r0
	@DEBUG_VALUE: HAL_FDCAN_UnRegisterErrorStatusCallback:status <- 0
	.loc	2 1237 23                       @ ../src/driver/stm32g4-v120/src/stm32g4xx_hal_fdcan.c:1237:23
	ldr	r1, [r0, #96]
	orr	r1, r1, #256
	str	r1, [r0, #96]
	movs	r0, #1
.Ltmp254:
	@DEBUG_VALUE: HAL_FDCAN_UnRegisterErrorStatusCallback:hfdcan <- [DW_OP_LLVM_entry_value 1] $r0
	@DEBUG_VALUE: HAL_FDCAN_UnRegisterErrorStatusCallback:status <- 1
	@DEBUG_VALUE: HAL_FDCAN_UnRegisterErrorStatusCallback:status <- $r0
	.loc	2 1243 3                        @ ../src/driver/stm32g4-v120/src/stm32g4xx_hal_fdcan.c:1243:3
	bx	lr
.Ltmp255:
.Lfunc_end31:
	.size	HAL_FDCAN_UnRegisterErrorStatusCallback, .Lfunc_end31-HAL_FDCAN_UnRegisterErrorStatusCallback
	.cfi_endproc
	.cantunwind
	.fnend
                                        @ -- End function
	.section	.text.HAL_FDCAN_ConfigFilter,"ax",%progbits
	.hidden	HAL_FDCAN_ConfigFilter          @ -- Begin function HAL_FDCAN_ConfigFilter
	.globl	HAL_FDCAN_ConfigFilter
	.p2align	1
	.type	HAL_FDCAN_ConfigFilter,%function
	.code	16                              @ @HAL_FDCAN_ConfigFilter
	.thumb_func
HAL_FDCAN_ConfigFilter:
.Lfunc_begin32:
	.loc	2 1297 0                        @ ../src/driver/stm32g4-v120/src/stm32g4xx_hal_fdcan.c:1297:0
	.fnstart
	.cfi_startproc
@ %bb.0:
	@DEBUG_VALUE: HAL_FDCAN_ConfigFilter:hfdcan <- $r0
	@DEBUG_VALUE: HAL_FDCAN_ConfigFilter:hfdcan <- $r0
	@DEBUG_VALUE: HAL_FDCAN_ConfigFilter:sFilterConfig <- $r1
	.save	{r7, lr}
	push	{r7, lr}
	.cfi_def_cfa_offset 8
	.cfi_offset lr, -4
	.cfi_offset r7, -8
.Ltmp256:
	.loc	2 1301 42 prologue_end          @ ../src/driver/stm32g4-v120/src/stm32g4xx_hal_fdcan.c:1301:42
	ldrb.w	r2, [r0, #92]
.Ltmp257:
	@DEBUG_VALUE: HAL_FDCAN_ConfigFilter:state <- undef
	.loc	2 1303 40                       @ ../src/driver/stm32g4-v120/src/stm32g4xx_hal_fdcan.c:1303:40
	subs	r2, #1
	cmp	r2, #1
	@DEBUG_VALUE: HAL_FDCAN_ConfigFilter:sFilterConfig <- $r1
	bhi	.LBB32_3
.Ltmp258:
@ %bb.1:
	@DEBUG_VALUE: HAL_FDCAN_ConfigFilter:sFilterConfig <- $r1
	@DEBUG_VALUE: HAL_FDCAN_ConfigFilter:hfdcan <- $r0
	.loc	2 1309 24                       @ ../src/driver/stm32g4-v120/src/stm32g4xx_hal_fdcan.c:1309:24
	ldr	r2, [r1]
.Ltmp259:
	.loc	2 1309 9 is_stmt 0              @ ../src/driver/stm32g4-v120/src/stm32g4xx_hal_fdcan.c:1309:9
	cbz	r2, .LBB32_4
.Ltmp260:
@ %bb.2:
	@DEBUG_VALUE: HAL_FDCAN_ConfigFilter:sFilterConfig <- $r1
	@DEBUG_VALUE: HAL_FDCAN_ConfigFilter:hfdcan <- $r0
	.loc	2 1344 86 is_stmt 1             @ ../src/driver/stm32g4-v120/src/stm32g4xx_hal_fdcan.c:1344:86
	add.w	lr, r1, #4
	.loc	2 1338 80                       @ ../src/driver/stm32g4-v120/src/stm32g4xx_hal_fdcan.c:1338:80
	ldrd	r3, r1, [r1, #16]
.Ltmp261:
	@DEBUG_VALUE: HAL_FDCAN_ConfigFilter:sFilterConfig <- [DW_OP_LLVM_entry_value 1] $r1
	.loc	2 1344 86                       @ ../src/driver/stm32g4-v120/src/stm32g4xx_hal_fdcan.c:1344:86
	ldm.w	lr, {r2, r12, lr}
	.loc	2 1344 51 is_stmt 0             @ ../src/driver/stm32g4-v120/src/stm32g4xx_hal_fdcan.c:1344:51
	ldr	r0, [r0, #68]
.Ltmp262:
	@DEBUG_VALUE: HAL_FDCAN_ConfigFilter:hfdcan <- [DW_OP_LLVM_entry_value 1] $r0
	.loc	2 1338 63 is_stmt 1             @ ../src/driver/stm32g4-v120/src/stm32g4xx_hal_fdcan.c:1338:63
	orr.w	lr, r3, lr, lsl #29
.Ltmp263:
	@DEBUG_VALUE: HAL_FDCAN_ConfigFilter:FilterElementW1 <- $lr
	.loc	2 1341 61                       @ ../src/driver/stm32g4-v120/src/stm32g4xx_hal_fdcan.c:1341:61
	orr.w	r1, r1, r12, lsl #30
.Ltmp264:
	@DEBUG_VALUE: HAL_FDCAN_ConfigFilter:FilterElementW2 <- $r1
	.loc	2 1344 68                       @ ../src/driver/stm32g4-v120/src/stm32g4xx_hal_fdcan.c:1344:68
	add.w	r3, r0, r2, lsl #3
.Ltmp265:
	@DEBUG_VALUE: HAL_FDCAN_ConfigFilter:FilterAddress <- $r3
	.loc	2 1347 22                       @ ../src/driver/stm32g4-v120/src/stm32g4xx_hal_fdcan.c:1347:22
	str.w	lr, [r0, r2, lsl #3]
.Ltmp266:
	@DEBUG_VALUE: HAL_FDCAN_ConfigFilter:FilterAddress <- [DW_OP_plus_uconst 4, DW_OP_stack_value] $r3
	.loc	2 0 22 is_stmt 0                @ ../src/driver/stm32g4-v120/src/stm32g4xx_hal_fdcan.c:0:22
	movs	r0, #0
	.loc	2 1349 22 is_stmt 1             @ ../src/driver/stm32g4-v120/src/stm32g4xx_hal_fdcan.c:1349:22
	str	r1, [r3, #4]
.Ltmp267:
	.loc	2 1362 1                        @ ../src/driver/stm32g4-v120/src/stm32g4xx_hal_fdcan.c:1362:1
	pop	{r7, pc}
.Ltmp268:
.LBB32_3:
	@DEBUG_VALUE: HAL_FDCAN_ConfigFilter:sFilterConfig <- $r1
	@DEBUG_VALUE: HAL_FDCAN_ConfigFilter:hfdcan <- $r0
	.loc	2 1358 23                       @ ../src/driver/stm32g4-v120/src/stm32g4xx_hal_fdcan.c:1358:23
	ldr	r1, [r0, #96]
.Ltmp269:
	@DEBUG_VALUE: HAL_FDCAN_ConfigFilter:sFilterConfig <- [DW_OP_LLVM_entry_value 1] $r1
	orr	r1, r1, #2
	str	r1, [r0, #96]
	movs	r0, #1
.Ltmp270:
	@DEBUG_VALUE: HAL_FDCAN_ConfigFilter:hfdcan <- [DW_OP_LLVM_entry_value 1] $r0
	.loc	2 1362 1                        @ ../src/driver/stm32g4-v120/src/stm32g4xx_hal_fdcan.c:1362:1
	pop	{r7, pc}
.Ltmp271:
.LBB32_4:
	@DEBUG_VALUE: HAL_FDCAN_ConfigFilter:sFilterConfig <- $r1
	@DEBUG_VALUE: HAL_FDCAN_ConfigFilter:hfdcan <- $r0
	.loc	2 1319 42                       @ ../src/driver/stm32g4-v120/src/stm32g4xx_hal_fdcan.c:1319:42
	ldrd	r2, r3, [r1, #12]
	.loc	2 1324 86                       @ ../src/driver/stm32g4-v120/src/stm32g4xx_hal_fdcan.c:1324:86
	ldrd	r12, lr, [r1, #4]
	.loc	2 1319 55                       @ ../src/driver/stm32g4-v120/src/stm32g4xx_hal_fdcan.c:1319:55
	lsls	r2, r2, #27
	.loc	2 1321 41                       @ ../src/driver/stm32g4-v120/src/stm32g4xx_hal_fdcan.c:1321:41
	ldr	r1, [r1, #20]
.Ltmp272:
	@DEBUG_VALUE: HAL_FDCAN_ConfigFilter:sFilterConfig <- [DW_OP_LLVM_entry_value 1] $r1
	.loc	2 1318 63                       @ ../src/driver/stm32g4-v120/src/stm32g4xx_hal_fdcan.c:1318:63
	orr.w	r2, r2, lr, lsl #30
	.loc	2 1319 63                       @ ../src/driver/stm32g4-v120/src/stm32g4xx_hal_fdcan.c:1319:63
	orr.w	r2, r2, r3, lsl #16
	.loc	2 1324 51                       @ ../src/driver/stm32g4-v120/src/stm32g4xx_hal_fdcan.c:1324:51
	ldr	r0, [r0, #64]
.Ltmp273:
	@DEBUG_VALUE: HAL_FDCAN_ConfigFilter:hfdcan <- [DW_OP_LLVM_entry_value 1] $r0
	@DEBUG_VALUE: HAL_FDCAN_ConfigFilter:FilterAddress <- undef
	.loc	2 1320 63                       @ ../src/driver/stm32g4-v120/src/stm32g4xx_hal_fdcan.c:1320:63
	orrs	r1, r2
.Ltmp274:
	@DEBUG_VALUE: HAL_FDCAN_ConfigFilter:FilterElementW1 <- $r1
	.loc	2 1327 22                       @ ../src/driver/stm32g4-v120/src/stm32g4xx_hal_fdcan.c:1327:22
	str.w	r1, [r0, r12, lsl #2]
	movs	r0, #0
.Ltmp275:
	.loc	2 1362 1                        @ ../src/driver/stm32g4-v120/src/stm32g4xx_hal_fdcan.c:1362:1
	pop	{r7, pc}
.Ltmp276:
.Lfunc_end32:
	.size	HAL_FDCAN_ConfigFilter, .Lfunc_end32-HAL_FDCAN_ConfigFilter
	.cfi_endproc
	.cantunwind
	.fnend
                                        @ -- End function
	.section	.text.HAL_FDCAN_ConfigGlobalFilter,"ax",%progbits
	.hidden	HAL_FDCAN_ConfigGlobalFilter    @ -- Begin function HAL_FDCAN_ConfigGlobalFilter
	.globl	HAL_FDCAN_ConfigGlobalFilter
	.p2align	1
	.type	HAL_FDCAN_ConfigGlobalFilter,%function
	.code	16                              @ @HAL_FDCAN_ConfigGlobalFilter
	.thumb_func
HAL_FDCAN_ConfigGlobalFilter:
.Lfunc_begin33:
	.loc	2 1385 0                        @ ../src/driver/stm32g4-v120/src/stm32g4xx_hal_fdcan.c:1385:0
	.fnstart
	.cfi_startproc
@ %bb.0:
	@DEBUG_VALUE: HAL_FDCAN_ConfigGlobalFilter:hfdcan <- $r0
	@DEBUG_VALUE: HAL_FDCAN_ConfigGlobalFilter:NonMatchingStd <- $r1
	@DEBUG_VALUE: HAL_FDCAN_ConfigGlobalFilter:NonMatchingExt <- $r2
	@DEBUG_VALUE: HAL_FDCAN_ConfigGlobalFilter:RejectRemoteStd <- $r3
	.save	{r7, lr}
	push	{r7, lr}
	.cfi_def_cfa_offset 8
	.cfi_offset lr, -4
	.cfi_offset r7, -8
	mov	r12, r0
.Ltmp277:
	@DEBUG_VALUE: HAL_FDCAN_ConfigGlobalFilter:RejectRemoteExt <- [DW_OP_plus_uconst 8] [$sp+0]
	@DEBUG_VALUE: HAL_FDCAN_ConfigGlobalFilter:RejectRemoteStd <- $r3
	@DEBUG_VALUE: HAL_FDCAN_ConfigGlobalFilter:hfdcan <- $r12
	.loc	2 1392 15 prologue_end          @ ../src/driver/stm32g4-v120/src/stm32g4xx_hal_fdcan.c:1392:15
	ldrb.w	r0, [r0, #92]
.Ltmp278:
	@DEBUG_VALUE: HAL_FDCAN_ConfigGlobalFilter:NonMatchingExt <- $r2
	.loc	2 1392 7 is_stmt 0              @ ../src/driver/stm32g4-v120/src/stm32g4xx_hal_fdcan.c:1392:7
	cmp	r0, #1
	@DEBUG_VALUE: HAL_FDCAN_ConfigGlobalFilter:NonMatchingStd <- $r1
	bne	.LBB33_2
.Ltmp279:
@ %bb.1:
	@DEBUG_VALUE: HAL_FDCAN_ConfigGlobalFilter:hfdcan <- $r12
	@DEBUG_VALUE: HAL_FDCAN_ConfigGlobalFilter:RejectRemoteStd <- $r3
	@DEBUG_VALUE: HAL_FDCAN_ConfigGlobalFilter:NonMatchingExt <- $r2
	@DEBUG_VALUE: HAL_FDCAN_ConfigGlobalFilter:NonMatchingStd <- $r1
	@DEBUG_VALUE: HAL_FDCAN_ConfigGlobalFilter:RejectRemoteExt <- [DW_OP_plus_uconst 8] [$sp+0]
	.loc	2 1395 5 is_stmt 1              @ ../src/driver/stm32g4-v120/src/stm32g4xx_hal_fdcan.c:1395:5
	ldr.w	r12, [r12]
.Ltmp280:
	lsls	r2, r2, #2
.Ltmp281:
	@DEBUG_VALUE: HAL_FDCAN_ConfigGlobalFilter:NonMatchingExt <- [DW_OP_LLVM_entry_value 1] $r2
	ldr	r0, [r12, #128]!
	ldr.w	lr, [sp, #8]
	orr.w	r1, r2, r1, lsl #4
.Ltmp282:
	@DEBUG_VALUE: HAL_FDCAN_ConfigGlobalFilter:NonMatchingStd <- [DW_OP_LLVM_entry_value 1] $r1
	orr.w	r1, r1, r3, lsl #1
	bic	r0, r0, #63
	orr.w	r1, r1, lr
	orrs	r1, r0
	movs	r0, #0
	b	.LBB33_3
.Ltmp283:
.LBB33_2:
	@DEBUG_VALUE: HAL_FDCAN_ConfigGlobalFilter:hfdcan <- $r12
	@DEBUG_VALUE: HAL_FDCAN_ConfigGlobalFilter:RejectRemoteStd <- $r3
	@DEBUG_VALUE: HAL_FDCAN_ConfigGlobalFilter:NonMatchingExt <- $r2
	@DEBUG_VALUE: HAL_FDCAN_ConfigGlobalFilter:NonMatchingStd <- $r1
	@DEBUG_VALUE: HAL_FDCAN_ConfigGlobalFilter:RejectRemoteExt <- [DW_OP_plus_uconst 8] [$sp+0]
	.loc	2 1410 23                       @ ../src/driver/stm32g4-v120/src/stm32g4xx_hal_fdcan.c:1410:23
	ldr	r0, [r12, #96]!
.Ltmp284:
	orr	r1, r0, #4
.Ltmp285:
	@DEBUG_VALUE: HAL_FDCAN_ConfigGlobalFilter:NonMatchingStd <- [DW_OP_LLVM_entry_value 1] $r1
	.loc	2 0 23 is_stmt 0                @ ../src/driver/stm32g4-v120/src/stm32g4xx_hal_fdcan.c:0:23
	movs	r0, #1
.Ltmp286:
.LBB33_3:
	@DEBUG_VALUE: HAL_FDCAN_ConfigGlobalFilter:RejectRemoteStd <- $r3
	@DEBUG_VALUE: HAL_FDCAN_ConfigGlobalFilter:RejectRemoteExt <- [DW_OP_plus_uconst 8] [$sp+0]
	@DEBUG_VALUE: HAL_FDCAN_ConfigGlobalFilter:NonMatchingStd <- [DW_OP_LLVM_entry_value 1] $r1
	str.w	r1, [r12]
.Ltmp287:
	.loc	2 1414 1 is_stmt 1              @ ../src/driver/stm32g4-v120/src/stm32g4xx_hal_fdcan.c:1414:1
	pop	{r7, pc}
.Ltmp288:
.Lfunc_end33:
	.size	HAL_FDCAN_ConfigGlobalFilter, .Lfunc_end33-HAL_FDCAN_ConfigGlobalFilter
	.cfi_endproc
	.cantunwind
	.fnend
                                        @ -- End function
	.section	.text.HAL_FDCAN_ConfigExtendedIdMask,"ax",%progbits
	.hidden	HAL_FDCAN_ConfigExtendedIdMask  @ -- Begin function HAL_FDCAN_ConfigExtendedIdMask
	.globl	HAL_FDCAN_ConfigExtendedIdMask
	.p2align	1
	.type	HAL_FDCAN_ConfigExtendedIdMask,%function
	.code	16                              @ @HAL_FDCAN_ConfigExtendedIdMask
	.thumb_func
HAL_FDCAN_ConfigExtendedIdMask:
.Lfunc_begin34:
	.loc	2 1425 0                        @ ../src/driver/stm32g4-v120/src/stm32g4xx_hal_fdcan.c:1425:0
	.fnstart
	.cfi_startproc
@ %bb.0:
	@DEBUG_VALUE: HAL_FDCAN_ConfigExtendedIdMask:hfdcan <- $r0
	@DEBUG_VALUE: HAL_FDCAN_ConfigExtendedIdMask:hfdcan <- $r0
	@DEBUG_VALUE: HAL_FDCAN_ConfigExtendedIdMask:Mask <- $r1
	.loc	2 1429 15 prologue_end          @ ../src/driver/stm32g4-v120/src/stm32g4xx_hal_fdcan.c:1429:15
	ldrb.w	r2, [r0, #92]
.Ltmp289:
	.loc	2 1429 7 is_stmt 0              @ ../src/driver/stm32g4-v120/src/stm32g4xx_hal_fdcan.c:1429:7
	cmp	r2, #1
	@DEBUG_VALUE: HAL_FDCAN_ConfigExtendedIdMask:Mask <- $r1
	bne	.LBB34_2
.Ltmp290:
@ %bb.1:
	@DEBUG_VALUE: HAL_FDCAN_ConfigExtendedIdMask:Mask <- $r1
	@DEBUG_VALUE: HAL_FDCAN_ConfigExtendedIdMask:hfdcan <- $r0
	.loc	2 1432 13 is_stmt 1             @ ../src/driver/stm32g4-v120/src/stm32g4xx_hal_fdcan.c:1432:13
	ldr	r0, [r0]
.Ltmp291:
	@DEBUG_VALUE: HAL_FDCAN_ConfigExtendedIdMask:hfdcan <- [DW_OP_LLVM_entry_value 1] $r0
	.loc	2 1432 29 is_stmt 0             @ ../src/driver/stm32g4-v120/src/stm32g4xx_hal_fdcan.c:1432:29
	str.w	r1, [r0, #132]
	movs	r0, #0
.Ltmp292:
	.loc	2 1444 1 is_stmt 1              @ ../src/driver/stm32g4-v120/src/stm32g4xx_hal_fdcan.c:1444:1
	bx	lr
.Ltmp293:
.LBB34_2:
	@DEBUG_VALUE: HAL_FDCAN_ConfigExtendedIdMask:Mask <- $r1
	@DEBUG_VALUE: HAL_FDCAN_ConfigExtendedIdMask:hfdcan <- $r0
	.loc	2 1440 23                       @ ../src/driver/stm32g4-v120/src/stm32g4xx_hal_fdcan.c:1440:23
	ldr	r1, [r0, #96]
.Ltmp294:
	@DEBUG_VALUE: HAL_FDCAN_ConfigExtendedIdMask:Mask <- [DW_OP_LLVM_entry_value 1] $r1
	orr	r1, r1, #4
	str	r1, [r0, #96]
	movs	r0, #1
.Ltmp295:
	@DEBUG_VALUE: HAL_FDCAN_ConfigExtendedIdMask:hfdcan <- [DW_OP_LLVM_entry_value 1] $r0
	.loc	2 1444 1                        @ ../src/driver/stm32g4-v120/src/stm32g4xx_hal_fdcan.c:1444:1
	bx	lr
.Ltmp296:
.Lfunc_end34:
	.size	HAL_FDCAN_ConfigExtendedIdMask, .Lfunc_end34-HAL_FDCAN_ConfigExtendedIdMask
	.cfi_endproc
	.cantunwind
	.fnend
                                        @ -- End function
	.section	.text.HAL_FDCAN_ConfigRxFifoOverwrite,"ax",%progbits
	.hidden	HAL_FDCAN_ConfigRxFifoOverwrite @ -- Begin function HAL_FDCAN_ConfigRxFifoOverwrite
	.globl	HAL_FDCAN_ConfigRxFifoOverwrite
	.p2align	1
	.type	HAL_FDCAN_ConfigRxFifoOverwrite,%function
	.code	16                              @ @HAL_FDCAN_ConfigRxFifoOverwrite
	.thumb_func
HAL_FDCAN_ConfigRxFifoOverwrite:
.Lfunc_begin35:
	.loc	2 1459 0                        @ ../src/driver/stm32g4-v120/src/stm32g4xx_hal_fdcan.c:1459:0
	.fnstart
	.cfi_startproc
@ %bb.0:
	@DEBUG_VALUE: HAL_FDCAN_ConfigRxFifoOverwrite:hfdcan <- $r0
	@DEBUG_VALUE: HAL_FDCAN_ConfigRxFifoOverwrite:RxFifo <- $r1
	@DEBUG_VALUE: HAL_FDCAN_ConfigRxFifoOverwrite:OperationMode <- $r2
	mov	r3, r0
.Ltmp297:
	@DEBUG_VALUE: HAL_FDCAN_ConfigRxFifoOverwrite:hfdcan <- $r3
	.loc	2 1464 15 prologue_end          @ ../src/driver/stm32g4-v120/src/stm32g4xx_hal_fdcan.c:1464:15
	ldrb.w	r0, [r0, #92]
.Ltmp298:
	@DEBUG_VALUE: HAL_FDCAN_ConfigRxFifoOverwrite:OperationMode <- $r2
	.loc	2 1464 7 is_stmt 0              @ ../src/driver/stm32g4-v120/src/stm32g4xx_hal_fdcan.c:1464:7
	cmp	r0, #1
	@DEBUG_VALUE: HAL_FDCAN_ConfigRxFifoOverwrite:RxFifo <- $r1
	bne	.LBB35_3
.Ltmp299:
@ %bb.1:
	@DEBUG_VALUE: HAL_FDCAN_ConfigRxFifoOverwrite:hfdcan <- $r3
	@DEBUG_VALUE: HAL_FDCAN_ConfigRxFifoOverwrite:OperationMode <- $r2
	@DEBUG_VALUE: HAL_FDCAN_ConfigRxFifoOverwrite:RxFifo <- $r1
	.loc	2 0 0                           @ ../src/driver/stm32g4-v120/src/stm32g4xx_hal_fdcan.c:0:0
	ldr	r3, [r3]
.Ltmp300:
	.loc	2 1466 9 is_stmt 1              @ ../src/driver/stm32g4-v120/src/stm32g4xx_hal_fdcan.c:1466:9
	cmp	r1, #64
.Ltmp301:
	.loc	2 0 0 is_stmt 0                 @ ../src/driver/stm32g4-v120/src/stm32g4xx_hal_fdcan.c:0:0
	ldr	r0, [r3, #128]!
.Ltmp302:
	.loc	2 1466 9                        @ ../src/driver/stm32g4-v120/src/stm32g4xx_hal_fdcan.c:1466:9
	bne	.LBB35_4
.Ltmp303:
@ %bb.2:
	@DEBUG_VALUE: HAL_FDCAN_ConfigRxFifoOverwrite:OperationMode <- $r2
	@DEBUG_VALUE: HAL_FDCAN_ConfigRxFifoOverwrite:RxFifo <- $r1
	.loc	2 1469 7 is_stmt 1              @ ../src/driver/stm32g4-v120/src/stm32g4xx_hal_fdcan.c:1469:7
	bic	r0, r0, #512
	orr.w	r1, r0, r2, lsl #9
.Ltmp304:
	@DEBUG_VALUE: HAL_FDCAN_ConfigRxFifoOverwrite:RxFifo <- [DW_OP_LLVM_entry_value 1] $r1
	.loc	2 0 7 is_stmt 0                 @ ../src/driver/stm32g4-v120/src/stm32g4xx_hal_fdcan.c:0:7
	b	.LBB35_5
.Ltmp305:
.LBB35_3:
	@DEBUG_VALUE: HAL_FDCAN_ConfigRxFifoOverwrite:hfdcan <- $r3
	@DEBUG_VALUE: HAL_FDCAN_ConfigRxFifoOverwrite:OperationMode <- $r2
	@DEBUG_VALUE: HAL_FDCAN_ConfigRxFifoOverwrite:RxFifo <- $r1
	.loc	2 1483 23 is_stmt 1             @ ../src/driver/stm32g4-v120/src/stm32g4xx_hal_fdcan.c:1483:23
	ldr	r0, [r3, #96]!
.Ltmp306:
	orr	r1, r0, #4
.Ltmp307:
	@DEBUG_VALUE: HAL_FDCAN_ConfigRxFifoOverwrite:RxFifo <- [DW_OP_LLVM_entry_value 1] $r1
	.loc	2 0 23 is_stmt 0                @ ../src/driver/stm32g4-v120/src/stm32g4xx_hal_fdcan.c:0:23
	movs	r0, #1
	b	.LBB35_6
.Ltmp308:
.LBB35_4:
	@DEBUG_VALUE: HAL_FDCAN_ConfigRxFifoOverwrite:OperationMode <- $r2
	@DEBUG_VALUE: HAL_FDCAN_ConfigRxFifoOverwrite:RxFifo <- $r1
	.loc	2 1474 7 is_stmt 1              @ ../src/driver/stm32g4-v120/src/stm32g4xx_hal_fdcan.c:1474:7
	bic	r0, r0, #256
	orr.w	r1, r0, r2, lsl #8
.Ltmp309:
	@DEBUG_VALUE: HAL_FDCAN_ConfigRxFifoOverwrite:RxFifo <- [DW_OP_LLVM_entry_value 1] $r1
.LBB35_5:
	@DEBUG_VALUE: HAL_FDCAN_ConfigRxFifoOverwrite:OperationMode <- $r2
	@DEBUG_VALUE: HAL_FDCAN_ConfigRxFifoOverwrite:RxFifo <- [DW_OP_LLVM_entry_value 1] $r1
	.loc	2 0 7 is_stmt 0                 @ ../src/driver/stm32g4-v120/src/stm32g4xx_hal_fdcan.c:0:7
	movs	r0, #0
.Ltmp310:
.LBB35_6:
	@DEBUG_VALUE: HAL_FDCAN_ConfigRxFifoOverwrite:OperationMode <- $r2
	@DEBUG_VALUE: HAL_FDCAN_ConfigRxFifoOverwrite:RxFifo <- [DW_OP_LLVM_entry_value 1] $r1
	str	r1, [r3]
.Ltmp311:
	.loc	2 1487 1 is_stmt 1              @ ../src/driver/stm32g4-v120/src/stm32g4xx_hal_fdcan.c:1487:1
	bx	lr
.Ltmp312:
.Lfunc_end35:
	.size	HAL_FDCAN_ConfigRxFifoOverwrite, .Lfunc_end35-HAL_FDCAN_ConfigRxFifoOverwrite
	.cfi_endproc
	.cantunwind
	.fnend
                                        @ -- End function
	.section	.text.HAL_FDCAN_ConfigRamWatchdog,"ax",%progbits
	.hidden	HAL_FDCAN_ConfigRamWatchdog     @ -- Begin function HAL_FDCAN_ConfigRamWatchdog
	.globl	HAL_FDCAN_ConfigRamWatchdog
	.p2align	1
	.type	HAL_FDCAN_ConfigRamWatchdog,%function
	.code	16                              @ @HAL_FDCAN_ConfigRamWatchdog
	.thumb_func
HAL_FDCAN_ConfigRamWatchdog:
.Lfunc_begin36:
	.loc	2 1499 0                        @ ../src/driver/stm32g4-v120/src/stm32g4xx_hal_fdcan.c:1499:0
	.fnstart
	.cfi_startproc
@ %bb.0:
	@DEBUG_VALUE: HAL_FDCAN_ConfigRamWatchdog:hfdcan <- $r0
	@DEBUG_VALUE: HAL_FDCAN_ConfigRamWatchdog:CounterStartValue <- $r1
	mov	r2, r0
.Ltmp313:
	@DEBUG_VALUE: HAL_FDCAN_ConfigRamWatchdog:hfdcan <- $r2
	.loc	2 1503 15 prologue_end          @ ../src/driver/stm32g4-v120/src/stm32g4xx_hal_fdcan.c:1503:15
	ldrb.w	r0, [r0, #92]
.Ltmp314:
	.loc	2 1503 7 is_stmt 0              @ ../src/driver/stm32g4-v120/src/stm32g4xx_hal_fdcan.c:1503:7
	cmp	r0, #1
	@DEBUG_VALUE: HAL_FDCAN_ConfigRamWatchdog:CounterStartValue <- $r1
	bne	.LBB36_2
.Ltmp315:
@ %bb.1:
	@DEBUG_VALUE: HAL_FDCAN_ConfigRamWatchdog:hfdcan <- $r2
	@DEBUG_VALUE: HAL_FDCAN_ConfigRamWatchdog:CounterStartValue <- $r1
	.loc	2 1506 5 is_stmt 1              @ ../src/driver/stm32g4-v120/src/stm32g4xx_hal_fdcan.c:1506:5
	ldr	r2, [r2]
.Ltmp316:
	ldr	r0, [r2, #20]!
	bic	r0, r0, #255
	orrs	r1, r0
.Ltmp317:
	@DEBUG_VALUE: HAL_FDCAN_ConfigRamWatchdog:CounterStartValue <- [DW_OP_LLVM_entry_value 1] $r1
	.loc	2 0 5 is_stmt 0                 @ ../src/driver/stm32g4-v120/src/stm32g4xx_hal_fdcan.c:0:5
	movs	r0, #0
	b	.LBB36_3
.Ltmp318:
.LBB36_2:
	@DEBUG_VALUE: HAL_FDCAN_ConfigRamWatchdog:hfdcan <- $r2
	@DEBUG_VALUE: HAL_FDCAN_ConfigRamWatchdog:CounterStartValue <- $r1
	.loc	2 1514 23 is_stmt 1             @ ../src/driver/stm32g4-v120/src/stm32g4xx_hal_fdcan.c:1514:23
	ldr	r0, [r2, #96]!
.Ltmp319:
	orr	r1, r0, #4
.Ltmp320:
	@DEBUG_VALUE: HAL_FDCAN_ConfigRamWatchdog:CounterStartValue <- [DW_OP_LLVM_entry_value 1] $r1
	.loc	2 0 23 is_stmt 0                @ ../src/driver/stm32g4-v120/src/stm32g4xx_hal_fdcan.c:0:23
	movs	r0, #1
.Ltmp321:
.LBB36_3:
	@DEBUG_VALUE: HAL_FDCAN_ConfigRamWatchdog:CounterStartValue <- [DW_OP_LLVM_entry_value 1] $r1
	str	r1, [r2]
.Ltmp322:
	.loc	2 1518 1 is_stmt 1              @ ../src/driver/stm32g4-v120/src/stm32g4xx_hal_fdcan.c:1518:1
	bx	lr
.Ltmp323:
.Lfunc_end36:
	.size	HAL_FDCAN_ConfigRamWatchdog, .Lfunc_end36-HAL_FDCAN_ConfigRamWatchdog
	.cfi_endproc
	.cantunwind
	.fnend
                                        @ -- End function
	.section	.text.HAL_FDCAN_ConfigTimestampCounter,"ax",%progbits
	.hidden	HAL_FDCAN_ConfigTimestampCounter @ -- Begin function HAL_FDCAN_ConfigTimestampCounter
	.globl	HAL_FDCAN_ConfigTimestampCounter
	.p2align	1
	.type	HAL_FDCAN_ConfigTimestampCounter,%function
	.code	16                              @ @HAL_FDCAN_ConfigTimestampCounter
	.thumb_func
HAL_FDCAN_ConfigTimestampCounter:
.Lfunc_begin37:
	.loc	2 1529 0                        @ ../src/driver/stm32g4-v120/src/stm32g4xx_hal_fdcan.c:1529:0
	.fnstart
	.cfi_startproc
@ %bb.0:
	@DEBUG_VALUE: HAL_FDCAN_ConfigTimestampCounter:hfdcan <- $r0
	@DEBUG_VALUE: HAL_FDCAN_ConfigTimestampCounter:TimestampPrescaler <- $r1
	mov	r2, r0
.Ltmp324:
	@DEBUG_VALUE: HAL_FDCAN_ConfigTimestampCounter:hfdcan <- $r2
	.loc	2 1533 15 prologue_end          @ ../src/driver/stm32g4-v120/src/stm32g4xx_hal_fdcan.c:1533:15
	ldrb.w	r0, [r0, #92]
.Ltmp325:
	.loc	2 1533 7 is_stmt 0              @ ../src/driver/stm32g4-v120/src/stm32g4xx_hal_fdcan.c:1533:7
	cmp	r0, #1
	@DEBUG_VALUE: HAL_FDCAN_ConfigTimestampCounter:TimestampPrescaler <- $r1
	bne	.LBB37_2
.Ltmp326:
@ %bb.1:
	@DEBUG_VALUE: HAL_FDCAN_ConfigTimestampCounter:hfdcan <- $r2
	@DEBUG_VALUE: HAL_FDCAN_ConfigTimestampCounter:TimestampPrescaler <- $r1
	.loc	2 1536 5 is_stmt 1              @ ../src/driver/stm32g4-v120/src/stm32g4xx_hal_fdcan.c:1536:5
	ldr	r2, [r2]
.Ltmp327:
	ldr	r0, [r2, #32]!
	bic	r0, r0, #983040
	orrs	r1, r0
.Ltmp328:
	@DEBUG_VALUE: HAL_FDCAN_ConfigTimestampCounter:TimestampPrescaler <- [DW_OP_LLVM_entry_value 1] $r1
	.loc	2 0 5 is_stmt 0                 @ ../src/driver/stm32g4-v120/src/stm32g4xx_hal_fdcan.c:0:5
	movs	r0, #0
	b	.LBB37_3
.Ltmp329:
.LBB37_2:
	@DEBUG_VALUE: HAL_FDCAN_ConfigTimestampCounter:hfdcan <- $r2
	@DEBUG_VALUE: HAL_FDCAN_ConfigTimestampCounter:TimestampPrescaler <- $r1
	.loc	2 1544 23 is_stmt 1             @ ../src/driver/stm32g4-v120/src/stm32g4xx_hal_fdcan.c:1544:23
	ldr	r0, [r2, #96]!
.Ltmp330:
	orr	r1, r0, #4
.Ltmp331:
	@DEBUG_VALUE: HAL_FDCAN_ConfigTimestampCounter:TimestampPrescaler <- [DW_OP_LLVM_entry_value 1] $r1
	.loc	2 0 23 is_stmt 0                @ ../src/driver/stm32g4-v120/src/stm32g4xx_hal_fdcan.c:0:23
	movs	r0, #1
.Ltmp332:
.LBB37_3:
	@DEBUG_VALUE: HAL_FDCAN_ConfigTimestampCounter:TimestampPrescaler <- [DW_OP_LLVM_entry_value 1] $r1
	str	r1, [r2]
.Ltmp333:
	.loc	2 1548 1 is_stmt 1              @ ../src/driver/stm32g4-v120/src/stm32g4xx_hal_fdcan.c:1548:1
	bx	lr
.Ltmp334:
.Lfunc_end37:
	.size	HAL_FDCAN_ConfigTimestampCounter, .Lfunc_end37-HAL_FDCAN_ConfigTimestampCounter
	.cfi_endproc
	.cantunwind
	.fnend
                                        @ -- End function
	.section	.text.HAL_FDCAN_EnableTimestampCounter,"ax",%progbits
	.hidden	HAL_FDCAN_EnableTimestampCounter @ -- Begin function HAL_FDCAN_EnableTimestampCounter
	.globl	HAL_FDCAN_EnableTimestampCounter
	.p2align	1
	.type	HAL_FDCAN_EnableTimestampCounter,%function
	.code	16                              @ @HAL_FDCAN_EnableTimestampCounter
	.thumb_func
HAL_FDCAN_EnableTimestampCounter:
.Lfunc_begin38:
	.loc	2 1559 0                        @ ../src/driver/stm32g4-v120/src/stm32g4xx_hal_fdcan.c:1559:0
	.fnstart
	.cfi_startproc
@ %bb.0:
	@DEBUG_VALUE: HAL_FDCAN_EnableTimestampCounter:hfdcan <- $r0
	@DEBUG_VALUE: HAL_FDCAN_EnableTimestampCounter:TimestampOperation <- $r1
	mov	r2, r0
.Ltmp335:
	@DEBUG_VALUE: HAL_FDCAN_EnableTimestampCounter:hfdcan <- $r2
	.loc	2 1563 15 prologue_end          @ ../src/driver/stm32g4-v120/src/stm32g4xx_hal_fdcan.c:1563:15
	ldrb.w	r0, [r0, #92]
.Ltmp336:
	.loc	2 1563 7 is_stmt 0              @ ../src/driver/stm32g4-v120/src/stm32g4xx_hal_fdcan.c:1563:7
	cmp	r0, #1
	@DEBUG_VALUE: HAL_FDCAN_EnableTimestampCounter:TimestampOperation <- $r1
	bne	.LBB38_2
.Ltmp337:
@ %bb.1:
	@DEBUG_VALUE: HAL_FDCAN_EnableTimestampCounter:hfdcan <- $r2
	@DEBUG_VALUE: HAL_FDCAN_EnableTimestampCounter:TimestampOperation <- $r1
	.loc	2 1566 5 is_stmt 1              @ ../src/driver/stm32g4-v120/src/stm32g4xx_hal_fdcan.c:1566:5
	ldr	r2, [r2]
.Ltmp338:
	ldr	r0, [r2, #32]!
	bic	r0, r0, #3
	orrs	r1, r0
.Ltmp339:
	@DEBUG_VALUE: HAL_FDCAN_EnableTimestampCounter:TimestampOperation <- [DW_OP_LLVM_entry_value 1] $r1
	.loc	2 0 5 is_stmt 0                 @ ../src/driver/stm32g4-v120/src/stm32g4xx_hal_fdcan.c:0:5
	movs	r0, #0
	b	.LBB38_3
.Ltmp340:
.LBB38_2:
	@DEBUG_VALUE: HAL_FDCAN_EnableTimestampCounter:hfdcan <- $r2
	@DEBUG_VALUE: HAL_FDCAN_EnableTimestampCounter:TimestampOperation <- $r1
	.loc	2 1574 23 is_stmt 1             @ ../src/driver/stm32g4-v120/src/stm32g4xx_hal_fdcan.c:1574:23
	ldr	r0, [r2, #96]!
.Ltmp341:
	orr	r1, r0, #4
.Ltmp342:
	@DEBUG_VALUE: HAL_FDCAN_EnableTimestampCounter:TimestampOperation <- [DW_OP_LLVM_entry_value 1] $r1
	.loc	2 0 23 is_stmt 0                @ ../src/driver/stm32g4-v120/src/stm32g4xx_hal_fdcan.c:0:23
	movs	r0, #1
.Ltmp343:
.LBB38_3:
	@DEBUG_VALUE: HAL_FDCAN_EnableTimestampCounter:TimestampOperation <- [DW_OP_LLVM_entry_value 1] $r1
	str	r1, [r2]
.Ltmp344:
	.loc	2 1578 1 is_stmt 1              @ ../src/driver/stm32g4-v120/src/stm32g4xx_hal_fdcan.c:1578:1
	bx	lr
.Ltmp345:
.Lfunc_end38:
	.size	HAL_FDCAN_EnableTimestampCounter, .Lfunc_end38-HAL_FDCAN_EnableTimestampCounter
	.cfi_endproc
	.cantunwind
	.fnend
                                        @ -- End function
	.section	.text.HAL_FDCAN_DisableTimestampCounter,"ax",%progbits
	.hidden	HAL_FDCAN_DisableTimestampCounter @ -- Begin function HAL_FDCAN_DisableTimestampCounter
	.globl	HAL_FDCAN_DisableTimestampCounter
	.p2align	1
	.type	HAL_FDCAN_DisableTimestampCounter,%function
	.code	16                              @ @HAL_FDCAN_DisableTimestampCounter
	.thumb_func
HAL_FDCAN_DisableTimestampCounter:
.Lfunc_begin39:
	.loc	2 1587 0                        @ ../src/driver/stm32g4-v120/src/stm32g4xx_hal_fdcan.c:1587:0
	.fnstart
	.cfi_startproc
@ %bb.0:
	@DEBUG_VALUE: HAL_FDCAN_DisableTimestampCounter:hfdcan <- $r0
	@DEBUG_VALUE: HAL_FDCAN_DisableTimestampCounter:hfdcan <- $r0
	.loc	2 1588 15 prologue_end          @ ../src/driver/stm32g4-v120/src/stm32g4xx_hal_fdcan.c:1588:15
	ldrb.w	r1, [r0, #92]
.Ltmp346:
	.loc	2 1588 7 is_stmt 0              @ ../src/driver/stm32g4-v120/src/stm32g4xx_hal_fdcan.c:1588:7
	cmp	r1, #1
	bne	.LBB39_2
.Ltmp347:
@ %bb.1:
	@DEBUG_VALUE: HAL_FDCAN_DisableTimestampCounter:hfdcan <- $r0
	.loc	2 1591 5 is_stmt 1              @ ../src/driver/stm32g4-v120/src/stm32g4xx_hal_fdcan.c:1591:5
	ldr	r0, [r0]
.Ltmp348:
	@DEBUG_VALUE: HAL_FDCAN_DisableTimestampCounter:hfdcan <- [DW_OP_LLVM_entry_value 1] $r0
	ldr	r1, [r0, #32]
	bic	r1, r1, #3
	str	r1, [r0, #32]
	movs	r0, #0
.Ltmp349:
	.loc	2 1603 1                        @ ../src/driver/stm32g4-v120/src/stm32g4xx_hal_fdcan.c:1603:1
	bx	lr
.Ltmp350:
.LBB39_2:
	@DEBUG_VALUE: HAL_FDCAN_DisableTimestampCounter:hfdcan <- $r0
	.loc	2 1599 23                       @ ../src/driver/stm32g4-v120/src/stm32g4xx_hal_fdcan.c:1599:23
	ldr	r1, [r0, #96]
	orr	r1, r1, #4
	str	r1, [r0, #96]
	movs	r0, #1
.Ltmp351:
	@DEBUG_VALUE: HAL_FDCAN_DisableTimestampCounter:hfdcan <- [DW_OP_LLVM_entry_value 1] $r0
	.loc	2 1603 1                        @ ../src/driver/stm32g4-v120/src/stm32g4xx_hal_fdcan.c:1603:1
	bx	lr
.Ltmp352:
.Lfunc_end39:
	.size	HAL_FDCAN_DisableTimestampCounter, .Lfunc_end39-HAL_FDCAN_DisableTimestampCounter
	.cfi_endproc
	.cantunwind
	.fnend
                                        @ -- End function
	.section	.text.HAL_FDCAN_GetTimestampCounter,"ax",%progbits
	.hidden	HAL_FDCAN_GetTimestampCounter   @ -- Begin function HAL_FDCAN_GetTimestampCounter
	.globl	HAL_FDCAN_GetTimestampCounter
	.p2align	1
	.type	HAL_FDCAN_GetTimestampCounter,%function
	.code	16                              @ @HAL_FDCAN_GetTimestampCounter
	.thumb_func
HAL_FDCAN_GetTimestampCounter:
.Lfunc_begin40:
	.loc	2 1612 0                        @ ../src/driver/stm32g4-v120/src/stm32g4xx_hal_fdcan.c:1612:0
	.fnstart
	.cfi_startproc
@ %bb.0:
	@DEBUG_VALUE: HAL_FDCAN_GetTimestampCounter:hfdcan <- $r0
	@DEBUG_VALUE: HAL_FDCAN_GetTimestampCounter:hfdcan <- $r0
	.loc	2 1613 29 prologue_end          @ ../src/driver/stm32g4-v120/src/stm32g4xx_hal_fdcan.c:1613:29
	ldr	r0, [r0]
.Ltmp353:
	@DEBUG_VALUE: HAL_FDCAN_GetTimestampCounter:hfdcan <- [DW_OP_LLVM_entry_value 1] $r0
	.loc	2 1613 39 is_stmt 0             @ ../src/driver/stm32g4-v120/src/stm32g4xx_hal_fdcan.c:1613:39
	ldr	r0, [r0, #36]
	.loc	2 1613 3                        @ ../src/driver/stm32g4-v120/src/stm32g4xx_hal_fdcan.c:1613:3
	uxth	r0, r0
	bx	lr
.Ltmp354:
.Lfunc_end40:
	.size	HAL_FDCAN_GetTimestampCounter, .Lfunc_end40-HAL_FDCAN_GetTimestampCounter
	.cfi_endproc
	.cantunwind
	.fnend
                                        @ -- End function
	.section	.text.HAL_FDCAN_ResetTimestampCounter,"ax",%progbits
	.hidden	HAL_FDCAN_ResetTimestampCounter @ -- Begin function HAL_FDCAN_ResetTimestampCounter
	.globl	HAL_FDCAN_ResetTimestampCounter
	.p2align	1
	.type	HAL_FDCAN_ResetTimestampCounter,%function
	.code	16                              @ @HAL_FDCAN_ResetTimestampCounter
	.thumb_func
HAL_FDCAN_ResetTimestampCounter:
.Lfunc_begin41:
	.loc	2 1623 0 is_stmt 1              @ ../src/driver/stm32g4-v120/src/stm32g4xx_hal_fdcan.c:1623:0
	.fnstart
	.cfi_startproc
@ %bb.0:
	@DEBUG_VALUE: HAL_FDCAN_ResetTimestampCounter:hfdcan <- $r0
	@DEBUG_VALUE: HAL_FDCAN_ResetTimestampCounter:hfdcan <- $r0
	.loc	2 1624 16 prologue_end          @ ../src/driver/stm32g4-v120/src/stm32g4xx_hal_fdcan.c:1624:16
	ldr	r1, [r0]
	.loc	2 1624 26 is_stmt 0             @ ../src/driver/stm32g4-v120/src/stm32g4xx_hal_fdcan.c:1624:26
	ldr	r2, [r1, #32]
	.loc	2 1624 31                       @ ../src/driver/stm32g4-v120/src/stm32g4xx_hal_fdcan.c:1624:31
	and	r2, r2, #3
.Ltmp355:
	.loc	2 1624 7                        @ ../src/driver/stm32g4-v120/src/stm32g4xx_hal_fdcan.c:1624:7
	cmp	r2, #2
	ittt	ne
	movne	r0, #0
.Ltmp356:
	@DEBUG_VALUE: HAL_FDCAN_ResetTimestampCounter:hfdcan <- [DW_OP_LLVM_entry_value 1] $r0
	.loc	2 1628 5 is_stmt 1              @ ../src/driver/stm32g4-v120/src/stm32g4xx_hal_fdcan.c:1628:5
	strne	r0, [r1, #36]
.Ltmp357:
	.loc	2 1641 1                        @ ../src/driver/stm32g4-v120/src/stm32g4xx_hal_fdcan.c:1641:1
	bxne	lr
.Ltmp358:
.LBB41_1:
	@DEBUG_VALUE: HAL_FDCAN_ResetTimestampCounter:hfdcan <- [DW_OP_LLVM_entry_value 1] $r0
	.loc	2 1634 23                       @ ../src/driver/stm32g4-v120/src/stm32g4xx_hal_fdcan.c:1634:23
	ldr	r1, [r0, #96]
	orr	r1, r1, #16
	str	r1, [r0, #96]
	movs	r0, #1
.Ltmp359:
	.loc	2 1641 1                        @ ../src/driver/stm32g4-v120/src/stm32g4xx_hal_fdcan.c:1641:1
	bx	lr
.Ltmp360:
.Lfunc_end41:
	.size	HAL_FDCAN_ResetTimestampCounter, .Lfunc_end41-HAL_FDCAN_ResetTimestampCounter
	.cfi_endproc
	.cantunwind
	.fnend
                                        @ -- End function
	.section	.text.HAL_FDCAN_ConfigTimeoutCounter,"ax",%progbits
	.hidden	HAL_FDCAN_ConfigTimeoutCounter  @ -- Begin function HAL_FDCAN_ConfigTimeoutCounter
	.globl	HAL_FDCAN_ConfigTimeoutCounter
	.p2align	1
	.type	HAL_FDCAN_ConfigTimeoutCounter,%function
	.code	16                              @ @HAL_FDCAN_ConfigTimeoutCounter
	.thumb_func
HAL_FDCAN_ConfigTimeoutCounter:
.Lfunc_begin42:
	.loc	2 1655 0                        @ ../src/driver/stm32g4-v120/src/stm32g4xx_hal_fdcan.c:1655:0
	.fnstart
	.cfi_startproc
@ %bb.0:
	@DEBUG_VALUE: HAL_FDCAN_ConfigTimeoutCounter:hfdcan <- $r0
	@DEBUG_VALUE: HAL_FDCAN_ConfigTimeoutCounter:TimeoutOperation <- $r1
	@DEBUG_VALUE: HAL_FDCAN_ConfigTimeoutCounter:TimeoutPeriod <- $r2
	mov	r3, r0
.Ltmp361:
	@DEBUG_VALUE: HAL_FDCAN_ConfigTimeoutCounter:hfdcan <- $r3
	.loc	2 1660 15 prologue_end          @ ../src/driver/stm32g4-v120/src/stm32g4xx_hal_fdcan.c:1660:15
	ldrb.w	r0, [r0, #92]
.Ltmp362:
	@DEBUG_VALUE: HAL_FDCAN_ConfigTimeoutCounter:TimeoutPeriod <- $r2
	.loc	2 1660 7 is_stmt 0              @ ../src/driver/stm32g4-v120/src/stm32g4xx_hal_fdcan.c:1660:7
	cmp	r0, #1
	@DEBUG_VALUE: HAL_FDCAN_ConfigTimeoutCounter:TimeoutOperation <- $r1
	bne	.LBB42_2
.Ltmp363:
@ %bb.1:
	@DEBUG_VALUE: HAL_FDCAN_ConfigTimeoutCounter:hfdcan <- $r3
	@DEBUG_VALUE: HAL_FDCAN_ConfigTimeoutCounter:TimeoutPeriod <- $r2
	@DEBUG_VALUE: HAL_FDCAN_ConfigTimeoutCounter:TimeoutOperation <- $r1
	.loc	2 1663 5 is_stmt 1              @ ../src/driver/stm32g4-v120/src/stm32g4xx_hal_fdcan.c:1663:5
	ldr	r3, [r3]
.Ltmp364:
	.loc	2 0 5 is_stmt 0                 @ ../src/driver/stm32g4-v120/src/stm32g4xx_hal_fdcan.c:0:5
	movw	r0, #65529
	.loc	2 1663 5                        @ ../src/driver/stm32g4-v120/src/stm32g4xx_hal_fdcan.c:1663:5
	ldr	r12, [r3, #40]!
	orr.w	r1, r1, r2, lsl #16
.Ltmp365:
	@DEBUG_VALUE: HAL_FDCAN_ConfigTimeoutCounter:TimeoutOperation <- [DW_OP_LLVM_entry_value 1] $r1
	and.w	r0, r0, r12
	orrs	r1, r0
	movs	r0, #0
	b	.LBB42_3
.Ltmp366:
.LBB42_2:
	@DEBUG_VALUE: HAL_FDCAN_ConfigTimeoutCounter:hfdcan <- $r3
	@DEBUG_VALUE: HAL_FDCAN_ConfigTimeoutCounter:TimeoutPeriod <- $r2
	@DEBUG_VALUE: HAL_FDCAN_ConfigTimeoutCounter:TimeoutOperation <- $r1
	.loc	2 1672 23 is_stmt 1             @ ../src/driver/stm32g4-v120/src/stm32g4xx_hal_fdcan.c:1672:23
	ldr	r0, [r3, #96]!
.Ltmp367:
	orr	r1, r0, #4
.Ltmp368:
	@DEBUG_VALUE: HAL_FDCAN_ConfigTimeoutCounter:TimeoutOperation <- [DW_OP_LLVM_entry_value 1] $r1
	.loc	2 0 23 is_stmt 0                @ ../src/driver/stm32g4-v120/src/stm32g4xx_hal_fdcan.c:0:23
	movs	r0, #1
.Ltmp369:
.LBB42_3:
	@DEBUG_VALUE: HAL_FDCAN_ConfigTimeoutCounter:TimeoutPeriod <- $r2
	@DEBUG_VALUE: HAL_FDCAN_ConfigTimeoutCounter:TimeoutOperation <- [DW_OP_LLVM_entry_value 1] $r1
	str	r1, [r3]
.Ltmp370:
	.loc	2 1676 1 is_stmt 1              @ ../src/driver/stm32g4-v120/src/stm32g4xx_hal_fdcan.c:1676:1
	bx	lr
.Ltmp371:
.Lfunc_end42:
	.size	HAL_FDCAN_ConfigTimeoutCounter, .Lfunc_end42-HAL_FDCAN_ConfigTimeoutCounter
	.cfi_endproc
	.cantunwind
	.fnend
                                        @ -- End function
	.section	.text.HAL_FDCAN_EnableTimeoutCounter,"ax",%progbits
	.hidden	HAL_FDCAN_EnableTimeoutCounter  @ -- Begin function HAL_FDCAN_EnableTimeoutCounter
	.globl	HAL_FDCAN_EnableTimeoutCounter
	.p2align	1
	.type	HAL_FDCAN_EnableTimeoutCounter,%function
	.code	16                              @ @HAL_FDCAN_EnableTimeoutCounter
	.thumb_func
HAL_FDCAN_EnableTimeoutCounter:
.Lfunc_begin43:
	.loc	2 1685 0                        @ ../src/driver/stm32g4-v120/src/stm32g4xx_hal_fdcan.c:1685:0
	.fnstart
	.cfi_startproc
@ %bb.0:
	@DEBUG_VALUE: HAL_FDCAN_EnableTimeoutCounter:hfdcan <- $r0
	@DEBUG_VALUE: HAL_FDCAN_EnableTimeoutCounter:hfdcan <- $r0
	.loc	2 1686 15 prologue_end          @ ../src/driver/stm32g4-v120/src/stm32g4xx_hal_fdcan.c:1686:15
	ldrb.w	r1, [r0, #92]
.Ltmp372:
	.loc	2 1686 7 is_stmt 0              @ ../src/driver/stm32g4-v120/src/stm32g4xx_hal_fdcan.c:1686:7
	cmp	r1, #1
	bne	.LBB43_2
.Ltmp373:
@ %bb.1:
	@DEBUG_VALUE: HAL_FDCAN_EnableTimeoutCounter:hfdcan <- $r0
	.loc	2 1689 5 is_stmt 1              @ ../src/driver/stm32g4-v120/src/stm32g4xx_hal_fdcan.c:1689:5
	ldr	r0, [r0]
.Ltmp374:
	@DEBUG_VALUE: HAL_FDCAN_EnableTimeoutCounter:hfdcan <- [DW_OP_LLVM_entry_value 1] $r0
	.loc	2 0 5 is_stmt 0                 @ ../src/driver/stm32g4-v120/src/stm32g4xx_hal_fdcan.c:0:5
	movs	r2, #1
	.loc	2 1689 5                        @ ../src/driver/stm32g4-v120/src/stm32g4xx_hal_fdcan.c:1689:5
	add.w	r1, r0, #40
	movs	r0, #0
	b	.LBB43_3
.Ltmp375:
.LBB43_2:
	@DEBUG_VALUE: HAL_FDCAN_EnableTimeoutCounter:hfdcan <- $r0
	.loc	2 1697 13 is_stmt 1             @ ../src/driver/stm32g4-v120/src/stm32g4xx_hal_fdcan.c:1697:13
	add.w	r1, r0, #96
	movs	r0, #1
.Ltmp376:
	@DEBUG_VALUE: HAL_FDCAN_EnableTimeoutCounter:hfdcan <- [DW_OP_LLVM_entry_value 1] $r0
	.loc	2 0 13 is_stmt 0                @ ../src/driver/stm32g4-v120/src/stm32g4xx_hal_fdcan.c:0:13
	movs	r2, #4
.Ltmp377:
.LBB43_3:
	@DEBUG_VALUE: HAL_FDCAN_EnableTimeoutCounter:hfdcan <- [DW_OP_LLVM_entry_value 1] $r0
	ldr	r3, [r1]
	orrs	r2, r3
	str	r2, [r1]
.Ltmp378:
	.loc	2 1701 1 is_stmt 1              @ ../src/driver/stm32g4-v120/src/stm32g4xx_hal_fdcan.c:1701:1
	bx	lr
.Ltmp379:
.Lfunc_end43:
	.size	HAL_FDCAN_EnableTimeoutCounter, .Lfunc_end43-HAL_FDCAN_EnableTimeoutCounter
	.cfi_endproc
	.cantunwind
	.fnend
                                        @ -- End function
	.section	.text.HAL_FDCAN_DisableTimeoutCounter,"ax",%progbits
	.hidden	HAL_FDCAN_DisableTimeoutCounter @ -- Begin function HAL_FDCAN_DisableTimeoutCounter
	.globl	HAL_FDCAN_DisableTimeoutCounter
	.p2align	1
	.type	HAL_FDCAN_DisableTimeoutCounter,%function
	.code	16                              @ @HAL_FDCAN_DisableTimeoutCounter
	.thumb_func
HAL_FDCAN_DisableTimeoutCounter:
.Lfunc_begin44:
	.loc	2 1710 0                        @ ../src/driver/stm32g4-v120/src/stm32g4xx_hal_fdcan.c:1710:0
	.fnstart
	.cfi_startproc
@ %bb.0:
	@DEBUG_VALUE: HAL_FDCAN_DisableTimeoutCounter:hfdcan <- $r0
	@DEBUG_VALUE: HAL_FDCAN_DisableTimeoutCounter:hfdcan <- $r0
	.loc	2 1711 15 prologue_end          @ ../src/driver/stm32g4-v120/src/stm32g4xx_hal_fdcan.c:1711:15
	ldrb.w	r1, [r0, #92]
.Ltmp380:
	.loc	2 1711 7 is_stmt 0              @ ../src/driver/stm32g4-v120/src/stm32g4xx_hal_fdcan.c:1711:7
	cmp	r1, #1
	bne	.LBB44_2
.Ltmp381:
@ %bb.1:
	@DEBUG_VALUE: HAL_FDCAN_DisableTimeoutCounter:hfdcan <- $r0
	.loc	2 1714 5 is_stmt 1              @ ../src/driver/stm32g4-v120/src/stm32g4xx_hal_fdcan.c:1714:5
	ldr	r0, [r0]
.Ltmp382:
	@DEBUG_VALUE: HAL_FDCAN_DisableTimeoutCounter:hfdcan <- [DW_OP_LLVM_entry_value 1] $r0
	ldr	r1, [r0, #40]
	bic	r1, r1, #1
	str	r1, [r0, #40]
	movs	r0, #0
.Ltmp383:
	.loc	2 1726 1                        @ ../src/driver/stm32g4-v120/src/stm32g4xx_hal_fdcan.c:1726:1
	bx	lr
.Ltmp384:
.LBB44_2:
	@DEBUG_VALUE: HAL_FDCAN_DisableTimeoutCounter:hfdcan <- $r0
	.loc	2 1722 23                       @ ../src/driver/stm32g4-v120/src/stm32g4xx_hal_fdcan.c:1722:23
	ldr	r1, [r0, #96]
	orr	r1, r1, #4
	str	r1, [r0, #96]
	movs	r0, #1
.Ltmp385:
	@DEBUG_VALUE: HAL_FDCAN_DisableTimeoutCounter:hfdcan <- [DW_OP_LLVM_entry_value 1] $r0
	.loc	2 1726 1                        @ ../src/driver/stm32g4-v120/src/stm32g4xx_hal_fdcan.c:1726:1
	bx	lr
.Ltmp386:
.Lfunc_end44:
	.size	HAL_FDCAN_DisableTimeoutCounter, .Lfunc_end44-HAL_FDCAN_DisableTimeoutCounter
	.cfi_endproc
	.cantunwind
	.fnend
                                        @ -- End function
	.section	.text.HAL_FDCAN_GetTimeoutCounter,"ax",%progbits
	.hidden	HAL_FDCAN_GetTimeoutCounter     @ -- Begin function HAL_FDCAN_GetTimeoutCounter
	.globl	HAL_FDCAN_GetTimeoutCounter
	.p2align	1
	.type	HAL_FDCAN_GetTimeoutCounter,%function
	.code	16                              @ @HAL_FDCAN_GetTimeoutCounter
	.thumb_func
HAL_FDCAN_GetTimeoutCounter:
.Lfunc_begin45:
	.loc	2 1735 0                        @ ../src/driver/stm32g4-v120/src/stm32g4xx_hal_fdcan.c:1735:0
	.fnstart
	.cfi_startproc
@ %bb.0:
	@DEBUG_VALUE: HAL_FDCAN_GetTimeoutCounter:hfdcan <- $r0
	@DEBUG_VALUE: HAL_FDCAN_GetTimeoutCounter:hfdcan <- $r0
	.loc	2 1736 29 prologue_end          @ ../src/driver/stm32g4-v120/src/stm32g4xx_hal_fdcan.c:1736:29
	ldr	r0, [r0]
.Ltmp387:
	@DEBUG_VALUE: HAL_FDCAN_GetTimeoutCounter:hfdcan <- [DW_OP_LLVM_entry_value 1] $r0
	.loc	2 1736 39 is_stmt 0             @ ../src/driver/stm32g4-v120/src/stm32g4xx_hal_fdcan.c:1736:39
	ldr	r0, [r0, #44]
	.loc	2 1736 3                        @ ../src/driver/stm32g4-v120/src/stm32g4xx_hal_fdcan.c:1736:3
	uxth	r0, r0
	bx	lr
.Ltmp388:
.Lfunc_end45:
	.size	HAL_FDCAN_GetTimeoutCounter, .Lfunc_end45-HAL_FDCAN_GetTimeoutCounter
	.cfi_endproc
	.cantunwind
	.fnend
                                        @ -- End function
	.section	.text.HAL_FDCAN_ResetTimeoutCounter,"ax",%progbits
	.hidden	HAL_FDCAN_ResetTimeoutCounter   @ -- Begin function HAL_FDCAN_ResetTimeoutCounter
	.globl	HAL_FDCAN_ResetTimeoutCounter
	.p2align	1
	.type	HAL_FDCAN_ResetTimeoutCounter,%function
	.code	16                              @ @HAL_FDCAN_ResetTimeoutCounter
	.thumb_func
HAL_FDCAN_ResetTimeoutCounter:
.Lfunc_begin46:
	.loc	2 1746 0 is_stmt 1              @ ../src/driver/stm32g4-v120/src/stm32g4xx_hal_fdcan.c:1746:0
	.fnstart
	.cfi_startproc
@ %bb.0:
	@DEBUG_VALUE: HAL_FDCAN_ResetTimeoutCounter:hfdcan <- $r0
	@DEBUG_VALUE: HAL_FDCAN_ResetTimeoutCounter:hfdcan <- $r0
	.loc	2 1747 16 prologue_end          @ ../src/driver/stm32g4-v120/src/stm32g4xx_hal_fdcan.c:1747:16
	ldr	r1, [r0]
	.loc	2 1747 26 is_stmt 0             @ ../src/driver/stm32g4-v120/src/stm32g4xx_hal_fdcan.c:1747:26
	ldr	r2, [r1, #40]
.Ltmp389:
	.loc	2 1747 7                        @ ../src/driver/stm32g4-v120/src/stm32g4xx_hal_fdcan.c:1747:7
	tst.w	r2, #6
	beq	.LBB46_2
.Ltmp390:
@ %bb.1:
	@DEBUG_VALUE: HAL_FDCAN_ResetTimeoutCounter:hfdcan <- $r0
	.loc	2 1759 23 is_stmt 1             @ ../src/driver/stm32g4-v120/src/stm32g4xx_hal_fdcan.c:1759:23
	ldr	r1, [r0, #96]
	orr	r1, r1, #16
	str	r1, [r0, #96]
	movs	r0, #1
.Ltmp391:
	@DEBUG_VALUE: HAL_FDCAN_ResetTimeoutCounter:hfdcan <- [DW_OP_LLVM_entry_value 1] $r0
	.loc	2 1763 1                        @ ../src/driver/stm32g4-v120/src/stm32g4xx_hal_fdcan.c:1763:1
	bx	lr
.Ltmp392:
.LBB46_2:
	@DEBUG_VALUE: HAL_FDCAN_ResetTimeoutCounter:hfdcan <- $r0
	.loc	2 0 1 is_stmt 0                 @ ../src/driver/stm32g4-v120/src/stm32g4xx_hal_fdcan.c:0:1
	movs	r0, #0
.Ltmp393:
	@DEBUG_VALUE: HAL_FDCAN_ResetTimeoutCounter:hfdcan <- [DW_OP_LLVM_entry_value 1] $r0
	.loc	2 1750 5 is_stmt 1              @ ../src/driver/stm32g4-v120/src/stm32g4xx_hal_fdcan.c:1750:5
	str	r0, [r1, #44]
.Ltmp394:
	.loc	2 1763 1                        @ ../src/driver/stm32g4-v120/src/stm32g4xx_hal_fdcan.c:1763:1
	bx	lr
.Ltmp395:
.Lfunc_end46:
	.size	HAL_FDCAN_ResetTimeoutCounter, .Lfunc_end46-HAL_FDCAN_ResetTimeoutCounter
	.cfi_endproc
	.cantunwind
	.fnend
                                        @ -- End function
	.section	.text.HAL_FDCAN_ConfigTxDelayCompensation,"ax",%progbits
	.hidden	HAL_FDCAN_ConfigTxDelayCompensation @ -- Begin function HAL_FDCAN_ConfigTxDelayCompensation
	.globl	HAL_FDCAN_ConfigTxDelayCompensation
	.p2align	1
	.type	HAL_FDCAN_ConfigTxDelayCompensation,%function
	.code	16                              @ @HAL_FDCAN_ConfigTxDelayCompensation
	.thumb_func
HAL_FDCAN_ConfigTxDelayCompensation:
.Lfunc_begin47:
	.loc	2 1777 0                        @ ../src/driver/stm32g4-v120/src/stm32g4xx_hal_fdcan.c:1777:0
	.fnstart
	.cfi_startproc
@ %bb.0:
	@DEBUG_VALUE: HAL_FDCAN_ConfigTxDelayCompensation:hfdcan <- $r0
	@DEBUG_VALUE: HAL_FDCAN_ConfigTxDelayCompensation:hfdcan <- $r0
	@DEBUG_VALUE: HAL_FDCAN_ConfigTxDelayCompensation:TdcOffset <- $r1
	@DEBUG_VALUE: HAL_FDCAN_ConfigTxDelayCompensation:TdcFilter <- $r2
	.loc	2 1782 15 prologue_end          @ ../src/driver/stm32g4-v120/src/stm32g4xx_hal_fdcan.c:1782:15
	ldrb.w	r3, [r0, #92]
.Ltmp396:
	@DEBUG_VALUE: HAL_FDCAN_ConfigTxDelayCompensation:TdcFilter <- $r2
	.loc	2 1782 7 is_stmt 0              @ ../src/driver/stm32g4-v120/src/stm32g4xx_hal_fdcan.c:1782:7
	cmp	r3, #1
	@DEBUG_VALUE: HAL_FDCAN_ConfigTxDelayCompensation:TdcOffset <- $r1
	bne	.LBB47_2
.Ltmp397:
@ %bb.1:
	@DEBUG_VALUE: HAL_FDCAN_ConfigTxDelayCompensation:TdcFilter <- $r2
	@DEBUG_VALUE: HAL_FDCAN_ConfigTxDelayCompensation:TdcOffset <- $r1
	@DEBUG_VALUE: HAL_FDCAN_ConfigTxDelayCompensation:hfdcan <- $r0
	.loc	2 1785 13 is_stmt 1             @ ../src/driver/stm32g4-v120/src/stm32g4xx_hal_fdcan.c:1785:13
	ldr	r0, [r0]
.Ltmp398:
	@DEBUG_VALUE: HAL_FDCAN_ConfigTxDelayCompensation:hfdcan <- [DW_OP_LLVM_entry_value 1] $r0
	.loc	2 1785 66 is_stmt 0             @ ../src/driver/stm32g4-v120/src/stm32g4xx_hal_fdcan.c:1785:66
	orr.w	r1, r2, r1, lsl #8
.Ltmp399:
	@DEBUG_VALUE: HAL_FDCAN_ConfigTxDelayCompensation:TdcOffset <- [DW_OP_LLVM_entry_value 1] $r1
	.loc	2 1785 28                       @ ../src/driver/stm32g4-v120/src/stm32g4xx_hal_fdcan.c:1785:28
	str	r1, [r0, #72]
	movs	r0, #0
.Ltmp400:
	.loc	2 1797 1 is_stmt 1              @ ../src/driver/stm32g4-v120/src/stm32g4xx_hal_fdcan.c:1797:1
	bx	lr
.Ltmp401:
.LBB47_2:
	@DEBUG_VALUE: HAL_FDCAN_ConfigTxDelayCompensation:TdcFilter <- $r2
	@DEBUG_VALUE: HAL_FDCAN_ConfigTxDelayCompensation:TdcOffset <- $r1
	@DEBUG_VALUE: HAL_FDCAN_ConfigTxDelayCompensation:hfdcan <- $r0
	.loc	2 1793 23                       @ ../src/driver/stm32g4-v120/src/stm32g4xx_hal_fdcan.c:1793:23
	ldr	r1, [r0, #96]
.Ltmp402:
	@DEBUG_VALUE: HAL_FDCAN_ConfigTxDelayCompensation:TdcOffset <- [DW_OP_LLVM_entry_value 1] $r1
	orr	r1, r1, #4
	str	r1, [r0, #96]
	movs	r0, #1
.Ltmp403:
	@DEBUG_VALUE: HAL_FDCAN_ConfigTxDelayCompensation:hfdcan <- [DW_OP_LLVM_entry_value 1] $r0
	.loc	2 1797 1                        @ ../src/driver/stm32g4-v120/src/stm32g4xx_hal_fdcan.c:1797:1
	bx	lr
.Ltmp404:
.Lfunc_end47:
	.size	HAL_FDCAN_ConfigTxDelayCompensation, .Lfunc_end47-HAL_FDCAN_ConfigTxDelayCompensation
	.cfi_endproc
	.cantunwind
	.fnend
                                        @ -- End function
	.section	.text.HAL_FDCAN_EnableTxDelayCompensation,"ax",%progbits
	.hidden	HAL_FDCAN_EnableTxDelayCompensation @ -- Begin function HAL_FDCAN_EnableTxDelayCompensation
	.globl	HAL_FDCAN_EnableTxDelayCompensation
	.p2align	1
	.type	HAL_FDCAN_EnableTxDelayCompensation,%function
	.code	16                              @ @HAL_FDCAN_EnableTxDelayCompensation
	.thumb_func
HAL_FDCAN_EnableTxDelayCompensation:
.Lfunc_begin48:
	.loc	2 1806 0                        @ ../src/driver/stm32g4-v120/src/stm32g4xx_hal_fdcan.c:1806:0
	.fnstart
	.cfi_startproc
@ %bb.0:
	@DEBUG_VALUE: HAL_FDCAN_EnableTxDelayCompensation:hfdcan <- $r0
	@DEBUG_VALUE: HAL_FDCAN_EnableTxDelayCompensation:hfdcan <- $r0
	.loc	2 1807 15 prologue_end          @ ../src/driver/stm32g4-v120/src/stm32g4xx_hal_fdcan.c:1807:15
	ldrb.w	r1, [r0, #92]
.Ltmp405:
	.loc	2 1807 7 is_stmt 0              @ ../src/driver/stm32g4-v120/src/stm32g4xx_hal_fdcan.c:1807:7
	cmp	r1, #1
	bne	.LBB48_2
.Ltmp406:
@ %bb.1:
	@DEBUG_VALUE: HAL_FDCAN_EnableTxDelayCompensation:hfdcan <- $r0
	.loc	2 1810 5 is_stmt 1              @ ../src/driver/stm32g4-v120/src/stm32g4xx_hal_fdcan.c:1810:5
	ldr	r0, [r0]
.Ltmp407:
	@DEBUG_VALUE: HAL_FDCAN_EnableTxDelayCompensation:hfdcan <- [DW_OP_LLVM_entry_value 1] $r0
	.loc	2 0 5 is_stmt 0                 @ ../src/driver/stm32g4-v120/src/stm32g4xx_hal_fdcan.c:0:5
	mov.w	r2, #8388608
	.loc	2 1810 5                        @ ../src/driver/stm32g4-v120/src/stm32g4xx_hal_fdcan.c:1810:5
	add.w	r1, r0, #12
	movs	r0, #0
	b	.LBB48_3
.Ltmp408:
.LBB48_2:
	@DEBUG_VALUE: HAL_FDCAN_EnableTxDelayCompensation:hfdcan <- $r0
	.loc	2 1818 13 is_stmt 1             @ ../src/driver/stm32g4-v120/src/stm32g4xx_hal_fdcan.c:1818:13
	add.w	r1, r0, #96
	movs	r0, #1
.Ltmp409:
	@DEBUG_VALUE: HAL_FDCAN_EnableTxDelayCompensation:hfdcan <- [DW_OP_LLVM_entry_value 1] $r0
	.loc	2 0 13 is_stmt 0                @ ../src/driver/stm32g4-v120/src/stm32g4xx_hal_fdcan.c:0:13
	movs	r2, #4
.Ltmp410:
.LBB48_3:
	@DEBUG_VALUE: HAL_FDCAN_EnableTxDelayCompensation:hfdcan <- [DW_OP_LLVM_entry_value 1] $r0
	ldr	r3, [r1]
	orrs	r2, r3
	str	r2, [r1]
.Ltmp411:
	.loc	2 1822 1 is_stmt 1              @ ../src/driver/stm32g4-v120/src/stm32g4xx_hal_fdcan.c:1822:1
	bx	lr
.Ltmp412:
.Lfunc_end48:
	.size	HAL_FDCAN_EnableTxDelayCompensation, .Lfunc_end48-HAL_FDCAN_EnableTxDelayCompensation
	.cfi_endproc
	.cantunwind
	.fnend
                                        @ -- End function
	.section	.text.HAL_FDCAN_DisableTxDelayCompensation,"ax",%progbits
	.hidden	HAL_FDCAN_DisableTxDelayCompensation @ -- Begin function HAL_FDCAN_DisableTxDelayCompensation
	.globl	HAL_FDCAN_DisableTxDelayCompensation
	.p2align	1
	.type	HAL_FDCAN_DisableTxDelayCompensation,%function
	.code	16                              @ @HAL_FDCAN_DisableTxDelayCompensation
	.thumb_func
HAL_FDCAN_DisableTxDelayCompensation:
.Lfunc_begin49:
	.loc	2 1831 0                        @ ../src/driver/stm32g4-v120/src/stm32g4xx_hal_fdcan.c:1831:0
	.fnstart
	.cfi_startproc
@ %bb.0:
	@DEBUG_VALUE: HAL_FDCAN_DisableTxDelayCompensation:hfdcan <- $r0
	@DEBUG_VALUE: HAL_FDCAN_DisableTxDelayCompensation:hfdcan <- $r0
	.loc	2 1832 15 prologue_end          @ ../src/driver/stm32g4-v120/src/stm32g4xx_hal_fdcan.c:1832:15
	ldrb.w	r1, [r0, #92]
.Ltmp413:
	.loc	2 1832 7 is_stmt 0              @ ../src/driver/stm32g4-v120/src/stm32g4xx_hal_fdcan.c:1832:7
	cmp	r1, #1
	bne	.LBB49_2
.Ltmp414:
@ %bb.1:
	@DEBUG_VALUE: HAL_FDCAN_DisableTxDelayCompensation:hfdcan <- $r0
	.loc	2 1835 5 is_stmt 1              @ ../src/driver/stm32g4-v120/src/stm32g4xx_hal_fdcan.c:1835:5
	ldr	r0, [r0]
.Ltmp415:
	@DEBUG_VALUE: HAL_FDCAN_DisableTxDelayCompensation:hfdcan <- [DW_OP_LLVM_entry_value 1] $r0
	ldr	r1, [r0, #12]
	bic	r1, r1, #8388608
	str	r1, [r0, #12]
	movs	r0, #0
.Ltmp416:
	.loc	2 1847 1                        @ ../src/driver/stm32g4-v120/src/stm32g4xx_hal_fdcan.c:1847:1
	bx	lr
.Ltmp417:
.LBB49_2:
	@DEBUG_VALUE: HAL_FDCAN_DisableTxDelayCompensation:hfdcan <- $r0
	.loc	2 1843 23                       @ ../src/driver/stm32g4-v120/src/stm32g4xx_hal_fdcan.c:1843:23
	ldr	r1, [r0, #96]
	orr	r1, r1, #4
	str	r1, [r0, #96]
	movs	r0, #1
.Ltmp418:
	@DEBUG_VALUE: HAL_FDCAN_DisableTxDelayCompensation:hfdcan <- [DW_OP_LLVM_entry_value 1] $r0
	.loc	2 1847 1                        @ ../src/driver/stm32g4-v120/src/stm32g4xx_hal_fdcan.c:1847:1
	bx	lr
.Ltmp419:
.Lfunc_end49:
	.size	HAL_FDCAN_DisableTxDelayCompensation, .Lfunc_end49-HAL_FDCAN_DisableTxDelayCompensation
	.cfi_endproc
	.cantunwind
	.fnend
                                        @ -- End function
	.section	.text.HAL_FDCAN_EnableISOMode,"ax",%progbits
	.hidden	HAL_FDCAN_EnableISOMode         @ -- Begin function HAL_FDCAN_EnableISOMode
	.globl	HAL_FDCAN_EnableISOMode
	.p2align	1
	.type	HAL_FDCAN_EnableISOMode,%function
	.code	16                              @ @HAL_FDCAN_EnableISOMode
	.thumb_func
HAL_FDCAN_EnableISOMode:
.Lfunc_begin50:
	.loc	2 1857 0                        @ ../src/driver/stm32g4-v120/src/stm32g4xx_hal_fdcan.c:1857:0
	.fnstart
	.cfi_startproc
@ %bb.0:
	@DEBUG_VALUE: HAL_FDCAN_EnableISOMode:hfdcan <- $r0
	@DEBUG_VALUE: HAL_FDCAN_EnableISOMode:hfdcan <- $r0
	.loc	2 1858 15 prologue_end          @ ../src/driver/stm32g4-v120/src/stm32g4xx_hal_fdcan.c:1858:15
	ldrb.w	r1, [r0, #92]
.Ltmp420:
	.loc	2 1858 7 is_stmt 0              @ ../src/driver/stm32g4-v120/src/stm32g4xx_hal_fdcan.c:1858:7
	cmp	r1, #1
	bne	.LBB50_2
.Ltmp421:
@ %bb.1:
	@DEBUG_VALUE: HAL_FDCAN_EnableISOMode:hfdcan <- $r0
	.loc	2 1861 5 is_stmt 1              @ ../src/driver/stm32g4-v120/src/stm32g4xx_hal_fdcan.c:1861:5
	ldr	r0, [r0]
.Ltmp422:
	@DEBUG_VALUE: HAL_FDCAN_EnableISOMode:hfdcan <- [DW_OP_LLVM_entry_value 1] $r0
	ldr	r1, [r0, #24]
	bic	r1, r1, #32768
	str	r1, [r0, #24]
	movs	r0, #0
.Ltmp423:
	.loc	2 1873 1                        @ ../src/driver/stm32g4-v120/src/stm32g4xx_hal_fdcan.c:1873:1
	bx	lr
.Ltmp424:
.LBB50_2:
	@DEBUG_VALUE: HAL_FDCAN_EnableISOMode:hfdcan <- $r0
	.loc	2 1869 23                       @ ../src/driver/stm32g4-v120/src/stm32g4xx_hal_fdcan.c:1869:23
	ldr	r1, [r0, #96]
	orr	r1, r1, #4
	str	r1, [r0, #96]
	movs	r0, #1
.Ltmp425:
	@DEBUG_VALUE: HAL_FDCAN_EnableISOMode:hfdcan <- [DW_OP_LLVM_entry_value 1] $r0
	.loc	2 1873 1                        @ ../src/driver/stm32g4-v120/src/stm32g4xx_hal_fdcan.c:1873:1
	bx	lr
.Ltmp426:
.Lfunc_end50:
	.size	HAL_FDCAN_EnableISOMode, .Lfunc_end50-HAL_FDCAN_EnableISOMode
	.cfi_endproc
	.cantunwind
	.fnend
                                        @ -- End function
	.section	.text.HAL_FDCAN_DisableISOMode,"ax",%progbits
	.hidden	HAL_FDCAN_DisableISOMode        @ -- Begin function HAL_FDCAN_DisableISOMode
	.globl	HAL_FDCAN_DisableISOMode
	.p2align	1
	.type	HAL_FDCAN_DisableISOMode,%function
	.code	16                              @ @HAL_FDCAN_DisableISOMode
	.thumb_func
HAL_FDCAN_DisableISOMode:
.Lfunc_begin51:
	.loc	2 1883 0                        @ ../src/driver/stm32g4-v120/src/stm32g4xx_hal_fdcan.c:1883:0
	.fnstart
	.cfi_startproc
@ %bb.0:
	@DEBUG_VALUE: HAL_FDCAN_DisableISOMode:hfdcan <- $r0
	@DEBUG_VALUE: HAL_FDCAN_DisableISOMode:hfdcan <- $r0
	.loc	2 1884 15 prologue_end          @ ../src/driver/stm32g4-v120/src/stm32g4xx_hal_fdcan.c:1884:15
	ldrb.w	r1, [r0, #92]
.Ltmp427:
	.loc	2 1884 7 is_stmt 0              @ ../src/driver/stm32g4-v120/src/stm32g4xx_hal_fdcan.c:1884:7
	cmp	r1, #1
	bne	.LBB51_2
.Ltmp428:
@ %bb.1:
	@DEBUG_VALUE: HAL_FDCAN_DisableISOMode:hfdcan <- $r0
	.loc	2 1887 5 is_stmt 1              @ ../src/driver/stm32g4-v120/src/stm32g4xx_hal_fdcan.c:1887:5
	ldr	r0, [r0]
.Ltmp429:
	@DEBUG_VALUE: HAL_FDCAN_DisableISOMode:hfdcan <- [DW_OP_LLVM_entry_value 1] $r0
	.loc	2 0 5 is_stmt 0                 @ ../src/driver/stm32g4-v120/src/stm32g4xx_hal_fdcan.c:0:5
	mov.w	r2, #32768
	.loc	2 1887 5                        @ ../src/driver/stm32g4-v120/src/stm32g4xx_hal_fdcan.c:1887:5
	add.w	r1, r0, #24
	movs	r0, #0
	b	.LBB51_3
.Ltmp430:
.LBB51_2:
	@DEBUG_VALUE: HAL_FDCAN_DisableISOMode:hfdcan <- $r0
	.loc	2 1895 13 is_stmt 1             @ ../src/driver/stm32g4-v120/src/stm32g4xx_hal_fdcan.c:1895:13
	add.w	r1, r0, #96
	movs	r0, #1
.Ltmp431:
	@DEBUG_VALUE: HAL_FDCAN_DisableISOMode:hfdcan <- [DW_OP_LLVM_entry_value 1] $r0
	.loc	2 0 13 is_stmt 0                @ ../src/driver/stm32g4-v120/src/stm32g4xx_hal_fdcan.c:0:13
	movs	r2, #4
.Ltmp432:
.LBB51_3:
	@DEBUG_VALUE: HAL_FDCAN_DisableISOMode:hfdcan <- [DW_OP_LLVM_entry_value 1] $r0
	ldr	r3, [r1]
	orrs	r2, r3
	str	r2, [r1]
.Ltmp433:
	.loc	2 1899 1 is_stmt 1              @ ../src/driver/stm32g4-v120/src/stm32g4xx_hal_fdcan.c:1899:1
	bx	lr
.Ltmp434:
.Lfunc_end51:
	.size	HAL_FDCAN_DisableISOMode, .Lfunc_end51-HAL_FDCAN_DisableISOMode
	.cfi_endproc
	.cantunwind
	.fnend
                                        @ -- End function
	.section	.text.HAL_FDCAN_EnableEdgeFiltering,"ax",%progbits
	.hidden	HAL_FDCAN_EnableEdgeFiltering   @ -- Begin function HAL_FDCAN_EnableEdgeFiltering
	.globl	HAL_FDCAN_EnableEdgeFiltering
	.p2align	1
	.type	HAL_FDCAN_EnableEdgeFiltering,%function
	.code	16                              @ @HAL_FDCAN_EnableEdgeFiltering
	.thumb_func
HAL_FDCAN_EnableEdgeFiltering:
.Lfunc_begin52:
	.loc	2 1909 0                        @ ../src/driver/stm32g4-v120/src/stm32g4xx_hal_fdcan.c:1909:0
	.fnstart
	.cfi_startproc
@ %bb.0:
	@DEBUG_VALUE: HAL_FDCAN_EnableEdgeFiltering:hfdcan <- $r0
	@DEBUG_VALUE: HAL_FDCAN_EnableEdgeFiltering:hfdcan <- $r0
	.loc	2 1910 15 prologue_end          @ ../src/driver/stm32g4-v120/src/stm32g4xx_hal_fdcan.c:1910:15
	ldrb.w	r1, [r0, #92]
.Ltmp435:
	.loc	2 1910 7 is_stmt 0              @ ../src/driver/stm32g4-v120/src/stm32g4xx_hal_fdcan.c:1910:7
	cmp	r1, #1
	bne	.LBB52_2
.Ltmp436:
@ %bb.1:
	@DEBUG_VALUE: HAL_FDCAN_EnableEdgeFiltering:hfdcan <- $r0
	.loc	2 1913 5 is_stmt 1              @ ../src/driver/stm32g4-v120/src/stm32g4xx_hal_fdcan.c:1913:5
	ldr	r0, [r0]
.Ltmp437:
	@DEBUG_VALUE: HAL_FDCAN_EnableEdgeFiltering:hfdcan <- [DW_OP_LLVM_entry_value 1] $r0
	.loc	2 0 5 is_stmt 0                 @ ../src/driver/stm32g4-v120/src/stm32g4xx_hal_fdcan.c:0:5
	mov.w	r2, #8192
	.loc	2 1913 5                        @ ../src/driver/stm32g4-v120/src/stm32g4xx_hal_fdcan.c:1913:5
	add.w	r1, r0, #24
	movs	r0, #0
	b	.LBB52_3
.Ltmp438:
.LBB52_2:
	@DEBUG_VALUE: HAL_FDCAN_EnableEdgeFiltering:hfdcan <- $r0
	.loc	2 1921 13 is_stmt 1             @ ../src/driver/stm32g4-v120/src/stm32g4xx_hal_fdcan.c:1921:13
	add.w	r1, r0, #96
	movs	r0, #1
.Ltmp439:
	@DEBUG_VALUE: HAL_FDCAN_EnableEdgeFiltering:hfdcan <- [DW_OP_LLVM_entry_value 1] $r0
	.loc	2 0 13 is_stmt 0                @ ../src/driver/stm32g4-v120/src/stm32g4xx_hal_fdcan.c:0:13
	movs	r2, #4
.Ltmp440:
.LBB52_3:
	@DEBUG_VALUE: HAL_FDCAN_EnableEdgeFiltering:hfdcan <- [DW_OP_LLVM_entry_value 1] $r0
	ldr	r3, [r1]
	orrs	r2, r3
	str	r2, [r1]
.Ltmp441:
	.loc	2 1925 1 is_stmt 1              @ ../src/driver/stm32g4-v120/src/stm32g4xx_hal_fdcan.c:1925:1
	bx	lr
.Ltmp442:
.Lfunc_end52:
	.size	HAL_FDCAN_EnableEdgeFiltering, .Lfunc_end52-HAL_FDCAN_EnableEdgeFiltering
	.cfi_endproc
	.cantunwind
	.fnend
                                        @ -- End function
	.section	.text.HAL_FDCAN_DisableEdgeFiltering,"ax",%progbits
	.hidden	HAL_FDCAN_DisableEdgeFiltering  @ -- Begin function HAL_FDCAN_DisableEdgeFiltering
	.globl	HAL_FDCAN_DisableEdgeFiltering
	.p2align	1
	.type	HAL_FDCAN_DisableEdgeFiltering,%function
	.code	16                              @ @HAL_FDCAN_DisableEdgeFiltering
	.thumb_func
HAL_FDCAN_DisableEdgeFiltering:
.Lfunc_begin53:
	.loc	2 1935 0                        @ ../src/driver/stm32g4-v120/src/stm32g4xx_hal_fdcan.c:1935:0
	.fnstart
	.cfi_startproc
@ %bb.0:
	@DEBUG_VALUE: HAL_FDCAN_DisableEdgeFiltering:hfdcan <- $r0
	@DEBUG_VALUE: HAL_FDCAN_DisableEdgeFiltering:hfdcan <- $r0
	.loc	2 1936 15 prologue_end          @ ../src/driver/stm32g4-v120/src/stm32g4xx_hal_fdcan.c:1936:15
	ldrb.w	r1, [r0, #92]
.Ltmp443:
	.loc	2 1936 7 is_stmt 0              @ ../src/driver/stm32g4-v120/src/stm32g4xx_hal_fdcan.c:1936:7
	cmp	r1, #1
	bne	.LBB53_2
.Ltmp444:
@ %bb.1:
	@DEBUG_VALUE: HAL_FDCAN_DisableEdgeFiltering:hfdcan <- $r0
	.loc	2 1939 5 is_stmt 1              @ ../src/driver/stm32g4-v120/src/stm32g4xx_hal_fdcan.c:1939:5
	ldr	r0, [r0]
.Ltmp445:
	@DEBUG_VALUE: HAL_FDCAN_DisableEdgeFiltering:hfdcan <- [DW_OP_LLVM_entry_value 1] $r0
	ldr	r1, [r0, #24]
	bic	r1, r1, #8192
	str	r1, [r0, #24]
	movs	r0, #0
.Ltmp446:
	.loc	2 1951 1                        @ ../src/driver/stm32g4-v120/src/stm32g4xx_hal_fdcan.c:1951:1
	bx	lr
.Ltmp447:
.LBB53_2:
	@DEBUG_VALUE: HAL_FDCAN_DisableEdgeFiltering:hfdcan <- $r0
	.loc	2 1947 23                       @ ../src/driver/stm32g4-v120/src/stm32g4xx_hal_fdcan.c:1947:23
	ldr	r1, [r0, #96]
	orr	r1, r1, #4
	str	r1, [r0, #96]
	movs	r0, #1
.Ltmp448:
	@DEBUG_VALUE: HAL_FDCAN_DisableEdgeFiltering:hfdcan <- [DW_OP_LLVM_entry_value 1] $r0
	.loc	2 1951 1                        @ ../src/driver/stm32g4-v120/src/stm32g4xx_hal_fdcan.c:1951:1
	bx	lr
.Ltmp449:
.Lfunc_end53:
	.size	HAL_FDCAN_DisableEdgeFiltering, .Lfunc_end53-HAL_FDCAN_DisableEdgeFiltering
	.cfi_endproc
	.cantunwind
	.fnend
                                        @ -- End function
	.section	.text.HAL_FDCAN_Start,"ax",%progbits
	.hidden	HAL_FDCAN_Start                 @ -- Begin function HAL_FDCAN_Start
	.globl	HAL_FDCAN_Start
	.p2align	1
	.type	HAL_FDCAN_Start,%function
	.code	16                              @ @HAL_FDCAN_Start
	.thumb_func
HAL_FDCAN_Start:
.Lfunc_begin54:
	.loc	2 1995 0                        @ ../src/driver/stm32g4-v120/src/stm32g4xx_hal_fdcan.c:1995:0
	.fnstart
	.cfi_startproc
@ %bb.0:
	@DEBUG_VALUE: HAL_FDCAN_Start:hfdcan <- $r0
	@DEBUG_VALUE: HAL_FDCAN_Start:hfdcan <- $r0
	.loc	2 1996 15 prologue_end          @ ../src/driver/stm32g4-v120/src/stm32g4xx_hal_fdcan.c:1996:15
	ldrb.w	r1, [r0, #92]
.Ltmp450:
	.loc	2 1996 7 is_stmt 0              @ ../src/driver/stm32g4-v120/src/stm32g4xx_hal_fdcan.c:1996:7
	cmp	r1, #1
	bne	.LBB54_2
.Ltmp451:
@ %bb.1:
	@DEBUG_VALUE: HAL_FDCAN_Start:hfdcan <- $r0
	.loc	2 0 7                           @ ../src/driver/stm32g4-v120/src/stm32g4xx_hal_fdcan.c:0:7
	movs	r1, #2
.Ltmp452:
	.loc	2 1999 19 is_stmt 1             @ ../src/driver/stm32g4-v120/src/stm32g4xx_hal_fdcan.c:1999:19
	strb.w	r1, [r0, #92]
	.loc	2 2002 5                        @ ../src/driver/stm32g4-v120/src/stm32g4xx_hal_fdcan.c:2002:5
	ldr	r1, [r0]
	ldr	r2, [r1, #24]
	bic	r2, r2, #1
	str	r2, [r1, #24]
	movs	r1, #0
	.loc	2 2005 23                       @ ../src/driver/stm32g4-v120/src/stm32g4xx_hal_fdcan.c:2005:23
	str	r1, [r0, #96]
	b	.LBB54_3
.Ltmp453:
.LBB54_2:
	@DEBUG_VALUE: HAL_FDCAN_Start:hfdcan <- $r0
	.loc	2 2013 23                       @ ../src/driver/stm32g4-v120/src/stm32g4xx_hal_fdcan.c:2013:23
	ldr	r1, [r0, #96]
	orr	r1, r1, #4
	str	r1, [r0, #96]
	movs	r1, #1
.Ltmp454:
.LBB54_3:
	@DEBUG_VALUE: HAL_FDCAN_Start:hfdcan <- $r0
	.loc	2 2017 1                        @ ../src/driver/stm32g4-v120/src/stm32g4xx_hal_fdcan.c:2017:1
	mov	r0, r1
.Ltmp455:
	@DEBUG_VALUE: HAL_FDCAN_Start:hfdcan <- [DW_OP_LLVM_entry_value 1] $r0
	bx	lr
.Ltmp456:
.Lfunc_end54:
	.size	HAL_FDCAN_Start, .Lfunc_end54-HAL_FDCAN_Start
	.cfi_endproc
	.cantunwind
	.fnend
                                        @ -- End function
	.section	.text.HAL_FDCAN_AddMessageToTxFifoQ,"ax",%progbits
	.hidden	HAL_FDCAN_AddMessageToTxFifoQ   @ -- Begin function HAL_FDCAN_AddMessageToTxFifoQ
	.globl	HAL_FDCAN_AddMessageToTxFifoQ
	.p2align	1
	.type	HAL_FDCAN_AddMessageToTxFifoQ,%function
	.code	16                              @ @HAL_FDCAN_AddMessageToTxFifoQ
	.thumb_func
HAL_FDCAN_AddMessageToTxFifoQ:
.Lfunc_begin55:
	.loc	2 2109 0                        @ ../src/driver/stm32g4-v120/src/stm32g4xx_hal_fdcan.c:2109:0
	.fnstart
	.cfi_startproc
@ %bb.0:
	@DEBUG_VALUE: HAL_FDCAN_AddMessageToTxFifoQ:hfdcan <- $r0
	@DEBUG_VALUE: HAL_FDCAN_AddMessageToTxFifoQ:hfdcan <- $r0
	@DEBUG_VALUE: HAL_FDCAN_AddMessageToTxFifoQ:pTxHeader <- $r1
	@DEBUG_VALUE: HAL_FDCAN_AddMessageToTxFifoQ:pTxData <- $r2
	.save	{r4, r5, r6, r7, r8, lr}
	push.w	{r4, r5, r6, r7, r8, lr}
	.cfi_def_cfa_offset 24
	.cfi_offset lr, -4
	.cfi_offset r8, -8
	.cfi_offset r7, -12
	.cfi_offset r6, -16
	.cfi_offset r5, -20
	.cfi_offset r4, -24
.Ltmp457:
	.loc	2 2130 15 prologue_end          @ ../src/driver/stm32g4-v120/src/stm32g4xx_hal_fdcan.c:2130:15
	ldrb.w	r3, [r0, #92]
.Ltmp458:
	@DEBUG_VALUE: HAL_FDCAN_AddMessageToTxFifoQ:pTxData <- $r2
	.loc	2 2130 7 is_stmt 0              @ ../src/driver/stm32g4-v120/src/stm32g4xx_hal_fdcan.c:2130:7
	cmp	r3, #2
	@DEBUG_VALUE: HAL_FDCAN_AddMessageToTxFifoQ:pTxHeader <- $r1
	bne	.LBB55_4
.Ltmp459:
@ %bb.1:
	@DEBUG_VALUE: HAL_FDCAN_AddMessageToTxFifoQ:pTxData <- $r2
	@DEBUG_VALUE: HAL_FDCAN_AddMessageToTxFifoQ:pTxHeader <- $r1
	@DEBUG_VALUE: HAL_FDCAN_AddMessageToTxFifoQ:hfdcan <- $r0
	.loc	2 2133 18 is_stmt 1             @ ../src/driver/stm32g4-v120/src/stm32g4xx_hal_fdcan.c:2133:18
	ldr	r6, [r0]
	.loc	2 2133 28 is_stmt 0             @ ../src/driver/stm32g4-v120/src/stm32g4xx_hal_fdcan.c:2133:28
	ldr.w	r3, [r6, #196]
.Ltmp460:
	.loc	2 2133 9                        @ ../src/driver/stm32g4-v120/src/stm32g4xx_hal_fdcan.c:2133:9
	lsls	r3, r3, #10
	bmi	.LBB55_5
.Ltmp461:
@ %bb.2:
	@DEBUG_VALUE: HAL_FDCAN_AddMessageToTxFifoQ:pTxData <- $r2
	@DEBUG_VALUE: HAL_FDCAN_AddMessageToTxFifoQ:pTxHeader <- $r1
	@DEBUG_VALUE: HAL_FDCAN_AddMessageToTxFifoQ:hfdcan <- $r0
	.loc	2 2143 38 is_stmt 1             @ ../src/driver/stm32g4-v120/src/stm32g4xx_hal_fdcan.c:2143:38
	ldr.w	r4, [r6, #196]
.Ltmp462:
	.loc	2 3463 18                       @ ../src/driver/stm32g4-v120/src/stm32g4xx_hal_fdcan.c:3463:18
	ldrd	r3, lr, [r1, #4]
	.loc	2 0 0 is_stmt 0                 @ ../src/driver/stm32g4-v120/src/stm32g4xx_hal_fdcan.c:0:0
	ldr	r5, [r1, #16]
.Ltmp463:
	.loc	2 2143 65 is_stmt 1             @ ../src/driver/stm32g4-v120/src/stm32g4xx_hal_fdcan.c:2143:65
	ubfx	r12, r4, #16, #2
.Ltmp464:
	@DEBUG_VALUE: FDCAN_CopyMessageToRAM:pTxData <- $r2
	@DEBUG_VALUE: FDCAN_CopyMessageToRAM:pTxHeader <- $r1
	@DEBUG_VALUE: FDCAN_CopyMessageToRAM:hfdcan <- $r0
	@DEBUG_VALUE: FDCAN_CopyMessageToRAM:BufferIndex <- $r12
	@DEBUG_VALUE: HAL_FDCAN_AddMessageToTxFifoQ:PutIndex <- $r12
	.loc	2 3463 7                        @ ../src/driver/stm32g4-v120/src/stm32g4xx_hal_fdcan.c:3463:7
	cbz	r3, .LBB55_7
.Ltmp465:
@ %bb.3:
	@DEBUG_VALUE: HAL_FDCAN_AddMessageToTxFifoQ:PutIndex <- $r12
	@DEBUG_VALUE: FDCAN_CopyMessageToRAM:BufferIndex <- $r12
	@DEBUG_VALUE: FDCAN_CopyMessageToRAM:pTxData <- $r2
	@DEBUG_VALUE: HAL_FDCAN_AddMessageToTxFifoQ:pTxData <- $r2
	@DEBUG_VALUE: FDCAN_CopyMessageToRAM:pTxHeader <- $r1
	@DEBUG_VALUE: HAL_FDCAN_AddMessageToTxFifoQ:pTxHeader <- $r1
	@DEBUG_VALUE: FDCAN_CopyMessageToRAM:hfdcan <- $r0
	@DEBUG_VALUE: HAL_FDCAN_AddMessageToTxFifoQ:hfdcan <- $r0
	.loc	2 3475 31                       @ ../src/driver/stm32g4-v120/src/stm32g4xx_hal_fdcan.c:3475:31
	ldr	r3, [r1]
	.loc	2 3474 43                       @ ../src/driver/stm32g4-v120/src/stm32g4xx_hal_fdcan.c:3474:43
	orr.w	r5, r5, lr
	orrs	r3, r5
	orr	lr, r3, #1073741824
.Ltmp466:
	@DEBUG_VALUE: FDCAN_CopyMessageToRAM:TxElementW1 <- $lr
	.loc	2 0 43 is_stmt 0                @ ../src/driver/stm32g4-v120/src/stm32g4xx_hal_fdcan.c:0:43
	b	.LBB55_8
.Ltmp467:
.LBB55_4:
	@DEBUG_VALUE: HAL_FDCAN_AddMessageToTxFifoQ:pTxData <- $r2
	@DEBUG_VALUE: HAL_FDCAN_AddMessageToTxFifoQ:pTxHeader <- $r1
	@DEBUG_VALUE: HAL_FDCAN_AddMessageToTxFifoQ:hfdcan <- $r0
	.loc	2 2161 23 is_stmt 1             @ ../src/driver/stm32g4-v120/src/stm32g4xx_hal_fdcan.c:2161:23
	ldr	r1, [r0, #96]
.Ltmp468:
	@DEBUG_VALUE: HAL_FDCAN_AddMessageToTxFifoQ:pTxHeader <- [DW_OP_LLVM_entry_value 1] $r1
	orr	r1, r1, #8
	b	.LBB55_6
.Ltmp469:
.LBB55_5:
	@DEBUG_VALUE: HAL_FDCAN_AddMessageToTxFifoQ:pTxData <- $r2
	@DEBUG_VALUE: HAL_FDCAN_AddMessageToTxFifoQ:pTxHeader <- $r1
	@DEBUG_VALUE: HAL_FDCAN_AddMessageToTxFifoQ:hfdcan <- $r0
	.loc	2 2136 25                       @ ../src/driver/stm32g4-v120/src/stm32g4xx_hal_fdcan.c:2136:25
	ldr	r1, [r0, #96]
.Ltmp470:
	@DEBUG_VALUE: HAL_FDCAN_AddMessageToTxFifoQ:pTxHeader <- [DW_OP_LLVM_entry_value 1] $r1
	orr	r1, r1, #512
.Ltmp471:
.LBB55_6:
	@DEBUG_VALUE: HAL_FDCAN_AddMessageToTxFifoQ:pTxData <- $r2
	@DEBUG_VALUE: HAL_FDCAN_AddMessageToTxFifoQ:hfdcan <- $r0
	@DEBUG_VALUE: HAL_FDCAN_AddMessageToTxFifoQ:pTxHeader <- [DW_OP_LLVM_entry_value 1] $r1
	.loc	2 0 0 is_stmt 0                 @ ../src/driver/stm32g4-v120/src/stm32g4xx_hal_fdcan.c:0:0
	str	r1, [r0, #96]
	movs	r0, #1
.Ltmp472:
	@DEBUG_VALUE: HAL_FDCAN_AddMessageToTxFifoQ:hfdcan <- [DW_OP_LLVM_entry_value 1] $r0
	.loc	2 2165 1 is_stmt 1              @ ../src/driver/stm32g4-v120/src/stm32g4xx_hal_fdcan.c:2165:1
	pop.w	{r4, r5, r6, r7, r8, pc}
.Ltmp473:
.LBB55_7:
	@DEBUG_VALUE: HAL_FDCAN_AddMessageToTxFifoQ:PutIndex <- $r12
	@DEBUG_VALUE: FDCAN_CopyMessageToRAM:BufferIndex <- $r12
	@DEBUG_VALUE: FDCAN_CopyMessageToRAM:pTxData <- $r2
	@DEBUG_VALUE: HAL_FDCAN_AddMessageToTxFifoQ:pTxData <- $r2
	@DEBUG_VALUE: FDCAN_CopyMessageToRAM:pTxHeader <- $r1
	@DEBUG_VALUE: HAL_FDCAN_AddMessageToTxFifoQ:pTxHeader <- $r1
	@DEBUG_VALUE: FDCAN_CopyMessageToRAM:hfdcan <- $r0
	@DEBUG_VALUE: HAL_FDCAN_AddMessageToTxFifoQ:hfdcan <- $r0
	.loc	2 3468 32                       @ ../src/driver/stm32g4-v120/src/stm32g4xx_hal_fdcan.c:3468:32
	ldr	r3, [r1]
	.loc	2 3466 38                       @ ../src/driver/stm32g4-v120/src/stm32g4xx_hal_fdcan.c:3466:38
	orr.w	r5, r5, lr
	.loc	2 3467 43                       @ ../src/driver/stm32g4-v120/src/stm32g4xx_hal_fdcan.c:3467:43
	orr.w	lr, r5, r3, lsl #18
.Ltmp474:
	@DEBUG_VALUE: FDCAN_CopyMessageToRAM:TxElementW1 <- $lr
.LBB55_8:
	@DEBUG_VALUE: HAL_FDCAN_AddMessageToTxFifoQ:PutIndex <- $r12
	@DEBUG_VALUE: FDCAN_CopyMessageToRAM:BufferIndex <- $r12
	@DEBUG_VALUE: FDCAN_CopyMessageToRAM:pTxData <- $r2
	@DEBUG_VALUE: HAL_FDCAN_AddMessageToTxFifoQ:pTxData <- $r2
	@DEBUG_VALUE: FDCAN_CopyMessageToRAM:pTxHeader <- $r1
	@DEBUG_VALUE: HAL_FDCAN_AddMessageToTxFifoQ:pTxHeader <- $r1
	@DEBUG_VALUE: FDCAN_CopyMessageToRAM:hfdcan <- $r0
	@DEBUG_VALUE: HAL_FDCAN_AddMessageToTxFifoQ:hfdcan <- $r0
	@DEBUG_VALUE: FDCAN_CopyMessageToRAM:TxElementW1 <- $lr
	@DEBUG_VALUE: FDCAN_CopyMessageToRAM:TxElementW1 <- $lr
	.loc	2 3480 29                       @ ../src/driver/stm32g4-v120/src/stm32g4xx_hal_fdcan.c:3480:29
	ldrd	r5, r7, [r1, #28]
	.loc	2 3482 29                       @ ../src/driver/stm32g4-v120/src/stm32g4xx_hal_fdcan.c:3482:29
	ldrd	r8, r4, [r1, #20]
	.loc	2 3479 52                       @ ../src/driver/stm32g4-v120/src/stm32g4xx_hal_fdcan.c:3479:52
	orr.w	r5, r5, r7, lsl #24
	.loc	2 3483 29                       @ ../src/driver/stm32g4-v120/src/stm32g4xx_hal_fdcan.c:3483:29
	ldr	r3, [r1, #12]
	.loc	2 3480 48                       @ ../src/driver/stm32g4-v120/src/stm32g4xx_hal_fdcan.c:3480:48
	orrs	r4, r5
	.loc	2 3486 43                       @ ../src/driver/stm32g4-v120/src/stm32g4xx_hal_fdcan.c:3486:43
	ldr	r5, [r0, #84]
	.loc	2 3481 38                       @ ../src/driver/stm32g4-v120/src/stm32g4xx_hal_fdcan.c:3481:38
	orr.w	r4, r4, r8
	.loc	2 3486 68                       @ ../src/driver/stm32g4-v120/src/stm32g4xx_hal_fdcan.c:3486:68
	add.w	r7, r12, r12, lsl #3
	.loc	2 3482 43                       @ ../src/driver/stm32g4-v120/src/stm32g4xx_hal_fdcan.c:3482:43
	orrs	r4, r3
.Ltmp475:
	@DEBUG_VALUE: FDCAN_CopyMessageToRAM:TxElementW2 <- $r4
	.loc	2 3486 53                       @ ../src/driver/stm32g4-v120/src/stm32g4xx_hal_fdcan.c:3486:53
	add.w	r3, r5, r7, lsl #3
.Ltmp476:
	@DEBUG_VALUE: FDCAN_CopyMessageToRAM:TxAddress <- $r3
	.loc	2 3489 14                       @ ../src/driver/stm32g4-v120/src/stm32g4xx_hal_fdcan.c:3489:14
	str.w	lr, [r5, r7, lsl #3]
.Ltmp477:
	@DEBUG_VALUE: FDCAN_CopyMessageToRAM:TxAddress <- [DW_OP_plus_uconst 4, DW_OP_stack_value] $r3
	.loc	2 3491 14                       @ ../src/driver/stm32g4-v120/src/stm32g4xx_hal_fdcan.c:3491:14
	str	r4, [r3, #4]
.Ltmp478:
	@DEBUG_VALUE: FDCAN_CopyMessageToRAM:ByteCounter <- 0
	@DEBUG_VALUE: FDCAN_CopyMessageToRAM:TxAddress <- [DW_OP_plus_uconst 8, DW_OP_stack_value] $r3
	.loc	2 3495 61                       @ ../src/driver/stm32g4-v120/src/stm32g4xx_hal_fdcan.c:3495:61
	ldr	r7, [r1, #12]
.Ltmp479:
	.loc	2 3495 3 is_stmt 0              @ ../src/driver/stm32g4-v120/src/stm32g4xx_hal_fdcan.c:3495:3
	cmp.w	r7, #65536
	blo	.LBB55_11
.Ltmp480:
@ %bb.9:
	@DEBUG_VALUE: HAL_FDCAN_AddMessageToTxFifoQ:PutIndex <- $r12
	@DEBUG_VALUE: FDCAN_CopyMessageToRAM:BufferIndex <- $r12
	@DEBUG_VALUE: FDCAN_CopyMessageToRAM:TxElementW2 <- $r4
	@DEBUG_VALUE: FDCAN_CopyMessageToRAM:TxAddress <- [DW_OP_plus_uconst 8, DW_OP_stack_value] $r3
	@DEBUG_VALUE: FDCAN_CopyMessageToRAM:pTxData <- $r2
	@DEBUG_VALUE: HAL_FDCAN_AddMessageToTxFifoQ:pTxData <- $r2
	@DEBUG_VALUE: FDCAN_CopyMessageToRAM:pTxHeader <- $r1
	@DEBUG_VALUE: HAL_FDCAN_AddMessageToTxFifoQ:pTxHeader <- $r1
	@DEBUG_VALUE: FDCAN_CopyMessageToRAM:hfdcan <- $r0
	@DEBUG_VALUE: HAL_FDCAN_AddMessageToTxFifoQ:hfdcan <- $r0
	@DEBUG_VALUE: FDCAN_CopyMessageToRAM:TxElementW1 <- $lr
	@DEBUG_VALUE: FDCAN_CopyMessageToRAM:ByteCounter <- 0
	.loc	2 0 3                           @ ../src/driver/stm32g4-v120/src/stm32g4xx_hal_fdcan.c:0:3
	movw	r5, :lower16:DLCtoBytes
	.loc	2 3492 12 is_stmt 1             @ ../src/driver/stm32g4-v120/src/stm32g4xx_hal_fdcan.c:3492:12
	adds	r3, #8
.Ltmp481:
	@DEBUG_VALUE: FDCAN_CopyMessageToRAM:TxAddress <- $r3
	.loc	2 0 12 is_stmt 0                @ ../src/driver/stm32g4-v120/src/stm32g4xx_hal_fdcan.c:0:12
	movs	r4, #0
.Ltmp482:
	movt	r5, :upper16:DLCtoBytes
.Ltmp483:
	.p2align	2
.LBB55_10:                              @ =>This Inner Loop Header: Depth=1
	@DEBUG_VALUE: HAL_FDCAN_AddMessageToTxFifoQ:PutIndex <- $r12
	@DEBUG_VALUE: FDCAN_CopyMessageToRAM:BufferIndex <- $r12
	@DEBUG_VALUE: FDCAN_CopyMessageToRAM:pTxData <- $r2
	@DEBUG_VALUE: HAL_FDCAN_AddMessageToTxFifoQ:pTxData <- $r2
	@DEBUG_VALUE: FDCAN_CopyMessageToRAM:pTxHeader <- $r1
	@DEBUG_VALUE: HAL_FDCAN_AddMessageToTxFifoQ:pTxHeader <- $r1
	@DEBUG_VALUE: FDCAN_CopyMessageToRAM:hfdcan <- $r0
	@DEBUG_VALUE: HAL_FDCAN_AddMessageToTxFifoQ:hfdcan <- $r0
	@DEBUG_VALUE: FDCAN_CopyMessageToRAM:TxElementW1 <- $lr
	@DEBUG_VALUE: FDCAN_CopyMessageToRAM:TxAddress <- undef
	@DEBUG_VALUE: FDCAN_CopyMessageToRAM:ByteCounter <- $r4
	.loc	2 3499 64 is_stmt 1             @ ../src/driver/stm32g4-v120/src/stm32g4xx_hal_fdcan.c:3499:64
	ldr	r7, [r2, r4]
	.loc	2 3497 16                       @ ../src/driver/stm32g4-v120/src/stm32g4xx_hal_fdcan.c:3497:16
	str	r7, [r3, r4]
.Ltmp484:
	@DEBUG_VALUE: FDCAN_CopyMessageToRAM:TxAddress <- [DW_OP_plus_uconst 4, DW_OP_stack_value] undef
	.loc	2 3495 61                       @ ../src/driver/stm32g4-v120/src/stm32g4xx_hal_fdcan.c:3495:61
	ldrh	r7, [r1, #14]
	.loc	2 3495 93 is_stmt 0             @ ../src/driver/stm32g4-v120/src/stm32g4xx_hal_fdcan.c:3495:93
	adds	r4, #4
.Ltmp485:
	@DEBUG_VALUE: FDCAN_CopyMessageToRAM:ByteCounter <- $r4
	.loc	2 3495 39                       @ ../src/driver/stm32g4-v120/src/stm32g4xx_hal_fdcan.c:3495:39
	ldrb	r7, [r5, r7]
.Ltmp486:
	.loc	2 3495 3                        @ ../src/driver/stm32g4-v120/src/stm32g4xx_hal_fdcan.c:3495:3
	cmp	r4, r7
	blo	.LBB55_10
.Ltmp487:
.LBB55_11:
	@DEBUG_VALUE: HAL_FDCAN_AddMessageToTxFifoQ:PutIndex <- $r12
	@DEBUG_VALUE: HAL_FDCAN_AddMessageToTxFifoQ:pTxData <- $r2
	@DEBUG_VALUE: HAL_FDCAN_AddMessageToTxFifoQ:pTxHeader <- $r1
	@DEBUG_VALUE: HAL_FDCAN_AddMessageToTxFifoQ:hfdcan <- $r0
	.loc	2 0 3                           @ ../src/driver/stm32g4-v120/src/stm32g4xx_hal_fdcan.c:0:3
	movs	r1, #1
.Ltmp488:
	@DEBUG_VALUE: HAL_FDCAN_AddMessageToTxFifoQ:pTxHeader <- [DW_OP_LLVM_entry_value 1] $r1
	.loc	2 2149 46 is_stmt 1             @ ../src/driver/stm32g4-v120/src/stm32g4xx_hal_fdcan.c:2149:46
	lsl.w	r1, r1, r12
	.loc	2 2149 31 is_stmt 0             @ ../src/driver/stm32g4-v120/src/stm32g4xx_hal_fdcan.c:2149:31
	str.w	r1, [r6, #204]
	.loc	2 2152 36 is_stmt 1             @ ../src/driver/stm32g4-v120/src/stm32g4xx_hal_fdcan.c:2152:36
	str	r1, [r0, #88]
	movs	r0, #0
.Ltmp489:
	@DEBUG_VALUE: HAL_FDCAN_AddMessageToTxFifoQ:hfdcan <- [DW_OP_LLVM_entry_value 1] $r0
	.loc	2 2165 1                        @ ../src/driver/stm32g4-v120/src/stm32g4xx_hal_fdcan.c:2165:1
	pop.w	{r4, r5, r6, r7, r8, pc}
.Ltmp490:
.Lfunc_end55:
	.size	HAL_FDCAN_AddMessageToTxFifoQ, .Lfunc_end55-HAL_FDCAN_AddMessageToTxFifoQ
	.cfi_endproc
	.cantunwind
	.fnend
                                        @ -- End function
	.section	.text.HAL_FDCAN_GetLatestTxFifoQRequestBuffer,"ax",%progbits
	.hidden	HAL_FDCAN_GetLatestTxFifoQRequestBuffer @ -- Begin function HAL_FDCAN_GetLatestTxFifoQRequestBuffer
	.globl	HAL_FDCAN_GetLatestTxFifoQRequestBuffer
	.p2align	1
	.type	HAL_FDCAN_GetLatestTxFifoQRequestBuffer,%function
	.code	16                              @ @HAL_FDCAN_GetLatestTxFifoQRequestBuffer
	.thumb_func
HAL_FDCAN_GetLatestTxFifoQRequestBuffer:
.Lfunc_begin56:
	.loc	2 2176 0                        @ ../src/driver/stm32g4-v120/src/stm32g4xx_hal_fdcan.c:2176:0
	.fnstart
	.cfi_startproc
@ %bb.0:
	@DEBUG_VALUE: HAL_FDCAN_GetLatestTxFifoQRequestBuffer:hfdcan <- $r0
	@DEBUG_VALUE: HAL_FDCAN_GetLatestTxFifoQRequestBuffer:hfdcan <- $r0
	.loc	2 2178 18 prologue_end          @ ../src/driver/stm32g4-v120/src/stm32g4xx_hal_fdcan.c:2178:18
	ldr	r0, [r0, #88]
.Ltmp491:
	@DEBUG_VALUE: HAL_FDCAN_GetLatestTxFifoQRequestBuffer:hfdcan <- [DW_OP_LLVM_entry_value 1] $r0
	.loc	2 2178 3 is_stmt 0              @ ../src/driver/stm32g4-v120/src/stm32g4xx_hal_fdcan.c:2178:3
	bx	lr
.Ltmp492:
.Lfunc_end56:
	.size	HAL_FDCAN_GetLatestTxFifoQRequestBuffer, .Lfunc_end56-HAL_FDCAN_GetLatestTxFifoQRequestBuffer
	.cfi_endproc
	.cantunwind
	.fnend
                                        @ -- End function
	.section	.text.HAL_FDCAN_AbortTxRequest,"ax",%progbits
	.hidden	HAL_FDCAN_AbortTxRequest        @ -- Begin function HAL_FDCAN_AbortTxRequest
	.globl	HAL_FDCAN_AbortTxRequest
	.p2align	1
	.type	HAL_FDCAN_AbortTxRequest,%function
	.code	16                              @ @HAL_FDCAN_AbortTxRequest
	.thumb_func
HAL_FDCAN_AbortTxRequest:
.Lfunc_begin57:
	.loc	2 2190 0 is_stmt 1              @ ../src/driver/stm32g4-v120/src/stm32g4xx_hal_fdcan.c:2190:0
	.fnstart
	.cfi_startproc
@ %bb.0:
	@DEBUG_VALUE: HAL_FDCAN_AbortTxRequest:hfdcan <- $r0
	@DEBUG_VALUE: HAL_FDCAN_AbortTxRequest:hfdcan <- $r0
	@DEBUG_VALUE: HAL_FDCAN_AbortTxRequest:BufferIndex <- $r1
	.loc	2 2194 15 prologue_end          @ ../src/driver/stm32g4-v120/src/stm32g4xx_hal_fdcan.c:2194:15
	ldrb.w	r2, [r0, #92]
.Ltmp493:
	.loc	2 2194 7 is_stmt 0              @ ../src/driver/stm32g4-v120/src/stm32g4xx_hal_fdcan.c:2194:7
	cmp	r2, #2
	@DEBUG_VALUE: HAL_FDCAN_AbortTxRequest:BufferIndex <- $r1
	bne	.LBB57_2
.Ltmp494:
@ %bb.1:
	@DEBUG_VALUE: HAL_FDCAN_AbortTxRequest:BufferIndex <- $r1
	@DEBUG_VALUE: HAL_FDCAN_AbortTxRequest:hfdcan <- $r0
	.loc	2 2197 13 is_stmt 1             @ ../src/driver/stm32g4-v120/src/stm32g4xx_hal_fdcan.c:2197:13
	ldr	r0, [r0]
.Ltmp495:
	@DEBUG_VALUE: HAL_FDCAN_AbortTxRequest:hfdcan <- [DW_OP_LLVM_entry_value 1] $r0
	.loc	2 2197 29 is_stmt 0             @ ../src/driver/stm32g4-v120/src/stm32g4xx_hal_fdcan.c:2197:29
	str.w	r1, [r0, #208]
	movs	r0, #0
.Ltmp496:
	.loc	2 2209 1 is_stmt 1              @ ../src/driver/stm32g4-v120/src/stm32g4xx_hal_fdcan.c:2209:1
	bx	lr
.Ltmp497:
.LBB57_2:
	@DEBUG_VALUE: HAL_FDCAN_AbortTxRequest:BufferIndex <- $r1
	@DEBUG_VALUE: HAL_FDCAN_AbortTxRequest:hfdcan <- $r0
	.loc	2 2205 23                       @ ../src/driver/stm32g4-v120/src/stm32g4xx_hal_fdcan.c:2205:23
	ldr	r1, [r0, #96]
.Ltmp498:
	@DEBUG_VALUE: HAL_FDCAN_AbortTxRequest:BufferIndex <- [DW_OP_LLVM_entry_value 1] $r1
	orr	r1, r1, #8
	str	r1, [r0, #96]
	movs	r0, #1
.Ltmp499:
	@DEBUG_VALUE: HAL_FDCAN_AbortTxRequest:hfdcan <- [DW_OP_LLVM_entry_value 1] $r0
	.loc	2 2209 1                        @ ../src/driver/stm32g4-v120/src/stm32g4xx_hal_fdcan.c:2209:1
	bx	lr
.Ltmp500:
.Lfunc_end57:
	.size	HAL_FDCAN_AbortTxRequest, .Lfunc_end57-HAL_FDCAN_AbortTxRequest
	.cfi_endproc
	.cantunwind
	.fnend
                                        @ -- End function
	.section	.text.HAL_FDCAN_GetRxMessage,"ax",%progbits
	.hidden	HAL_FDCAN_GetRxMessage          @ -- Begin function HAL_FDCAN_GetRxMessage
	.globl	HAL_FDCAN_GetRxMessage
	.p2align	1
	.type	HAL_FDCAN_GetRxMessage,%function
	.code	16                              @ @HAL_FDCAN_GetRxMessage
	.thumb_func
HAL_FDCAN_GetRxMessage:
.Lfunc_begin58:
	.loc	2 2223 0                        @ ../src/driver/stm32g4-v120/src/stm32g4xx_hal_fdcan.c:2223:0
	.fnstart
	.cfi_startproc
@ %bb.0:
	@DEBUG_VALUE: HAL_FDCAN_GetRxMessage:hfdcan <- $r0
	@DEBUG_VALUE: HAL_FDCAN_GetRxMessage:hfdcan <- $r0
	@DEBUG_VALUE: HAL_FDCAN_GetRxMessage:RxLocation <- $r1
	@DEBUG_VALUE: HAL_FDCAN_GetRxMessage:pRxHeader <- $r2
	@DEBUG_VALUE: HAL_FDCAN_GetRxMessage:pRxData <- $r3
	@DEBUG_VALUE: HAL_FDCAN_GetRxMessage:pRxData <- $r3
	.save	{r4, r5, r6, lr}
	push	{r4, r5, r6, lr}
	.cfi_def_cfa_offset 16
	.cfi_offset lr, -4
	.cfi_offset r6, -8
	.cfi_offset r5, -12
	.cfi_offset r4, -16
.Ltmp501:
	.loc	2 2228 42 prologue_end          @ ../src/driver/stm32g4-v120/src/stm32g4xx_hal_fdcan.c:2228:42
	ldrb.w	r5, [r0, #92]
.Ltmp502:
	@DEBUG_VALUE: HAL_FDCAN_GetRxMessage:state <- $r5
	@DEBUG_VALUE: HAL_FDCAN_GetRxMessage:pRxHeader <- $r2
	.loc	2 2233 7                        @ ../src/driver/stm32g4-v120/src/stm32g4xx_hal_fdcan.c:2233:7
	cmp	r5, #2
	@DEBUG_VALUE: HAL_FDCAN_GetRxMessage:RxLocation <- $r1
	bne	.LBB58_4
.Ltmp503:
@ %bb.1:
	@DEBUG_VALUE: HAL_FDCAN_GetRxMessage:state <- $r5
	@DEBUG_VALUE: HAL_FDCAN_GetRxMessage:pRxData <- $r3
	@DEBUG_VALUE: HAL_FDCAN_GetRxMessage:pRxHeader <- $r2
	@DEBUG_VALUE: HAL_FDCAN_GetRxMessage:RxLocation <- $r1
	@DEBUG_VALUE: HAL_FDCAN_GetRxMessage:hfdcan <- $r0
	.loc	2 0 0 is_stmt 0                 @ ../src/driver/stm32g4-v120/src/stm32g4xx_hal_fdcan.c:0:0
	ldr.w	r12, [r0]
.Ltmp504:
	.loc	2 2235 9 is_stmt 1              @ ../src/driver/stm32g4-v120/src/stm32g4xx_hal_fdcan.c:2235:9
	cmp	r1, #64
	bne	.LBB58_5
.Ltmp505:
@ %bb.2:
	@DEBUG_VALUE: HAL_FDCAN_GetRxMessage:state <- $r5
	@DEBUG_VALUE: HAL_FDCAN_GetRxMessage:pRxData <- $r3
	@DEBUG_VALUE: HAL_FDCAN_GetRxMessage:pRxHeader <- $r2
	@DEBUG_VALUE: HAL_FDCAN_GetRxMessage:RxLocation <- $r1
	@DEBUG_VALUE: HAL_FDCAN_GetRxMessage:hfdcan <- $r0
	.loc	2 2238 30                       @ ../src/driver/stm32g4-v120/src/stm32g4xx_hal_fdcan.c:2238:30
	ldr	r5, [r12, #144]!
.Ltmp506:
	.loc	2 2238 11 is_stmt 0             @ ../src/driver/stm32g4-v120/src/stm32g4xx_hal_fdcan.c:2238:11
	lsls	r5, r5, #28
	beq	.LBB58_11
.Ltmp507:
@ %bb.3:
	@DEBUG_VALUE: HAL_FDCAN_GetRxMessage:pRxData <- $r3
	@DEBUG_VALUE: HAL_FDCAN_GetRxMessage:pRxHeader <- $r2
	@DEBUG_VALUE: HAL_FDCAN_GetRxMessage:RxLocation <- $r1
	@DEBUG_VALUE: HAL_FDCAN_GetRxMessage:hfdcan <- $r0
	@DEBUG_VALUE: HAL_FDCAN_GetRxMessage:GetIndex <- [DW_OP_constu 8, DW_OP_shr, DW_OP_constu 3, DW_OP_and, DW_OP_stack_value] undef
	.loc	2 2249 49 is_stmt 1             @ ../src/driver/stm32g4-v120/src/stm32g4xx_hal_fdcan.c:2249:49
	add.w	r5, r0, #72
.Ltmp508:
	@DEBUG_VALUE: HAL_FDCAN_GetRxMessage:RxAddress <- undef
	.loc	2 0 49 is_stmt 0                @ ../src/driver/stm32g4-v120/src/stm32g4xx_hal_fdcan.c:0:49
	b	.LBB58_7
.Ltmp509:
.LBB58_4:
	@DEBUG_VALUE: HAL_FDCAN_GetRxMessage:state <- $r5
	@DEBUG_VALUE: HAL_FDCAN_GetRxMessage:pRxData <- $r3
	@DEBUG_VALUE: HAL_FDCAN_GetRxMessage:pRxHeader <- $r2
	@DEBUG_VALUE: HAL_FDCAN_GetRxMessage:RxLocation <- $r1
	@DEBUG_VALUE: HAL_FDCAN_GetRxMessage:hfdcan <- $r0
	.loc	2 2337 23 is_stmt 1             @ ../src/driver/stm32g4-v120/src/stm32g4xx_hal_fdcan.c:2337:23
	ldr	r1, [r0, #96]
.Ltmp510:
	@DEBUG_VALUE: HAL_FDCAN_GetRxMessage:RxLocation <- [DW_OP_LLVM_entry_value 1] $r1
	orr	r1, r1, #8
	b	.LBB58_12
.Ltmp511:
.LBB58_5:
	@DEBUG_VALUE: HAL_FDCAN_GetRxMessage:state <- $r5
	@DEBUG_VALUE: HAL_FDCAN_GetRxMessage:pRxData <- $r3
	@DEBUG_VALUE: HAL_FDCAN_GetRxMessage:pRxHeader <- $r2
	@DEBUG_VALUE: HAL_FDCAN_GetRxMessage:RxLocation <- $r1
	@DEBUG_VALUE: HAL_FDCAN_GetRxMessage:hfdcan <- $r0
	.loc	2 2255 30                       @ ../src/driver/stm32g4-v120/src/stm32g4xx_hal_fdcan.c:2255:30
	ldr	r5, [r12, #152]!
.Ltmp512:
	.loc	2 2255 11 is_stmt 0             @ ../src/driver/stm32g4-v120/src/stm32g4xx_hal_fdcan.c:2255:11
	lsls	r5, r5, #28
	beq	.LBB58_11
.Ltmp513:
@ %bb.6:
	@DEBUG_VALUE: HAL_FDCAN_GetRxMessage:pRxData <- $r3
	@DEBUG_VALUE: HAL_FDCAN_GetRxMessage:pRxHeader <- $r2
	@DEBUG_VALUE: HAL_FDCAN_GetRxMessage:RxLocation <- $r1
	@DEBUG_VALUE: HAL_FDCAN_GetRxMessage:hfdcan <- $r0
	@DEBUG_VALUE: HAL_FDCAN_GetRxMessage:GetIndex <- [DW_OP_constu 8, DW_OP_shr, DW_OP_constu 3, DW_OP_and, DW_OP_stack_value] undef
	.loc	2 2266 49 is_stmt 1             @ ../src/driver/stm32g4-v120/src/stm32g4xx_hal_fdcan.c:2266:49
	add.w	r5, r0, #76
.Ltmp514:
.LBB58_7:
	@DEBUG_VALUE: HAL_FDCAN_GetRxMessage:pRxData <- $r3
	@DEBUG_VALUE: HAL_FDCAN_GetRxMessage:pRxHeader <- $r2
	@DEBUG_VALUE: HAL_FDCAN_GetRxMessage:RxLocation <- $r1
	@DEBUG_VALUE: HAL_FDCAN_GetRxMessage:hfdcan <- $r0
	.loc	2 0 0 is_stmt 0                 @ ../src/driver/stm32g4-v120/src/stm32g4xx_hal_fdcan.c:0:0
	ldr.w	r4, [r12]
	ldr.w	lr, [r5]
	ubfx	r12, r4, #8, #2
	add.w	r4, r12, r12, lsl #3
.Ltmp515:
	.loc	2 2271 25 is_stmt 1             @ ../src/driver/stm32g4-v120/src/stm32g4xx_hal_fdcan.c:2271:25
	ldr.w	r5, [lr, r4, lsl #3]
	.loc	2 2271 36 is_stmt 0             @ ../src/driver/stm32g4-v120/src/stm32g4xx_hal_fdcan.c:2271:36
	ands	r5, r5, #1073741824
	.loc	2 2271 23                       @ ../src/driver/stm32g4-v120/src/stm32g4xx_hal_fdcan.c:2271:23
	str	r5, [r2, #4]
.Ltmp516:
	.loc	2 0 0                           @ ../src/driver/stm32g4-v120/src/stm32g4xx_hal_fdcan.c:0:0
	ldr.w	r5, [lr, r4, lsl #3]
.Ltmp517:
	.loc	2 2274 9 is_stmt 1              @ ../src/driver/stm32g4-v120/src/stm32g4xx_hal_fdcan.c:2274:9
	bic	r6, r5, #-536870912
	it	eq
	ubfxeq	r6, r5, #18, #11
.Ltmp518:
	.loc	2 2276 29                       @ ../src/driver/stm32g4-v120/src/stm32g4xx_hal_fdcan.c:2276:29
	str	r6, [r2]
.Ltmp519:
	.loc	2 2284 31                       @ ../src/driver/stm32g4-v120/src/stm32g4xx_hal_fdcan.c:2284:31
	ldr.w	r5, [lr, r4, lsl #3]
	.loc	2 2284 42 is_stmt 0             @ ../src/driver/stm32g4-v120/src/stm32g4xx_hal_fdcan.c:2284:42
	and	r5, r5, #536870912
	.loc	2 2284 28                       @ ../src/driver/stm32g4-v120/src/stm32g4xx_hal_fdcan.c:2284:28
	str	r5, [r2, #8]
	.loc	2 2287 39 is_stmt 1             @ ../src/driver/stm32g4-v120/src/stm32g4xx_hal_fdcan.c:2287:39
	ldr.w	r5, [lr, r4, lsl #3]
.Ltmp520:
	.loc	2 0 0 is_stmt 0                 @ ../src/driver/stm32g4-v120/src/stm32g4xx_hal_fdcan.c:0:0
	add.w	lr, lr, r4, lsl #3
.Ltmp521:
	@DEBUG_VALUE: HAL_FDCAN_GetRxMessage:RxAddress <- $lr
	@DEBUG_VALUE: HAL_FDCAN_GetRxMessage:GetIndex <- $r12
	.loc	2 2287 50                       @ ../src/driver/stm32g4-v120/src/stm32g4xx_hal_fdcan.c:2287:50
	and	r4, r5, #-2147483648
	.loc	2 2287 36                       @ ../src/driver/stm32g4-v120/src/stm32g4xx_hal_fdcan.c:2287:36
	str	r4, [r2, #16]
.Ltmp522:
	@DEBUG_VALUE: HAL_FDCAN_GetRxMessage:RxAddress <- [DW_OP_plus_uconst 4, DW_OP_stack_value] $lr
	.loc	2 2293 31 is_stmt 1             @ ../src/driver/stm32g4-v120/src/stm32g4xx_hal_fdcan.c:2293:31
	ldrh.w	r4, [lr, #4]
	.loc	2 2293 28 is_stmt 0             @ ../src/driver/stm32g4-v120/src/stm32g4xx_hal_fdcan.c:2293:28
	str	r4, [r2, #28]
	.loc	2 2296 30 is_stmt 1             @ ../src/driver/stm32g4-v120/src/stm32g4xx_hal_fdcan.c:2296:30
	ldr.w	r4, [lr, #4]
	.loc	2 2296 41 is_stmt 0             @ ../src/driver/stm32g4-v120/src/stm32g4xx_hal_fdcan.c:2296:41
	ands	r4, r4, #983040
	.loc	2 2296 27                       @ ../src/driver/stm32g4-v120/src/stm32g4xx_hal_fdcan.c:2296:27
	str	r4, [r2, #12]
	.loc	2 2299 33 is_stmt 1             @ ../src/driver/stm32g4-v120/src/stm32g4xx_hal_fdcan.c:2299:33
	ldr.w	r4, [lr, #4]
	.loc	2 2299 44 is_stmt 0             @ ../src/driver/stm32g4-v120/src/stm32g4xx_hal_fdcan.c:2299:44
	and	r4, r4, #1048576
	.loc	2 2299 30                       @ ../src/driver/stm32g4-v120/src/stm32g4xx_hal_fdcan.c:2299:30
	str	r4, [r2, #20]
	.loc	2 2302 28 is_stmt 1             @ ../src/driver/stm32g4-v120/src/stm32g4xx_hal_fdcan.c:2302:28
	ldr.w	r4, [lr, #4]
	.loc	2 2302 39 is_stmt 0             @ ../src/driver/stm32g4-v120/src/stm32g4xx_hal_fdcan.c:2302:39
	and	r4, r4, #2097152
	.loc	2 2302 25                       @ ../src/driver/stm32g4-v120/src/stm32g4xx_hal_fdcan.c:2302:25
	str	r4, [r2, #24]
	.loc	2 2305 32 is_stmt 1             @ ../src/driver/stm32g4-v120/src/stm32g4xx_hal_fdcan.c:2305:32
	ldrb.w	r4, [lr, #7]
	.loc	2 2305 70 is_stmt 0             @ ../src/driver/stm32g4-v120/src/stm32g4xx_hal_fdcan.c:2305:70
	and	r4, r4, #127
	.loc	2 2305 28                       @ ../src/driver/stm32g4-v120/src/stm32g4xx_hal_fdcan.c:2305:28
	str	r4, [r2, #32]
	.loc	2 2308 42 is_stmt 1             @ ../src/driver/stm32g4-v120/src/stm32g4xx_hal_fdcan.c:2308:42
	ldr.w	r4, [lr, #4]
	.loc	2 2308 80 is_stmt 0             @ ../src/driver/stm32g4-v120/src/stm32g4xx_hal_fdcan.c:2308:80
	lsr.w	r4, r4, #31
	.loc	2 2308 38                       @ ../src/driver/stm32g4-v120/src/stm32g4xx_hal_fdcan.c:2308:38
	str	r4, [r2, #36]
.Ltmp523:
	@DEBUG_VALUE: HAL_FDCAN_GetRxMessage:ByteCounter <- 0
	@DEBUG_VALUE: HAL_FDCAN_GetRxMessage:pData <- undef
	@DEBUG_VALUE: HAL_FDCAN_GetRxMessage:RxAddress <- undef
	.loc	2 2315 5 is_stmt 1              @ ../src/driver/stm32g4-v120/src/stm32g4xx_hal_fdcan.c:2315:5
	beq	.LBB58_10
.Ltmp524:
@ %bb.8:
	@DEBUG_VALUE: HAL_FDCAN_GetRxMessage:GetIndex <- $r12
	@DEBUG_VALUE: HAL_FDCAN_GetRxMessage:pRxData <- $r3
	@DEBUG_VALUE: HAL_FDCAN_GetRxMessage:pRxHeader <- $r2
	@DEBUG_VALUE: HAL_FDCAN_GetRxMessage:RxLocation <- $r1
	@DEBUG_VALUE: HAL_FDCAN_GetRxMessage:hfdcan <- $r0
	@DEBUG_VALUE: HAL_FDCAN_GetRxMessage:ByteCounter <- 0
	.loc	2 0 5 is_stmt 0                 @ ../src/driver/stm32g4-v120/src/stm32g4xx_hal_fdcan.c:0:5
	movw	r5, :lower16:DLCtoBytes
	add.w	lr, lr, #8
.Ltmp525:
	@DEBUG_VALUE: HAL_FDCAN_GetRxMessage:pData <- $lr
	@DEBUG_VALUE: HAL_FDCAN_GetRxMessage:RxAddress <- $lr
	movs	r4, #0
	movt	r5, :upper16:DLCtoBytes
.Ltmp526:
	.p2align	2
.LBB58_9:                               @ =>This Inner Loop Header: Depth=1
	@DEBUG_VALUE: HAL_FDCAN_GetRxMessage:GetIndex <- $r12
	@DEBUG_VALUE: HAL_FDCAN_GetRxMessage:pRxData <- $r3
	@DEBUG_VALUE: HAL_FDCAN_GetRxMessage:pRxHeader <- $r2
	@DEBUG_VALUE: HAL_FDCAN_GetRxMessage:RxLocation <- $r1
	@DEBUG_VALUE: HAL_FDCAN_GetRxMessage:hfdcan <- $r0
	@DEBUG_VALUE: HAL_FDCAN_GetRxMessage:pData <- $lr
	@DEBUG_VALUE: HAL_FDCAN_GetRxMessage:RxAddress <- $lr
	@DEBUG_VALUE: HAL_FDCAN_GetRxMessage:ByteCounter <- $r4
	.loc	2 2317 30 is_stmt 1             @ ../src/driver/stm32g4-v120/src/stm32g4xx_hal_fdcan.c:2317:30
	ldrb.w	r6, [lr, r4]
	.loc	2 2317 28 is_stmt 0             @ ../src/driver/stm32g4-v120/src/stm32g4xx_hal_fdcan.c:2317:28
	strb	r6, [r3, r4]
.Ltmp527:
	.loc	2 2315 63 is_stmt 1             @ ../src/driver/stm32g4-v120/src/stm32g4xx_hal_fdcan.c:2315:63
	ldrh	r6, [r2, #14]
	.loc	2 2315 94 is_stmt 0             @ ../src/driver/stm32g4-v120/src/stm32g4xx_hal_fdcan.c:2315:94
	adds	r4, #1
.Ltmp528:
	@DEBUG_VALUE: HAL_FDCAN_GetRxMessage:ByteCounter <- $r4
	.loc	2 2315 41                       @ ../src/driver/stm32g4-v120/src/stm32g4xx_hal_fdcan.c:2315:41
	ldrb	r6, [r5, r6]
.Ltmp529:
	.loc	2 2315 5                        @ ../src/driver/stm32g4-v120/src/stm32g4xx_hal_fdcan.c:2315:5
	cmp	r4, r6
	blo	.LBB58_9
.Ltmp530:
.LBB58_10:
	@DEBUG_VALUE: HAL_FDCAN_GetRxMessage:GetIndex <- $r12
	@DEBUG_VALUE: HAL_FDCAN_GetRxMessage:pRxData <- $r3
	@DEBUG_VALUE: HAL_FDCAN_GetRxMessage:pRxHeader <- $r2
	@DEBUG_VALUE: HAL_FDCAN_GetRxMessage:RxLocation <- $r1
	@DEBUG_VALUE: HAL_FDCAN_GetRxMessage:hfdcan <- $r0
	.loc	2 0 0                           @ ../src/driver/stm32g4-v120/src/stm32g4xx_hal_fdcan.c:0:0
	ldr	r0, [r0]
.Ltmp531:
	@DEBUG_VALUE: HAL_FDCAN_GetRxMessage:hfdcan <- [DW_OP_LLVM_entry_value 1] $r0
	.loc	2 2320 9 is_stmt 1              @ ../src/driver/stm32g4-v120/src/stm32g4xx_hal_fdcan.c:2320:9
	cmp	r1, #64
.Ltmp532:
	.loc	2 2323 31                       @ ../src/driver/stm32g4-v120/src/stm32g4xx_hal_fdcan.c:2323:31
	ite	eq
	streq.w	r12, [r0, #148]
.Ltmp533:
	.loc	2 2328 31                       @ ../src/driver/stm32g4-v120/src/stm32g4xx_hal_fdcan.c:2328:31
	strne.w	r12, [r0, #156]
	movs	r0, #0
.Ltmp534:
	.loc	2 2341 1                        @ ../src/driver/stm32g4-v120/src/stm32g4xx_hal_fdcan.c:2341:1
	pop	{r4, r5, r6, pc}
.Ltmp535:
.LBB58_11:
	@DEBUG_VALUE: HAL_FDCAN_GetRxMessage:pRxData <- $r3
	@DEBUG_VALUE: HAL_FDCAN_GetRxMessage:pRxHeader <- $r2
	@DEBUG_VALUE: HAL_FDCAN_GetRxMessage:RxLocation <- $r1
	@DEBUG_VALUE: HAL_FDCAN_GetRxMessage:hfdcan <- $r0
	.loc	2 0 0 is_stmt 0                 @ ../src/driver/stm32g4-v120/src/stm32g4xx_hal_fdcan.c:0:0
	ldr	r1, [r0, #96]
.Ltmp536:
	@DEBUG_VALUE: HAL_FDCAN_GetRxMessage:RxLocation <- [DW_OP_LLVM_entry_value 1] $r1
	orr	r1, r1, #256
.Ltmp537:
.LBB58_12:
	@DEBUG_VALUE: HAL_FDCAN_GetRxMessage:pRxData <- $r3
	@DEBUG_VALUE: HAL_FDCAN_GetRxMessage:pRxHeader <- $r2
	@DEBUG_VALUE: HAL_FDCAN_GetRxMessage:hfdcan <- $r0
	@DEBUG_VALUE: HAL_FDCAN_GetRxMessage:RxLocation <- [DW_OP_LLVM_entry_value 1] $r1
	str	r1, [r0, #96]
	movs	r0, #1
.Ltmp538:
	@DEBUG_VALUE: HAL_FDCAN_GetRxMessage:hfdcan <- [DW_OP_LLVM_entry_value 1] $r0
	.loc	2 2341 1                        @ ../src/driver/stm32g4-v120/src/stm32g4xx_hal_fdcan.c:2341:1
	pop	{r4, r5, r6, pc}
.Ltmp539:
.Lfunc_end58:
	.size	HAL_FDCAN_GetRxMessage, .Lfunc_end58-HAL_FDCAN_GetRxMessage
	.cfi_endproc
	.cantunwind
	.fnend
                                        @ -- End function
	.section	.text.HAL_FDCAN_GetTxEvent,"ax",%progbits
	.hidden	HAL_FDCAN_GetTxEvent            @ -- Begin function HAL_FDCAN_GetTxEvent
	.globl	HAL_FDCAN_GetTxEvent
	.p2align	1
	.type	HAL_FDCAN_GetTxEvent,%function
	.code	16                              @ @HAL_FDCAN_GetTxEvent
	.thumb_func
HAL_FDCAN_GetTxEvent:
.Lfunc_begin59:
	.loc	2 2351 0 is_stmt 1              @ ../src/driver/stm32g4-v120/src/stm32g4xx_hal_fdcan.c:2351:0
	.fnstart
	.cfi_startproc
@ %bb.0:
	@DEBUG_VALUE: HAL_FDCAN_GetTxEvent:hfdcan <- $r0
	@DEBUG_VALUE: HAL_FDCAN_GetTxEvent:hfdcan <- $r0
	@DEBUG_VALUE: HAL_FDCAN_GetTxEvent:pTxEvent <- $r1
	.save	{r7, lr}
	push	{r7, lr}
	.cfi_def_cfa_offset 8
	.cfi_offset lr, -4
	.cfi_offset r7, -8
.Ltmp540:
	.loc	2 2354 42 prologue_end          @ ../src/driver/stm32g4-v120/src/stm32g4xx_hal_fdcan.c:2354:42
	ldrb.w	r2, [r0, #92]
.Ltmp541:
	@DEBUG_VALUE: HAL_FDCAN_GetTxEvent:state <- $r2
	.loc	2 2356 7                        @ ../src/driver/stm32g4-v120/src/stm32g4xx_hal_fdcan.c:2356:7
	cmp	r2, #2
	@DEBUG_VALUE: HAL_FDCAN_GetTxEvent:pTxEvent <- $r1
	bne	.LBB59_3
.Ltmp542:
@ %bb.1:
	@DEBUG_VALUE: HAL_FDCAN_GetTxEvent:state <- $r2
	@DEBUG_VALUE: HAL_FDCAN_GetTxEvent:pTxEvent <- $r1
	@DEBUG_VALUE: HAL_FDCAN_GetTxEvent:hfdcan <- $r0
	.loc	2 2359 18                       @ ../src/driver/stm32g4-v120/src/stm32g4xx_hal_fdcan.c:2359:18
	ldr.w	lr, [r0]
	.loc	2 2359 28 is_stmt 0             @ ../src/driver/stm32g4-v120/src/stm32g4xx_hal_fdcan.c:2359:28
	ldr.w	r3, [lr, #228]
.Ltmp543:
	.loc	2 2359 9                        @ ../src/driver/stm32g4-v120/src/stm32g4xx_hal_fdcan.c:2359:9
	lsls	r3, r3, #29
	beq	.LBB59_4
.Ltmp544:
@ %bb.2:
	@DEBUG_VALUE: HAL_FDCAN_GetTxEvent:state <- $r2
	@DEBUG_VALUE: HAL_FDCAN_GetTxEvent:pTxEvent <- $r1
	@DEBUG_VALUE: HAL_FDCAN_GetTxEvent:hfdcan <- $r0
	.loc	2 2368 36 is_stmt 1             @ ../src/driver/stm32g4-v120/src/stm32g4xx_hal_fdcan.c:2368:36
	ldr.w	r12, [lr, #228]
	.loc	2 2369 50                       @ ../src/driver/stm32g4-v120/src/stm32g4xx_hal_fdcan.c:2369:50
	ldr	r3, [r0, #80]
	.loc	2 2368 62                       @ ../src/driver/stm32g4-v120/src/stm32g4xx_hal_fdcan.c:2368:62
	ubfx	r0, r12, #8, #2
.Ltmp545:
	@DEBUG_VALUE: HAL_FDCAN_GetTxEvent:hfdcan <- [DW_OP_LLVM_entry_value 1] $r0
	@DEBUG_VALUE: HAL_FDCAN_GetTxEvent:GetIndex <- $r0
	.loc	2 2372 24                       @ ../src/driver/stm32g4-v120/src/stm32g4xx_hal_fdcan.c:2372:24
	ldr.w	r2, [r3, r0, lsl #3]
.Ltmp546:
	.loc	2 2372 40 is_stmt 0             @ ../src/driver/stm32g4-v120/src/stm32g4xx_hal_fdcan.c:2372:40
	ands	r2, r2, #1073741824
	.loc	2 2372 22                       @ ../src/driver/stm32g4-v120/src/stm32g4xx_hal_fdcan.c:2372:22
	str	r2, [r1, #4]
.Ltmp547:
	.loc	2 0 0                           @ ../src/driver/stm32g4-v120/src/stm32g4xx_hal_fdcan.c:0:0
	ldr.w	r12, [r3, r0, lsl #3]
.Ltmp548:
	.loc	2 2375 9 is_stmt 1              @ ../src/driver/stm32g4-v120/src/stm32g4xx_hal_fdcan.c:2375:9
	bic	r2, r12, #-536870912
	it	eq
	ubfxeq	r2, r12, #18, #11
.Ltmp549:
	.loc	2 2377 28                       @ ../src/driver/stm32g4-v120/src/stm32g4xx_hal_fdcan.c:2377:28
	str	r2, [r1]
.Ltmp550:
	.loc	2 2385 30                       @ ../src/driver/stm32g4-v120/src/stm32g4xx_hal_fdcan.c:2385:30
	ldr.w	r2, [r3, r0, lsl #3]
	.loc	2 2385 46 is_stmt 0             @ ../src/driver/stm32g4-v120/src/stm32g4xx_hal_fdcan.c:2385:46
	and	r2, r2, #536870912
	.loc	2 2385 27                       @ ../src/driver/stm32g4-v120/src/stm32g4xx_hal_fdcan.c:2385:27
	str	r2, [r1, #8]
	.loc	2 2388 38 is_stmt 1             @ ../src/driver/stm32g4-v120/src/stm32g4xx_hal_fdcan.c:2388:38
	ldr.w	r2, [r3, r0, lsl #3]
	.loc	2 2369 64                       @ ../src/driver/stm32g4-v120/src/stm32g4xx_hal_fdcan.c:2369:64
	add.w	r3, r3, r0, lsl #3
.Ltmp551:
	@DEBUG_VALUE: HAL_FDCAN_GetTxEvent:TxEventAddress <- $r3
	.loc	2 2388 54                       @ ../src/driver/stm32g4-v120/src/stm32g4xx_hal_fdcan.c:2388:54
	and	r2, r2, #-2147483648
	.loc	2 2388 35 is_stmt 0             @ ../src/driver/stm32g4-v120/src/stm32g4xx_hal_fdcan.c:2388:35
	str	r2, [r1, #16]
.Ltmp552:
	@DEBUG_VALUE: HAL_FDCAN_GetTxEvent:TxEventAddress <- [DW_OP_plus_uconst 4, DW_OP_stack_value] $r3
	.loc	2 2394 30 is_stmt 1             @ ../src/driver/stm32g4-v120/src/stm32g4xx_hal_fdcan.c:2394:30
	ldrh	r2, [r3, #4]
	.loc	2 2394 27 is_stmt 0             @ ../src/driver/stm32g4-v120/src/stm32g4xx_hal_fdcan.c:2394:27
	str	r2, [r1, #28]
	.loc	2 2397 29 is_stmt 1             @ ../src/driver/stm32g4-v120/src/stm32g4xx_hal_fdcan.c:2397:29
	ldr	r2, [r3, #4]
	.loc	2 2397 45 is_stmt 0             @ ../src/driver/stm32g4-v120/src/stm32g4xx_hal_fdcan.c:2397:45
	and	r2, r2, #983040
	.loc	2 2397 26                       @ ../src/driver/stm32g4-v120/src/stm32g4xx_hal_fdcan.c:2397:26
	str	r2, [r1, #12]
	.loc	2 2400 32 is_stmt 1             @ ../src/driver/stm32g4-v120/src/stm32g4xx_hal_fdcan.c:2400:32
	ldr	r2, [r3, #4]
	.loc	2 2400 48 is_stmt 0             @ ../src/driver/stm32g4-v120/src/stm32g4xx_hal_fdcan.c:2400:48
	and	r2, r2, #1048576
	.loc	2 2400 29                       @ ../src/driver/stm32g4-v120/src/stm32g4xx_hal_fdcan.c:2400:29
	str	r2, [r1, #20]
	.loc	2 2403 27 is_stmt 1             @ ../src/driver/stm32g4-v120/src/stm32g4xx_hal_fdcan.c:2403:27
	ldr	r2, [r3, #4]
	.loc	2 2403 43 is_stmt 0             @ ../src/driver/stm32g4-v120/src/stm32g4xx_hal_fdcan.c:2403:43
	and	r2, r2, #2097152
	.loc	2 2403 24                       @ ../src/driver/stm32g4-v120/src/stm32g4xx_hal_fdcan.c:2403:24
	str	r2, [r1, #24]
	.loc	2 2406 28 is_stmt 1             @ ../src/driver/stm32g4-v120/src/stm32g4xx_hal_fdcan.c:2406:28
	ldr	r2, [r3, #4]
	.loc	2 2406 44 is_stmt 0             @ ../src/driver/stm32g4-v120/src/stm32g4xx_hal_fdcan.c:2406:44
	and	r2, r2, #12582912
	.loc	2 2406 25                       @ ../src/driver/stm32g4-v120/src/stm32g4xx_hal_fdcan.c:2406:25
	str	r2, [r1, #36]
	.loc	2 2409 33 is_stmt 1             @ ../src/driver/stm32g4-v120/src/stm32g4xx_hal_fdcan.c:2409:33
	ldrb	r2, [r3, #7]
	.loc	2 2409 29 is_stmt 0             @ ../src/driver/stm32g4-v120/src/stm32g4xx_hal_fdcan.c:2409:29
	str	r2, [r1, #32]
	.loc	2 2412 29 is_stmt 1             @ ../src/driver/stm32g4-v120/src/stm32g4xx_hal_fdcan.c:2412:29
	str.w	r0, [lr, #232]
	movs	r0, #0
.Ltmp553:
	.loc	2 2424 1                        @ ../src/driver/stm32g4-v120/src/stm32g4xx_hal_fdcan.c:2424:1
	pop	{r7, pc}
.Ltmp554:
.LBB59_3:
	@DEBUG_VALUE: HAL_FDCAN_GetTxEvent:state <- $r2
	@DEBUG_VALUE: HAL_FDCAN_GetTxEvent:pTxEvent <- $r1
	@DEBUG_VALUE: HAL_FDCAN_GetTxEvent:hfdcan <- $r0
	.loc	2 2420 23                       @ ../src/driver/stm32g4-v120/src/stm32g4xx_hal_fdcan.c:2420:23
	ldr	r1, [r0, #96]
.Ltmp555:
	@DEBUG_VALUE: HAL_FDCAN_GetTxEvent:pTxEvent <- [DW_OP_LLVM_entry_value 1] $r1
	orr	r1, r1, #8
	b	.LBB59_5
.Ltmp556:
.LBB59_4:
	@DEBUG_VALUE: HAL_FDCAN_GetTxEvent:state <- $r2
	@DEBUG_VALUE: HAL_FDCAN_GetTxEvent:pTxEvent <- $r1
	@DEBUG_VALUE: HAL_FDCAN_GetTxEvent:hfdcan <- $r0
	.loc	2 2362 25                       @ ../src/driver/stm32g4-v120/src/stm32g4xx_hal_fdcan.c:2362:25
	ldr	r1, [r0, #96]
.Ltmp557:
	@DEBUG_VALUE: HAL_FDCAN_GetTxEvent:pTxEvent <- [DW_OP_LLVM_entry_value 1] $r1
	orr	r1, r1, #256
.Ltmp558:
.LBB59_5:
	@DEBUG_VALUE: HAL_FDCAN_GetTxEvent:state <- $r2
	@DEBUG_VALUE: HAL_FDCAN_GetTxEvent:hfdcan <- $r0
	@DEBUG_VALUE: HAL_FDCAN_GetTxEvent:pTxEvent <- [DW_OP_LLVM_entry_value 1] $r1
	.loc	2 0 0 is_stmt 0                 @ ../src/driver/stm32g4-v120/src/stm32g4xx_hal_fdcan.c:0:0
	str	r1, [r0, #96]
	movs	r0, #1
.Ltmp559:
	@DEBUG_VALUE: HAL_FDCAN_GetTxEvent:hfdcan <- [DW_OP_LLVM_entry_value 1] $r0
	.loc	2 2424 1 is_stmt 1              @ ../src/driver/stm32g4-v120/src/stm32g4xx_hal_fdcan.c:2424:1
	pop	{r7, pc}
.Ltmp560:
.Lfunc_end59:
	.size	HAL_FDCAN_GetTxEvent, .Lfunc_end59-HAL_FDCAN_GetTxEvent
	.cfi_endproc
	.cantunwind
	.fnend
                                        @ -- End function
	.section	.text.HAL_FDCAN_GetHighPriorityMessageStatus,"ax",%progbits
	.hidden	HAL_FDCAN_GetHighPriorityMessageStatus @ -- Begin function HAL_FDCAN_GetHighPriorityMessageStatus
	.globl	HAL_FDCAN_GetHighPriorityMessageStatus
	.p2align	1
	.type	HAL_FDCAN_GetHighPriorityMessageStatus,%function
	.code	16                              @ @HAL_FDCAN_GetHighPriorityMessageStatus
	.thumb_func
HAL_FDCAN_GetHighPriorityMessageStatus:
.Lfunc_begin60:
	.loc	2 2435 0                        @ ../src/driver/stm32g4-v120/src/stm32g4xx_hal_fdcan.c:2435:0
	.fnstart
	.cfi_startproc
@ %bb.0:
	@DEBUG_VALUE: HAL_FDCAN_GetHighPriorityMessageStatus:hfdcan <- $r0
	@DEBUG_VALUE: HAL_FDCAN_GetHighPriorityMessageStatus:hfdcan <- $r0
	@DEBUG_VALUE: HAL_FDCAN_GetHighPriorityMessageStatus:HpMsgStatus <- $r1
	.loc	2 2436 39 prologue_end          @ ../src/driver/stm32g4-v120/src/stm32g4xx_hal_fdcan.c:2436:39
	ldr	r0, [r0]
.Ltmp561:
	@DEBUG_VALUE: HAL_FDCAN_GetHighPriorityMessageStatus:hfdcan <- [DW_OP_LLVM_entry_value 1] $r0
	.loc	2 2436 49 is_stmt 0             @ ../src/driver/stm32g4-v120/src/stm32g4xx_hal_fdcan.c:2436:49
	ldr.w	r2, [r0, #136]
	@DEBUG_VALUE: HAL_FDCAN_GetHighPriorityMessageStatus:HpMsgStatus <- $r1
	.loc	2 2436 73                       @ ../src/driver/stm32g4-v120/src/stm32g4xx_hal_fdcan.c:2436:73
	ubfx	r2, r2, #15, #1
	.loc	2 2436 27                       @ ../src/driver/stm32g4-v120/src/stm32g4xx_hal_fdcan.c:2436:27
	str	r2, [r1]
	.loc	2 2437 50 is_stmt 1             @ ../src/driver/stm32g4-v120/src/stm32g4xx_hal_fdcan.c:2437:50
	ldr.w	r2, [r0, #136]
	.loc	2 2437 74 is_stmt 0             @ ../src/driver/stm32g4-v120/src/stm32g4xx_hal_fdcan.c:2437:74
	ubfx	r2, r2, #8, #5
	.loc	2 2437 28                       @ ../src/driver/stm32g4-v120/src/stm32g4xx_hal_fdcan.c:2437:28
	str	r2, [r1, #4]
	.loc	2 2438 52 is_stmt 1             @ ../src/driver/stm32g4-v120/src/stm32g4xx_hal_fdcan.c:2438:52
	ldr.w	r2, [r0, #136]
	.loc	2 2438 57 is_stmt 0             @ ../src/driver/stm32g4-v120/src/stm32g4xx_hal_fdcan.c:2438:57
	and	r2, r2, #192
	.loc	2 2438 31                       @ ../src/driver/stm32g4-v120/src/stm32g4xx_hal_fdcan.c:2438:31
	str	r2, [r1, #8]
	.loc	2 2439 50 is_stmt 1             @ ../src/driver/stm32g4-v120/src/stm32g4xx_hal_fdcan.c:2439:50
	ldr.w	r0, [r0, #136]
	.loc	2 2439 55 is_stmt 0             @ ../src/driver/stm32g4-v120/src/stm32g4xx_hal_fdcan.c:2439:55
	and	r2, r0, #7
	.loc	2 2442 3 is_stmt 1              @ ../src/driver/stm32g4-v120/src/stm32g4xx_hal_fdcan.c:2442:3
	movs	r0, #0
	.loc	2 2439 29                       @ ../src/driver/stm32g4-v120/src/stm32g4xx_hal_fdcan.c:2439:29
	str	r2, [r1, #12]
	.loc	2 2442 3                        @ ../src/driver/stm32g4-v120/src/stm32g4xx_hal_fdcan.c:2442:3
	bx	lr
.Ltmp562:
.Lfunc_end60:
	.size	HAL_FDCAN_GetHighPriorityMessageStatus, .Lfunc_end60-HAL_FDCAN_GetHighPriorityMessageStatus
	.cfi_endproc
	.cantunwind
	.fnend
                                        @ -- End function
	.section	.text.HAL_FDCAN_GetProtocolStatus,"ax",%progbits
	.hidden	HAL_FDCAN_GetProtocolStatus     @ -- Begin function HAL_FDCAN_GetProtocolStatus
	.globl	HAL_FDCAN_GetProtocolStatus
	.p2align	1
	.type	HAL_FDCAN_GetProtocolStatus,%function
	.code	16                              @ @HAL_FDCAN_GetProtocolStatus
	.thumb_func
HAL_FDCAN_GetProtocolStatus:
.Lfunc_begin61:
	.loc	2 2453 0                        @ ../src/driver/stm32g4-v120/src/stm32g4xx_hal_fdcan.c:2453:0
	.fnstart
	.cfi_startproc
@ %bb.0:
	@DEBUG_VALUE: HAL_FDCAN_GetProtocolStatus:hfdcan <- $r0
	@DEBUG_VALUE: HAL_FDCAN_GetProtocolStatus:hfdcan <- $r0
	@DEBUG_VALUE: HAL_FDCAN_GetProtocolStatus:ProtocolStatus <- $r1
	.save	{r4, r5, r6, r7, lr}
	push	{r4, r5, r6, r7, lr}
	.cfi_def_cfa_offset 20
	.cfi_offset lr, -4
	.cfi_offset r7, -8
	.cfi_offset r6, -12
	.cfi_offset r5, -16
	.cfi_offset r4, -20
.Ltmp563:
	.loc	2 2457 15 prologue_end          @ ../src/driver/stm32g4-v120/src/stm32g4xx_hal_fdcan.c:2457:15
	ldr	r0, [r0]
.Ltmp564:
	@DEBUG_VALUE: HAL_FDCAN_GetProtocolStatus:hfdcan <- [DW_OP_LLVM_entry_value 1] $r0
	ldr	r0, [r0, #68]
.Ltmp565:
	@DEBUG_VALUE: HAL_FDCAN_GetProtocolStatus:StatusReg <- $r0
	@DEBUG_VALUE: HAL_FDCAN_GetProtocolStatus:ProtocolStatus <- $r1
	.loc	2 2460 46                       @ ../src/driver/stm32g4-v120/src/stm32g4xx_hal_fdcan.c:2460:46
	and	r2, r0, #7
	.loc	2 2461 69                       @ ../src/driver/stm32g4-v120/src/stm32g4xx_hal_fdcan.c:2461:69
	ubfx	r3, r0, #8, #3
	.loc	2 2462 41                       @ ../src/driver/stm32g4-v120/src/stm32g4xx_hal_fdcan.c:2462:41
	and	r12, r0, #24
	.loc	2 2463 62                       @ ../src/driver/stm32g4-v120/src/stm32g4xx_hal_fdcan.c:2463:62
	ubfx	lr, r0, #5, #1
	.loc	2 2464 57                       @ ../src/driver/stm32g4-v120/src/stm32g4xx_hal_fdcan.c:2464:57
	ubfx	r4, r0, #6, #1
	.loc	2 2467 61                       @ ../src/driver/stm32g4-v120/src/stm32g4xx_hal_fdcan.c:2467:61
	ubfx	r7, r0, #12, #1
	.loc	2 2460 33                       @ ../src/driver/stm32g4-v120/src/stm32g4xx_hal_fdcan.c:2460:33
	stm.w	r1, {r2, r3, r12, lr}
	.loc	2 2464 27                       @ ../src/driver/stm32g4-v120/src/stm32g4xx_hal_fdcan.c:2464:27
	add.w	r2, r1, #16
	.loc	2 2465 56                       @ ../src/driver/stm32g4-v120/src/stm32g4xx_hal_fdcan.c:2465:56
	ubfx	r5, r0, #7, #1
	.loc	2 2466 61                       @ ../src/driver/stm32g4-v120/src/stm32g4xx_hal_fdcan.c:2466:61
	ubfx	r6, r0, #11, #1
	.loc	2 2464 27                       @ ../src/driver/stm32g4-v120/src/stm32g4xx_hal_fdcan.c:2464:27
	stm	r2!, {r4, r5, r6, r7}
	.loc	2 2468 61                       @ ../src/driver/stm32g4-v120/src/stm32g4xx_hal_fdcan.c:2468:61
	ubfx	r2, r0, #13, #1
	.loc	2 2469 68                       @ ../src/driver/stm32g4-v120/src/stm32g4xx_hal_fdcan.c:2469:68
	ubfx	r3, r0, #14, #1
	.loc	2 2470 60                       @ ../src/driver/stm32g4-v120/src/stm32g4xx_hal_fdcan.c:2470:60
	ubfx	r7, r0, #16, #7
	.loc	2 2473 3                        @ ../src/driver/stm32g4-v120/src/stm32g4xx_hal_fdcan.c:2473:3
	movs	r0, #0
.Ltmp566:
	.loc	2 2468 29                       @ ../src/driver/stm32g4-v120/src/stm32g4xx_hal_fdcan.c:2468:29
	strd	r2, r3, [r1, #32]
	.loc	2 2470 28                       @ ../src/driver/stm32g4-v120/src/stm32g4xx_hal_fdcan.c:2470:28
	str	r7, [r1, #40]
	.loc	2 2473 3                        @ ../src/driver/stm32g4-v120/src/stm32g4xx_hal_fdcan.c:2473:3
	pop	{r4, r5, r6, r7, pc}
.Ltmp567:
.Lfunc_end61:
	.size	HAL_FDCAN_GetProtocolStatus, .Lfunc_end61-HAL_FDCAN_GetProtocolStatus
	.cfi_endproc
	.cantunwind
	.fnend
                                        @ -- End function
	.section	.text.HAL_FDCAN_GetErrorCounters,"ax",%progbits
	.hidden	HAL_FDCAN_GetErrorCounters      @ -- Begin function HAL_FDCAN_GetErrorCounters
	.globl	HAL_FDCAN_GetErrorCounters
	.p2align	1
	.type	HAL_FDCAN_GetErrorCounters,%function
	.code	16                              @ @HAL_FDCAN_GetErrorCounters
	.thumb_func
HAL_FDCAN_GetErrorCounters:
.Lfunc_begin62:
	.loc	2 2484 0                        @ ../src/driver/stm32g4-v120/src/stm32g4xx_hal_fdcan.c:2484:0
	.fnstart
	.cfi_startproc
@ %bb.0:
	@DEBUG_VALUE: HAL_FDCAN_GetErrorCounters:hfdcan <- $r0
	@DEBUG_VALUE: HAL_FDCAN_GetErrorCounters:hfdcan <- $r0
	@DEBUG_VALUE: HAL_FDCAN_GetErrorCounters:ErrorCounters <- $r1
	.save	{r7, lr}
	push	{r7, lr}
	.cfi_def_cfa_offset 8
	.cfi_offset lr, -4
	.cfi_offset r7, -8
.Ltmp568:
	.loc	2 2488 17 prologue_end          @ ../src/driver/stm32g4-v120/src/stm32g4xx_hal_fdcan.c:2488:17
	ldr	r0, [r0]
.Ltmp569:
	@DEBUG_VALUE: HAL_FDCAN_GetErrorCounters:hfdcan <- [DW_OP_LLVM_entry_value 1] $r0
	ldr	r0, [r0, #64]
.Ltmp570:
	@DEBUG_VALUE: HAL_FDCAN_GetErrorCounters:CountersReg <- $r0
	@DEBUG_VALUE: HAL_FDCAN_GetErrorCounters:ErrorCounters <- $r1
	.loc	2 2491 45                       @ ../src/driver/stm32g4-v120/src/stm32g4xx_hal_fdcan.c:2491:45
	uxtb	r2, r0
	.loc	2 2492 62                       @ ../src/driver/stm32g4-v120/src/stm32g4xx_hal_fdcan.c:2492:62
	ubfx	r3, r0, #8, #7
	.loc	2 2493 65                       @ ../src/driver/stm32g4-v120/src/stm32g4xx_hal_fdcan.c:2493:65
	ubfx	r12, r0, #15, #1
	.loc	2 2494 64                       @ ../src/driver/stm32g4-v120/src/stm32g4xx_hal_fdcan.c:2494:64
	ubfx	lr, r0, #16, #8
	.loc	2 2497 3                        @ ../src/driver/stm32g4-v120/src/stm32g4xx_hal_fdcan.c:2497:3
	movs	r0, #0
.Ltmp571:
	.loc	2 2491 29                       @ ../src/driver/stm32g4-v120/src/stm32g4xx_hal_fdcan.c:2491:29
	stm.w	r1, {r2, r3, r12}
	.loc	2 2494 31                       @ ../src/driver/stm32g4-v120/src/stm32g4xx_hal_fdcan.c:2494:31
	str.w	lr, [r1, #12]
	.loc	2 2497 3                        @ ../src/driver/stm32g4-v120/src/stm32g4xx_hal_fdcan.c:2497:3
	pop	{r7, pc}
.Ltmp572:
.Lfunc_end62:
	.size	HAL_FDCAN_GetErrorCounters, .Lfunc_end62-HAL_FDCAN_GetErrorCounters
	.cfi_endproc
	.cantunwind
	.fnend
                                        @ -- End function
	.section	.text.HAL_FDCAN_IsTxBufferMessagePending,"ax",%progbits
	.hidden	HAL_FDCAN_IsTxBufferMessagePending @ -- Begin function HAL_FDCAN_IsTxBufferMessagePending
	.globl	HAL_FDCAN_IsTxBufferMessagePending
	.p2align	1
	.type	HAL_FDCAN_IsTxBufferMessagePending,%function
	.code	16                              @ @HAL_FDCAN_IsTxBufferMessagePending
	.thumb_func
HAL_FDCAN_IsTxBufferMessagePending:
.Lfunc_begin63:
	.loc	2 2511 0                        @ ../src/driver/stm32g4-v120/src/stm32g4xx_hal_fdcan.c:2511:0
	.fnstart
	.cfi_startproc
@ %bb.0:
	@DEBUG_VALUE: HAL_FDCAN_IsTxBufferMessagePending:hfdcan <- $r0
	@DEBUG_VALUE: HAL_FDCAN_IsTxBufferMessagePending:hfdcan <- $r0
	@DEBUG_VALUE: HAL_FDCAN_IsTxBufferMessagePending:TxBufferIndex <- $r1
	.loc	2 2516 16 prologue_end          @ ../src/driver/stm32g4-v120/src/stm32g4xx_hal_fdcan.c:2516:16
	ldr	r0, [r0]
.Ltmp573:
	@DEBUG_VALUE: HAL_FDCAN_IsTxBufferMessagePending:hfdcan <- [DW_OP_LLVM_entry_value 1] $r0
	.loc	2 2516 26 is_stmt 0             @ ../src/driver/stm32g4-v120/src/stm32g4xx_hal_fdcan.c:2516:26
	ldr.w	r0, [r0, #200]
	@DEBUG_VALUE: HAL_FDCAN_IsTxBufferMessagePending:TxBufferIndex <- $r1
	.loc	2 2516 32                       @ ../src/driver/stm32g4-v120/src/stm32g4xx_hal_fdcan.c:2516:32
	ands	r0, r1
	.loc	2 2516 49                       @ ../src/driver/stm32g4-v120/src/stm32g4xx_hal_fdcan.c:2516:49
	it	ne
	movne	r0, #1
.Ltmp574:
	.loc	2 2521 1 is_stmt 1              @ ../src/driver/stm32g4-v120/src/stm32g4xx_hal_fdcan.c:2521:1
	bx	lr
.Ltmp575:
.Lfunc_end63:
	.size	HAL_FDCAN_IsTxBufferMessagePending, .Lfunc_end63-HAL_FDCAN_IsTxBufferMessagePending
	.cfi_endproc
	.cantunwind
	.fnend
                                        @ -- End function
	.section	.text.HAL_FDCAN_GetRxFifoFillLevel,"ax",%progbits
	.hidden	HAL_FDCAN_GetRxFifoFillLevel    @ -- Begin function HAL_FDCAN_GetRxFifoFillLevel
	.globl	HAL_FDCAN_GetRxFifoFillLevel
	.p2align	1
	.type	HAL_FDCAN_GetRxFifoFillLevel,%function
	.code	16                              @ @HAL_FDCAN_GetRxFifoFillLevel
	.thumb_func
HAL_FDCAN_GetRxFifoFillLevel:
.Lfunc_begin64:
	.loc	2 2534 0                        @ ../src/driver/stm32g4-v120/src/stm32g4xx_hal_fdcan.c:2534:0
	.fnstart
	.cfi_startproc
@ %bb.0:
	@DEBUG_VALUE: HAL_FDCAN_GetRxFifoFillLevel:hfdcan <- $r0
	@DEBUG_VALUE: HAL_FDCAN_GetRxFifoFillLevel:hfdcan <- $r0
	@DEBUG_VALUE: HAL_FDCAN_GetRxFifoFillLevel:RxFifo <- $r1
	@DEBUG_VALUE: HAL_FDCAN_GetRxFifoFillLevel:RxFifo <- $r1
	.loc	2 0 0 prologue_end              @ ../src/driver/stm32g4-v120/src/stm32g4xx_hal_fdcan.c:0:0
	ldr	r0, [r0]
.Ltmp576:
	@DEBUG_VALUE: HAL_FDCAN_GetRxFifoFillLevel:hfdcan <- [DW_OP_LLVM_entry_value 1] $r0
	movs	r2, #152
.Ltmp577:
	.loc	2 2540 7                        @ ../src/driver/stm32g4-v120/src/stm32g4xx_hal_fdcan.c:2540:7
	cmp	r1, #64
	it	eq
	moveq	r2, #144
.Ltmp578:
	.loc	2 0 0 is_stmt 0                 @ ../src/driver/stm32g4-v120/src/stm32g4xx_hal_fdcan.c:0:0
	ldr	r0, [r0, r2]
	and	r0, r0, #15
.Ltmp579:
	@DEBUG_VALUE: HAL_FDCAN_GetRxFifoFillLevel:FillLevel <- $r0
	.loc	2 2550 3 is_stmt 1              @ ../src/driver/stm32g4-v120/src/stm32g4xx_hal_fdcan.c:2550:3
	bx	lr
.Ltmp580:
.Lfunc_end64:
	.size	HAL_FDCAN_GetRxFifoFillLevel, .Lfunc_end64-HAL_FDCAN_GetRxFifoFillLevel
	.cfi_endproc
	.cantunwind
	.fnend
                                        @ -- End function
	.section	.text.HAL_FDCAN_GetTxFifoFreeLevel,"ax",%progbits
	.hidden	HAL_FDCAN_GetTxFifoFreeLevel    @ -- Begin function HAL_FDCAN_GetTxFifoFreeLevel
	.globl	HAL_FDCAN_GetTxFifoFreeLevel
	.p2align	1
	.type	HAL_FDCAN_GetTxFifoFreeLevel,%function
	.code	16                              @ @HAL_FDCAN_GetTxFifoFreeLevel
	.thumb_func
HAL_FDCAN_GetTxFifoFreeLevel:
.Lfunc_begin65:
	.loc	2 2561 0                        @ ../src/driver/stm32g4-v120/src/stm32g4xx_hal_fdcan.c:2561:0
	.fnstart
	.cfi_startproc
@ %bb.0:
	@DEBUG_VALUE: HAL_FDCAN_GetTxFifoFreeLevel:hfdcan <- $r0
	@DEBUG_VALUE: HAL_FDCAN_GetTxFifoFreeLevel:hfdcan <- $r0
	.loc	2 2564 23 prologue_end          @ ../src/driver/stm32g4-v120/src/stm32g4xx_hal_fdcan.c:2564:23
	ldr	r0, [r0]
.Ltmp581:
	@DEBUG_VALUE: HAL_FDCAN_GetTxFifoFreeLevel:hfdcan <- [DW_OP_LLVM_entry_value 1] $r0
	.loc	2 2564 33 is_stmt 0             @ ../src/driver/stm32g4-v120/src/stm32g4xx_hal_fdcan.c:2564:33
	ldr.w	r0, [r0, #196]
	.loc	2 2564 39                       @ ../src/driver/stm32g4-v120/src/stm32g4xx_hal_fdcan.c:2564:39
	and	r0, r0, #7
.Ltmp582:
	@DEBUG_VALUE: HAL_FDCAN_GetTxFifoFreeLevel:FreeLevel <- $r0
	.loc	2 2567 3 is_stmt 1              @ ../src/driver/stm32g4-v120/src/stm32g4xx_hal_fdcan.c:2567:3
	bx	lr
.Ltmp583:
.Lfunc_end65:
	.size	HAL_FDCAN_GetTxFifoFreeLevel, .Lfunc_end65-HAL_FDCAN_GetTxFifoFreeLevel
	.cfi_endproc
	.cantunwind
	.fnend
                                        @ -- End function
	.section	.text.HAL_FDCAN_IsRestrictedOperationMode,"ax",%progbits
	.hidden	HAL_FDCAN_IsRestrictedOperationMode @ -- Begin function HAL_FDCAN_IsRestrictedOperationMode
	.globl	HAL_FDCAN_IsRestrictedOperationMode
	.p2align	1
	.type	HAL_FDCAN_IsRestrictedOperationMode,%function
	.code	16                              @ @HAL_FDCAN_IsRestrictedOperationMode
	.thumb_func
HAL_FDCAN_IsRestrictedOperationMode:
.Lfunc_begin66:
	.loc	2 2579 0                        @ ../src/driver/stm32g4-v120/src/stm32g4xx_hal_fdcan.c:2579:0
	.fnstart
	.cfi_startproc
@ %bb.0:
	@DEBUG_VALUE: HAL_FDCAN_IsRestrictedOperationMode:hfdcan <- $r0
	@DEBUG_VALUE: HAL_FDCAN_IsRestrictedOperationMode:hfdcan <- $r0
	.loc	2 2583 29 prologue_end          @ ../src/driver/stm32g4-v120/src/stm32g4xx_hal_fdcan.c:2583:29
	ldr	r0, [r0]
.Ltmp584:
	@DEBUG_VALUE: HAL_FDCAN_IsRestrictedOperationMode:hfdcan <- [DW_OP_LLVM_entry_value 1] $r0
	.loc	2 2583 39 is_stmt 0             @ ../src/driver/stm32g4-v120/src/stm32g4xx_hal_fdcan.c:2583:39
	ldr	r0, [r0, #24]
	.loc	2 2583 62                       @ ../src/driver/stm32g4-v120/src/stm32g4xx_hal_fdcan.c:2583:62
	ubfx	r0, r0, #2, #1
.Ltmp585:
	@DEBUG_VALUE: HAL_FDCAN_IsRestrictedOperationMode:OperationMode <- $r0
	.loc	2 2585 3 is_stmt 1              @ ../src/driver/stm32g4-v120/src/stm32g4xx_hal_fdcan.c:2585:3
	bx	lr
.Ltmp586:
.Lfunc_end66:
	.size	HAL_FDCAN_IsRestrictedOperationMode, .Lfunc_end66-HAL_FDCAN_IsRestrictedOperationMode
	.cfi_endproc
	.cantunwind
	.fnend
                                        @ -- End function
	.section	.text.HAL_FDCAN_ExitRestrictedOperationMode,"ax",%progbits
	.hidden	HAL_FDCAN_ExitRestrictedOperationMode @ -- Begin function HAL_FDCAN_ExitRestrictedOperationMode
	.globl	HAL_FDCAN_ExitRestrictedOperationMode
	.p2align	1
	.type	HAL_FDCAN_ExitRestrictedOperationMode,%function
	.code	16                              @ @HAL_FDCAN_ExitRestrictedOperationMode
	.thumb_func
HAL_FDCAN_ExitRestrictedOperationMode:
.Lfunc_begin67:
	.loc	2 2595 0                        @ ../src/driver/stm32g4-v120/src/stm32g4xx_hal_fdcan.c:2595:0
	.fnstart
	.cfi_startproc
@ %bb.0:
	@DEBUG_VALUE: HAL_FDCAN_ExitRestrictedOperationMode:hfdcan <- $r0
	@DEBUG_VALUE: HAL_FDCAN_ExitRestrictedOperationMode:hfdcan <- $r0
	.loc	2 2596 42 prologue_end          @ ../src/driver/stm32g4-v120/src/stm32g4xx_hal_fdcan.c:2596:42
	ldrb.w	r1, [r0, #92]
.Ltmp587:
	@DEBUG_VALUE: HAL_FDCAN_ExitRestrictedOperationMode:state <- undef
	.loc	2 2598 40                       @ ../src/driver/stm32g4-v120/src/stm32g4xx_hal_fdcan.c:2598:40
	subs	r1, #1
	cmp	r1, #1
	bhi	.LBB67_2
.Ltmp588:
@ %bb.1:
	@DEBUG_VALUE: HAL_FDCAN_ExitRestrictedOperationMode:hfdcan <- $r0
	.loc	2 2601 5                        @ ../src/driver/stm32g4-v120/src/stm32g4xx_hal_fdcan.c:2601:5
	ldr	r0, [r0]
.Ltmp589:
	@DEBUG_VALUE: HAL_FDCAN_ExitRestrictedOperationMode:hfdcan <- [DW_OP_LLVM_entry_value 1] $r0
	ldr	r1, [r0, #24]
	bic	r1, r1, #4
	str	r1, [r0, #24]
	movs	r0, #0
.Ltmp590:
	.loc	2 2613 1                        @ ../src/driver/stm32g4-v120/src/stm32g4xx_hal_fdcan.c:2613:1
	bx	lr
.Ltmp591:
.LBB67_2:
	@DEBUG_VALUE: HAL_FDCAN_ExitRestrictedOperationMode:hfdcan <- $r0
	.loc	2 2609 23                       @ ../src/driver/stm32g4-v120/src/stm32g4xx_hal_fdcan.c:2609:23
	ldr	r1, [r0, #96]
	orr	r1, r1, #2
	str	r1, [r0, #96]
	movs	r0, #1
.Ltmp592:
	@DEBUG_VALUE: HAL_FDCAN_ExitRestrictedOperationMode:hfdcan <- [DW_OP_LLVM_entry_value 1] $r0
	.loc	2 2613 1                        @ ../src/driver/stm32g4-v120/src/stm32g4xx_hal_fdcan.c:2613:1
	bx	lr
.Ltmp593:
.Lfunc_end67:
	.size	HAL_FDCAN_ExitRestrictedOperationMode, .Lfunc_end67-HAL_FDCAN_ExitRestrictedOperationMode
	.cfi_endproc
	.cantunwind
	.fnend
                                        @ -- End function
	.section	.text.HAL_FDCAN_ConfigInterruptLines,"ax",%progbits
	.hidden	HAL_FDCAN_ConfigInterruptLines  @ -- Begin function HAL_FDCAN_ConfigInterruptLines
	.globl	HAL_FDCAN_ConfigInterruptLines
	.p2align	1
	.type	HAL_FDCAN_ConfigInterruptLines,%function
	.code	16                              @ @HAL_FDCAN_ConfigInterruptLines
	.thumb_func
HAL_FDCAN_ConfigInterruptLines:
.Lfunc_begin68:
	.loc	2 2647 0                        @ ../src/driver/stm32g4-v120/src/stm32g4xx_hal_fdcan.c:2647:0
	.fnstart
	.cfi_startproc
@ %bb.0:
	@DEBUG_VALUE: HAL_FDCAN_ConfigInterruptLines:hfdcan <- $r0
	@DEBUG_VALUE: HAL_FDCAN_ConfigInterruptLines:hfdcan <- $r0
	@DEBUG_VALUE: HAL_FDCAN_ConfigInterruptLines:ITList <- $r1
	@DEBUG_VALUE: HAL_FDCAN_ConfigInterruptLines:InterruptLine <- $r2
	.loc	2 2648 42 prologue_end          @ ../src/driver/stm32g4-v120/src/stm32g4xx_hal_fdcan.c:2648:42
	ldrb.w	r3, [r0, #92]
.Ltmp594:
	@DEBUG_VALUE: HAL_FDCAN_ConfigInterruptLines:state <- undef
	@DEBUG_VALUE: HAL_FDCAN_ConfigInterruptLines:InterruptLine <- $r2
	.loc	2 2654 40                       @ ../src/driver/stm32g4-v120/src/stm32g4xx_hal_fdcan.c:2654:40
	subs	r3, #1
	cmp	r3, #1
	@DEBUG_VALUE: HAL_FDCAN_ConfigInterruptLines:ITList <- $r1
	bhi	.LBB68_2
.Ltmp595:
@ %bb.1:
	@DEBUG_VALUE: HAL_FDCAN_ConfigInterruptLines:InterruptLine <- $r2
	@DEBUG_VALUE: HAL_FDCAN_ConfigInterruptLines:ITList <- $r1
	@DEBUG_VALUE: HAL_FDCAN_ConfigInterruptLines:hfdcan <- $r0
	.loc	2 2659 7                        @ ../src/driver/stm32g4-v120/src/stm32g4xx_hal_fdcan.c:2659:7
	ldr	r0, [r0]
.Ltmp596:
	@DEBUG_VALUE: HAL_FDCAN_ConfigInterruptLines:hfdcan <- [DW_OP_LLVM_entry_value 1] $r0
	.loc	2 2657 9                        @ ../src/driver/stm32g4-v120/src/stm32g4xx_hal_fdcan.c:2657:9
	cmp	r2, #1
.Ltmp597:
	.loc	2 2659 7                        @ ../src/driver/stm32g4-v120/src/stm32g4xx_hal_fdcan.c:2659:7
	ldr	r2, [r0, #88]
.Ltmp598:
	@DEBUG_VALUE: HAL_FDCAN_ConfigInterruptLines:InterruptLine <- [DW_OP_LLVM_entry_value 1] $r2
	ite	eq
	biceq.w	r1, r2, r1
.Ltmp599:
	@DEBUG_VALUE: HAL_FDCAN_ConfigInterruptLines:ITList <- [DW_OP_LLVM_entry_value 1] $r1
	.loc	2 2663 7                        @ ../src/driver/stm32g4-v120/src/stm32g4xx_hal_fdcan.c:2663:7
	orrne	r1, r2
.Ltmp600:
	.loc	2 0 0 is_stmt 0                 @ ../src/driver/stm32g4-v120/src/stm32g4xx_hal_fdcan.c:0:0
	str	r1, [r0, #88]
	movs	r0, #0
.Ltmp601:
	.loc	2 2676 1 is_stmt 1              @ ../src/driver/stm32g4-v120/src/stm32g4xx_hal_fdcan.c:2676:1
	bx	lr
.Ltmp602:
.LBB68_2:
	@DEBUG_VALUE: HAL_FDCAN_ConfigInterruptLines:InterruptLine <- $r2
	@DEBUG_VALUE: HAL_FDCAN_ConfigInterruptLines:ITList <- $r1
	@DEBUG_VALUE: HAL_FDCAN_ConfigInterruptLines:hfdcan <- $r0
	.loc	2 2672 23                       @ ../src/driver/stm32g4-v120/src/stm32g4xx_hal_fdcan.c:2672:23
	ldr	r1, [r0, #96]
.Ltmp603:
	@DEBUG_VALUE: HAL_FDCAN_ConfigInterruptLines:ITList <- [DW_OP_LLVM_entry_value 1] $r1
	orr	r1, r1, #2
	str	r1, [r0, #96]
	movs	r0, #1
.Ltmp604:
	@DEBUG_VALUE: HAL_FDCAN_ConfigInterruptLines:hfdcan <- [DW_OP_LLVM_entry_value 1] $r0
	.loc	2 2676 1                        @ ../src/driver/stm32g4-v120/src/stm32g4xx_hal_fdcan.c:2676:1
	bx	lr
.Ltmp605:
.Lfunc_end68:
	.size	HAL_FDCAN_ConfigInterruptLines, .Lfunc_end68-HAL_FDCAN_ConfigInterruptLines
	.cfi_endproc
	.cantunwind
	.fnend
                                        @ -- End function
	.section	.text.HAL_FDCAN_ActivateNotification,"ax",%progbits
	.hidden	HAL_FDCAN_ActivateNotification  @ -- Begin function HAL_FDCAN_ActivateNotification
	.globl	HAL_FDCAN_ActivateNotification
	.p2align	1
	.type	HAL_FDCAN_ActivateNotification,%function
	.code	16                              @ @HAL_FDCAN_ActivateNotification
	.thumb_func
HAL_FDCAN_ActivateNotification:
.Lfunc_begin69:
	.loc	2 2693 0                        @ ../src/driver/stm32g4-v120/src/stm32g4xx_hal_fdcan.c:2693:0
	.fnstart
	.cfi_startproc
@ %bb.0:
	@DEBUG_VALUE: HAL_FDCAN_ActivateNotification:hfdcan <- $r0
	@DEBUG_VALUE: HAL_FDCAN_ActivateNotification:hfdcan <- $r0
	@DEBUG_VALUE: HAL_FDCAN_ActivateNotification:ActiveITs <- $r1
	@DEBUG_VALUE: HAL_FDCAN_ActivateNotification:BufferIndexes <- $r2
	.save	{r4, lr}
	push	{r4, lr}
	.cfi_def_cfa_offset 8
	.cfi_offset lr, -4
	.cfi_offset r4, -8
.Ltmp606:
	.loc	2 2694 42 prologue_end          @ ../src/driver/stm32g4-v120/src/stm32g4xx_hal_fdcan.c:2694:42
	ldrb.w	r3, [r0, #92]
.Ltmp607:
	@DEBUG_VALUE: HAL_FDCAN_ActivateNotification:state <- undef
	@DEBUG_VALUE: HAL_FDCAN_ActivateNotification:BufferIndexes <- $r2
	.loc	2 2704 40                       @ ../src/driver/stm32g4-v120/src/stm32g4xx_hal_fdcan.c:2704:40
	subs	r3, #1
	cmp	r3, #1
	@DEBUG_VALUE: HAL_FDCAN_ActivateNotification:ActiveITs <- $r1
	bhi	.LBB69_30
.Ltmp608:
@ %bb.1:
	@DEBUG_VALUE: HAL_FDCAN_ActivateNotification:BufferIndexes <- $r2
	@DEBUG_VALUE: HAL_FDCAN_ActivateNotification:ActiveITs <- $r1
	@DEBUG_VALUE: HAL_FDCAN_ActivateNotification:hfdcan <- $r0
	.loc	2 2707 35                       @ ../src/driver/stm32g4-v120/src/stm32g4xx_hal_fdcan.c:2707:35
	ldr	r0, [r0]
.Ltmp609:
	@DEBUG_VALUE: HAL_FDCAN_ActivateNotification:hfdcan <- [DW_OP_LLVM_entry_value 1] $r0
	.loc	2 2710 22                       @ ../src/driver/stm32g4-v120/src/stm32g4xx_hal_fdcan.c:2710:22
	and	r3, r1, #7
.Ltmp610:
	.loc	2 2707 45                       @ ../src/driver/stm32g4-v120/src/stm32g4xx_hal_fdcan.c:2707:45
	ldr.w	lr, [r0, #88]
.Ltmp611:
	@DEBUG_VALUE: HAL_FDCAN_ActivateNotification:ITs_lines_selection <- $lr
	.loc	2 0 45 is_stmt 0                @ ../src/driver/stm32g4-v120/src/stm32g4xx_hal_fdcan.c:0:45
	ands	r12, lr, #1
.Ltmp612:
	.loc	2 2711 10 is_stmt 1             @ ../src/driver/stm32g4-v120/src/stm32g4xx_hal_fdcan.c:2711:10
	bne	.LBB69_3
.Ltmp613:
@ %bb.2:
	@DEBUG_VALUE: HAL_FDCAN_ActivateNotification:BufferIndexes <- $r2
	@DEBUG_VALUE: HAL_FDCAN_ActivateNotification:ActiveITs <- $r1
	@DEBUG_VALUE: HAL_FDCAN_ActivateNotification:ITs_lines_selection <- $lr
	@DEBUG_VALUE: HAL_FDCAN_ActivateNotification:hfdcan <- [DW_OP_LLVM_entry_value 1] $r0
	cbnz	r3, .LBB69_15
.Ltmp614:
.LBB69_3:
	@DEBUG_VALUE: HAL_FDCAN_ActivateNotification:BufferIndexes <- $r2
	@DEBUG_VALUE: HAL_FDCAN_ActivateNotification:ActiveITs <- $r1
	@DEBUG_VALUE: HAL_FDCAN_ActivateNotification:ITs_lines_selection <- $lr
	@DEBUG_VALUE: HAL_FDCAN_ActivateNotification:hfdcan <- [DW_OP_LLVM_entry_value 1] $r0
	.loc	2 2713 10                       @ ../src/driver/stm32g4-v120/src/stm32g4xx_hal_fdcan.c:2713:10
	tst.w	r1, #56
	beq	.LBB69_5
.Ltmp615:
@ %bb.4:
	@DEBUG_VALUE: HAL_FDCAN_ActivateNotification:BufferIndexes <- $r2
	@DEBUG_VALUE: HAL_FDCAN_ActivateNotification:ActiveITs <- $r1
	@DEBUG_VALUE: HAL_FDCAN_ActivateNotification:ITs_lines_selection <- $lr
	@DEBUG_VALUE: HAL_FDCAN_ActivateNotification:hfdcan <- [DW_OP_LLVM_entry_value 1] $r0
	.loc	2 0 10 is_stmt 0                @ ../src/driver/stm32g4-v120/src/stm32g4xx_hal_fdcan.c:0:10
	ands	r4, lr, #2
	.loc	2 2713 10                       @ ../src/driver/stm32g4-v120/src/stm32g4xx_hal_fdcan.c:2713:10
	beq	.LBB69_15
.Ltmp616:
.LBB69_5:
	@DEBUG_VALUE: HAL_FDCAN_ActivateNotification:BufferIndexes <- $r2
	@DEBUG_VALUE: HAL_FDCAN_ActivateNotification:ActiveITs <- $r1
	@DEBUG_VALUE: HAL_FDCAN_ActivateNotification:ITs_lines_selection <- $lr
	@DEBUG_VALUE: HAL_FDCAN_ActivateNotification:hfdcan <- [DW_OP_LLVM_entry_value 1] $r0
	.loc	2 2715 10 is_stmt 1             @ ../src/driver/stm32g4-v120/src/stm32g4xx_hal_fdcan.c:2715:10
	tst.w	r1, #448
	beq	.LBB69_7
.Ltmp617:
@ %bb.6:
	@DEBUG_VALUE: HAL_FDCAN_ActivateNotification:BufferIndexes <- $r2
	@DEBUG_VALUE: HAL_FDCAN_ActivateNotification:ActiveITs <- $r1
	@DEBUG_VALUE: HAL_FDCAN_ActivateNotification:ITs_lines_selection <- $lr
	@DEBUG_VALUE: HAL_FDCAN_ActivateNotification:hfdcan <- [DW_OP_LLVM_entry_value 1] $r0
	.loc	2 0 10 is_stmt 0                @ ../src/driver/stm32g4-v120/src/stm32g4xx_hal_fdcan.c:0:10
	ands	r4, lr, #4
	.loc	2 2715 10                       @ ../src/driver/stm32g4-v120/src/stm32g4xx_hal_fdcan.c:2715:10
	beq	.LBB69_15
.Ltmp618:
.LBB69_7:
	@DEBUG_VALUE: HAL_FDCAN_ActivateNotification:BufferIndexes <- $r2
	@DEBUG_VALUE: HAL_FDCAN_ActivateNotification:ActiveITs <- $r1
	@DEBUG_VALUE: HAL_FDCAN_ActivateNotification:ITs_lines_selection <- $lr
	@DEBUG_VALUE: HAL_FDCAN_ActivateNotification:hfdcan <- [DW_OP_LLVM_entry_value 1] $r0
	.loc	2 2717 10 is_stmt 1             @ ../src/driver/stm32g4-v120/src/stm32g4xx_hal_fdcan.c:2717:10
	tst.w	r1, #7680
	beq	.LBB69_9
.Ltmp619:
@ %bb.8:
	@DEBUG_VALUE: HAL_FDCAN_ActivateNotification:BufferIndexes <- $r2
	@DEBUG_VALUE: HAL_FDCAN_ActivateNotification:ActiveITs <- $r1
	@DEBUG_VALUE: HAL_FDCAN_ActivateNotification:ITs_lines_selection <- $lr
	@DEBUG_VALUE: HAL_FDCAN_ActivateNotification:hfdcan <- [DW_OP_LLVM_entry_value 1] $r0
	.loc	2 0 10 is_stmt 0                @ ../src/driver/stm32g4-v120/src/stm32g4xx_hal_fdcan.c:0:10
	ands	r4, lr, #8
	.loc	2 2717 10                       @ ../src/driver/stm32g4-v120/src/stm32g4xx_hal_fdcan.c:2717:10
	beq	.LBB69_15
.Ltmp620:
.LBB69_9:
	@DEBUG_VALUE: HAL_FDCAN_ActivateNotification:BufferIndexes <- $r2
	@DEBUG_VALUE: HAL_FDCAN_ActivateNotification:ActiveITs <- $r1
	@DEBUG_VALUE: HAL_FDCAN_ActivateNotification:ITs_lines_selection <- $lr
	@DEBUG_VALUE: HAL_FDCAN_ActivateNotification:hfdcan <- [DW_OP_LLVM_entry_value 1] $r0
	.loc	2 2719 10 is_stmt 1             @ ../src/driver/stm32g4-v120/src/stm32g4xx_hal_fdcan.c:2719:10
	tst.w	r1, #57344
	beq	.LBB69_11
.Ltmp621:
@ %bb.10:
	@DEBUG_VALUE: HAL_FDCAN_ActivateNotification:BufferIndexes <- $r2
	@DEBUG_VALUE: HAL_FDCAN_ActivateNotification:ActiveITs <- $r1
	@DEBUG_VALUE: HAL_FDCAN_ActivateNotification:ITs_lines_selection <- $lr
	@DEBUG_VALUE: HAL_FDCAN_ActivateNotification:hfdcan <- [DW_OP_LLVM_entry_value 1] $r0
	.loc	2 0 10 is_stmt 0                @ ../src/driver/stm32g4-v120/src/stm32g4xx_hal_fdcan.c:0:10
	ands	r4, lr, #16
	.loc	2 2719 10                       @ ../src/driver/stm32g4-v120/src/stm32g4xx_hal_fdcan.c:2719:10
	beq	.LBB69_15
.Ltmp622:
.LBB69_11:
	@DEBUG_VALUE: HAL_FDCAN_ActivateNotification:BufferIndexes <- $r2
	@DEBUG_VALUE: HAL_FDCAN_ActivateNotification:ActiveITs <- $r1
	@DEBUG_VALUE: HAL_FDCAN_ActivateNotification:ITs_lines_selection <- $lr
	@DEBUG_VALUE: HAL_FDCAN_ActivateNotification:hfdcan <- [DW_OP_LLVM_entry_value 1] $r0
	.loc	2 2721 10 is_stmt 1             @ ../src/driver/stm32g4-v120/src/stm32g4xx_hal_fdcan.c:2721:10
	tst.w	r1, #196608
	beq	.LBB69_13
.Ltmp623:
@ %bb.12:
	@DEBUG_VALUE: HAL_FDCAN_ActivateNotification:BufferIndexes <- $r2
	@DEBUG_VALUE: HAL_FDCAN_ActivateNotification:ActiveITs <- $r1
	@DEBUG_VALUE: HAL_FDCAN_ActivateNotification:ITs_lines_selection <- $lr
	@DEBUG_VALUE: HAL_FDCAN_ActivateNotification:hfdcan <- [DW_OP_LLVM_entry_value 1] $r0
	.loc	2 0 10 is_stmt 0                @ ../src/driver/stm32g4-v120/src/stm32g4xx_hal_fdcan.c:0:10
	ands	r4, lr, #32
	.loc	2 2721 10                       @ ../src/driver/stm32g4-v120/src/stm32g4xx_hal_fdcan.c:2721:10
	beq	.LBB69_15
.Ltmp624:
.LBB69_13:
	@DEBUG_VALUE: HAL_FDCAN_ActivateNotification:BufferIndexes <- $r2
	@DEBUG_VALUE: HAL_FDCAN_ActivateNotification:ActiveITs <- $r1
	@DEBUG_VALUE: HAL_FDCAN_ActivateNotification:ITs_lines_selection <- $lr
	@DEBUG_VALUE: HAL_FDCAN_ActivateNotification:hfdcan <- [DW_OP_LLVM_entry_value 1] $r0
	.loc	2 2723 10 is_stmt 1             @ ../src/driver/stm32g4-v120/src/stm32g4xx_hal_fdcan.c:2723:10
	tst.w	r1, #16515072
	beq	.LBB69_16
.Ltmp625:
@ %bb.14:
	@DEBUG_VALUE: HAL_FDCAN_ActivateNotification:BufferIndexes <- $r2
	@DEBUG_VALUE: HAL_FDCAN_ActivateNotification:ActiveITs <- $r1
	@DEBUG_VALUE: HAL_FDCAN_ActivateNotification:ITs_lines_selection <- $lr
	@DEBUG_VALUE: HAL_FDCAN_ActivateNotification:hfdcan <- [DW_OP_LLVM_entry_value 1] $r0
	.loc	2 0 10 is_stmt 0                @ ../src/driver/stm32g4-v120/src/stm32g4xx_hal_fdcan.c:0:10
	ands	r4, lr, #64
	.loc	2 2723 10                       @ ../src/driver/stm32g4-v120/src/stm32g4xx_hal_fdcan.c:2723:10
	bne	.LBB69_16
.Ltmp626:
.LBB69_15:
	@DEBUG_VALUE: HAL_FDCAN_ActivateNotification:BufferIndexes <- $r2
	@DEBUG_VALUE: HAL_FDCAN_ActivateNotification:ActiveITs <- $r1
	@DEBUG_VALUE: HAL_FDCAN_ActivateNotification:ITs_lines_selection <- $lr
	@DEBUG_VALUE: HAL_FDCAN_ActivateNotification:hfdcan <- [DW_OP_LLVM_entry_value 1] $r0
	.loc	2 2726 7 is_stmt 1              @ ../src/driver/stm32g4-v120/src/stm32g4xx_hal_fdcan.c:2726:7
	ldr	r4, [r0, #92]
	orr	r4, r4, #1
	str	r4, [r0, #92]
.Ltmp627:
.LBB69_16:
	@DEBUG_VALUE: HAL_FDCAN_ActivateNotification:BufferIndexes <- $r2
	@DEBUG_VALUE: HAL_FDCAN_ActivateNotification:ActiveITs <- $r1
	@DEBUG_VALUE: HAL_FDCAN_ActivateNotification:ITs_lines_selection <- $lr
	@DEBUG_VALUE: HAL_FDCAN_ActivateNotification:hfdcan <- [DW_OP_LLVM_entry_value 1] $r0
	.loc	2 2729 10                       @ ../src/driver/stm32g4-v120/src/stm32g4xx_hal_fdcan.c:2729:10
	cbz	r3, .LBB69_18
.Ltmp628:
@ %bb.17:
	@DEBUG_VALUE: HAL_FDCAN_ActivateNotification:BufferIndexes <- $r2
	@DEBUG_VALUE: HAL_FDCAN_ActivateNotification:ActiveITs <- $r1
	@DEBUG_VALUE: HAL_FDCAN_ActivateNotification:ITs_lines_selection <- $lr
	@DEBUG_VALUE: HAL_FDCAN_ActivateNotification:hfdcan <- [DW_OP_LLVM_entry_value 1] $r0
	cmp.w	r12, #0
	bne	.LBB69_24
.Ltmp629:
.LBB69_18:
	@DEBUG_VALUE: HAL_FDCAN_ActivateNotification:BufferIndexes <- $r2
	@DEBUG_VALUE: HAL_FDCAN_ActivateNotification:ActiveITs <- $r1
	@DEBUG_VALUE: HAL_FDCAN_ActivateNotification:ITs_lines_selection <- $lr
	@DEBUG_VALUE: HAL_FDCAN_ActivateNotification:hfdcan <- [DW_OP_LLVM_entry_value 1] $r0
	.loc	2 2731 10                       @ ../src/driver/stm32g4-v120/src/stm32g4xx_hal_fdcan.c:2731:10
	tst.w	r1, #56
	it	ne
	andsne	r3, lr, #2
	bne	.LBB69_24
.Ltmp630:
@ %bb.19:
	@DEBUG_VALUE: HAL_FDCAN_ActivateNotification:BufferIndexes <- $r2
	@DEBUG_VALUE: HAL_FDCAN_ActivateNotification:ActiveITs <- $r1
	@DEBUG_VALUE: HAL_FDCAN_ActivateNotification:ITs_lines_selection <- $lr
	@DEBUG_VALUE: HAL_FDCAN_ActivateNotification:hfdcan <- [DW_OP_LLVM_entry_value 1] $r0
	.loc	2 2733 10                       @ ../src/driver/stm32g4-v120/src/stm32g4xx_hal_fdcan.c:2733:10
	tst.w	r1, #448
	it	ne
	andsne	r3, lr, #4
	bne	.LBB69_24
.Ltmp631:
@ %bb.20:
	@DEBUG_VALUE: HAL_FDCAN_ActivateNotification:BufferIndexes <- $r2
	@DEBUG_VALUE: HAL_FDCAN_ActivateNotification:ActiveITs <- $r1
	@DEBUG_VALUE: HAL_FDCAN_ActivateNotification:ITs_lines_selection <- $lr
	@DEBUG_VALUE: HAL_FDCAN_ActivateNotification:hfdcan <- [DW_OP_LLVM_entry_value 1] $r0
	.loc	2 2735 10                       @ ../src/driver/stm32g4-v120/src/stm32g4xx_hal_fdcan.c:2735:10
	tst.w	r1, #7680
	it	ne
	andsne	r3, lr, #8
	bne	.LBB69_24
.Ltmp632:
@ %bb.21:
	@DEBUG_VALUE: HAL_FDCAN_ActivateNotification:BufferIndexes <- $r2
	@DEBUG_VALUE: HAL_FDCAN_ActivateNotification:ActiveITs <- $r1
	@DEBUG_VALUE: HAL_FDCAN_ActivateNotification:ITs_lines_selection <- $lr
	@DEBUG_VALUE: HAL_FDCAN_ActivateNotification:hfdcan <- [DW_OP_LLVM_entry_value 1] $r0
	.loc	2 2737 10                       @ ../src/driver/stm32g4-v120/src/stm32g4xx_hal_fdcan.c:2737:10
	tst.w	r1, #57344
	it	ne
	andsne	r3, lr, #16
	bne	.LBB69_24
.Ltmp633:
@ %bb.22:
	@DEBUG_VALUE: HAL_FDCAN_ActivateNotification:BufferIndexes <- $r2
	@DEBUG_VALUE: HAL_FDCAN_ActivateNotification:ActiveITs <- $r1
	@DEBUG_VALUE: HAL_FDCAN_ActivateNotification:ITs_lines_selection <- $lr
	@DEBUG_VALUE: HAL_FDCAN_ActivateNotification:hfdcan <- [DW_OP_LLVM_entry_value 1] $r0
	.loc	2 2739 10                       @ ../src/driver/stm32g4-v120/src/stm32g4xx_hal_fdcan.c:2739:10
	tst.w	r1, #196608
	it	ne
	andsne	r3, lr, #32
	bne	.LBB69_24
.Ltmp634:
@ %bb.23:
	@DEBUG_VALUE: HAL_FDCAN_ActivateNotification:BufferIndexes <- $r2
	@DEBUG_VALUE: HAL_FDCAN_ActivateNotification:ActiveITs <- $r1
	@DEBUG_VALUE: HAL_FDCAN_ActivateNotification:ITs_lines_selection <- $lr
	@DEBUG_VALUE: HAL_FDCAN_ActivateNotification:hfdcan <- [DW_OP_LLVM_entry_value 1] $r0
	.loc	2 2741 10                       @ ../src/driver/stm32g4-v120/src/stm32g4xx_hal_fdcan.c:2741:10
	tst.w	r1, #16515072
	it	ne
	andsne	r3, lr, #64
	beq	.LBB69_25
.Ltmp635:
.LBB69_24:
	@DEBUG_VALUE: HAL_FDCAN_ActivateNotification:BufferIndexes <- $r2
	@DEBUG_VALUE: HAL_FDCAN_ActivateNotification:ActiveITs <- $r1
	@DEBUG_VALUE: HAL_FDCAN_ActivateNotification:ITs_lines_selection <- $lr
	@DEBUG_VALUE: HAL_FDCAN_ActivateNotification:hfdcan <- [DW_OP_LLVM_entry_value 1] $r0
	.loc	2 2744 7                        @ ../src/driver/stm32g4-v120/src/stm32g4xx_hal_fdcan.c:2744:7
	ldr	r3, [r0, #92]
	orr	r3, r3, #2
	str	r3, [r0, #92]
.Ltmp636:
.LBB69_25:
	@DEBUG_VALUE: HAL_FDCAN_ActivateNotification:BufferIndexes <- $r2
	@DEBUG_VALUE: HAL_FDCAN_ActivateNotification:ActiveITs <- $r1
	@DEBUG_VALUE: HAL_FDCAN_ActivateNotification:ITs_lines_selection <- $lr
	@DEBUG_VALUE: HAL_FDCAN_ActivateNotification:hfdcan <- [DW_OP_LLVM_entry_value 1] $r0
	.loc	2 2747 9                        @ ../src/driver/stm32g4-v120/src/stm32g4xx_hal_fdcan.c:2747:9
	lsls	r3, r1, #24
	bpl	.LBB69_27
.Ltmp637:
@ %bb.26:
	@DEBUG_VALUE: HAL_FDCAN_ActivateNotification:BufferIndexes <- $r2
	@DEBUG_VALUE: HAL_FDCAN_ActivateNotification:ActiveITs <- $r1
	@DEBUG_VALUE: HAL_FDCAN_ActivateNotification:ITs_lines_selection <- $lr
	@DEBUG_VALUE: HAL_FDCAN_ActivateNotification:hfdcan <- [DW_OP_LLVM_entry_value 1] $r0
	.loc	2 2751 7                        @ ../src/driver/stm32g4-v120/src/stm32g4xx_hal_fdcan.c:2751:7
	ldr.w	r3, [r0, #220]
	orrs	r3, r2
	str.w	r3, [r0, #220]
.Ltmp638:
.LBB69_27:
	@DEBUG_VALUE: HAL_FDCAN_ActivateNotification:BufferIndexes <- $r2
	@DEBUG_VALUE: HAL_FDCAN_ActivateNotification:ActiveITs <- $r1
	@DEBUG_VALUE: HAL_FDCAN_ActivateNotification:ITs_lines_selection <- $lr
	@DEBUG_VALUE: HAL_FDCAN_ActivateNotification:hfdcan <- [DW_OP_LLVM_entry_value 1] $r0
	.loc	2 2754 9                        @ ../src/driver/stm32g4-v120/src/stm32g4xx_hal_fdcan.c:2754:9
	lsls	r3, r1, #23
	bpl	.LBB69_29
.Ltmp639:
@ %bb.28:
	@DEBUG_VALUE: HAL_FDCAN_ActivateNotification:BufferIndexes <- $r2
	@DEBUG_VALUE: HAL_FDCAN_ActivateNotification:ActiveITs <- $r1
	@DEBUG_VALUE: HAL_FDCAN_ActivateNotification:ITs_lines_selection <- $lr
	@DEBUG_VALUE: HAL_FDCAN_ActivateNotification:hfdcan <- [DW_OP_LLVM_entry_value 1] $r0
	.loc	2 2758 7                        @ ../src/driver/stm32g4-v120/src/stm32g4xx_hal_fdcan.c:2758:7
	ldr.w	r3, [r0, #224]
	orrs	r2, r3
.Ltmp640:
	@DEBUG_VALUE: HAL_FDCAN_ActivateNotification:BufferIndexes <- [DW_OP_LLVM_entry_value 1] $r2
	str.w	r2, [r0, #224]
.Ltmp641:
.LBB69_29:
	@DEBUG_VALUE: HAL_FDCAN_ActivateNotification:ActiveITs <- $r1
	@DEBUG_VALUE: HAL_FDCAN_ActivateNotification:ITs_lines_selection <- $lr
	@DEBUG_VALUE: HAL_FDCAN_ActivateNotification:hfdcan <- [DW_OP_LLVM_entry_value 1] $r0
	.loc	2 2762 5                        @ ../src/driver/stm32g4-v120/src/stm32g4xx_hal_fdcan.c:2762:5
	add.w	r2, r0, #84
	movs	r0, #0
	b	.LBB69_31
.Ltmp642:
.LBB69_30:
	@DEBUG_VALUE: HAL_FDCAN_ActivateNotification:BufferIndexes <- $r2
	@DEBUG_VALUE: HAL_FDCAN_ActivateNotification:ActiveITs <- $r1
	@DEBUG_VALUE: HAL_FDCAN_ActivateNotification:hfdcan <- $r0
	.loc	2 2770 13                       @ ../src/driver/stm32g4-v120/src/stm32g4xx_hal_fdcan.c:2770:13
	add.w	r2, r0, #96
.Ltmp643:
	@DEBUG_VALUE: HAL_FDCAN_ActivateNotification:BufferIndexes <- [DW_OP_LLVM_entry_value 1] $r2
	.loc	2 0 13 is_stmt 0                @ ../src/driver/stm32g4-v120/src/stm32g4xx_hal_fdcan.c:0:13
	movs	r0, #1
.Ltmp644:
	@DEBUG_VALUE: HAL_FDCAN_ActivateNotification:hfdcan <- [DW_OP_LLVM_entry_value 1] $r0
	movs	r1, #2
.Ltmp645:
	@DEBUG_VALUE: HAL_FDCAN_ActivateNotification:ActiveITs <- [DW_OP_LLVM_entry_value 1] $r1
.LBB69_31:
	@DEBUG_VALUE: HAL_FDCAN_ActivateNotification:hfdcan <- [DW_OP_LLVM_entry_value 1] $r0
	ldr	r3, [r2]
	orrs	r1, r3
	str	r1, [r2]
.Ltmp646:
	.loc	2 2774 1 is_stmt 1              @ ../src/driver/stm32g4-v120/src/stm32g4xx_hal_fdcan.c:2774:1
	pop	{r4, pc}
.Ltmp647:
.Lfunc_end69:
	.size	HAL_FDCAN_ActivateNotification, .Lfunc_end69-HAL_FDCAN_ActivateNotification
	.cfi_endproc
	.cantunwind
	.fnend
                                        @ -- End function
	.section	.text.HAL_FDCAN_DeactivateNotification,"ax",%progbits
	.hidden	HAL_FDCAN_DeactivateNotification @ -- Begin function HAL_FDCAN_DeactivateNotification
	.globl	HAL_FDCAN_DeactivateNotification
	.p2align	1
	.type	HAL_FDCAN_DeactivateNotification,%function
	.code	16                              @ @HAL_FDCAN_DeactivateNotification
	.thumb_func
HAL_FDCAN_DeactivateNotification:
.Lfunc_begin70:
	.loc	2 2785 0                        @ ../src/driver/stm32g4-v120/src/stm32g4xx_hal_fdcan.c:2785:0
	.fnstart
	.cfi_startproc
@ %bb.0:
	@DEBUG_VALUE: HAL_FDCAN_DeactivateNotification:hfdcan <- $r0
	@DEBUG_VALUE: HAL_FDCAN_DeactivateNotification:hfdcan <- $r0
	@DEBUG_VALUE: HAL_FDCAN_DeactivateNotification:InactiveITs <- $r1
	.save	{r7, lr}
	push	{r7, lr}
	.cfi_def_cfa_offset 8
	.cfi_offset lr, -4
	.cfi_offset r7, -8
.Ltmp648:
	.loc	2 2786 42 prologue_end          @ ../src/driver/stm32g4-v120/src/stm32g4xx_hal_fdcan.c:2786:42
	ldrb.w	r2, [r0, #92]
.Ltmp649:
	@DEBUG_VALUE: HAL_FDCAN_DeactivateNotification:state <- undef
	.loc	2 2793 40                       @ ../src/driver/stm32g4-v120/src/stm32g4xx_hal_fdcan.c:2793:40
	subs	r2, #1
	cmp	r2, #1
	@DEBUG_VALUE: HAL_FDCAN_DeactivateNotification:InactiveITs <- $r1
	bhi	.LBB70_26
.Ltmp650:
@ %bb.1:
	@DEBUG_VALUE: HAL_FDCAN_DeactivateNotification:InactiveITs <- $r1
	@DEBUG_VALUE: HAL_FDCAN_DeactivateNotification:hfdcan <- $r0
	.loc	2 2796 5                        @ ../src/driver/stm32g4-v120/src/stm32g4xx_hal_fdcan.c:2796:5
	ldr	r0, [r0]
.Ltmp651:
	@DEBUG_VALUE: HAL_FDCAN_DeactivateNotification:hfdcan <- [DW_OP_LLVM_entry_value 1] $r0
	.loc	2 2798 9                        @ ../src/driver/stm32g4-v120/src/stm32g4xx_hal_fdcan.c:2798:9
	lsls	r3, r1, #24
	.loc	2 2796 5                        @ ../src/driver/stm32g4-v120/src/stm32g4xx_hal_fdcan.c:2796:5
	ldr	r2, [r0, #84]
	bic.w	r2, r2, r1
	str	r2, [r0, #84]
	itt	mi
	movmi	r2, #0
.Ltmp652:
	.loc	2 2801 7                        @ ../src/driver/stm32g4-v120/src/stm32g4xx_hal_fdcan.c:2801:7
	strmi.w	r2, [r0, #220]
.Ltmp653:
	.loc	2 2804 9                        @ ../src/driver/stm32g4-v120/src/stm32g4xx_hal_fdcan.c:2804:9
	lsls	r1, r1, #23
.Ltmp654:
	@DEBUG_VALUE: HAL_FDCAN_DeactivateNotification:InactiveITs <- [DW_OP_LLVM_entry_value 1] $r1
	.loc	2 0 9 is_stmt 0                 @ ../src/driver/stm32g4-v120/src/stm32g4xx_hal_fdcan.c:0:9
	itt	mi
	movmi	r1, #0
.Ltmp655:
	.loc	2 2807 7 is_stmt 1              @ ../src/driver/stm32g4-v120/src/stm32g4xx_hal_fdcan.c:2807:7
	strmi.w	r1, [r0, #224]
.Ltmp656:
	.loc	2 2811 37                       @ ../src/driver/stm32g4-v120/src/stm32g4xx_hal_fdcan.c:2811:37
	ldr	r2, [r0, #84]
.Ltmp657:
	@DEBUG_VALUE: HAL_FDCAN_DeactivateNotification:ITs_enabled <- $r2
	.loc	2 2812 45                       @ ../src/driver/stm32g4-v120/src/stm32g4xx_hal_fdcan.c:2812:45
	ldr.w	lr, [r0, #88]
.Ltmp658:
	@DEBUG_VALUE: HAL_FDCAN_DeactivateNotification:ITs_lines_selection <- $lr
	.loc	2 2815 24                       @ ../src/driver/stm32g4-v120/src/stm32g4xx_hal_fdcan.c:2815:24
	and	r3, r2, #7
	ands	r12, lr, #1
	.loc	2 2816 10                       @ ../src/driver/stm32g4-v120/src/stm32g4xx_hal_fdcan.c:2816:10
	bne	.LBB70_3
.Ltmp659:
@ %bb.2:
	@DEBUG_VALUE: HAL_FDCAN_DeactivateNotification:ITs_enabled <- $r2
	@DEBUG_VALUE: HAL_FDCAN_DeactivateNotification:ITs_lines_selection <- $lr
	@DEBUG_VALUE: HAL_FDCAN_DeactivateNotification:hfdcan <- [DW_OP_LLVM_entry_value 1] $r0
	@DEBUG_VALUE: HAL_FDCAN_DeactivateNotification:InactiveITs <- [DW_OP_LLVM_entry_value 1] $r1
	cbnz	r3, .LBB70_16
.Ltmp660:
.LBB70_3:
	@DEBUG_VALUE: HAL_FDCAN_DeactivateNotification:ITs_enabled <- $r2
	@DEBUG_VALUE: HAL_FDCAN_DeactivateNotification:ITs_lines_selection <- $lr
	@DEBUG_VALUE: HAL_FDCAN_DeactivateNotification:hfdcan <- [DW_OP_LLVM_entry_value 1] $r0
	@DEBUG_VALUE: HAL_FDCAN_DeactivateNotification:InactiveITs <- [DW_OP_LLVM_entry_value 1] $r1
	.loc	2 2818 10                       @ ../src/driver/stm32g4-v120/src/stm32g4xx_hal_fdcan.c:2818:10
	tst.w	r2, #56
	beq	.LBB70_5
.Ltmp661:
@ %bb.4:
	@DEBUG_VALUE: HAL_FDCAN_DeactivateNotification:ITs_enabled <- $r2
	@DEBUG_VALUE: HAL_FDCAN_DeactivateNotification:ITs_lines_selection <- $lr
	@DEBUG_VALUE: HAL_FDCAN_DeactivateNotification:hfdcan <- [DW_OP_LLVM_entry_value 1] $r0
	@DEBUG_VALUE: HAL_FDCAN_DeactivateNotification:InactiveITs <- [DW_OP_LLVM_entry_value 1] $r1
	.loc	2 0 10 is_stmt 0                @ ../src/driver/stm32g4-v120/src/stm32g4xx_hal_fdcan.c:0:10
	ands	r1, lr, #2
	.loc	2 2818 10                       @ ../src/driver/stm32g4-v120/src/stm32g4xx_hal_fdcan.c:2818:10
	beq	.LBB70_16
.Ltmp662:
.LBB70_5:
	@DEBUG_VALUE: HAL_FDCAN_DeactivateNotification:ITs_enabled <- $r2
	@DEBUG_VALUE: HAL_FDCAN_DeactivateNotification:ITs_lines_selection <- $lr
	@DEBUG_VALUE: HAL_FDCAN_DeactivateNotification:hfdcan <- [DW_OP_LLVM_entry_value 1] $r0
	@DEBUG_VALUE: HAL_FDCAN_DeactivateNotification:InactiveITs <- [DW_OP_LLVM_entry_value 1] $r1
	.loc	2 2820 10 is_stmt 1             @ ../src/driver/stm32g4-v120/src/stm32g4xx_hal_fdcan.c:2820:10
	tst.w	r2, #448
	beq	.LBB70_7
.Ltmp663:
@ %bb.6:
	@DEBUG_VALUE: HAL_FDCAN_DeactivateNotification:ITs_enabled <- $r2
	@DEBUG_VALUE: HAL_FDCAN_DeactivateNotification:ITs_lines_selection <- $lr
	@DEBUG_VALUE: HAL_FDCAN_DeactivateNotification:hfdcan <- [DW_OP_LLVM_entry_value 1] $r0
	@DEBUG_VALUE: HAL_FDCAN_DeactivateNotification:InactiveITs <- [DW_OP_LLVM_entry_value 1] $r1
	.loc	2 0 10 is_stmt 0                @ ../src/driver/stm32g4-v120/src/stm32g4xx_hal_fdcan.c:0:10
	ands	r1, lr, #4
	.loc	2 2820 10                       @ ../src/driver/stm32g4-v120/src/stm32g4xx_hal_fdcan.c:2820:10
	beq	.LBB70_16
.Ltmp664:
.LBB70_7:
	@DEBUG_VALUE: HAL_FDCAN_DeactivateNotification:ITs_enabled <- $r2
	@DEBUG_VALUE: HAL_FDCAN_DeactivateNotification:ITs_lines_selection <- $lr
	@DEBUG_VALUE: HAL_FDCAN_DeactivateNotification:hfdcan <- [DW_OP_LLVM_entry_value 1] $r0
	@DEBUG_VALUE: HAL_FDCAN_DeactivateNotification:InactiveITs <- [DW_OP_LLVM_entry_value 1] $r1
	.loc	2 2822 10 is_stmt 1             @ ../src/driver/stm32g4-v120/src/stm32g4xx_hal_fdcan.c:2822:10
	tst.w	r2, #7680
	beq	.LBB70_9
.Ltmp665:
@ %bb.8:
	@DEBUG_VALUE: HAL_FDCAN_DeactivateNotification:ITs_enabled <- $r2
	@DEBUG_VALUE: HAL_FDCAN_DeactivateNotification:ITs_lines_selection <- $lr
	@DEBUG_VALUE: HAL_FDCAN_DeactivateNotification:hfdcan <- [DW_OP_LLVM_entry_value 1] $r0
	@DEBUG_VALUE: HAL_FDCAN_DeactivateNotification:InactiveITs <- [DW_OP_LLVM_entry_value 1] $r1
	.loc	2 0 10 is_stmt 0                @ ../src/driver/stm32g4-v120/src/stm32g4xx_hal_fdcan.c:0:10
	ands	r1, lr, #8
	.loc	2 2822 10                       @ ../src/driver/stm32g4-v120/src/stm32g4xx_hal_fdcan.c:2822:10
	beq	.LBB70_16
.Ltmp666:
.LBB70_9:
	@DEBUG_VALUE: HAL_FDCAN_DeactivateNotification:ITs_enabled <- $r2
	@DEBUG_VALUE: HAL_FDCAN_DeactivateNotification:ITs_lines_selection <- $lr
	@DEBUG_VALUE: HAL_FDCAN_DeactivateNotification:hfdcan <- [DW_OP_LLVM_entry_value 1] $r0
	@DEBUG_VALUE: HAL_FDCAN_DeactivateNotification:InactiveITs <- [DW_OP_LLVM_entry_value 1] $r1
	.loc	2 2824 10 is_stmt 1             @ ../src/driver/stm32g4-v120/src/stm32g4xx_hal_fdcan.c:2824:10
	tst.w	r2, #57344
	beq	.LBB70_11
.Ltmp667:
@ %bb.10:
	@DEBUG_VALUE: HAL_FDCAN_DeactivateNotification:ITs_enabled <- $r2
	@DEBUG_VALUE: HAL_FDCAN_DeactivateNotification:ITs_lines_selection <- $lr
	@DEBUG_VALUE: HAL_FDCAN_DeactivateNotification:hfdcan <- [DW_OP_LLVM_entry_value 1] $r0
	@DEBUG_VALUE: HAL_FDCAN_DeactivateNotification:InactiveITs <- [DW_OP_LLVM_entry_value 1] $r1
	.loc	2 0 10 is_stmt 0                @ ../src/driver/stm32g4-v120/src/stm32g4xx_hal_fdcan.c:0:10
	ands	r1, lr, #16
	.loc	2 2824 10                       @ ../src/driver/stm32g4-v120/src/stm32g4xx_hal_fdcan.c:2824:10
	beq	.LBB70_16
.Ltmp668:
.LBB70_11:
	@DEBUG_VALUE: HAL_FDCAN_DeactivateNotification:ITs_enabled <- $r2
	@DEBUG_VALUE: HAL_FDCAN_DeactivateNotification:ITs_lines_selection <- $lr
	@DEBUG_VALUE: HAL_FDCAN_DeactivateNotification:hfdcan <- [DW_OP_LLVM_entry_value 1] $r0
	@DEBUG_VALUE: HAL_FDCAN_DeactivateNotification:InactiveITs <- [DW_OP_LLVM_entry_value 1] $r1
	.loc	2 2826 10 is_stmt 1             @ ../src/driver/stm32g4-v120/src/stm32g4xx_hal_fdcan.c:2826:10
	tst.w	r2, #196608
	beq	.LBB70_13
.Ltmp669:
@ %bb.12:
	@DEBUG_VALUE: HAL_FDCAN_DeactivateNotification:ITs_enabled <- $r2
	@DEBUG_VALUE: HAL_FDCAN_DeactivateNotification:ITs_lines_selection <- $lr
	@DEBUG_VALUE: HAL_FDCAN_DeactivateNotification:hfdcan <- [DW_OP_LLVM_entry_value 1] $r0
	@DEBUG_VALUE: HAL_FDCAN_DeactivateNotification:InactiveITs <- [DW_OP_LLVM_entry_value 1] $r1
	.loc	2 0 10 is_stmt 0                @ ../src/driver/stm32g4-v120/src/stm32g4xx_hal_fdcan.c:0:10
	ands	r1, lr, #32
	.loc	2 2826 10                       @ ../src/driver/stm32g4-v120/src/stm32g4xx_hal_fdcan.c:2826:10
	beq	.LBB70_16
.Ltmp670:
.LBB70_13:
	@DEBUG_VALUE: HAL_FDCAN_DeactivateNotification:ITs_enabled <- $r2
	@DEBUG_VALUE: HAL_FDCAN_DeactivateNotification:ITs_lines_selection <- $lr
	@DEBUG_VALUE: HAL_FDCAN_DeactivateNotification:hfdcan <- [DW_OP_LLVM_entry_value 1] $r0
	@DEBUG_VALUE: HAL_FDCAN_DeactivateNotification:InactiveITs <- [DW_OP_LLVM_entry_value 1] $r1
	.loc	2 2828 10 is_stmt 1             @ ../src/driver/stm32g4-v120/src/stm32g4xx_hal_fdcan.c:2828:10
	tst.w	r2, #16515072
	beq	.LBB70_15
.Ltmp671:
@ %bb.14:
	@DEBUG_VALUE: HAL_FDCAN_DeactivateNotification:ITs_enabled <- $r2
	@DEBUG_VALUE: HAL_FDCAN_DeactivateNotification:ITs_lines_selection <- $lr
	@DEBUG_VALUE: HAL_FDCAN_DeactivateNotification:hfdcan <- [DW_OP_LLVM_entry_value 1] $r0
	@DEBUG_VALUE: HAL_FDCAN_DeactivateNotification:InactiveITs <- [DW_OP_LLVM_entry_value 1] $r1
	.loc	2 0 10 is_stmt 0                @ ../src/driver/stm32g4-v120/src/stm32g4xx_hal_fdcan.c:0:10
	ands	r1, lr, #64
	.loc	2 2828 10                       @ ../src/driver/stm32g4-v120/src/stm32g4xx_hal_fdcan.c:2828:10
	beq	.LBB70_16
.Ltmp672:
.LBB70_15:
	@DEBUG_VALUE: HAL_FDCAN_DeactivateNotification:ITs_enabled <- $r2
	@DEBUG_VALUE: HAL_FDCAN_DeactivateNotification:ITs_lines_selection <- $lr
	@DEBUG_VALUE: HAL_FDCAN_DeactivateNotification:hfdcan <- [DW_OP_LLVM_entry_value 1] $r0
	@DEBUG_VALUE: HAL_FDCAN_DeactivateNotification:InactiveITs <- [DW_OP_LLVM_entry_value 1] $r1
	.loc	2 2835 7 is_stmt 1              @ ../src/driver/stm32g4-v120/src/stm32g4xx_hal_fdcan.c:2835:7
	ldr	r1, [r0, #92]
	bic	r1, r1, #1
	str	r1, [r0, #92]
.Ltmp673:
.LBB70_16:
	@DEBUG_VALUE: HAL_FDCAN_DeactivateNotification:ITs_enabled <- $r2
	@DEBUG_VALUE: HAL_FDCAN_DeactivateNotification:ITs_lines_selection <- $lr
	@DEBUG_VALUE: HAL_FDCAN_DeactivateNotification:hfdcan <- [DW_OP_LLVM_entry_value 1] $r0
	@DEBUG_VALUE: HAL_FDCAN_DeactivateNotification:InactiveITs <- [DW_OP_LLVM_entry_value 1] $r1
	.loc	2 2840 10                       @ ../src/driver/stm32g4-v120/src/stm32g4xx_hal_fdcan.c:2840:10
	cbz	r3, .LBB70_18
.Ltmp674:
@ %bb.17:
	@DEBUG_VALUE: HAL_FDCAN_DeactivateNotification:ITs_enabled <- $r2
	@DEBUG_VALUE: HAL_FDCAN_DeactivateNotification:ITs_lines_selection <- $lr
	@DEBUG_VALUE: HAL_FDCAN_DeactivateNotification:hfdcan <- [DW_OP_LLVM_entry_value 1] $r0
	@DEBUG_VALUE: HAL_FDCAN_DeactivateNotification:InactiveITs <- [DW_OP_LLVM_entry_value 1] $r1
	cmp.w	r12, #0
	bne	.LBB70_25
.Ltmp675:
.LBB70_18:
	@DEBUG_VALUE: HAL_FDCAN_DeactivateNotification:ITs_enabled <- $r2
	@DEBUG_VALUE: HAL_FDCAN_DeactivateNotification:ITs_lines_selection <- $lr
	@DEBUG_VALUE: HAL_FDCAN_DeactivateNotification:hfdcan <- [DW_OP_LLVM_entry_value 1] $r0
	@DEBUG_VALUE: HAL_FDCAN_DeactivateNotification:InactiveITs <- [DW_OP_LLVM_entry_value 1] $r1
	.loc	2 2842 10                       @ ../src/driver/stm32g4-v120/src/stm32g4xx_hal_fdcan.c:2842:10
	tst.w	r2, #56
	it	ne
	andsne	r1, lr, #2
	bne	.LBB70_25
.Ltmp676:
@ %bb.19:
	@DEBUG_VALUE: HAL_FDCAN_DeactivateNotification:ITs_enabled <- $r2
	@DEBUG_VALUE: HAL_FDCAN_DeactivateNotification:ITs_lines_selection <- $lr
	@DEBUG_VALUE: HAL_FDCAN_DeactivateNotification:hfdcan <- [DW_OP_LLVM_entry_value 1] $r0
	@DEBUG_VALUE: HAL_FDCAN_DeactivateNotification:InactiveITs <- [DW_OP_LLVM_entry_value 1] $r1
	.loc	2 2844 10                       @ ../src/driver/stm32g4-v120/src/stm32g4xx_hal_fdcan.c:2844:10
	tst.w	r2, #448
	it	ne
	andsne	r1, lr, #4
	bne	.LBB70_25
.Ltmp677:
@ %bb.20:
	@DEBUG_VALUE: HAL_FDCAN_DeactivateNotification:ITs_enabled <- $r2
	@DEBUG_VALUE: HAL_FDCAN_DeactivateNotification:ITs_lines_selection <- $lr
	@DEBUG_VALUE: HAL_FDCAN_DeactivateNotification:hfdcan <- [DW_OP_LLVM_entry_value 1] $r0
	@DEBUG_VALUE: HAL_FDCAN_DeactivateNotification:InactiveITs <- [DW_OP_LLVM_entry_value 1] $r1
	.loc	2 2846 10                       @ ../src/driver/stm32g4-v120/src/stm32g4xx_hal_fdcan.c:2846:10
	tst.w	r2, #7680
	it	ne
	andsne	r1, lr, #8
	bne	.LBB70_25
.Ltmp678:
@ %bb.21:
	@DEBUG_VALUE: HAL_FDCAN_DeactivateNotification:ITs_enabled <- $r2
	@DEBUG_VALUE: HAL_FDCAN_DeactivateNotification:ITs_lines_selection <- $lr
	@DEBUG_VALUE: HAL_FDCAN_DeactivateNotification:hfdcan <- [DW_OP_LLVM_entry_value 1] $r0
	@DEBUG_VALUE: HAL_FDCAN_DeactivateNotification:InactiveITs <- [DW_OP_LLVM_entry_value 1] $r1
	.loc	2 2848 10                       @ ../src/driver/stm32g4-v120/src/stm32g4xx_hal_fdcan.c:2848:10
	tst.w	r2, #57344
	it	ne
	andsne	r1, lr, #16
	bne	.LBB70_25
.Ltmp679:
@ %bb.22:
	@DEBUG_VALUE: HAL_FDCAN_DeactivateNotification:ITs_enabled <- $r2
	@DEBUG_VALUE: HAL_FDCAN_DeactivateNotification:ITs_lines_selection <- $lr
	@DEBUG_VALUE: HAL_FDCAN_DeactivateNotification:hfdcan <- [DW_OP_LLVM_entry_value 1] $r0
	@DEBUG_VALUE: HAL_FDCAN_DeactivateNotification:InactiveITs <- [DW_OP_LLVM_entry_value 1] $r1
	.loc	2 2850 10                       @ ../src/driver/stm32g4-v120/src/stm32g4xx_hal_fdcan.c:2850:10
	tst.w	r2, #196608
	it	ne
	andsne	r1, lr, #32
	bne	.LBB70_25
.Ltmp680:
@ %bb.23:
	@DEBUG_VALUE: HAL_FDCAN_DeactivateNotification:ITs_enabled <- $r2
	@DEBUG_VALUE: HAL_FDCAN_DeactivateNotification:ITs_lines_selection <- $lr
	@DEBUG_VALUE: HAL_FDCAN_DeactivateNotification:hfdcan <- [DW_OP_LLVM_entry_value 1] $r0
	@DEBUG_VALUE: HAL_FDCAN_DeactivateNotification:InactiveITs <- [DW_OP_LLVM_entry_value 1] $r1
	.loc	2 2852 10                       @ ../src/driver/stm32g4-v120/src/stm32g4xx_hal_fdcan.c:2852:10
	tst.w	r2, #16515072
	it	ne
	andsne	r1, lr, #64
	bne	.LBB70_25
.Ltmp681:
@ %bb.24:
	@DEBUG_VALUE: HAL_FDCAN_DeactivateNotification:ITs_enabled <- $r2
	@DEBUG_VALUE: HAL_FDCAN_DeactivateNotification:ITs_lines_selection <- $lr
	@DEBUG_VALUE: HAL_FDCAN_DeactivateNotification:hfdcan <- [DW_OP_LLVM_entry_value 1] $r0
	@DEBUG_VALUE: HAL_FDCAN_DeactivateNotification:InactiveITs <- [DW_OP_LLVM_entry_value 1] $r1
	.loc	2 2859 7                        @ ../src/driver/stm32g4-v120/src/stm32g4xx_hal_fdcan.c:2859:7
	ldr	r1, [r0, #92]
	bic	r1, r1, #2
	str	r1, [r0, #92]
.Ltmp682:
.LBB70_25:
	@DEBUG_VALUE: HAL_FDCAN_DeactivateNotification:ITs_enabled <- $r2
	@DEBUG_VALUE: HAL_FDCAN_DeactivateNotification:ITs_lines_selection <- $lr
	@DEBUG_VALUE: HAL_FDCAN_DeactivateNotification:hfdcan <- [DW_OP_LLVM_entry_value 1] $r0
	@DEBUG_VALUE: HAL_FDCAN_DeactivateNotification:InactiveITs <- [DW_OP_LLVM_entry_value 1] $r1
	.loc	2 0 7 is_stmt 0                 @ ../src/driver/stm32g4-v120/src/stm32g4xx_hal_fdcan.c:0:7
	movs	r0, #0
	.loc	2 2872 1 is_stmt 1              @ ../src/driver/stm32g4-v120/src/stm32g4xx_hal_fdcan.c:2872:1
	pop	{r7, pc}
.Ltmp683:
.LBB70_26:
	@DEBUG_VALUE: HAL_FDCAN_DeactivateNotification:InactiveITs <- $r1
	@DEBUG_VALUE: HAL_FDCAN_DeactivateNotification:hfdcan <- $r0
	.loc	2 2868 23                       @ ../src/driver/stm32g4-v120/src/stm32g4xx_hal_fdcan.c:2868:23
	ldr	r1, [r0, #96]
.Ltmp684:
	@DEBUG_VALUE: HAL_FDCAN_DeactivateNotification:InactiveITs <- [DW_OP_LLVM_entry_value 1] $r1
	orr	r1, r1, #2
	str	r1, [r0, #96]
	movs	r0, #1
.Ltmp685:
	@DEBUG_VALUE: HAL_FDCAN_DeactivateNotification:hfdcan <- [DW_OP_LLVM_entry_value 1] $r0
	.loc	2 2872 1                        @ ../src/driver/stm32g4-v120/src/stm32g4xx_hal_fdcan.c:2872:1
	pop	{r7, pc}
.Ltmp686:
.Lfunc_end70:
	.size	HAL_FDCAN_DeactivateNotification, .Lfunc_end70-HAL_FDCAN_DeactivateNotification
	.cfi_endproc
	.cantunwind
	.fnend
                                        @ -- End function
	.section	.text.HAL_FDCAN_IRQHandler,"ax",%progbits
	.hidden	HAL_FDCAN_IRQHandler            @ -- Begin function HAL_FDCAN_IRQHandler
	.globl	HAL_FDCAN_IRQHandler
	.p2align	1
	.type	HAL_FDCAN_IRQHandler,%function
