	.text
	.syntax unified
	.eabi_attribute	67, "2.09"	@ Tag_conformance
	.cpu	cortex-m4
	.eabi_attribute	6, 13	@ Tag_CPU_arch
	.eabi_attribute	7, 77	@ Tag_CPU_arch_profile
	.eabi_attribute	8, 0	@ Tag_ARM_ISA_use
	.eabi_attribute	9, 2	@ Tag_THUMB_ISA_use
	.fpu	fpv4-sp-d16
	.eabi_attribute	27, 1	@ Tag_ABI_HardFP_use
	.eabi_attribute	36, 1	@ Tag_FP_HP_extension
	.eabi_attribute	34, 1	@ Tag_CPU_unaligned_access
	.eabi_attribute	17, 1	@ Tag_ABI_PCS_GOT_use
	.eabi_attribute	20, 2	@ Tag_ABI_FP_denormal
	.eabi_attribute	21, 0	@ Tag_ABI_FP_exceptions
	.eabi_attribute	23, 1	@ Tag_ABI_FP_number_model
	.eabi_attribute	24, 1	@ Tag_ABI_align_needed
	.eabi_attribute	25, 1	@ Tag_ABI_align_preserved
	.eabi_attribute	28, 1	@ Tag_ABI_VFP_args
	.eabi_attribute	38, 1	@ Tag_ABI_FP_16bit_format
	.eabi_attribute	18, 2	@ Tag_ABI_PCS_wchar_t
	.eabi_attribute	26, 1	@ Tag_ABI_enum_size
	.eabi_attribute	14, 0	@ Tag_ABI_PCS_R9_use
	.file	"tim.c"
	.file	1 "C:\\" "Keil_v5\\ARM\\ARMCLANG\\Bin\\..\\include\\stdint.h"
	.file	2 "C:\\Users\\grodriguez\\Documents\\iit\\icub-firmware\\emBODY\\eBcode\\arch-arm\\libs\\lowlevel\\stm32hal\\proj" "../src/driver/stm32g4-v120/inc/stm32g474xx.h"
	.file	3 "C:\\Users\\grodriguez\\Documents\\iit\\icub-firmware\\emBODY\\eBcode\\arch-arm\\libs\\lowlevel\\stm32hal\\proj" "../api\\../src/driver/stm32g4-v120/inc/stm32g4xx_hal_tim.h"
	.file	4 "C:\\Users\\grodriguez\\Documents\\iit\\icub-firmware\\emBODY\\eBcode\\arch-arm\\libs\\lowlevel\\stm32hal\\proj" "../api\\../src/driver/stm32g4-v120/inc/stm32g4xx_hal_dma.h"
	.file	5 "C:\\Users\\grodriguez\\Documents\\iit\\icub-firmware\\emBODY\\eBcode\\arch-arm\\libs\\lowlevel\\stm32hal\\proj" "../src/driver/stm32g4-v120/inc/stm32g4xx_hal_def.h"
	.file	6 "C:\\Users\\grodriguez\\Documents\\iit\\icub-firmware\\emBODY\\eBcode\\arch-arm\\libs\\lowlevel\\stm32hal\\proj" "../src/board/amcbldc/v120/src/tim.c"
	.file	7 "C:\\Users\\grodriguez\\Documents\\iit\\icub-firmware\\emBODY\\eBcode\\arch-arm\\libs\\lowlevel\\stm32hal\\proj" "../src/driver/stm32g4-v120/inc/stm32g4xx.h"
	.section	.text.MX_TIM1_Init,"ax",%progbits
	.hidden	MX_TIM1_Init                    @ -- Begin function MX_TIM1_Init
	.globl	MX_TIM1_Init
	.p2align	1
	.type	MX_TIM1_Init,%function
	.code	16                              @ @MX_TIM1_Init
	.thumb_func
MX_TIM1_Init:
.Lfunc_begin0:
	.loc	6 33 0                          @ ../src/board/amcbldc/v120/src/tim.c:33:0
	.fnstart
	.cfi_sections .debug_frame
	.cfi_startproc
@ %bb.0:
	.save	{r4, r5, r6, lr}
	push	{r4, r5, r6, lr}
	.cfi_def_cfa_offset 16
	.cfi_offset lr, -4
	.cfi_offset r6, -8
	.cfi_offset r5, -12
	.cfi_offset r4, -16
	.pad	#120
	sub	sp, #120
	.cfi_def_cfa_offset 136
	add	r4, sp, #52
	movs	r6, #0
.Ltmp0:
	.loc	6 37 22 prologue_end            @ ../src/board/amcbldc/v120/src/tim.c:37:22
	mov	r0, r4
	movs	r1, #28
	.loc	6 34 26                         @ ../src/board/amcbldc/v120/src/tim.c:34:26
	strd	r6, r6, [sp, #112]
	strd	r6, r6, [sp, #104]
	.loc	6 35 27                         @ ../src/board/amcbldc/v120/src/tim.c:35:27
	strd	r6, r6, [sp, #96]
	.loc	6 36 33                         @ ../src/board/amcbldc/v120/src/tim.c:36:33
	strd	r6, r6, [sp, #88]
	strd	r6, r6, [sp, #80]
	.loc	6 37 22                         @ ../src/board/amcbldc/v120/src/tim.c:37:22
	bl	__aeabi_memclr4
.Ltmp1:
	.loc	6 0 22 is_stmt 0                @ ../src/board/amcbldc/v120/src/tim.c:0:22
	mov	r0, sp
	.loc	6 38 34 is_stmt 1               @ ../src/board/amcbldc/v120/src/tim.c:38:34
	movs	r1, #52
	bl	__aeabi_memclr4
.Ltmp2:
	.loc	6 40 18                         @ ../src/board/amcbldc/v120/src/tim.c:40:18
	movw	r5, :lower16:htim1
	movw	r0, #11264
	movt	r5, :upper16:htim1
	movt	r0, #16385
	movs	r1, #32
	strd	r0, r6, [r5]
	.loc	6 42 26                         @ ../src/board/amcbldc/v120/src/tim.c:42:26
	add.w	r0, r5, #8
	mov.w	r2, #1024
	stm	r0!, {r1, r2, r6}
.Ltmp3:
	.loc	6 47 7                          @ ../src/board/amcbldc/v120/src/tim.c:47:7
	mov	r0, r5
.Ltmp4:
	.loc	6 45 32                         @ ../src/board/amcbldc/v120/src/tim.c:45:32
	strd	r6, r6, [r5, #20]
.Ltmp5:
	.loc	6 47 7                          @ ../src/board/amcbldc/v120/src/tim.c:47:7
	bl	HAL_TIM_Base_Init
.Ltmp6:
	.loc	6 47 7 is_stmt 0                @ ../src/board/amcbldc/v120/src/tim.c:47:7
	cbz	r0, .LBB0_2
@ %bb.1:
.Ltmp7:
	.loc	6 49 5 is_stmt 1                @ ../src/board/amcbldc/v120/src/tim.c:49:5
	bl	Error_Handler
.Ltmp8:
.LBB0_2:
	.loc	6 51 3                          @ ../src/board/amcbldc/v120/src/tim.c:51:3
	mov	r0, r5
	bl	HAL_TIMEx_DitheringEnable
.Ltmp9:
	.loc	6 54 3                          @ ../src/board/amcbldc/v120/src/tim.c:54:3
	ldr	r0, [r5]
	mov.w	r1, #16384
	str	r1, [r0, #44]
	str	r1, [r5, #12]
.Ltmp10:
	.loc	6 55 3                          @ ../src/board/amcbldc/v120/src/tim.c:55:3
	mov	r0, r5
	movs	r1, #1
	bl	HAL_TIM_GenerateEvent
.Ltmp11:
	.loc	6 0 3 is_stmt 0                 @ ../src/board/amcbldc/v120/src/tim.c:0:3
	mov.w	r0, #4096
	.loc	6 56 34 is_stmt 1               @ ../src/board/amcbldc/v120/src/tim.c:56:34
	str	r0, [sp, #104]
	add	r1, sp, #104
.Ltmp12:
	.loc	6 57 7                          @ ../src/board/amcbldc/v120/src/tim.c:57:7
	mov	r0, r5
	bl	HAL_TIM_ConfigClockSource
.Ltmp13:
	.loc	6 57 7 is_stmt 0                @ ../src/board/amcbldc/v120/src/tim.c:57:7
	cbz	r0, .LBB0_4
@ %bb.3:
.Ltmp14:
	.loc	6 59 5 is_stmt 1                @ ../src/board/amcbldc/v120/src/tim.c:59:5
	bl	Error_Handler
.Ltmp15:
.LBB0_4:
	.loc	6 61 7                          @ ../src/board/amcbldc/v120/src/tim.c:61:7
	movw	r0, :lower16:htim1
	movt	r0, :upper16:htim1
	bl	HAL_TIM_PWM_Init
.Ltmp16:
	.loc	6 61 7 is_stmt 0                @ ../src/board/amcbldc/v120/src/tim.c:61:7
	cbz	r0, .LBB0_6
@ %bb.5:
.Ltmp17:
	.loc	6 63 5 is_stmt 1                @ ../src/board/amcbldc/v120/src/tim.c:63:5
	bl	Error_Handler
.Ltmp18:
.LBB0_6:
	.loc	6 0 5 is_stmt 0                 @ ../src/board/amcbldc/v120/src/tim.c:0:5
	movs	r0, #112
	.loc	6 65 37 is_stmt 1               @ ../src/board/amcbldc/v120/src/tim.c:65:37
	str	r0, [sp, #92]
	movs	r0, #0
	.loc	6 66 38                         @ ../src/board/amcbldc/v120/src/tim.c:66:38
	strd	r0, r0, [sp, #96]
.Ltmp19:
	.loc	6 68 7                          @ ../src/board/amcbldc/v120/src/tim.c:68:7
	movw	r0, :lower16:htim1
	movt	r0, :upper16:htim1
	add	r1, sp, #92
	bl	HAL_TIMEx_MasterConfigSynchronization
.Ltmp20:
	.loc	6 68 7 is_stmt 0                @ ../src/board/amcbldc/v120/src/tim.c:68:7
	cbz	r0, .LBB0_8
@ %bb.7:
.Ltmp21:
	.loc	6 70 5 is_stmt 1                @ ../src/board/amcbldc/v120/src/tim.c:70:5
	bl	Error_Handler
.Ltmp22:
.LBB0_8:
	.loc	6 0 5 is_stmt 0                 @ ../src/board/amcbldc/v120/src/tim.c:0:5
	movs	r0, #1
	.loc	6 72 28 is_stmt 1               @ ../src/board/amcbldc/v120/src/tim.c:72:28
	strd	r0, r0, [sp, #80]
	.loc	6 74 30                         @ ../src/board/amcbldc/v120/src/tim.c:74:30
	str	r0, [sp, #88]
.Ltmp23:
	.loc	6 75 7                          @ ../src/board/amcbldc/v120/src/tim.c:75:7
	movw	r0, :lower16:htim1
	movt	r0, :upper16:htim1
	add	r2, sp, #80
	movs	r1, #1
	bl	HAL_TIMEx_ConfigBreakInput
.Ltmp24:
	.loc	6 75 7 is_stmt 0                @ ../src/board/amcbldc/v120/src/tim.c:75:7
	cbz	r0, .LBB0_10
@ %bb.9:
.Ltmp25:
	.loc	6 77 5 is_stmt 1                @ ../src/board/amcbldc/v120/src/tim.c:77:5
	bl	Error_Handler
.Ltmp26:
.LBB0_10:
	.loc	6 0 5 is_stmt 0                 @ ../src/board/amcbldc/v120/src/tim.c:0:5
	movs	r0, #96
	.loc	6 79 20 is_stmt 1               @ ../src/board/amcbldc/v120/src/tim.c:79:20
	str	r0, [sp, #52]
	.loc	6 80 13                         @ ../src/board/amcbldc/v120/src/tim.c:80:13
	adds	r0, r4, #4
	.loc	6 81 24                         @ ../src/board/amcbldc/v120/src/tim.c:81:24
	movs	r1, #24
	bl	__aeabi_memclr4
.Ltmp27:
	.loc	6 86 7                          @ ../src/board/amcbldc/v120/src/tim.c:86:7
	movw	r0, :lower16:htim1
	movt	r0, :upper16:htim1
	mov	r1, r4
	movs	r2, #0
	movs	r4, #0
	bl	HAL_TIM_PWM_ConfigChannel
.Ltmp28:
	.loc	6 86 7 is_stmt 0                @ ../src/board/amcbldc/v120/src/tim.c:86:7
	cbz	r0, .LBB0_12
@ %bb.11:
.Ltmp29:
	.loc	6 88 5 is_stmt 1                @ ../src/board/amcbldc/v120/src/tim.c:88:5
	bl	Error_Handler
.Ltmp30:
.LBB0_12:
	.loc	6 91 7                          @ ../src/board/amcbldc/v120/src/tim.c:91:7
	movw	r0, :lower16:htim1
	movt	r0, :upper16:htim1
	add	r1, sp, #52
	movs	r2, #4
.Ltmp31:
	.loc	6 90 19                         @ ../src/board/amcbldc/v120/src/tim.c:90:19
	str	r4, [sp, #56]
.Ltmp32:
	.loc	6 91 7                          @ ../src/board/amcbldc/v120/src/tim.c:91:7
	bl	HAL_TIM_PWM_ConfigChannel
.Ltmp33:
	.loc	6 91 7 is_stmt 0                @ ../src/board/amcbldc/v120/src/tim.c:91:7
	cbz	r0, .LBB0_14
@ %bb.13:
.Ltmp34:
	.loc	6 93 5 is_stmt 1                @ ../src/board/amcbldc/v120/src/tim.c:93:5
	bl	Error_Handler
.Ltmp35:
.LBB0_14:
	.loc	6 96 7                          @ ../src/board/amcbldc/v120/src/tim.c:96:7
	movw	r0, :lower16:htim1
	movs	r4, #0
	movt	r0, :upper16:htim1
	add	r1, sp, #52
	movs	r2, #8
.Ltmp36:
	.loc	6 95 19                         @ ../src/board/amcbldc/v120/src/tim.c:95:19
	str	r4, [sp, #56]
.Ltmp37:
	.loc	6 96 7                          @ ../src/board/amcbldc/v120/src/tim.c:96:7
	bl	HAL_TIM_PWM_ConfigChannel
.Ltmp38:
	.loc	6 96 7 is_stmt 0                @ ../src/board/amcbldc/v120/src/tim.c:96:7
	cbz	r0, .LBB0_16
@ %bb.15:
.Ltmp39:
	.loc	6 98 5 is_stmt 1                @ ../src/board/amcbldc/v120/src/tim.c:98:5
	bl	Error_Handler
.Ltmp40:
.LBB0_16:
	.loc	6 0 5 is_stmt 0                 @ ../src/board/amcbldc/v120/src/tim.c:0:5
	mov.w	r0, #256
	.loc	6 100 19 is_stmt 1              @ ../src/board/amcbldc/v120/src/tim.c:100:19
	str	r0, [sp, #56]
.Ltmp41:
	.loc	6 102 7                         @ ../src/board/amcbldc/v120/src/tim.c:102:7
	movw	r0, :lower16:htim1
	movt	r0, :upper16:htim1
	add	r1, sp, #52
	movs	r2, #12
.Ltmp42:
	.loc	6 101 25                        @ ../src/board/amcbldc/v120/src/tim.c:101:25
	str	r4, [sp, #64]
.Ltmp43:
	.loc	6 102 7                         @ ../src/board/amcbldc/v120/src/tim.c:102:7
	bl	HAL_TIM_PWM_ConfigChannel
.Ltmp44:
	.loc	6 102 7 is_stmt 0               @ ../src/board/amcbldc/v120/src/tim.c:102:7
	cbz	r0, .LBB0_18
@ %bb.17:
.Ltmp45:
	.loc	6 104 5 is_stmt 1               @ ../src/board/amcbldc/v120/src/tim.c:104:5
	bl	Error_Handler
.Ltmp46:
.LBB0_18:
	.loc	6 0 5 is_stmt 0                 @ ../src/board/amcbldc/v120/src/tim.c:0:5
	mov.w	r1, #4096
	.loc	6 110 35 is_stmt 1              @ ../src/board/amcbldc/v120/src/tim.c:110:35
	str	r1, [sp, #16]
	mov.w	r1, #8192
	movs	r0, #0
	.loc	6 111 38                        @ ../src/board/amcbldc/v120/src/tim.c:111:38
	str	r1, [sp, #20]
	movs	r1, #8
	.loc	6 112 36                        @ ../src/board/amcbldc/v120/src/tim.c:112:36
	strd	r1, r0, [sp, #24]
	mov.w	r1, #33554432
	.loc	6 107 41                        @ ../src/board/amcbldc/v120/src/tim.c:107:41
	strd	r0, r0, [sp, #8]
	strd	r0, r0, [sp]
	.loc	6 114 36                        @ ../src/board/amcbldc/v120/src/tim.c:114:36
	str	r0, [sp, #32]
	.loc	6 115 39                        @ ../src/board/amcbldc/v120/src/tim.c:115:39
	strd	r1, r0, [sp, #36]
	.loc	6 117 37                        @ ../src/board/amcbldc/v120/src/tim.c:117:37
	strd	r0, r0, [sp, #44]
.Ltmp47:
	.loc	6 119 7                         @ ../src/board/amcbldc/v120/src/tim.c:119:7
	movw	r0, :lower16:htim1
	movt	r0, :upper16:htim1
	mov	r1, sp
	bl	HAL_TIMEx_ConfigBreakDeadTime
.Ltmp48:
	.loc	6 119 7 is_stmt 0               @ ../src/board/amcbldc/v120/src/tim.c:119:7
	cbz	r0, .LBB0_20
@ %bb.19:
.Ltmp49:
	.loc	6 121 5 is_stmt 1               @ ../src/board/amcbldc/v120/src/tim.c:121:5
	bl	Error_Handler
.Ltmp50:
.LBB0_20:
	.loc	6 123 3                         @ ../src/board/amcbldc/v120/src/tim.c:123:3
	movw	r0, :lower16:htim1
	movt	r0, :upper16:htim1
	bl	HAL_TIM_MspPostInit
.Ltmp51:
	.loc	6 125 1                         @ ../src/board/amcbldc/v120/src/tim.c:125:1
	add	sp, #120
	pop	{r4, r5, r6, pc}
.Ltmp52:
.Lfunc_end0:
	.size	MX_TIM1_Init, .Lfunc_end0-MX_TIM1_Init
	.cfi_endproc
	.cantunwind
	.fnend
                                        @ -- End function
	.section	.text.HAL_TIM_MspPostInit,"ax",%progbits
	.hidden	HAL_TIM_MspPostInit             @ -- Begin function HAL_TIM_MspPostInit
	.globl	HAL_TIM_MspPostInit
	.p2align	1
	.type	HAL_TIM_MspPostInit,%function
	.code	16                              @ @HAL_TIM_MspPostInit
	.thumb_func
HAL_TIM_MspPostInit:
.Lfunc_begin1:
	.loc	6 336 0                         @ ../src/board/amcbldc/v120/src/tim.c:336:0
	.fnstart
	.cfi_startproc
@ %bb.0:
	@DEBUG_VALUE: HAL_TIM_MspPostInit:timHandle <- $r0
	@DEBUG_VALUE: HAL_TIM_MspPostInit:timHandle <- $r0
	.save	{r7, lr}
	push	{r7, lr}
	.cfi_def_cfa_offset 8
	.cfi_offset lr, -4
	.cfi_offset r7, -8
	.pad	#24
	sub	sp, #24
	.cfi_def_cfa_offset 32
.Ltmp53:
	.loc	6 339 17 prologue_end           @ ../src/board/amcbldc/v120/src/tim.c:339:17
	ldr	r0, [r0]
.Ltmp54:
	@DEBUG_VALUE: HAL_TIM_MspPostInit:timHandle <- [DW_OP_LLVM_entry_value 1] $r0
	.loc	6 0 17 is_stmt 0                @ ../src/board/amcbldc/v120/src/tim.c:0:17
	movw	r1, #11264
	movt	r1, #16385
.Ltmp55:
	.loc	6 339 6                         @ ../src/board/amcbldc/v120/src/tim.c:339:6
	cmp	r0, r1
	bne	.LBB1_2
.Ltmp56:
@ %bb.1:
	@DEBUG_VALUE: HAL_TIM_MspPostInit:timHandle <- [DW_OP_LLVM_entry_value 1] $r0
	.loc	6 0 6                           @ ../src/board/amcbldc/v120/src/tim.c:0:6
	movw	r0, #4172
	movt	r0, #16386
.Ltmp57:
	.loc	6 345 5 is_stmt 1               @ ../src/board/amcbldc/v120/src/tim.c:345:5
	ldr	r1, [r0]
	orr	r1, r1, #1
	str	r1, [r0]
	ldr	r0, [r0]
	add	r1, sp, #4
	and	r0, r0, #1
	str	r0, [sp, #4]
	ldr	r0, [sp, #4]
	mov.w	r0, #1792
.Ltmp58:
	.loc	6 351 25                        @ ../src/board/amcbldc/v120/src/tim.c:351:25
	str	r0, [sp, #4]
	movs	r0, #2
	.loc	6 352 26                        @ ../src/board/amcbldc/v120/src/tim.c:352:26
	str	r0, [sp, #8]
	movs	r0, #0
	.loc	6 353 26                        @ ../src/board/amcbldc/v120/src/tim.c:353:26
	str	r0, [sp, #12]
	movs	r0, #3
	.loc	6 354 27                        @ ../src/board/amcbldc/v120/src/tim.c:354:27
	str	r0, [sp, #16]
	movs	r0, #6
	.loc	6 355 31                        @ ../src/board/amcbldc/v120/src/tim.c:355:31
	str	r0, [sp, #20]
	.loc	6 356 5                         @ ../src/board/amcbldc/v120/src/tim.c:356:5
	mov.w	r0, #1207959552
	bl	HAL_GPIO_Init
.Ltmp59:
.LBB1_2:
	@DEBUG_VALUE: HAL_TIM_MspPostInit:timHandle <- [DW_OP_LLVM_entry_value 1] $r0
	.loc	6 363 1                         @ ../src/board/amcbldc/v120/src/tim.c:363:1
	add	sp, #24
	pop	{r7, pc}
.Ltmp60:
.Lfunc_end1:
	.size	HAL_TIM_MspPostInit, .Lfunc_end1-HAL_TIM_MspPostInit
	.cfi_endproc
	.cantunwind
	.fnend
                                        @ -- End function
	.section	.text.MX_TIM2_Init,"ax",%progbits
	.hidden	MX_TIM2_Init                    @ -- Begin function MX_TIM2_Init
	.globl	MX_TIM2_Init
	.p2align	1
	.type	MX_TIM2_Init,%function
	.code	16                              @ @MX_TIM2_Init
	.thumb_func
MX_TIM2_Init:
.Lfunc_begin2:
	.loc	6 128 0                         @ ../src/board/amcbldc/v120/src/tim.c:128:0
	.fnstart
	.cfi_startproc
@ %bb.0:
	.save	{r4, lr}
	push	{r4, lr}
	.cfi_def_cfa_offset 8
	.cfi_offset lr, -4
	.cfi_offset r4, -8
	.pad	#72
	sub	sp, #72
	.cfi_def_cfa_offset 80
	movs	r4, #0
	mov	r0, sp
.Ltmp61:
	.loc	6 131 35 prologue_end           @ ../src/board/amcbldc/v120/src/tim.c:131:35
	movs	r1, #24
	.loc	6 130 27                        @ ../src/board/amcbldc/v120/src/tim.c:130:27
	str	r4, [sp, #32]
	strd	r4, r4, [sp, #24]
	.loc	6 131 35                        @ ../src/board/amcbldc/v120/src/tim.c:131:35
	bl	__aeabi_memclr4
.Ltmp62:
	.loc	6 133 18                        @ ../src/board/amcbldc/v120/src/tim.c:133:18
	movw	r0, :lower16:htim2
	movt	r0, :upper16:htim2
	mov.w	r1, #1073741824
	strd	r1, r4, [r0]
	movs	r1, #128
	.loc	6 138 32                        @ ../src/board/amcbldc/v120/src/tim.c:138:32
	str	r1, [r0, #24]
	movs	r1, #3
	mov.w	r2, #-1
	.loc	6 139 23                        @ ../src/board/amcbldc/v120/src/tim.c:139:23
	strd	r1, r4, [sp, #36]
	movs	r1, #1
	.loc	6 135 26                        @ ../src/board/amcbldc/v120/src/tim.c:135:26
	strd	r4, r2, [r0, #8]
	.loc	6 141 24                        @ ../src/board/amcbldc/v120/src/tim.c:141:24
	strd	r1, r4, [sp, #44]
	movs	r2, #4
	.loc	6 145 24                        @ ../src/board/amcbldc/v120/src/tim.c:145:24
	strd	r1, r4, [sp, #60]
	add	r1, sp, #36
	.loc	6 137 28                        @ ../src/board/amcbldc/v120/src/tim.c:137:28
	str	r4, [r0, #16]
	.loc	6 143 21                        @ ../src/board/amcbldc/v120/src/tim.c:143:21
	strd	r2, r4, [sp, #52]
	.loc	6 147 21                        @ ../src/board/amcbldc/v120/src/tim.c:147:21
	str	r2, [sp, #68]
.Ltmp63:
	.loc	6 148 7                         @ ../src/board/amcbldc/v120/src/tim.c:148:7
	bl	HAL_TIM_Encoder_Init
.Ltmp64:
	.loc	6 148 7 is_stmt 0               @ ../src/board/amcbldc/v120/src/tim.c:148:7
	cbz	r0, .LBB2_2
@ %bb.1:
.Ltmp65:
	.loc	6 150 5 is_stmt 1               @ ../src/board/amcbldc/v120/src/tim.c:150:5
	bl	Error_Handler
.Ltmp66:
.LBB2_2:
	.loc	6 154 7                         @ ../src/board/amcbldc/v120/src/tim.c:154:7
	movw	r0, :lower16:htim2
	movt	r0, :upper16:htim2
	add	r1, sp, #24
.Ltmp67:
	.loc	6 152 37                        @ ../src/board/amcbldc/v120/src/tim.c:152:37
	str	r4, [sp, #24]
	.loc	6 153 33                        @ ../src/board/amcbldc/v120/src/tim.c:153:33
	str	r4, [sp, #32]
.Ltmp68:
	.loc	6 154 7                         @ ../src/board/amcbldc/v120/src/tim.c:154:7
	bl	HAL_TIMEx_MasterConfigSynchronization
.Ltmp69:
	.loc	6 154 7 is_stmt 0               @ ../src/board/amcbldc/v120/src/tim.c:154:7
	cbz	r0, .LBB2_4
@ %bb.3:
.Ltmp70:
	.loc	6 156 5 is_stmt 1               @ ../src/board/amcbldc/v120/src/tim.c:156:5
	bl	Error_Handler
.Ltmp71:
.LBB2_4:
	.loc	6 0 5 is_stmt 0                 @ ../src/board/amcbldc/v120/src/tim.c:0:5
	movs	r0, #0
	.loc	6 158 32 is_stmt 1              @ ../src/board/amcbldc/v120/src/tim.c:158:32
	strd	r0, r0, [sp]
	movs	r1, #4
	.loc	6 161 40                        @ ../src/board/amcbldc/v120/src/tim.c:161:40
	strb.w	r0, [sp, #12]
	.loc	6 162 32                        @ ../src/board/amcbldc/v120/src/tim.c:162:32
	strd	r0, r0, [sp, #16]
.Ltmp72:
	.loc	6 164 7                         @ ../src/board/amcbldc/v120/src/tim.c:164:7
	movw	r0, :lower16:htim2
.Ltmp73:
	.loc	6 160 30                        @ ../src/board/amcbldc/v120/src/tim.c:160:30
	str	r1, [sp, #8]
.Ltmp74:
	.loc	6 164 7                         @ ../src/board/amcbldc/v120/src/tim.c:164:7
	movt	r0, :upper16:htim2
	mov	r1, sp
	bl	HAL_TIMEx_ConfigEncoderIndex
.Ltmp75:
	.loc	6 164 7 is_stmt 0               @ ../src/board/amcbldc/v120/src/tim.c:164:7
	cbz	r0, .LBB2_6
@ %bb.5:
.Ltmp76:
	.loc	6 166 5 is_stmt 1               @ ../src/board/amcbldc/v120/src/tim.c:166:5
	bl	Error_Handler
.Ltmp77:
.LBB2_6:
	.loc	6 169 1                         @ ../src/board/amcbldc/v120/src/tim.c:169:1
	add	sp, #72
	pop	{r4, pc}
.Ltmp78:
.Lfunc_end2:
	.size	MX_TIM2_Init, .Lfunc_end2-MX_TIM2_Init
	.cfi_endproc
	.cantunwind
	.fnend
                                        @ -- End function
	.section	.text.MX_TIM3_Init,"ax",%progbits
	.hidden	MX_TIM3_Init                    @ -- Begin function MX_TIM3_Init
	.globl	MX_TIM3_Init
	.p2align	1
	.type	MX_TIM3_Init,%function
	.code	16                              @ @MX_TIM3_Init
	.thumb_func
MX_TIM3_Init:
.Lfunc_begin3:
	.loc	6 172 0                         @ ../src/board/amcbldc/v120/src/tim.c:172:0
	.fnstart
	.cfi_startproc
@ %bb.0:
	.save	{r4, lr}
	push	{r4, lr}
	.cfi_def_cfa_offset 8
	.cfi_offset lr, -4
	.cfi_offset r4, -8
	.pad	#48
	sub	sp, #48
	.cfi_def_cfa_offset 56
.Ltmp79:
	.loc	6 177 18 prologue_end           @ ../src/board/amcbldc/v120/src/tim.c:177:18
	movw	r0, :lower16:htim3
	movw	r2, #1024
	movs	r1, #0
	movt	r0, :upper16:htim3
	movt	r2, #16384
	movs	r3, #168
	movw	r4, #65535
	.loc	6 173 26                        @ ../src/board/amcbldc/v120/src/tim.c:173:26
	str	r1, [sp, #44]
	strd	r1, r1, [sp, #36]
	.loc	6 174 27                        @ ../src/board/amcbldc/v120/src/tim.c:174:27
	str	r1, [sp, #28]
	strd	r1, r1, [sp, #20]
	.loc	6 175 22                        @ ../src/board/amcbldc/v120/src/tim.c:175:22
	strd	r1, r1, [sp, #12]
	strd	r1, r1, [sp, #4]
	.loc	6 177 18                        @ ../src/board/amcbldc/v120/src/tim.c:177:18
	strd	r2, r3, [r0]
	.loc	6 179 26                        @ ../src/board/amcbldc/v120/src/tim.c:179:26
	strd	r1, r4, [r0, #8]
	.loc	6 181 28                        @ ../src/board/amcbldc/v120/src/tim.c:181:28
	str	r1, [r0, #16]
	.loc	6 182 32                        @ ../src/board/amcbldc/v120/src/tim.c:182:32
	str	r1, [r0, #24]
.Ltmp80:
	.loc	6 183 7                         @ ../src/board/amcbldc/v120/src/tim.c:183:7
	bl	HAL_TIM_Base_Init
.Ltmp81:
	.loc	6 183 7 is_stmt 0               @ ../src/board/amcbldc/v120/src/tim.c:183:7
	cbz	r0, .LBB3_2
@ %bb.1:
.Ltmp82:
	.loc	6 185 5 is_stmt 1               @ ../src/board/amcbldc/v120/src/tim.c:185:5
	bl	Error_Handler
.Ltmp83:
.LBB3_2:
	.loc	6 0 5 is_stmt 0                 @ ../src/board/amcbldc/v120/src/tim.c:0:5
	mov.w	r0, #4096
	.loc	6 187 34 is_stmt 1              @ ../src/board/amcbldc/v120/src/tim.c:187:34
	str	r0, [sp, #32]
.Ltmp84:
	.loc	6 188 7                         @ ../src/board/amcbldc/v120/src/tim.c:188:7
	movw	r0, :lower16:htim3
	movt	r0, :upper16:htim3
	add	r1, sp, #32
	bl	HAL_TIM_ConfigClockSource
.Ltmp85:
	.loc	6 188 7 is_stmt 0               @ ../src/board/amcbldc/v120/src/tim.c:188:7
	cbz	r0, .LBB3_4
@ %bb.3:
.Ltmp86:
	.loc	6 190 5 is_stmt 1               @ ../src/board/amcbldc/v120/src/tim.c:190:5
	bl	Error_Handler
.Ltmp87:
.LBB3_4:
	.loc	6 192 7                         @ ../src/board/amcbldc/v120/src/tim.c:192:7
	movw	r0, :lower16:htim3
	movt	r0, :upper16:htim3
	bl	HAL_TIM_IC_Init
.Ltmp88:
	.loc	6 192 7 is_stmt 0               @ ../src/board/amcbldc/v120/src/tim.c:192:7
	cbz	r0, .LBB3_6
@ %bb.5:
.Ltmp89:
	.loc	6 194 5 is_stmt 1               @ ../src/board/amcbldc/v120/src/tim.c:194:5
	bl	Error_Handler
.Ltmp90:
.LBB3_6:
	.loc	6 198 7                         @ ../src/board/amcbldc/v120/src/tim.c:198:7
	movw	r0, :lower16:htim3
	movs	r4, #0
	movt	r0, :upper16:htim3
	add	r1, sp, #20
.Ltmp91:
	.loc	6 196 37                        @ ../src/board/amcbldc/v120/src/tim.c:196:37
	str	r4, [sp, #20]
	.loc	6 197 33                        @ ../src/board/amcbldc/v120/src/tim.c:197:33
	str	r4, [sp, #28]
.Ltmp92:
	.loc	6 198 7                         @ ../src/board/amcbldc/v120/src/tim.c:198:7
	bl	HAL_TIMEx_MasterConfigSynchronization
.Ltmp93:
	.loc	6 198 7 is_stmt 0               @ ../src/board/amcbldc/v120/src/tim.c:198:7
	cbz	r0, .LBB3_8
@ %bb.7:
.Ltmp94:
	.loc	6 200 5 is_stmt 1               @ ../src/board/amcbldc/v120/src/tim.c:200:5
	bl	Error_Handler
.Ltmp95:
.LBB3_8:
	.loc	6 0 5 is_stmt 0                 @ ../src/board/amcbldc/v120/src/tim.c:0:5
	movs	r0, #10
	.loc	6 202 24 is_stmt 1              @ ../src/board/amcbldc/v120/src/tim.c:202:24
	str	r0, [sp, #4]
	movs	r0, #1
	.loc	6 203 25                        @ ../src/board/amcbldc/v120/src/tim.c:203:25
	strd	r0, r4, [sp, #8]
	movs	r0, #4
	.loc	6 205 22                        @ ../src/board/amcbldc/v120/src/tim.c:205:22
	str	r0, [sp, #16]
.Ltmp96:
	.loc	6 206 7                         @ ../src/board/amcbldc/v120/src/tim.c:206:7
	movw	r0, :lower16:htim3
	movt	r0, :upper16:htim3
	add	r1, sp, #4
	movs	r2, #0
	bl	HAL_TIM_IC_ConfigChannel
.Ltmp97:
	.loc	6 206 7 is_stmt 0               @ ../src/board/amcbldc/v120/src/tim.c:206:7
	cbz	r0, .LBB3_10
@ %bb.9:
.Ltmp98:
	.loc	6 208 5 is_stmt 1               @ ../src/board/amcbldc/v120/src/tim.c:208:5
	bl	Error_Handler
.Ltmp99:
.LBB3_10:
	.loc	6 210 7                         @ ../src/board/amcbldc/v120/src/tim.c:210:7
	movw	r0, :lower16:htim3
	movt	r0, :upper16:htim3
	add	r1, sp, #4
	movs	r2, #4
	bl	HAL_TIM_IC_ConfigChannel
.Ltmp100:
	.loc	6 210 7 is_stmt 0               @ ../src/board/amcbldc/v120/src/tim.c:210:7
	cbz	r0, .LBB3_12
@ %bb.11:
.Ltmp101:
	.loc	6 212 5 is_stmt 1               @ ../src/board/amcbldc/v120/src/tim.c:212:5
	bl	Error_Handler
.Ltmp102:
.LBB3_12:
	.loc	6 214 7                         @ ../src/board/amcbldc/v120/src/tim.c:214:7
	movw	r0, :lower16:htim3
	movt	r0, :upper16:htim3
	add	r1, sp, #4
	movs	r2, #8
	bl	HAL_TIM_IC_ConfigChannel
.Ltmp103:
	.loc	6 214 7 is_stmt 0               @ ../src/board/amcbldc/v120/src/tim.c:214:7
	cbz	r0, .LBB3_14
@ %bb.13:
.Ltmp104:
	.loc	6 216 5 is_stmt 1               @ ../src/board/amcbldc/v120/src/tim.c:216:5
	bl	Error_Handler
.Ltmp105:
.LBB3_14:
	.loc	6 219 1                         @ ../src/board/amcbldc/v120/src/tim.c:219:1
	add	sp, #48
	pop	{r4, pc}
.Ltmp106:
.Lfunc_end3:
	.size	MX_TIM3_Init, .Lfunc_end3-MX_TIM3_Init
	.cfi_endproc
	.cantunwind
	.fnend
                                        @ -- End function
	.section	.text.HAL_TIM_Base_MspInit,"ax",%progbits
	.hidden	HAL_TIM_Base_MspInit            @ -- Begin function HAL_TIM_Base_MspInit
	.globl	HAL_TIM_Base_MspInit
	.p2align	1
	.type	HAL_TIM_Base_MspInit,%function
	.code	16                              @ @HAL_TIM_Base_MspInit
	.thumb_func
HAL_TIM_Base_MspInit:
.Lfunc_begin4:
	.loc	6 222 0                         @ ../src/board/amcbldc/v120/src/tim.c:222:0
	.fnstart
	.cfi_startproc
@ %bb.0:
	@DEBUG_VALUE: HAL_TIM_Base_MspInit:tim_baseHandle <- $r0
	.save	{r4, r5, r6, lr}
	push	{r4, r5, r6, lr}
	.cfi_def_cfa_offset 16
	.cfi_offset lr, -4
	.cfi_offset r6, -8
	.cfi_offset r5, -12
	.cfi_offset r4, -16
	.pad	#24
	sub	sp, #24
	.cfi_def_cfa_offset 40
	mov	r4, r0
.Ltmp107:
	@DEBUG_VALUE: HAL_TIM_Base_MspInit:tim_baseHandle <- $r4
	@DEBUG_VALUE: HAL_TIM_Base_MspInit:tim_baseHandle <- $r4
	add	r0, sp, #4
.Ltmp108:
	.loc	6 224 20 prologue_end           @ ../src/board/amcbldc/v120/src/tim.c:224:20
	movs	r1, #20
	bl	__aeabi_memclr4
.Ltmp109:
	.loc	6 225 22                        @ ../src/board/amcbldc/v120/src/tim.c:225:22
	ldr	r0, [r4]
	movw	r1, #1024
	movt	r1, #16384
.Ltmp110:
	.loc	6 225 6 is_stmt 0               @ ../src/board/amcbldc/v120/src/tim.c:225:6
	cmp	r0, r1
	beq	.LBB4_3
.Ltmp111:
@ %bb.1:
	@DEBUG_VALUE: HAL_TIM_Base_MspInit:tim_baseHandle <- $r4
	.loc	6 0 6                           @ ../src/board/amcbldc/v120/src/tim.c:0:6
	movw	r1, #11264
	movt	r1, #16385
	.loc	6 225 6                         @ ../src/board/amcbldc/v120/src/tim.c:225:6
	cmp	r0, r1
	bne.w	.LBB4_5
.Ltmp112:
@ %bb.2:
	@DEBUG_VALUE: HAL_TIM_Base_MspInit:tim_baseHandle <- $r4
	.loc	6 0 6                           @ ../src/board/amcbldc/v120/src/tim.c:0:6
	movw	r0, #4172
	movt	r0, #16386
.Ltmp113:
	.loc	6 231 5 is_stmt 1               @ ../src/board/amcbldc/v120/src/tim.c:231:5
	ldr	r1, [r0, #20]
	orr	r1, r1, #2048
	str	r1, [r0, #20]
	ldr	r1, [r0, #20]
	and	r1, r1, #2048
	str	r1, [sp]
	ldr	r1, [sp]
.Ltmp114:
	.loc	6 233 5                         @ ../src/board/amcbldc/v120/src/tim.c:233:5
	ldr	r1, [r0]
	orr	r1, r1, #2
	str	r1, [r0]
	ldr	r0, [r0]
	add	r1, sp, #4
	and	r0, r0, #2
	str	r0, [sp]
	ldr	r0, [sp]
	mov.w	r0, #1024
.Ltmp115:
	.loc	6 237 25                        @ ../src/board/amcbldc/v120/src/tim.c:237:25
	str	r0, [sp, #4]
	movs	r0, #18
	.loc	6 238 26                        @ ../src/board/amcbldc/v120/src/tim.c:238:26
	str	r0, [sp, #8]
	movs	r0, #1
	.loc	6 239 26                        @ ../src/board/amcbldc/v120/src/tim.c:239:26
	str	r0, [sp, #12]
	movs	r0, #0
	.loc	6 240 27                        @ ../src/board/amcbldc/v120/src/tim.c:240:27
	str	r0, [sp, #16]
	movs	r0, #12
	.loc	6 241 31                        @ ../src/board/amcbldc/v120/src/tim.c:241:31
	str	r0, [sp, #20]
	movw	r0, #1024
	movt	r0, #18432
	.loc	6 242 5                         @ ../src/board/amcbldc/v120/src/tim.c:242:5
	bl	HAL_GPIO_Init
.Ltmp116:
	.loc	6 245 5                         @ ../src/board/amcbldc/v120/src/tim.c:245:5
	movs	r0, #24
	movs	r1, #0
	movs	r2, #0
	bl	HAL_NVIC_SetPriority
.Ltmp117:
	.loc	6 246 5                         @ ../src/board/amcbldc/v120/src/tim.c:246:5
	movs	r0, #24
	bl	HAL_NVIC_EnableIRQ
.Ltmp118:
	.loc	6 247 5                         @ ../src/board/amcbldc/v120/src/tim.c:247:5
	movs	r0, #25
	movs	r1, #0
	movs	r2, #0
	bl	HAL_NVIC_SetPriority
.Ltmp119:
	.loc	6 248 5                         @ ../src/board/amcbldc/v120/src/tim.c:248:5
	movs	r0, #25
	bl	HAL_NVIC_EnableIRQ
.Ltmp120:
	.loc	6 249 5                         @ ../src/board/amcbldc/v120/src/tim.c:249:5
	movs	r0, #26
	movs	r1, #0
	movs	r2, #0
	bl	HAL_NVIC_SetPriority
.Ltmp121:
	.loc	6 250 5                         @ ../src/board/amcbldc/v120/src/tim.c:250:5
	movs	r0, #26
	bl	HAL_NVIC_EnableIRQ
.Ltmp122:
	.loc	6 0 5 is_stmt 0                 @ ../src/board/amcbldc/v120/src/tim.c:0:5
	movs	r4, #27
.Ltmp123:
	@DEBUG_VALUE: HAL_TIM_Base_MspInit:tim_baseHandle <- [DW_OP_LLVM_entry_value 1] $r0
	b	.LBB4_4
.Ltmp124:
.LBB4_3:
	@DEBUG_VALUE: HAL_TIM_Base_MspInit:tim_baseHandle <- $r4
	movw	r0, #4172
	movt	r0, #16386
.Ltmp125:
	.loc	6 263 5 is_stmt 1               @ ../src/board/amcbldc/v120/src/tim.c:263:5
	ldr	r1, [r0, #12]
	add	r4, sp, #4
.Ltmp126:
	@DEBUG_VALUE: HAL_TIM_Base_MspInit:tim_baseHandle <- [DW_OP_LLVM_entry_value 1] $r0
	orr	r1, r1, #2
	str	r1, [r0, #12]
	ldr	r1, [r0, #12]
	movs	r5, #2
	and	r1, r1, #2
	str	r1, [sp]
	ldr	r1, [sp]
.Ltmp127:
	.loc	6 265 5                         @ ../src/board/amcbldc/v120/src/tim.c:265:5
	ldr	r1, [r0]
	movs	r6, #0
	orr	r1, r1, #1
	str	r1, [r0]
	ldr	r1, [r0]
	and	r1, r1, #1
	str	r1, [sp]
	ldr	r1, [sp]
.Ltmp128:
	.loc	6 266 5                         @ ../src/board/amcbldc/v120/src/tim.c:266:5
	ldr	r1, [r0]
	orr	r1, r1, #2
	str	r1, [r0]
	ldr	r0, [r0]
.Ltmp129:
	.loc	6 277 5                         @ ../src/board/amcbldc/v120/src/tim.c:277:5
	mov	r1, r4
.Ltmp130:
	.loc	6 266 5                         @ ../src/board/amcbldc/v120/src/tim.c:266:5
	and	r0, r0, #2
	str	r0, [sp]
	ldr	r0, [sp]
	movs	r0, #16
.Ltmp131:
	.loc	6 272 25                        @ ../src/board/amcbldc/v120/src/tim.c:272:25
	str	r0, [sp, #4]
	.loc	6 277 5                         @ ../src/board/amcbldc/v120/src/tim.c:277:5
	mov.w	r0, #1207959552
	.loc	6 273 26                        @ ../src/board/amcbldc/v120/src/tim.c:273:26
	str	r5, [sp, #8]
	.loc	6 274 26                        @ ../src/board/amcbldc/v120/src/tim.c:274:26
	strd	r6, r6, [sp, #12]
	.loc	6 276 31                        @ ../src/board/amcbldc/v120/src/tim.c:276:31
	str	r5, [sp, #20]
	.loc	6 277 5                         @ ../src/board/amcbldc/v120/src/tim.c:277:5
	bl	HAL_GPIO_Init
.Ltmp132:
	.loc	6 0 5 is_stmt 0                 @ ../src/board/amcbldc/v120/src/tim.c:0:5
	movs	r0, #17
	.loc	6 279 25 is_stmt 1              @ ../src/board/amcbldc/v120/src/tim.c:279:25
	add	r1, sp, #4
	stm	r1!, {r0, r5, r6}
	movw	r0, #1024
	movt	r0, #18432
	.loc	6 284 5                         @ ../src/board/amcbldc/v120/src/tim.c:284:5
	mov	r1, r4
	.loc	6 282 27                        @ ../src/board/amcbldc/v120/src/tim.c:282:27
	strd	r6, r5, [sp, #16]
	.loc	6 284 5                         @ ../src/board/amcbldc/v120/src/tim.c:284:5
	bl	HAL_GPIO_Init
.Ltmp133:
	.loc	6 0 5 is_stmt 0                 @ ../src/board/amcbldc/v120/src/tim.c:0:5
	movs	r4, #29
.Ltmp134:
.LBB4_4:
	@DEBUG_VALUE: HAL_TIM_Base_MspInit:tim_baseHandle <- [DW_OP_LLVM_entry_value 1] $r0
	mov	r0, r4
	movs	r1, #0
	movs	r2, #0
	bl	HAL_NVIC_SetPriority
.Ltmp135:
	mov	r0, r4
	bl	HAL_NVIC_EnableIRQ
.Ltmp136:
.LBB4_5:
	.loc	6 293 1 is_stmt 1               @ ../src/board/amcbldc/v120/src/tim.c:293:1
	add	sp, #24
	pop	{r4, r5, r6, pc}
.Ltmp137:
.Lfunc_end4:
	.size	HAL_TIM_Base_MspInit, .Lfunc_end4-HAL_TIM_Base_MspInit
	.cfi_endproc
	.cantunwind
	.fnend
                                        @ -- End function
	.section	.text.HAL_TIM_Encoder_MspInit,"ax",%progbits
	.hidden	HAL_TIM_Encoder_MspInit         @ -- Begin function HAL_TIM_Encoder_MspInit
	.globl	HAL_TIM_Encoder_MspInit
	.p2align	1
	.type	HAL_TIM_Encoder_MspInit,%function
	.code	16                              @ @HAL_TIM_Encoder_MspInit
	.thumb_func
HAL_TIM_Encoder_MspInit:
.Lfunc_begin5:
	.loc	6 296 0                         @ ../src/board/amcbldc/v120/src/tim.c:296:0
	.fnstart
	.cfi_startproc
@ %bb.0:
	@DEBUG_VALUE: HAL_TIM_Encoder_MspInit:tim_encoderHandle <- $r0
	@DEBUG_VALUE: HAL_TIM_Encoder_MspInit:tim_encoderHandle <- $r0
	.save	{r4, r5, r6, lr}
	push	{r4, r5, r6, lr}
	.cfi_def_cfa_offset 16
	.cfi_offset lr, -4
	.cfi_offset r6, -8
	.cfi_offset r5, -12
	.cfi_offset r4, -16
	.pad	#24
	sub	sp, #24
	.cfi_def_cfa_offset 40
.Ltmp138:
	.loc	6 299 25 prologue_end           @ ../src/board/amcbldc/v120/src/tim.c:299:25
	ldr	r0, [r0]
.Ltmp139:
	@DEBUG_VALUE: HAL_TIM_Encoder_MspInit:tim_encoderHandle <- [DW_OP_LLVM_entry_value 1] $r0
	.loc	6 299 6 is_stmt 0               @ ../src/board/amcbldc/v120/src/tim.c:299:6
	cmp.w	r0, #1073741824
	bne	.LBB5_2
.Ltmp140:
@ %bb.1:
	@DEBUG_VALUE: HAL_TIM_Encoder_MspInit:tim_encoderHandle <- [DW_OP_LLVM_entry_value 1] $r0
	.loc	6 0 6                           @ ../src/board/amcbldc/v120/src/tim.c:0:6
	movw	r0, #4172
	movt	r0, #16386
.Ltmp141:
	.loc	6 305 5 is_stmt 1               @ ../src/board/amcbldc/v120/src/tim.c:305:5
	ldr	r1, [r0, #12]
	add	r4, sp, #4
	orr	r1, r1, #1
	str	r1, [r0, #12]
	ldr	r1, [r0, #12]
	movs	r5, #2
	and	r1, r1, #1
	str	r1, [sp, #4]
	ldr	r1, [sp, #4]
.Ltmp142:
	.loc	6 307 5                         @ ../src/board/amcbldc/v120/src/tim.c:307:5
	ldr	r1, [r0]
	movs	r6, #0
	orr	r1, r1, #1
	str	r1, [r0]
	ldr	r0, [r0]
.Ltmp143:
	.loc	6 318 5                         @ ../src/board/amcbldc/v120/src/tim.c:318:5
	mov	r1, r4
.Ltmp144:
	.loc	6 307 5                         @ ../src/board/amcbldc/v120/src/tim.c:307:5
	and	r0, r0, #1
	str	r0, [sp, #4]
	ldr	r0, [sp, #4]
	movs	r0, #34
.Ltmp145:
	.loc	6 313 25                        @ ../src/board/amcbldc/v120/src/tim.c:313:25
	str	r0, [sp, #4]
	movs	r0, #1
	.loc	6 317 31                        @ ../src/board/amcbldc/v120/src/tim.c:317:31
	str	r0, [sp, #20]
	.loc	6 318 5                         @ ../src/board/amcbldc/v120/src/tim.c:318:5
	mov.w	r0, #1207959552
	.loc	6 314 26                        @ ../src/board/amcbldc/v120/src/tim.c:314:26
	str	r5, [sp, #8]
	.loc	6 315 26                        @ ../src/board/amcbldc/v120/src/tim.c:315:26
	strd	r6, r6, [sp, #12]
	.loc	6 318 5                         @ ../src/board/amcbldc/v120/src/tim.c:318:5
	bl	HAL_GPIO_Init
.Ltmp146:
	.loc	6 0 5 is_stmt 0                 @ ../src/board/amcbldc/v120/src/tim.c:0:5
	mov.w	r0, #32768
	.loc	6 320 25 is_stmt 1              @ ../src/board/amcbldc/v120/src/tim.c:320:25
	add	r1, sp, #4
	stm	r1!, {r0, r5, r6}
	movs	r0, #14
	.loc	6 324 31                        @ ../src/board/amcbldc/v120/src/tim.c:324:31
	str	r0, [sp, #20]
	.loc	6 325 5                         @ ../src/board/amcbldc/v120/src/tim.c:325:5
	mov.w	r0, #1207959552
	mov	r1, r4
	.loc	6 323 27                        @ ../src/board/amcbldc/v120/src/tim.c:323:27
	str	r6, [sp, #16]
	.loc	6 325 5                         @ ../src/board/amcbldc/v120/src/tim.c:325:5
	bl	HAL_GPIO_Init
.Ltmp147:
	.loc	6 328 5                         @ ../src/board/amcbldc/v120/src/tim.c:328:5
	movs	r0, #28
	movs	r1, #0
	movs	r2, #0
	bl	HAL_NVIC_SetPriority
.Ltmp148:
	.loc	6 329 5                         @ ../src/board/amcbldc/v120/src/tim.c:329:5
	movs	r0, #28
	bl	HAL_NVIC_EnableIRQ
.Ltmp149:
.LBB5_2:
	@DEBUG_VALUE: HAL_TIM_Encoder_MspInit:tim_encoderHandle <- [DW_OP_LLVM_entry_value 1] $r0
	.loc	6 334 1                         @ ../src/board/amcbldc/v120/src/tim.c:334:1
	add	sp, #24
	pop	{r4, r5, r6, pc}
.Ltmp150:
.Lfunc_end5:
	.size	HAL_TIM_Encoder_MspInit, .Lfunc_end5-HAL_TIM_Encoder_MspInit
	.cfi_endproc
	.cantunwind
	.fnend
                                        @ -- End function
	.section	.text.HAL_TIM_Base_MspDeInit,"ax",%progbits
	.hidden	HAL_TIM_Base_MspDeInit          @ -- Begin function HAL_TIM_Base_MspDeInit
	.globl	HAL_TIM_Base_MspDeInit
	.p2align	1
	.type	HAL_TIM_Base_MspDeInit,%function
	.code	16                              @ @HAL_TIM_Base_MspDeInit
	.thumb_func
HAL_TIM_Base_MspDeInit:
.Lfunc_begin6:
	.loc	6 366 0                         @ ../src/board/amcbldc/v120/src/tim.c:366:0
	.fnstart
	.cfi_startproc
@ %bb.0:
	@DEBUG_VALUE: HAL_TIM_Base_MspDeInit:tim_baseHandle <- $r0
	@DEBUG_VALUE: HAL_TIM_Base_MspDeInit:tim_baseHandle <- $r0
	.save	{r7, lr}
	push	{r7, lr}
	.cfi_def_cfa_offset 8
	.cfi_offset lr, -4
	.cfi_offset r7, -8
.Ltmp151:
	.loc	6 368 22 prologue_end           @ ../src/board/amcbldc/v120/src/tim.c:368:22
	ldr	r0, [r0]
.Ltmp152:
	@DEBUG_VALUE: HAL_TIM_Base_MspDeInit:tim_baseHandle <- [DW_OP_LLVM_entry_value 1] $r0
	.loc	6 0 22 is_stmt 0                @ ../src/board/amcbldc/v120/src/tim.c:0:22
	movw	r1, #1024
	movt	r1, #16384
.Ltmp153:
	.loc	6 368 6                         @ ../src/board/amcbldc/v120/src/tim.c:368:6
	cmp	r0, r1
	beq	.LBB6_3
.Ltmp154:
@ %bb.1:
	@DEBUG_VALUE: HAL_TIM_Base_MspDeInit:tim_baseHandle <- [DW_OP_LLVM_entry_value 1] $r0
	.loc	6 0 6                           @ ../src/board/amcbldc/v120/src/tim.c:0:6
	movw	r1, #11264
	movt	r1, #16385
	.loc	6 368 6                         @ ../src/board/amcbldc/v120/src/tim.c:368:6
	cmp	r0, r1
	.loc	6 418 1 is_stmt 1               @ ../src/board/amcbldc/v120/src/tim.c:418:1
	it	ne
	popne	{r7, pc}
.Ltmp155:
.LBB6_2:
	@DEBUG_VALUE: HAL_TIM_Base_MspDeInit:tim_baseHandle <- [DW_OP_LLVM_entry_value 1] $r0
	.loc	6 0 1 is_stmt 0                 @ ../src/board/amcbldc/v120/src/tim.c:0:1
	movw	r0, #4184
	movt	r0, #16386
.Ltmp156:
	.loc	6 374 5 is_stmt 1               @ ../src/board/amcbldc/v120/src/tim.c:374:5
	ldr	r1, [r0, #8]
	bic	r1, r1, #2048
	str	r1, [r0, #8]
	movw	r0, #1024
	movt	r0, #18432
	.loc	6 382 5                         @ ../src/board/amcbldc/v120/src/tim.c:382:5
	mov.w	r1, #1024
	bl	HAL_GPIO_DeInit
.Ltmp157:
	.loc	6 384 5                         @ ../src/board/amcbldc/v120/src/tim.c:384:5
	mov.w	r0, #1207959552
	mov.w	r1, #1792
	bl	HAL_GPIO_DeInit
.Ltmp158:
	.loc	6 387 5                         @ ../src/board/amcbldc/v120/src/tim.c:387:5
	movs	r0, #24
	bl	HAL_NVIC_DisableIRQ
.Ltmp159:
	.loc	6 388 5                         @ ../src/board/amcbldc/v120/src/tim.c:388:5
	movs	r0, #25
	bl	HAL_NVIC_DisableIRQ
.Ltmp160:
	.loc	6 389 5                         @ ../src/board/amcbldc/v120/src/tim.c:389:5
	movs	r0, #26
	bl	HAL_NVIC_DisableIRQ
.Ltmp161:
	.loc	6 0 5 is_stmt 0                 @ ../src/board/amcbldc/v120/src/tim.c:0:5
	movs	r0, #27
	b	.LBB6_4
.Ltmp162:
.LBB6_3:
	@DEBUG_VALUE: HAL_TIM_Base_MspDeInit:tim_baseHandle <- [DW_OP_LLVM_entry_value 1] $r0
	movw	r0, #4184
	movt	r0, #16386
.Ltmp163:
	.loc	6 401 5 is_stmt 1               @ ../src/board/amcbldc/v120/src/tim.c:401:5
	ldr	r1, [r0]
	bic	r1, r1, #2
	str	r1, [r0]
	.loc	6 408 5                         @ ../src/board/amcbldc/v120/src/tim.c:408:5
	mov.w	r0, #1207959552
	movs	r1, #16
	bl	HAL_GPIO_DeInit
.Ltmp164:
	.loc	6 0 5 is_stmt 0                 @ ../src/board/amcbldc/v120/src/tim.c:0:5
	movw	r0, #1024
	movt	r0, #18432
	.loc	6 410 5 is_stmt 1               @ ../src/board/amcbldc/v120/src/tim.c:410:5
	movs	r1, #17
	bl	HAL_GPIO_DeInit
.Ltmp165:
	.loc	6 0 5 is_stmt 0                 @ ../src/board/amcbldc/v120/src/tim.c:0:5
	movs	r0, #29
.Ltmp166:
.LBB6_4:
	@DEBUG_VALUE: HAL_TIM_Base_MspDeInit:tim_baseHandle <- [DW_OP_LLVM_entry_value 1] $r0
	pop.w	{r7, lr}
.Ltmp167:
	b	HAL_NVIC_DisableIRQ
.Ltmp168:
.Lfunc_end6:
	.size	HAL_TIM_Base_MspDeInit, .Lfunc_end6-HAL_TIM_Base_MspDeInit
	.cfi_endproc
	.file	8 "C:\\Users\\grodriguez\\Documents\\iit\\icub-firmware\\emBODY\\eBcode\\arch-arm\\libs\\lowlevel\\stm32hal\\proj" "../api\\../src/driver/stm32g4-v120/inc/stm32g4xx_hal_cortex.h"
	.cantunwind
	.fnend
                                        @ -- End function
	.section	.text.HAL_TIM_Encoder_MspDeInit,"ax",%progbits
	.hidden	HAL_TIM_Encoder_MspDeInit       @ -- Begin function HAL_TIM_Encoder_MspDeInit
	.globl	HAL_TIM_Encoder_MspDeInit
	.p2align	1
	.type	HAL_TIM_Encoder_MspDeInit,%function
	.code	16                              @ @HAL_TIM_Encoder_MspDeInit
	.thumb_func
HAL_TIM_Encoder_MspDeInit:
.Lfunc_begin7:
	.loc	6 421 0 is_stmt 1               @ ../src/board/amcbldc/v120/src/tim.c:421:0
	.fnstart
	.cfi_startproc
@ %bb.0:
	@DEBUG_VALUE: HAL_TIM_Encoder_MspDeInit:tim_encoderHandle <- $r0
	@DEBUG_VALUE: HAL_TIM_Encoder_MspDeInit:tim_encoderHandle <- $r0
	.save	{r7, lr}
	push	{r7, lr}
	.cfi_def_cfa_offset 8
	.cfi_offset lr, -4
	.cfi_offset r7, -8
.Ltmp169:
	.loc	6 423 25 prologue_end           @ ../src/board/amcbldc/v120/src/tim.c:423:25
	ldr	r0, [r0]
.Ltmp170:
	@DEBUG_VALUE: HAL_TIM_Encoder_MspDeInit:tim_encoderHandle <- [DW_OP_LLVM_entry_value 1] $r0
	.loc	6 423 6 is_stmt 0               @ ../src/board/amcbldc/v120/src/tim.c:423:6
	cmp.w	r0, #1073741824
	.loc	6 444 1 is_stmt 1               @ ../src/board/amcbldc/v120/src/tim.c:444:1
	it	ne
	popne	{r7, pc}
.Ltmp171:
.LBB7_1:
	@DEBUG_VALUE: HAL_TIM_Encoder_MspDeInit:tim_encoderHandle <- [DW_OP_LLVM_entry_value 1] $r0
	.loc	6 0 1 is_stmt 0                 @ ../src/board/amcbldc/v120/src/tim.c:0:1
	movw	r0, #4184
	movt	r0, #16386
.Ltmp172:
	.loc	6 429 5 is_stmt 1               @ ../src/board/amcbldc/v120/src/tim.c:429:5
	ldr	r1, [r0]
	bic	r1, r1, #1
	str	r1, [r0]
	.loc	6 436 5                         @ ../src/board/amcbldc/v120/src/tim.c:436:5
	mov.w	r0, #1207959552
	movw	r1, #32802
	bl	HAL_GPIO_DeInit
.Ltmp173:
	.loc	6 439 5                         @ ../src/board/amcbldc/v120/src/tim.c:439:5
	movs	r0, #28
	pop.w	{r7, lr}
.Ltmp174:
	b	HAL_NVIC_DisableIRQ
.Ltmp175:
.Lfunc_end7:
	.size	HAL_TIM_Encoder_MspDeInit, .Lfunc_end7-HAL_TIM_Encoder_MspDeInit
	.cfi_endproc
	.cantunwind
	.fnend
                                        @ -- End function
	.hidden	htim1                           @ @htim1
	.type	htim1,%object
	.section	.bss.htim1,"aw",%nobits
	.globl	htim1
	.p2align	2
htim1:
	.zero	204
	.size	htim1, 204

	.hidden	htim2                           @ @htim2
	.type	htim2,%object
	.section	.bss.htim2,"aw",%nobits
	.globl	htim2
	.p2align	2
htim2:
	.zero	204
	.size	htim2, 204

	.hidden	htim3                           @ @htim3
	.type	htim3,%object
	.section	.bss.htim3,"aw",%nobits
	.globl	htim3
	.p2align	2
htim3:
	.zero	204
	.size	htim3, 204

	.file	9 "C:\\Users\\grodriguez\\Documents\\iit\\icub-firmware\\emBODY\\eBcode\\arch-arm\\libs\\lowlevel\\stm32hal\\proj" "../src/driver/stm32g4-v120/inc/stm32g4xx_hal_tim_ex.h"
	.file	10 "C:\\Users\\grodriguez\\Documents\\iit\\icub-firmware\\emBODY\\eBcode\\arch-arm\\libs\\lowlevel\\stm32hal\\proj" "../api\\../src/driver/stm32g4-v120/inc/stm32g4xx_hal_gpio.h"
	.section	".note.GNU-stack","",%progbits
	.eabi_attribute	30, 3	@ Tag_ABI_optimization_goals
	.ARM_attribute	16, 1	@ Tag_AV_eba