

Microchip Technology PIC LITE Macro Assembler V1.20 build 52243 
                                                                                               Tue Oct 08 08:21:53 2013

Microchip Technology Omniscient Code Generator (Lite mode) build 52243
     1                           	processor	16F1824
     2                           	opt	pw 120
     3                           	opt	lm
     4                           	psect	idataCOMMON,global,class=CODE,delta=2
     5                           	psect	idataBANK0,global,class=CODE,delta=2
     6                           	psect	cinit,global,class=CODE,merge=1,delta=2
     7                           	psect	bssCOMMON,global,class=COMMON,space=1,delta=1
     8                           	psect	dataCOMMON,global,class=COMMON,space=1,delta=1
     9                           	psect	dataBANK0,global,class=BANK0,space=1,delta=1
    10                           	psect	cstackCOMMON,global,class=COMMON,space=1,delta=1
    11                           	psect	cstackBANK0,global,class=BANK0,space=1,delta=1
    12                           	psect	maintext,global,class=CODE,merge=1,split=1,delta=2
    13                           	psect	text1,local,class=CODE,merge=1,delta=2
    14                           	psect	text2,local,class=CODE,merge=1,delta=2
    15                           	psect	text3,local,class=CODE,merge=1,delta=2
    16                           	psect	intentry,global,class=CODE,delta=2
    17                           	dabs	1,0x7E,2
    18  0000                     	;# 
    19  0001                     	;# 
    20  0002                     	;# 
    21  0003                     	;# 
    22  0004                     	;# 
    23  0005                     	;# 
    24  0006                     	;# 
    25  0007                     	;# 
    26  0008                     	;# 
    27  0009                     	;# 
    28  000A                     	;# 
    29  000B                     	;# 
    30  000C                     	;# 
    31  000E                     	;# 
    32  0011                     	;# 
    33  0012                     	;# 
    34  0013                     	;# 
    35  0015                     	;# 
    36  0016                     	;# 
    37  0016                     	;# 
    38  0017                     	;# 
    39  0018                     	;# 
    40  0019                     	;# 
    41  001A                     	;# 
    42  001B                     	;# 
    43  001C                     	;# 
    44  001E                     	;# 
    45  001F                     	;# 
    46  008C                     	;# 
    47  008E                     	;# 
    48  0091                     	;# 
    49  0092                     	;# 
    50  0093                     	;# 
    51  0095                     	;# 
    52  0096                     	;# 
    53  0097                     	;# 
    54  0098                     	;# 
    55  0099                     	;# 
    56  009A                     	;# 
    57  009B                     	;# 
    58  009B                     	;# 
    59  009C                     	;# 
    60  009D                     	;# 
    61  009E                     	;# 
    62  010C                     	;# 
    63  010E                     	;# 
    64  0111                     	;# 
    65  0112                     	;# 
    66  0113                     	;# 
    67  0114                     	;# 
    68  0115                     	;# 
    69  0116                     	;# 
    70  0117                     	;# 
    71  0118                     	;# 
    72  0119                     	;# 
    73  011A                     	;# 
    74  011B                     	;# 
    75  011D                     	;# 
    76  011E                     	;# 
    77  018C                     	;# 
    78  018E                     	;# 
    79  0191                     	;# 
    80  0191                     	;# 
    81  0192                     	;# 
    82  0193                     	;# 
    83  0193                     	;# 
    84  0193                     	;# 
    85  0194                     	;# 
    86  0195                     	;# 
    87  0196                     	;# 
    88  0199                     	;# 
    89  019A                     	;# 
    90  019B                     	;# 
    91  019B                     	;# 
    92  019C                     	;# 
    93  019D                     	;# 
    94  019E                     	;# 
    95  019F                     	;# 
    96  020C                     	;# 
    97  020E                     	;# 
    98  0211                     	;# 
    99  0211                     	;# 
   100  0212                     	;# 
   101  0212                     	;# 
   102  0213                     	;# 
   103  0213                     	;# 
   104  0214                     	;# 
   105  0214                     	;# 
   106  0215                     	;# 
   107  0215                     	;# 
   108  0215                     	;# 
   109  0215                     	;# 
   110  0216                     	;# 
   111  0216                     	;# 
   112  0217                     	;# 
   113  0217                     	;# 
   114  0291                     	;# 
   115  0292                     	;# 
   116  0293                     	;# 
   117  0294                     	;# 
   118  0295                     	;# 
   119  0295                     	;# 
   120  0296                     	;# 
   121  0298                     	;# 
   122  0299                     	;# 
   123  029A                     	;# 
   124  029B                     	;# 
   125  029C                     	;# 
   126  029D                     	;# 
   127  029E                     	;# 
   128  029E                     	;# 
   129  0311                     	;# 
   130  0312                     	;# 
   131  0313                     	;# 
   132  0318                     	;# 
   133  0319                     	;# 
   134  031A                     	;# 
   135  038C                     	;# 
   136  038E                     	;# 
   137  0391                     	;# 
   138  0392                     	;# 
   139  0393                     	;# 
   140  039A                     	;# 
   141  039C                     	;# 
   142  039D                     	;# 
   143  039E                     	;# 
   144  039F                     	;# 
   145  0415                     	;# 
   146  0416                     	;# 
   147  0417                     	;# 
   148  041C                     	;# 
   149  041D                     	;# 
   150  041E                     	;# 
   151  0FE4                     	;# 
   152  0FE5                     	;# 
   153  0FE6                     	;# 
   154  0FE7                     	;# 
   155  0FE8                     	;# 
   156  0FE9                     	;# 
   157  0FEA                     	;# 
   158  0FEB                     	;# 
   159  0FED                     	;# 
   160  0FEE                     	;# 
   161  0FEF                     	;# 
   162  0000                     	;# 
   163  0001                     	;# 
   164  0002                     	;# 
   165  0003                     	;# 
   166  0004                     	;# 
   167  0005                     	;# 
   168  0006                     	;# 
   169  0007                     	;# 
   170  0008                     	;# 
   171  0009                     	;# 
   172  000A                     	;# 
   173  000B                     	;# 
   174  000C                     	;# 
   175  000E                     	;# 
   176  0011                     	;# 
   177  0012                     	;# 
   178  0013                     	;# 
   179  0015                     	;# 
   180  0016                     	;# 
   181  0016                     	;# 
   182  0017                     	;# 
   183  0018                     	;# 
   184  0019                     	;# 
   185  001A                     	;# 
   186  001B                     	;# 
   187  001C                     	;# 
   188  001E                     	;# 
   189  001F                     	;# 
   190  008C                     	;# 
   191  008E                     	;# 
   192  0091                     	;# 
   193  0092                     	;# 
   194  0093                     	;# 
   195  0095                     	;# 
   196  0096                     	;# 
   197  0097                     	;# 
   198  0098                     	;# 
   199  0099                     	;# 
   200  009A                     	;# 
   201  009B                     	;# 
   202  009B                     	;# 
   203  009C                     	;# 
   204  009D                     	;# 
   205  009E                     	;# 
   206  010C                     	;# 
   207  010E                     	;# 
   208  0111                     	;# 
   209  0112                     	;# 
   210  0113                     	;# 
   211  0114                     	;# 
   212  0115                     	;# 
   213  0116                     	;# 
   214  0117                     	;# 
   215  0118                     	;# 
   216  0119                     	;# 
   217  011A                     	;# 
   218  011B                     	;# 
   219  011D                     	;# 
   220  011E                     	;# 
   221  018C                     	;# 
   222  018E                     	;# 
   223  0191                     	;# 
   224  0191                     	;# 
   225  0192                     	;# 
   226  0193                     	;# 
   227  0193                     	;# 
   228  0193                     	;# 
   229  0194                     	;# 
   230  0195                     	;# 
   231  0196                     	;# 
   232  0199                     	;# 
   233  019A                     	;# 
   234  019B                     	;# 
   235  019B                     	;# 
   236  019C                     	;# 
   237  019D                     	;# 
   238  019E                     	;# 
   239  019F                     	;# 
   240  020C                     	;# 
   241  020E                     	;# 
   242  0211                     	;# 
   243  0211                     	;# 
   244  0212                     	;# 
   245  0212                     	;# 
   246  0213                     	;# 
   247  0213                     	;# 
   248  0214                     	;# 
   249  0214                     	;# 
   250  0215                     	;# 
   251  0215                     	;# 
   252  0215                     	;# 
   253  0215                     	;# 
   254  0216                     	;# 
   255  0216                     	;# 
   256  0217                     	;# 
   257  0217                     	;# 
   258  0291                     	;# 
   259  0292                     	;# 
   260  0293                     	;# 
   261  0294                     	;# 
   262  0295                     	;# 
   263  0295                     	;# 
   264  0296                     	;# 
   265  0298                     	;# 
   266  0299                     	;# 
   267  029A                     	;# 
   268  029B                     	;# 
   269  029C                     	;# 
   270  029D                     	;# 
   271  029E                     	;# 
   272  029E                     	;# 
   273  0311                     	;# 
   274  0312                     	;# 
   275  0313                     	;# 
   276  0318                     	;# 
   277  0319                     	;# 
   278  031A                     	;# 
   279  038C                     	;# 
   280  038E                     	;# 
   281  0391                     	;# 
   282  0392                     	;# 
   283  0393                     	;# 
   284  039A                     	;# 
   285  039C                     	;# 
   286  039D                     	;# 
   287  039E                     	;# 
   288  039F                     	;# 
   289  0415                     	;# 
   290  0416                     	;# 
   291  0417                     	;# 
   292  041C                     	;# 
   293  041D                     	;# 
   294  041E                     	;# 
   295  0FE4                     	;# 
   296  0FE5                     	;# 
   297  0FE6                     	;# 
   298  0FE7                     	;# 
   299  0FE8                     	;# 
   300  0FE9                     	;# 
   301  0FEA                     	;# 
   302  0FEB                     	;# 
   303  0FED                     	;# 
   304  0FEE                     	;# 
   305  0FEF                     	;# 
   306  0000                     	;# 
   307  0001                     	;# 
   308  0002                     	;# 
   309  0003                     	;# 
   310  0004                     	;# 
   311  0005                     	;# 
   312  0006                     	;# 
   313  0007                     	;# 
   314  0008                     	;# 
   315  0009                     	;# 
   316  000A                     	;# 
   317  000B                     	;# 
   318  000C                     	;# 
   319  000E                     	;# 
   320  0011                     	;# 
   321  0012                     	;# 
   322  0013                     	;# 
   323  0015                     	;# 
   324  0016                     	;# 
   325  0016                     	;# 
   326  0017                     	;# 
   327  0018                     	;# 
   328  0019                     	;# 
   329  001A                     	;# 
   330  001B                     	;# 
   331  001C                     	;# 
   332  001E                     	;# 
   333  001F                     	;# 
   334  008C                     	;# 
   335  008E                     	;# 
   336  0091                     	;# 
   337  0092                     	;# 
   338  0093                     	;# 
   339  0095                     	;# 
   340  0096                     	;# 
   341  0097                     	;# 
   342  0098                     	;# 
   343  0099                     	;# 
   344  009A                     	;# 
   345  009B                     	;# 
   346  009B                     	;# 
   347  009C                     	;# 
   348  009D                     	;# 
   349  009E                     	;# 
   350  010C                     	;# 
   351  010E                     	;# 
   352  0111                     	;# 
   353  0112                     	;# 
   354  0113                     	;# 
   355  0114                     	;# 
   356  0115                     	;# 
   357  0116                     	;# 
   358  0117                     	;# 
   359  0118                     	;# 
   360  0119                     	;# 
   361  011A                     	;# 
   362  011B                     	;# 
   363  011D                     	;# 
   364  011E                     	;# 
   365  018C                     	;# 
   366  018E                     	;# 
   367  0191                     	;# 
   368  0191                     	;# 
   369  0192                     	;# 
   370  0193                     	;# 
   371  0193                     	;# 
   372  0193                     	;# 
   373  0194                     	;# 
   374  0195                     	;# 
   375  0196                     	;# 
   376  0199                     	;# 
   377  019A                     	;# 
   378  019B                     	;# 
   379  019B                     	;# 
   380  019C                     	;# 
   381  019D                     	;# 
   382  019E                     	;# 
   383  019F                     	;# 
   384  020C                     	;# 
   385  020E                     	;# 
   386  0211                     	;# 
   387  0211                     	;# 
   388  0212                     	;# 
   389  0212                     	;# 
   390  0213                     	;# 
   391  0213                     	;# 
   392  0214                     	;# 
   393  0214                     	;# 
   394  0215                     	;# 
   395  0215                     	;# 
   396  0215                     	;# 
   397  0215                     	;# 
   398  0216                     	;# 
   399  0216                     	;# 
   400  0217                     	;# 
   401  0217                     	;# 
   402  0291                     	;# 
   403  0292                     	;# 
   404  0293                     	;# 
   405  0294                     	;# 
   406  0295                     	;# 
   407  0295                     	;# 
   408  0296                     	;# 
   409  0298                     	;# 
   410  0299                     	;# 
   411  029A                     	;# 
   412  029B                     	;# 
   413  029C                     	;# 
   414  029D                     	;# 
   415  029E                     	;# 
   416  029E                     	;# 
   417  0311                     	;# 
   418  0312                     	;# 
   419  0313                     	;# 
   420  0318                     	;# 
   421  0319                     	;# 
   422  031A                     	;# 
   423  038C                     	;# 
   424  038E                     	;# 
   425  0391                     	;# 
   426  0392                     	;# 
   427  0393                     	;# 
   428  039A                     	;# 
   429  039C                     	;# 
   430  039D                     	;# 
   431  039E                     	;# 
   432  039F                     	;# 
   433  0415                     	;# 
   434  0416                     	;# 
   435  0417                     	;# 
   436  041C                     	;# 
   437  041D                     	;# 
   438  041E                     	;# 
   439  0FE4                     	;# 
   440  0FE5                     	;# 
   441  0FE6                     	;# 
   442  0FE7                     	;# 
   443  0FE8                     	;# 
   444  0FE9                     	;# 
   445  0FEA                     	;# 
   446  0FEB                     	;# 
   447  0FED                     	;# 
   448  0FEE                     	;# 
   449  0FEF                     	;# 
   450  0000                     	;# 
   451  0001                     	;# 
   452  0002                     	;# 
   453  0003                     	;# 
   454  0004                     	;# 
   455  0005                     	;# 
   456  0006                     	;# 
   457  0007                     	;# 
   458  0008                     	;# 
   459  0009                     	;# 
   460  000A                     	;# 
   461  000B                     	;# 
   462  000C                     	;# 
   463  000E                     	;# 
   464  0011                     	;# 
   465  0012                     	;# 
   466  0013                     	;# 
   467  0015                     	;# 
   468  0016                     	;# 
   469  0016                     	;# 
   470  0017                     	;# 
   471  0018                     	;# 
   472  0019                     	;# 
   473  001A                     	;# 
   474  001B                     	;# 
   475  001C                     	;# 
   476  001E                     	;# 
   477  001F                     	;# 
   478  008C                     	;# 
   479  008E                     	;# 
   480  0091                     	;# 
   481  0092                     	;# 
   482  0093                     	;# 
   483  0095                     	;# 
   484  0096                     	;# 
   485  0097                     	;# 
   486  0098                     	;# 
   487  0099                     	;# 
   488  009A                     	;# 
   489  009B                     	;# 
   490  009B                     	;# 
   491  009C                     	;# 
   492  009D                     	;# 
   493  009E                     	;# 
   494  010C                     	;# 
   495  010E                     	;# 
   496  0111                     	;# 
   497  0112                     	;# 
   498  0113                     	;# 
   499  0114                     	;# 
   500  0115                     	;# 
   501  0116                     	;# 
   502  0117                     	;# 
   503  0118                     	;# 
   504  0119                     	;# 
   505  011A                     	;# 
   506  011B                     	;# 
   507  011D                     	;# 
   508  011E                     	;# 
   509  018C                     	;# 
   510  018E                     	;# 
   511  0191                     	;# 
   512  0191                     	;# 
   513  0192                     	;# 
   514  0193                     	;# 
   515  0193                     	;# 
   516  0193                     	;# 
   517  0194                     	;# 
   518  0195                     	;# 
   519  0196                     	;# 
   520  0199                     	;# 
   521  019A                     	;# 
   522  019B                     	;# 
   523  019B                     	;# 
   524  019C                     	;# 
   525  019D                     	;# 
   526  019E                     	;# 
   527  019F                     	;# 
   528  020C                     	;# 
   529  020E                     	;# 
   530  0211                     	;# 
   531  0211                     	;# 
   532  0212                     	;# 
   533  0212                     	;# 
   534  0213                     	;# 
   535  0213                     	;# 
   536  0214                     	;# 
   537  0214                     	;# 
   538  0215                     	;# 
   539  0215                     	;# 
   540  0215                     	;# 
   541  0215                     	;# 
   542  0216                     	;# 
   543  0216                     	;# 
   544  0217                     	;# 
   545  0217                     	;# 
   546  0291                     	;# 
   547  0292                     	;# 
   548  0293                     	;# 
   549  0294                     	;# 
   550  0295                     	;# 
   551  0295                     	;# 
   552  0296                     	;# 
   553  0298                     	;# 
   554  0299                     	;# 
   555  029A                     	;# 
   556  029B                     	;# 
   557  029C                     	;# 
   558  029D                     	;# 
   559  029E                     	;# 
   560  029E                     	;# 
   561  0311                     	;# 
   562  0312                     	;# 
   563  0313                     	;# 
   564  0318                     	;# 
   565  0319                     	;# 
   566  031A                     	;# 
   567  038C                     	;# 
   568  038E                     	;# 
   569  0391                     	;# 
   570  0392                     	;# 
   571  0393                     	;# 
   572  039A                     	;# 
   573  039C                     	;# 
   574  039D                     	;# 
   575  039E                     	;# 
   576  039F                     	;# 
   577  0415                     	;# 
   578  0416                     	;# 
   579  0417                     	;# 
   580  041C                     	;# 
   581  041D                     	;# 
   582  041E                     	;# 
   583  0FE4                     	;# 
   584  0FE5                     	;# 
   585  0FE6                     	;# 
   586  0FE7                     	;# 
   587  0FE8                     	;# 
   588  0FE9                     	;# 
   589  0FEA                     	;# 
   590  0FEB                     	;# 
   591  0FED                     	;# 
   592  0FEE                     	;# 
   593  0FEF                     	;# 
   594  0000                     	;# 
   595  0001                     	;# 
   596  0002                     	;# 
   597  0003                     	;# 
   598  0004                     	;# 
   599  0005                     	;# 
   600  0006                     	;# 
   601  0007                     	;# 
   602  0008                     	;# 
   603  0009                     	;# 
   604  000A                     	;# 
   605  000B                     	;# 
   606  000C                     	;# 
   607  000E                     	;# 
   608  0011                     	;# 
   609  0012                     	;# 
   610  0013                     	;# 
   611  0015                     	;# 
   612  0016                     	;# 
   613  0016                     	;# 
   614  0017                     	;# 
   615  0018                     	;# 
   616  0019                     	;# 
   617  001A                     	;# 
   618  001B                     	;# 
   619  001C                     	;# 
   620  001E                     	;# 
   621  001F                     	;# 
   622  008C                     	;# 
   623  008E                     	;# 
   624  0091                     	;# 
   625  0092                     	;# 
   626  0093                     	;# 
   627  0095                     	;# 
   628  0096                     	;# 
   629  0097                     	;# 
   630  0098                     	;# 
   631  0099                     	;# 
   632  009A                     	;# 
   633  009B                     	;# 
   634  009B                     	;# 
   635  009C                     	;# 
   636  009D                     	;# 
   637  009E                     	;# 
   638  010C                     	;# 
   639  010E                     	;# 
   640  0111                     	;# 
   641  0112                     	;# 
   642  0113                     	;# 
   643  0114                     	;# 
   644  0115                     	;# 
   645  0116                     	;# 
   646  0117                     	;# 
   647  0118                     	;# 
   648  0119                     	;# 
   649  011A                     	;# 
   650  011B                     	;# 
   651  011D                     	;# 
   652  011E                     	;# 
   653  018C                     	;# 
   654  018E                     	;# 
   655  0191                     	;# 
   656  0191                     	;# 
   657  0192                     	;# 
   658  0193                     	;# 
   659  0193                     	;# 
   660  0193                     	;# 
   661  0194                     	;# 
   662  0195                     	;# 
   663  0196                     	;# 
   664  0199                     	;# 
   665  019A                     	;# 
   666  019B                     	;# 
   667  019B                     	;# 
   668  019C                     	;# 
   669  019D                     	;# 
   670  019E                     	;# 
   671  019F                     	;# 
   672  020C                     	;# 
   673  020E                     	;# 
   674  0211                     	;# 
   675  0211                     	;# 
   676  0212                     	;# 
   677  0212                     	;# 
   678  0213                     	;# 
   679  0213                     	;# 
   680  0214                     	;# 
   681  0214                     	;# 
   682  0215                     	;# 
   683  0215                     	;# 
   684  0215                     	;# 
   685  0215                     	;# 
   686  0216                     	;# 
   687  0216                     	;# 
   688  0217                     	;# 
   689  0217                     	;# 
   690  0291                     	;# 
   691  0292                     	;# 
   692  0293                     	;# 
   693  0294                     	;# 
   694  0295                     	;# 
   695  0295                     	;# 
   696  0296                     	;# 
   697  0298                     	;# 
   698  0299                     	;# 
   699  029A                     	;# 
   700  029B                     	;# 
   701  029C                     	;# 
   702  029D                     	;# 
   703  029E                     	;# 
   704  029E                     	;# 
   705  0311                     	;# 
   706  0312                     	;# 
   707  0313                     	;# 
   708  0318                     	;# 
   709  0319                     	;# 
   710  031A                     	;# 
   711  038C                     	;# 
   712  038E                     	;# 
   713  0391                     	;# 
   714  0392                     	;# 
   715  0393                     	;# 
   716  039A                     	;# 
   717  039C                     	;# 
   718  039D                     	;# 
   719  039E                     	;# 
   720  039F                     	;# 
   721  0415                     	;# 
   722  0416                     	;# 
   723  0417                     	;# 
   724  041C                     	;# 
   725  041D                     	;# 
   726  041E                     	;# 
   727  0FE4                     	;# 
   728  0FE5                     	;# 
   729  0FE6                     	;# 
   730  0FE7                     	;# 
   731  0FE8                     	;# 
   732  0FE9                     	;# 
   733  0FEA                     	;# 
   734  0FEB                     	;# 
   735  0FED                     	;# 
   736  0FEE                     	;# 
   737  0FEF                     	;# 
   738                           
   739                           	psect	idataCOMMON
   740  00C9                     __pidataCOMMON:	
   741                           
   742                           ;initializer for _VTH0
   743  00C9  34FF               	retlw	255
   744  00CA  3400               	retlw	0
   745                           
   746                           	psect	idataBANK0
   747  00C2                     __pidataBANK0:	
   748                           
   749                           ;initializer for _VTH1
   750  00C2  34FF               	retlw	255
   751  00C3  340F               	retlw	15
   752                           
   753                           ;initializer for _VTH2
   754  00C4  34FF               	retlw	255
   755  00C5  34F0               	retlw	240
   756  000B                     _INTCONbits	set	11
   757  0011                     _PIR1bits	set	17
   758  000C                     _PORTA	set	12
   759  000E                     _PORTC	set	14
   760  0018                     _T1CON	set	24
   761  0017                     _TMR1H	set	23
   762  0016                     _TMR1L	set	22
   763  0060                     _RA0	set	96
   764  0062                     _RA2	set	98
   765  0064                     _RA4	set	100
   766  0072                     _RC2	set	114
   767  0073                     _RC3	set	115
   768  0074                     _RC4	set	116
   769  0075                     _RC5	set	117
   770  009D                     _ADCON0	set	157
   771  009D                     _ADCON0bits	set	157
   772  009C                     _ADRESH	set	156
   773  009B                     _ADRESL	set	155
   774  0099                     _OSCCON	set	153
   775  0091                     _PIE1bits	set	145
   776  008C                     _TRISA	set	140
   777  008E                     _TRISC	set	142
   778  010C                     _LATA	set	268
   779  010E                     _LATC	set	270
   780  018C                     _ANSELA	set	396
   781  018E                     _ANSELC	set	398
   782                           
   783                           ; #config settings
   784  0000                     
   785                           	psect	cinit
   786  006B                     start_initialization:	
   787  006B                     __initialization:	
   788                           
   789                           ; Clear objects allocated to COMMON
   790  006B  01F0               	clrf	__pbssCOMMON& (0+127)
   791  006C  01F1               	clrf	(__pbssCOMMON+1)& (0+127)
   792  006D  01F2               	clrf	(__pbssCOMMON+2)& (0+127)
   793  006E  01F3               	clrf	(__pbssCOMMON+3)& (0+127)
   794  006F  01F4               	clrf	(__pbssCOMMON+4)& (0+127)
   795  0070  01F5               	clrf	(__pbssCOMMON+5)& (0+127)
   796                           
   797                           ; Initialize objects allocated to COMMON
   798  0071  3180  20C9  3180   	fcall	__pidataCOMMON	;fetch initializer
   799  0074  00F9               	movwf	__pdataCOMMON& (0+127)
   800  0075  3180  20CA  3180   	fcall	__pidataCOMMON+1	;fetch initializer
   801  0078  00FA               	movwf	(__pdataCOMMON+1)& (0+127)
   802                           
   803                           ; Initialize objects allocated to BANK0
   804  0079  3180  20C2  3180   	fcall	__pidataBANK0	;fetch initializer
   805  007C  00A0               	movwf	__pdataBANK0& (0+127)
   806  007D  3180  20C3  3180   	fcall	__pidataBANK0+1	;fetch initializer
   807  0080  00A1               	movwf	(__pdataBANK0+1)& (0+127)
   808  0081  3180  20C4  3180   	fcall	__pidataBANK0+2	;fetch initializer
   809  0084  00A2               	movwf	(__pdataBANK0+2)& (0+127)
   810  0085  3180  20C5         	fcall	__pidataBANK0+3	;fetch initializer
   811  0087  00A3               	movwf	(__pdataBANK0+3)& (0+127)
   812  0088                     end_of_initialization:	
   813                           ;End of C runtime variable initialization code
   814                           
   815  0088                     __end_of__initialization:	
   816  0088  0020               	movlb	0
   817  0089  3180  2831         	ljmp	_main	;jump to C main() function
   818                           
   819                           	psect	bssCOMMON
   820  0070                     __pbssCOMMON:	
   821  0070                     _adc_buffer:	
   822  0070                     	ds	2
   823  0072                     _timer_100ms:	
   824  0072                     	ds	1
   825  0073                     _timer_10ms:	
   826  0073                     	ds	1
   827  0074                     _timer_1ms:	
   828  0074                     	ds	1
   829  0075                     _timer_1s:	
   830  0075                     	ds	1
   831                           
   832                           	psect	dataCOMMON
   833  0079                     __pdataCOMMON:	
   834  0079                     _VTH0:	
   835  0079                     	ds	2
   836                           
   837                           	psect	dataBANK0
   838  0020                     __pdataBANK0:	
   839  0020                     _VTH1:	
   840  0020                     	ds	2
   841  0022                     _VTH2:	
   842  0022                     	ds	2
   843                           
   844                           	psect	cstackCOMMON
   845  0076                     __pcstackCOMMON:	
   846  0076                     ?_ConfigureOscillator:	
   847  0076                     ?_InitApp:	
   848                           ; 0 bytes @ 0x0
   849                           
   850  0076                     ?_isr:	
   851                           ; 0 bytes @ 0x0
   852                           
   853  0076                     ??_isr:	
   854                           ; 0 bytes @ 0x0
   855                           
   856  0076                     ?_main:	
   857                           ; 0 bytes @ 0x0
   858                           
   859  0076                     ?_read_adc:	
   860                           ; 0 bytes @ 0x0
   861                           
   862                           
   863                           ; 2 bytes @ 0x0
   864  0076                     	ds	3
   865  0079                     ??_ConfigureOscillator:	
   866  0079                     ??_InitApp:	
   867                           ; 0 bytes @ 0x3
   868                           
   869  0079                     ??_read_adc:	
   870                           ; 0 bytes @ 0x3
   871                           
   872                           
   873                           	psect	cstackBANK0
   874  0024                     __pcstackBANK0:	
   875                           ; 0 bytes @ 0x3
   876                           
   877  0024                     read_adc@input:	
   878                           
   879                           ; 1 bytes @ 0x0
   880  0024                     	ds	1
   881  0025                     ??_main:	
   882                           
   883                           ; 0 bytes @ 0x1
   884  0025                     	ds	1
   885                           
   886                           	psect	maintext
   887  0031                     __pmaintext:	
   888 ;;
   889 ;;Main: autosize = 0, tempsize = 1, incstack = 0, save=0
   890 ;;
   891 ;; *************** function _main *****************
   892 ;; Defined at:
   893 ;;		line 53 in file "main.c"
   894 ;; Parameters:    Size  Location     Type
   895 ;;		None
   896 ;; Auto vars:     Size  Location     Type
   897 ;;		None
   898 ;; Return value:  Size  Location     Type
   899 ;;		None               void
   900 ;; Registers used:
   901 ;;		wreg, status,2, status,0, pclath, cstack
   902 ;; Tracked objects:
   903 ;;		On entry : 17F/0
   904 ;;		On exit  : 0/0
   905 ;;		Unchanged: 0/0
   906 ;; Data sizes:     COMMON   BANK0   BANK1   BANK2
   907 ;;      Params:         0       0       0       0
   908 ;;      Locals:         0       0       0       0
   909 ;;      Temps:          0       1       0       0
   910 ;;      Totals:         0       1       0       0
   911 ;;Total ram usage:        1 bytes
   912 ;; Hardware stack levels required when called:    2
   913 ;; This function calls:
   914 ;;		_ConfigureOscillator
   915 ;;		_InitApp
   916 ;;		_read_adc
   917 ;; This function is called by:
   918 ;;		Startup code after reset
   919 ;; This function uses a non-reentrant model
   920 ;;
   921                           
   922                           
   923                           ;psect for function _main
   924  0031                     _main:	
   925                           
   926                           ;main.c: 55: ConfigureOscillator();
   927                           
   928                           ;incstack = 0
   929                           ; Regs used in _main: [wreg+status,2+status,0+pclath+cstack]
   930  0031  3180  20C6  3180   	fcall	_ConfigureOscillator
   931                           
   932                           ;main.c: 58: InitApp();
   933  0034  3180  20A7  3180   	fcall	_InitApp
   934  0037                     l64:	
   935                           ;main.c: 61: while(1)
   936                           
   937                           
   938                           ;main.c: 62: {
   939                           ;main.c: 63: if (timer_1ms >= 1){
   940  0037  0874               	movf	_timer_1ms,w
   941  0038  1903               	btfsc	3,2
   942  0039  2842               	goto	l712
   943                           
   944                           ;main.c: 64: timer_1ms=0;
   945  003A  01F4               	clrf	_timer_1ms
   946                           
   947                           ;main.c: 65: timer_10ms++;
   948  003B  3001               	movlw	1
   949  003C  0020               	movlb	0	; select bank0
   950  003D  00A5               	movwf	??_main
   951  003E  0825               	movf	??_main,w
   952  003F  07F3               	addwf	_timer_10ms,f
   953                           
   954                           ;main.c: 66: RA2=RA2^1;
   955  0040  3004               	movlw	4
   956  0041  068C               	xorwf	12,f
   957  0042                     l712:	
   958                           
   959                           ;main.c: 67: }
   960                           ;main.c: 69: if (timer_10ms >= 10){
   961  0042  300A               	movlw	10
   962  0043  0273               	subwf	_timer_10ms,w
   963  0044  1C03               	skipc
   964  0045  2856               	goto	l724
   965                           
   966                           ;main.c: 70: timer_10ms=0;
   967  0046  01F3               	clrf	_timer_10ms
   968                           
   969                           ;main.c: 71: timer_100ms++;
   970  0047  3001               	movlw	1
   971  0048  0020               	movlb	0	; select bank0
   972  0049  00A5               	movwf	??_main
   973  004A  0825               	movf	??_main,w
   974  004B  07F2               	addwf	_timer_100ms,f
   975                           
   976                           ;main.c: 72: RA4=RA4^1;
   977  004C  3010               	movlw	16
   978  004D  068C               	xorwf	12,f
   979                           
   980                           ;main.c: 73: if(!PIR1bits.ADIF) {read_adc(RC3);}
   981  004E  1B11               	btfsc	17,6	;volatile
   982  004F  2856               	goto	l724
   983  0050  3000               	movlw	0
   984  0051  198E               	btfsc	14,3	;volatile
   985  0052  3001               	movlw	1
   986  0053  3180  208B  3180   	fcall	_read_adc
   987  0056                     l724:	
   988                           
   989                           ;main.c: 74: }
   990                           ;main.c: 76: if (timer_100ms >= 10){
   991  0056  300A               	movlw	10
   992  0057  0272               	subwf	_timer_100ms,w
   993  0058  1C03               	skipc
   994  0059  2862               	goto	l732
   995                           
   996                           ;main.c: 77: timer_100ms=0;
   997  005A  01F2               	clrf	_timer_100ms
   998                           
   999                           ;main.c: 78: timer_1s++;
  1000  005B  3001               	movlw	1
  1001  005C  0020               	movlb	0	; select bank0
  1002  005D  00A5               	movwf	??_main
  1003  005E  0825               	movf	??_main,w
  1004  005F  07F5               	addwf	_timer_1s,f
  1005                           
  1006                           ;main.c: 79: RC5=RC5^1;
  1007  0060  3020               	movlw	32
  1008  0061  068E               	xorwf	14,f
  1009  0062                     l732:	
  1010                           
  1011                           ;main.c: 80: }
  1012                           ;main.c: 82: if (timer_1s >= 10){
  1013  0062  300A               	movlw	10
  1014  0063  0275               	subwf	_timer_1s,w
  1015  0064  1C03               	skipc
  1016  0065  2837               	goto	l64
  1017                           
  1018                           ;main.c: 83: timer_1s=0;
  1019  0066  01F5               	clrf	_timer_1s
  1020                           
  1021                           ;main.c: 84: RC4=RC4^1;
  1022  0067  3010               	movlw	16
  1023  0068  0020               	movlb	0	; select bank0
  1024  0069  068E               	xorwf	14,f
  1025  006A  2837               	goto	l64
  1026  006B                     __end_of_main:	
  1027                           
  1028                           	psect	text1
  1029  008B                     __ptext1:	
  1030 ;; *************** function _read_adc *****************
  1031 ;; Defined at:
  1032 ;;		line 90 in file "main.c"
  1033 ;; Parameters:    Size  Location     Type
  1034 ;;  input           1    wreg     unsigned char 
  1035 ;; Auto vars:     Size  Location     Type
  1036 ;;  input           1    0[BANK0 ] unsigned char 
  1037 ;; Return value:  Size  Location     Type
  1038 ;;                  2   31[COMMON] int 
  1039 ;; Registers used:
  1040 ;;		wreg, status,2, status,0
  1041 ;; Tracked objects:
  1042 ;;		On entry : 0/0
  1043 ;;		On exit  : 0/0
  1044 ;;		Unchanged: 0/0
  1045 ;; Data sizes:     COMMON   BANK0   BANK1   BANK2
  1046 ;;      Params:         0       0       0       0
  1047 ;;      Locals:         0       1       0       0
  1048 ;;      Temps:          0       0       0       0
  1049 ;;      Totals:         0       1       0       0
  1050 ;;Total ram usage:        1 bytes
  1051 ;; Hardware stack levels used:    1
  1052 ;; Hardware stack levels required when called:    1
  1053 ;; This function calls:
  1054 ;;		Nothing
  1055 ;; This function is called by:
  1056 ;;		_main
  1057 ;; This function uses a non-reentrant model
  1058 ;;
  1059                           
  1060                           
  1061                           ;psect for function _read_adc
  1062  008B                     _read_adc:	
  1063                           
  1064                           ;incstack = 0
  1065                           ; Regs used in _read_adc: [wreg+status,2+status,0]
  1066                           ;read_adc@input stored from wreg
  1067  008B  0020               	movlb	0	; select bank0
  1068  008C  00A4               	movwf	read_adc@input
  1069                           
  1070                           ;main.c: 91: if (input==RC3) {ADCON0bits.CHS=0b00111;}
  1071  008D  3000               	movlw	0
  1072  008E  198E               	btfsc	14,3	;volatile
  1073  008F  3001               	movlw	1
  1074  0090  0624               	xorwf	read_adc@input,w
  1075  0091  1D03               	skipz
  1076  0092  2898               	goto	l742
  1077  0093  0021               	movlb	1	; select bank1
  1078  0094  081D               	movf	29,w	;volatile
  1079  0095  3983               	andlw	-125
  1080  0096  381C               	iorlw	28
  1081  0097  28A3               	goto	L1
  1082  0098                     l742:	
  1083                           
  1084                           ;main.c: 92: else if (input==RC2) {ADCON0bits.CHS=0b00110;}
  1085  0098  3000               	movlw	0
  1086  0099  0020               	movlb	0	; select bank0
  1087  009A  190E               	btfsc	14,2	;volatile
  1088  009B  3001               	movlw	1
  1089  009C  0624               	xorwf	read_adc@input,w
  1090  009D  1D03               	skipz
  1091  009E  28A4               	goto	l746
  1092  009F  0021               	movlb	1	; select bank1
  1093  00A0  081D               	movf	29,w	;volatile
  1094  00A1  3983               	andlw	-125
  1095  00A2  3818               	iorlw	24
  1096  00A3                     L1:	
  1097  00A3  009D               	movwf	29	;volatile
  1098  00A4                     l746:	
  1099                           
  1100                           ;main.c: 93: ADCON0bits.GO_nDONE=1;
  1101  00A4  0021               	movlb	1	; select bank1
  1102  00A5  149D               	bsf	29,1	;volatile
  1103  00A6  0008               	return
  1104  00A7                     __end_of_read_adc:	
  1105                           
  1106                           	psect	text2
  1107  00A7                     __ptext2:	
  1108 ;; *************** function _InitApp *****************
  1109 ;; Defined at:
  1110 ;;		line 23 in file "user.c"
  1111 ;; Parameters:    Size  Location     Type
  1112 ;;		None
  1113 ;; Auto vars:     Size  Location     Type
  1114 ;;		None
  1115 ;; Return value:  Size  Location     Type
  1116 ;;		None               void
  1117 ;; Registers used:
  1118 ;;		wreg, status,2
  1119 ;; Tracked objects:
  1120 ;;		On entry : 0/0
  1121 ;;		On exit  : 0/0
  1122 ;;		Unchanged: 0/0
  1123 ;; Data sizes:     COMMON   BANK0   BANK1   BANK2
  1124 ;;      Params:         0       0       0       0
  1125 ;;      Locals:         0       0       0       0
  1126 ;;      Temps:          0       0       0       0
  1127 ;;      Totals:         0       0       0       0
  1128 ;;Total ram usage:        0 bytes
  1129 ;; Hardware stack levels used:    1
  1130 ;; Hardware stack levels required when called:    1
  1131 ;; This function calls:
  1132 ;;		Nothing
  1133 ;; This function is called by:
  1134 ;;		_main
  1135 ;; This function uses a non-reentrant model
  1136 ;;
  1137                           
  1138                           
  1139                           ;psect for function _InitApp
  1140  00A7                     _InitApp:	
  1141                           
  1142                           ;user.c: 35: TRISA = 0b00000001;
  1143                           
  1144                           ;incstack = 0
  1145                           ; Regs used in _InitApp: [wreg+status,2]
  1146  00A7  3001               	movlw	1
  1147  00A8  0021               	movlb	1	; select bank1
  1148  00A9  008C               	movwf	12	;volatile
  1149                           
  1150                           ;user.c: 36: TRISC = 0b00001100;
  1151  00AA  300C               	movlw	12
  1152  00AB  008E               	movwf	14	;volatile
  1153                           
  1154                           ;user.c: 38: ANSELA = 0b00000001;
  1155  00AC  3001               	movlw	1
  1156  00AD  0023               	movlb	3	; select bank3
  1157  00AE  008C               	movwf	12	;volatile
  1158                           
  1159                           ;user.c: 39: ANSELC = 0b00001100;
  1160  00AF  300C               	movlw	12
  1161  00B0  008E               	movwf	14	;volatile
  1162                           
  1163                           ;user.c: 42: PORTA = 0x00;
  1164  00B1  0020               	movlb	0	; select bank0
  1165  00B2  018C               	clrf	12	;volatile
  1166                           
  1167                           ;user.c: 43: PORTC = 0x00;
  1168  00B3  018E               	clrf	14	;volatile
  1169                           
  1170                           ;user.c: 44: LATA = 0x00;
  1171  00B4  0022               	movlb	2	; select bank2
  1172  00B5  018C               	clrf	12	;volatile
  1173                           
  1174                           ;user.c: 45: LATC = 0x00;
  1175  00B6  018E               	clrf	14	;volatile
  1176                           
  1177                           ;user.c: 50: T1CON=0b01000001;
  1178  00B7  3041               	movlw	65
  1179  00B8  0020               	movlb	0	; select bank0
  1180  00B9  0098               	movwf	24	;volatile
  1181                           
  1182                           ;user.c: 57: PIE1bits.TMR1IE = 1;
  1183  00BA  0021               	movlb	1	; select bank1
  1184  00BB  1411               	bsf	17,0	;volatile
  1185                           
  1186                           ;user.c: 59: ADCON0=0x00;
  1187  00BC  019D               	clrf	29	;volatile
  1188                           
  1189                           ;user.c: 64: ADCON0bits.ADON = 1;
  1190  00BD  141D               	bsf	29,0	;volatile
  1191                           
  1192                           ;user.c: 67: INTCONbits.GIE = 1;
  1193  00BE  178B               	bsf	11,7	;volatile
  1194                           
  1195                           ;user.c: 68: INTCONbits.PEIE = 1;
  1196  00BF  170B               	bsf	11,6	;volatile
  1197                           
  1198                           ;user.c: 69: PIE1bits.ADIE = 1;
  1199  00C0  1711               	bsf	17,6	;volatile
  1200  00C1  0008               	return
  1201  00C2                     __end_of_InitApp:	
  1202                           
  1203                           	psect	text3
  1204  00C6                     __ptext3:	
  1205 ;; *************** function _ConfigureOscillator *****************
  1206 ;; Defined at:
  1207 ;;		line 18 in file "system.c"
  1208 ;; Parameters:    Size  Location     Type
  1209 ;;		None
  1210 ;; Auto vars:     Size  Location     Type
  1211 ;;		None
  1212 ;; Return value:  Size  Location     Type
  1213 ;;		None               void
  1214 ;; Registers used:
  1215 ;;		status,2
  1216 ;; Tracked objects:
  1217 ;;		On entry : 0/0
  1218 ;;		On exit  : 0/0
  1219 ;;		Unchanged: 0/0
  1220 ;; Data sizes:     COMMON   BANK0   BANK1   BANK2
  1221 ;;      Params:         0       0       0       0
  1222 ;;      Locals:         0       0       0       0
  1223 ;;      Temps:          0       0       0       0
  1224 ;;      Totals:         0       0       0       0
  1225 ;;Total ram usage:        0 bytes
  1226 ;; Hardware stack levels used:    1
  1227 ;; Hardware stack levels required when called:    1
  1228 ;; This function calls:
  1229 ;;		Nothing
  1230 ;; This function is called by:
  1231 ;;		_main
  1232 ;; This function uses a non-reentrant model
  1233 ;;
  1234                           
  1235                           
  1236                           ;psect for function _ConfigureOscillator
  1237  00C6                     _ConfigureOscillator:	
  1238                           
  1239                           ;system.c: 21: OSCCON=0b00000000;
  1240                           
  1241                           ;incstack = 0
  1242                           ; Regs used in _ConfigureOscillator: [status,2]
  1243  00C6  0021               	movlb	1	; select bank1
  1244  00C7  0199               	clrf	25	;volatile
  1245  00C8  0008               	return
  1246  00C9                     __end_of_ConfigureOscillator:	
  1247                           
  1248                           	psect	intentry
  1249  0004                     __pintentry:	
  1250 ;; *************** function _isr *****************
  1251 ;; Defined at:
  1252 ;;		line 21 in file "interrupts.c"
  1253 ;; Parameters:    Size  Location     Type
  1254 ;;		None
  1255 ;; Auto vars:     Size  Location     Type
  1256 ;;		None
  1257 ;; Return value:  Size  Location     Type
  1258 ;;		None               void
  1259 ;; Registers used:
  1260 ;;		wreg, status,2, status,0, btemp+1
  1261 ;; Tracked objects:
  1262 ;;		On entry : 0/0
  1263 ;;		On exit  : 0/0
  1264 ;;		Unchanged: 0/0
  1265 ;; Data sizes:     COMMON   BANK0   BANK1   BANK2
  1266 ;;      Params:         0       0       0       0
  1267 ;;      Locals:         0       0       0       0
  1268 ;;      Temps:          3       0       0       0
  1269 ;;      Totals:         3       0       0       0
  1270 ;;Total ram usage:        3 bytes
  1271 ;; Hardware stack levels used:    1
  1272 ;; This function calls:
  1273 ;;		Nothing
  1274 ;; This function is called by:
  1275 ;;		Interrupt level 1
  1276 ;; This function uses a non-reentrant model
  1277 ;;
  1278                           
  1279  0004                     _isr:	
  1280                           
  1281                           ;incstack = 0
  1282                           ; Regs used in _isr: [wreg+status,2+status,0+btemp+1]
  1283  0004  3180               	pagesel	$
  1284  0005  0020               	movlb	0	; select bank0
  1285  0006  087F               	movf	127,w
  1286  0007  00F8               	movwf	??_isr+2
  1287                           
  1288                           ;interrupts.c: 22: if(PIR1bits.TMR1IF){
  1289  0008  1C11               	btfss	17,0	;volatile
  1290  0009  2811               	goto	i1l590
  1291                           
  1292                           ;interrupts.c: 23: timer_1ms=1;
  1293  000A  01F4               	clrf	_timer_1ms
  1294  000B  0AF4               	incf	_timer_1ms,f
  1295                           
  1296                           ;interrupts.c: 24: TMR1H=0xF8;
  1297  000C  30F8               	movlw	248
  1298  000D  0097               	movwf	23	;volatile
  1299                           
  1300                           ;interrupts.c: 25: TMR1L=0x80;
  1301  000E  3080               	movlw	128
  1302  000F  0096               	movwf	22	;volatile
  1303                           
  1304                           ;interrupts.c: 26: PIR1bits.TMR1IF = 0;
  1305  0010  1011               	bcf	17,0	;volatile
  1306  0011                     i1l590:	
  1307                           
  1308                           ;interrupts.c: 27: }
  1309                           ;interrupts.c: 29: if(PIR1bits.ADIF){
  1310  0011  1F11               	btfss	17,6	;volatile
  1311  0012  282C               	goto	i1l19
  1312                           
  1313                           ;interrupts.c: 30: adc_buffer = ADRESH<<2 + ADRESL>>6;
  1314  0013  0021               	movlb	1	; select bank1
  1315  0014  081C               	movf	28,w	;volatile
  1316  0015  00F6               	movwf	??_isr
  1317  0016  01F7               	clrf	??_isr+1
  1318  0017  081B               	movf	27,w	;volatile
  1319  0018  3E02               	addlw	2
  1320  0019  0A89               	incf	9,f
  1321  001A  281D               	goto	u3_24
  1322  001B                     u3_25:	
  1323  001B  35F6               	lslf	??_isr,f
  1324  001C  0DF7               	rlf	??_isr+1,f
  1325  001D                     u3_24:	
  1326  001D  0B89               	decfsz	9,f
  1327  001E  281B               	goto	u3_25
  1328  001F  3006               	movlw	6
  1329  0020  00FF               	movwf	127
  1330  0021                     u4_25:	
  1331  0021  0D77               	rlf	??_isr+1,w
  1332  0022  0CF7               	rrf	??_isr+1,f
  1333  0023  0CF6               	rrf	??_isr,f
  1334  0024  0BFF               	decfsz	127,f
  1335  0025  2821               	goto	u4_25
  1336  0026  0876               	movf	??_isr,w
  1337  0027  00F0               	movwf	_adc_buffer
  1338  0028  0877               	movf	??_isr+1,w
  1339  0029  00F1               	movwf	_adc_buffer+1
  1340                           
  1341                           ;interrupts.c: 31: PIR1bits.ADIF = 0;
  1342  002A  0020               	movlb	0	; select bank0
  1343  002B  1311               	bcf	17,6	;volatile
  1344  002C                     i1l19:	
  1345  002C  0878               	movf	??_isr+2,w
  1346  002D  00FF               	movwf	127
  1347  002E  0009               	retfie
  1348  002F                     __end_of_isr:	
  1349  007E                     btemp	set	126	;btemp
  1350  007E                     wtemp0	set	126


Data Sizes:
    Strings     0
    Constant    0
    Data        6
    BSS         6
    Persistent  0
    Stack       0

Auto Spaces:
    Space          Size  Autos    Used
    COMMON           14      3      11
    BANK0            80      2       6
    BANK1            80      0       0
    BANK2            80      0       0

Pointer List with Targets:

    None.

Critical Paths under _main in COMMON

    None.

Critical Paths under _isr in COMMON

    None.

Critical Paths under _main in BANK0

    _main->_read_adc

Critical Paths under _isr in BANK0

    None.

Critical Paths under _main in BANK1

    None.

Critical Paths under _isr in BANK1

    None.

Critical Paths under _main in BANK2

    None.

Critical Paths under _isr in BANK2

    None.

Call Graph Tables:

 ---------------------------------------------------------------------------------
 (Depth) Function   	        Calls       Base Space   Used Autos Params    Refs
 ---------------------------------------------------------------------------------
 (0) _main                                                 1     1      0      44
                                              1 BANK0      1     1      0
                _ConfigureOscillator
                            _InitApp
                           _read_adc
 ---------------------------------------------------------------------------------
 (1) _read_adc                                             1     1      0      44
                                              0 BANK0      1     1      0
 ---------------------------------------------------------------------------------
 (1) _InitApp                                              0     0      0       0
 ---------------------------------------------------------------------------------
 (1) _ConfigureOscillator                                  0     0      0       0
 ---------------------------------------------------------------------------------
 Estimated maximum stack depth 1
 ---------------------------------------------------------------------------------
 (Depth) Function   	        Calls       Base Space   Used Autos Params    Refs
 ---------------------------------------------------------------------------------
 (2) _isr                                                  3     3      0       0
                                              0 COMMON     3     3      0
 ---------------------------------------------------------------------------------
 Estimated maximum stack depth 2
 ---------------------------------------------------------------------------------

 Call Graph Graphs:

 _main (ROOT)
   _ConfigureOscillator
   _InitApp
   _read_adc

 _isr (ROOT)

 Address spaces:
Name               Size   Autos  Total    Cost      Usage
BIGRAM              F0      0       0       0        0.0%
EEDATA             100      0       0       0        0.0%
NULL                 0      0       0       0        0.0%
CODE                 0      0       0       0        0.0%
BITCOMMON            E      0       0       1        0.0%
BITSFR0              0      0       0       1        0.0%
SFR0                 0      0       0       1        0.0%
COMMON               E      3       B       2       78.6%
BITSFR1              0      0       0       2        0.0%
SFR1                 0      0       0       2        0.0%
BITSFR2              0      0       0       3        0.0%
SFR2                 0      0       0       3        0.0%
STACK                0      0       1       3        0.0%
BITSFR3              0      0       0       4        0.0%
SFR3                 0      0       0       4        0.0%
ABS                  0      0      11       4        0.0%
BITBANK0            50      0       0       5        0.0%
BITSFR4              0      0       0       5        0.0%
SFR4                 0      0       0       5        0.0%
BANK0               50      2       6       6        7.5%
BITSFR5              0      0       0       6        0.0%
SFR5                 0      0       0       6        0.0%
BITBANK1            50      0       0       7        0.0%
BITSFR6              0      0       0       7        0.0%
SFR6                 0      0       0       7        0.0%
BANK1               50      0       0       8        0.0%
BITSFR7              0      0       0       8        0.0%
SFR7                 0      0       0       8        0.0%
BITBANK2            50      0       0       9        0.0%
BITSFR8              0      0       0       9        0.0%
SFR8                 0      0       0       9        0.0%
BANK2               50      0       0      10        0.0%
BITSFR9              0      0       0      10        0.0%
SFR9                 0      0       0      10        0.0%
BITSFR10             0      0       0      11        0.0%
SFR10                0      0       0      11        0.0%
DATA                 0      0      12      11        0.0%
BITSFR11             0      0       0      12        0.0%
SFR11                0      0       0      12        0.0%
BITSFR12             0      0       0      13        0.0%
SFR12                0      0       0      13        0.0%
BITSFR13             0      0       0      14        0.0%
SFR13                0      0       0      14        0.0%
BITSFR14             0      0       0      15        0.0%
SFR14                0      0       0      15        0.0%
BITSFR15             0      0       0      16        0.0%
SFR15                0      0       0      16        0.0%
BITSFR16             0      0       0      17        0.0%
SFR16                0      0       0      17        0.0%
BITSFR17             0      0       0      18        0.0%
SFR17                0      0       0      18        0.0%
BITSFR18             0      0       0      19        0.0%
SFR18                0      0       0      19        0.0%
BITSFR19             0      0       0      20        0.0%
SFR19                0      0       0      20        0.0%
BITSFR20             0      0       0      21        0.0%
SFR20                0      0       0      21        0.0%
BITSFR21             0      0       0      22        0.0%
SFR21                0      0       0      22        0.0%
BITSFR22             0      0       0      23        0.0%
SFR22                0      0       0      23        0.0%
BITSFR23             0      0       0      24        0.0%
SFR23                0      0       0      24        0.0%
BITSFR24             0      0       0      25        0.0%
SFR24                0      0       0      25        0.0%
BITSFR25             0      0       0      26        0.0%
SFR25                0      0       0      26        0.0%
BITSFR26             0      0       0      27        0.0%
SFR26                0      0       0      27        0.0%
BITSFR27             0      0       0      28        0.0%
SFR27                0      0       0      28        0.0%
BITSFR28             0      0       0      29        0.0%
SFR28                0      0       0      29        0.0%
BITSFR29             0      0       0      30        0.0%
SFR29                0      0       0      30        0.0%
BITSFR30             0      0       0      31        0.0%
SFR30                0      0       0      31        0.0%
BITSFR31             0      0       0      32        0.0%
SFR31                0      0       0      32        0.0%


Microchip Technology PIC Macro Assembler V1.20 build 52243 
Symbol Table                                                                                   Tue Oct 08 08:21:53 2013

                 __CFG_CP$OFF 0000                            l64 0037                           l712 0042  
                         l732 0062                           l724 0056                           l742 0098  
                         l746 00A4                           _RA0 0060                           _RA2 0062  
                         _RA4 0064                           _RC2 0072                           _RC3 0073  
                         _RC4 0074                           _RC5 0075                  __CFG_CPD$OFF 0000  
                         _isr 0004                  __CFG_BORV$LO 0000                           wreg 0009  
                __CFG_IESO$ON 0000                  __CFG_LVP$OFF 0000                          ?_isr 0076  
                        _LATA 010C                          _LATC 010E                          i1l19 002C  
                        _VTH0 0079                          _VTH1 0020                          _VTH2 0022  
                        u3_24 001D                          u3_25 001B                          u4_25 0021  
                __CFG_WRT$OFF 0000                 __CFG_FCMEN$ON 0000                          _main 0031  
                        btemp 007E                 __CFG_BOREN$ON 0000                          start 002F  
               __CFG_FOSC$ECH 0000                 __CFG_MCLRE$ON 0000               __end_of_InitApp 00C2  
                       ??_isr 0076                 __CFG_PLLEN$ON 0000                         ?_main 0076  
               __CFG_WDTE$OFF 0000                         _T1CON 0018                         i1l590 0011  
                       _TMR1H 0017                         _TMR1L 0016                         _PORTA 000C  
                       _PORTC 000E                         _TRISA 008C                         _TRISC 008E  
         _ConfigureOscillator 00C6                         wtemp0 007E          ?_ConfigureOscillator 0076  
             __initialization 006B                  __end_of_main 006B                        ??_main 0025  
                      _ADCON0 009D                        _ADRESH 009C                        _ADRESL 009B  
                      _ANSELA 018C                        _ANSELC 018E                        _OSCCON 0099  
                   ??_InitApp 0079         ??_ConfigureOscillator 0079                __CFG_PWRTE$OFF 0000  
              __CFG_STVREN$ON 0000              __end_of_read_adc 00A7                  __pdataCOMMON 0079  
     __end_of__initialization 0088                __pcstackCOMMON 0076                  __pidataBANK0 00C2  
                  _adc_buffer 0070                    __pmaintext 0031                    __pintentry 0004  
                   ?_read_adc 0076                       _InitApp 00A7                       __ptext1 008B  
                     __ptext2 00A7                       __ptext3 00C6                  __size_of_isr 002B  
        end_of_initialization 0088                    ??_read_adc 0079                    _timer_10ms 0073  
 __end_of_ConfigureOscillator 00C9                 __pidataCOMMON 00C9           start_initialization 006B  
                 __end_of_isr 002F                   __pdataBANK0 0020                   __pbssCOMMON 0070  
               __pcstackBANK0 0024                      ?_InitApp 0076             __size_of_read_adc 001C  
                    _PIE1bits 0091                      _PIR1bits 0011                     _timer_1ms 0074  
                  _ADCON0bits 009D              __size_of_InitApp 001B                      _read_adc 008B  
               __size_of_main 003A  __size_of_ConfigureOscillator 0003                      _timer_1s 0075  
               read_adc@input 0024                    _INTCONbits 000B                      intlevel1 0000  
           __CFG_CLKOUTEN$OFF 0000                   _timer_100ms 0072  
